   1              		.cpu cortex-m4
   2              		.eabi_attribute 27, 1
   3              		.eabi_attribute 20, 1
   4              		.eabi_attribute 21, 1
   5              		.eabi_attribute 23, 3
   6              		.eabi_attribute 24, 1
   7              		.eabi_attribute 25, 1
   8              		.eabi_attribute 26, 1
   9              		.eabi_attribute 30, 4
  10              		.eabi_attribute 34, 1
  11              		.eabi_attribute 18, 4
  12              		.file	"stm32f4xx_rcc.c"
  13              		.text
  14              	.Ltext0:
  15              		.cfi_sections	.debug_frame
  16              		.align	1
  17              		.global	RCC_DeInit
  18              		.syntax unified
  19              		.thumb
  20              		.thumb_func
  21              		.fpu fpv4-sp-d16
  23              	RCC_DeInit:
  24              	.LFB110:
  25              		.file 1 "../STLibs//STM32F4xx_DSP_StdPeriph_Lib_V1.0.1/Libraries/STM32F4xx_StdPeriph_Driver/src/st
   1:../STLibs//STM32F4xx_DSP_StdPeriph_Lib_V1.0.1/Libraries/STM32F4xx_StdPeriph_Driver/src/stm32f4xx_rcc.c **** /**
   2:../STLibs//STM32F4xx_DSP_StdPeriph_Lib_V1.0.1/Libraries/STM32F4xx_StdPeriph_Driver/src/stm32f4xx_rcc.c ****   ******************************************************************************
   3:../STLibs//STM32F4xx_DSP_StdPeriph_Lib_V1.0.1/Libraries/STM32F4xx_StdPeriph_Driver/src/stm32f4xx_rcc.c ****   * @file    stm32f4xx_rcc.c
   4:../STLibs//STM32F4xx_DSP_StdPeriph_Lib_V1.0.1/Libraries/STM32F4xx_StdPeriph_Driver/src/stm32f4xx_rcc.c ****   * @author  MCD Application Team
   5:../STLibs//STM32F4xx_DSP_StdPeriph_Lib_V1.0.1/Libraries/STM32F4xx_StdPeriph_Driver/src/stm32f4xx_rcc.c ****   * @version V1.0.2
   6:../STLibs//STM32F4xx_DSP_StdPeriph_Lib_V1.0.1/Libraries/STM32F4xx_StdPeriph_Driver/src/stm32f4xx_rcc.c ****   * @date    05-March-2012
   7:../STLibs//STM32F4xx_DSP_StdPeriph_Lib_V1.0.1/Libraries/STM32F4xx_StdPeriph_Driver/src/stm32f4xx_rcc.c ****   * @brief   This file provides firmware functions to manage the following 
   8:../STLibs//STM32F4xx_DSP_StdPeriph_Lib_V1.0.1/Libraries/STM32F4xx_StdPeriph_Driver/src/stm32f4xx_rcc.c ****   *          functionalities of the Reset and clock control (RCC) peripheral:
   9:../STLibs//STM32F4xx_DSP_StdPeriph_Lib_V1.0.1/Libraries/STM32F4xx_StdPeriph_Driver/src/stm32f4xx_rcc.c ****   *           - Internal/external clocks, PLL, CSS and MCO configuration
  10:../STLibs//STM32F4xx_DSP_StdPeriph_Lib_V1.0.1/Libraries/STM32F4xx_StdPeriph_Driver/src/stm32f4xx_rcc.c ****   *           - System, AHB and APB busses clocks configuration
  11:../STLibs//STM32F4xx_DSP_StdPeriph_Lib_V1.0.1/Libraries/STM32F4xx_StdPeriph_Driver/src/stm32f4xx_rcc.c ****   *           - Peripheral clocks configuration
  12:../STLibs//STM32F4xx_DSP_StdPeriph_Lib_V1.0.1/Libraries/STM32F4xx_StdPeriph_Driver/src/stm32f4xx_rcc.c ****   *           - Interrupts and flags management
  13:../STLibs//STM32F4xx_DSP_StdPeriph_Lib_V1.0.1/Libraries/STM32F4xx_StdPeriph_Driver/src/stm32f4xx_rcc.c ****   *
  14:../STLibs//STM32F4xx_DSP_StdPeriph_Lib_V1.0.1/Libraries/STM32F4xx_StdPeriph_Driver/src/stm32f4xx_rcc.c ****   *  @verbatim
  15:../STLibs//STM32F4xx_DSP_StdPeriph_Lib_V1.0.1/Libraries/STM32F4xx_StdPeriph_Driver/src/stm32f4xx_rcc.c ****   *               
  16:../STLibs//STM32F4xx_DSP_StdPeriph_Lib_V1.0.1/Libraries/STM32F4xx_StdPeriph_Driver/src/stm32f4xx_rcc.c ****   *          ===================================================================
  17:../STLibs//STM32F4xx_DSP_StdPeriph_Lib_V1.0.1/Libraries/STM32F4xx_StdPeriph_Driver/src/stm32f4xx_rcc.c ****   *                               RCC specific features
  18:../STLibs//STM32F4xx_DSP_StdPeriph_Lib_V1.0.1/Libraries/STM32F4xx_StdPeriph_Driver/src/stm32f4xx_rcc.c ****   *          ===================================================================
  19:../STLibs//STM32F4xx_DSP_StdPeriph_Lib_V1.0.1/Libraries/STM32F4xx_StdPeriph_Driver/src/stm32f4xx_rcc.c ****   *    
  20:../STLibs//STM32F4xx_DSP_StdPeriph_Lib_V1.0.1/Libraries/STM32F4xx_StdPeriph_Driver/src/stm32f4xx_rcc.c ****   *          After reset the device is running from Internal High Speed oscillator 
  21:../STLibs//STM32F4xx_DSP_StdPeriph_Lib_V1.0.1/Libraries/STM32F4xx_StdPeriph_Driver/src/stm32f4xx_rcc.c ****   *          (HSI 16MHz) with Flash 0 wait state, Flash prefetch buffer, D-Cache 
  22:../STLibs//STM32F4xx_DSP_StdPeriph_Lib_V1.0.1/Libraries/STM32F4xx_StdPeriph_Driver/src/stm32f4xx_rcc.c ****   *          and I-Cache are disabled, and all peripherals are off except internal
  23:../STLibs//STM32F4xx_DSP_StdPeriph_Lib_V1.0.1/Libraries/STM32F4xx_StdPeriph_Driver/src/stm32f4xx_rcc.c ****   *          SRAM, Flash and JTAG.
  24:../STLibs//STM32F4xx_DSP_StdPeriph_Lib_V1.0.1/Libraries/STM32F4xx_StdPeriph_Driver/src/stm32f4xx_rcc.c ****   *           - There is no prescaler on High speed (AHB) and Low speed (APB) busses;
  25:../STLibs//STM32F4xx_DSP_StdPeriph_Lib_V1.0.1/Libraries/STM32F4xx_StdPeriph_Driver/src/stm32f4xx_rcc.c ****   *             all peripherals mapped on these busses are running at HSI speed.
  26:../STLibs//STM32F4xx_DSP_StdPeriph_Lib_V1.0.1/Libraries/STM32F4xx_StdPeriph_Driver/src/stm32f4xx_rcc.c ****   *       	  - The clock for all peripherals is switched off, except the SRAM and FLASH.
  27:../STLibs//STM32F4xx_DSP_StdPeriph_Lib_V1.0.1/Libraries/STM32F4xx_StdPeriph_Driver/src/stm32f4xx_rcc.c ****   *           - All GPIOs are in input floating state, except the JTAG pins which
  28:../STLibs//STM32F4xx_DSP_StdPeriph_Lib_V1.0.1/Libraries/STM32F4xx_StdPeriph_Driver/src/stm32f4xx_rcc.c ****   *             are assigned to be used for debug purpose.
  29:../STLibs//STM32F4xx_DSP_StdPeriph_Lib_V1.0.1/Libraries/STM32F4xx_StdPeriph_Driver/src/stm32f4xx_rcc.c ****   *        
  30:../STLibs//STM32F4xx_DSP_StdPeriph_Lib_V1.0.1/Libraries/STM32F4xx_StdPeriph_Driver/src/stm32f4xx_rcc.c ****   *          Once the device started from reset, the user application has to:        
  31:../STLibs//STM32F4xx_DSP_StdPeriph_Lib_V1.0.1/Libraries/STM32F4xx_StdPeriph_Driver/src/stm32f4xx_rcc.c ****   *           - Configure the clock source to be used to drive the System clock
  32:../STLibs//STM32F4xx_DSP_StdPeriph_Lib_V1.0.1/Libraries/STM32F4xx_StdPeriph_Driver/src/stm32f4xx_rcc.c ****   *             (if the application needs higher frequency/performance)
  33:../STLibs//STM32F4xx_DSP_StdPeriph_Lib_V1.0.1/Libraries/STM32F4xx_StdPeriph_Driver/src/stm32f4xx_rcc.c ****   *           - Configure the System clock frequency and Flash settings  
  34:../STLibs//STM32F4xx_DSP_StdPeriph_Lib_V1.0.1/Libraries/STM32F4xx_StdPeriph_Driver/src/stm32f4xx_rcc.c ****   *           - Configure the AHB and APB busses prescalers
  35:../STLibs//STM32F4xx_DSP_StdPeriph_Lib_V1.0.1/Libraries/STM32F4xx_StdPeriph_Driver/src/stm32f4xx_rcc.c ****   *           - Enable the clock for the peripheral(s) to be used
  36:../STLibs//STM32F4xx_DSP_StdPeriph_Lib_V1.0.1/Libraries/STM32F4xx_StdPeriph_Driver/src/stm32f4xx_rcc.c ****   *           - Configure the clock source(s) for peripherals which clocks are not
  37:../STLibs//STM32F4xx_DSP_StdPeriph_Lib_V1.0.1/Libraries/STM32F4xx_StdPeriph_Driver/src/stm32f4xx_rcc.c ****   *             derived from the System clock (I2S, RTC, ADC, USB OTG FS/SDIO/RNG)      
  38:../STLibs//STM32F4xx_DSP_StdPeriph_Lib_V1.0.1/Libraries/STM32F4xx_StdPeriph_Driver/src/stm32f4xx_rcc.c ****   *                        
  39:../STLibs//STM32F4xx_DSP_StdPeriph_Lib_V1.0.1/Libraries/STM32F4xx_StdPeriph_Driver/src/stm32f4xx_rcc.c ****   *  @endverbatim
  40:../STLibs//STM32F4xx_DSP_StdPeriph_Lib_V1.0.1/Libraries/STM32F4xx_StdPeriph_Driver/src/stm32f4xx_rcc.c ****   *    
  41:../STLibs//STM32F4xx_DSP_StdPeriph_Lib_V1.0.1/Libraries/STM32F4xx_StdPeriph_Driver/src/stm32f4xx_rcc.c ****   ******************************************************************************
  42:../STLibs//STM32F4xx_DSP_StdPeriph_Lib_V1.0.1/Libraries/STM32F4xx_StdPeriph_Driver/src/stm32f4xx_rcc.c ****   * @attention
  43:../STLibs//STM32F4xx_DSP_StdPeriph_Lib_V1.0.1/Libraries/STM32F4xx_StdPeriph_Driver/src/stm32f4xx_rcc.c ****   *
  44:../STLibs//STM32F4xx_DSP_StdPeriph_Lib_V1.0.1/Libraries/STM32F4xx_StdPeriph_Driver/src/stm32f4xx_rcc.c ****   * <h2><center>&copy; COPYRIGHT 2012 STMicroelectronics</center></h2>
  45:../STLibs//STM32F4xx_DSP_StdPeriph_Lib_V1.0.1/Libraries/STM32F4xx_StdPeriph_Driver/src/stm32f4xx_rcc.c ****   *
  46:../STLibs//STM32F4xx_DSP_StdPeriph_Lib_V1.0.1/Libraries/STM32F4xx_StdPeriph_Driver/src/stm32f4xx_rcc.c ****   * Licensed under MCD-ST Liberty SW License Agreement V2, (the "License");
  47:../STLibs//STM32F4xx_DSP_StdPeriph_Lib_V1.0.1/Libraries/STM32F4xx_StdPeriph_Driver/src/stm32f4xx_rcc.c ****   * You may not use this file except in compliance with the License.
  48:../STLibs//STM32F4xx_DSP_StdPeriph_Lib_V1.0.1/Libraries/STM32F4xx_StdPeriph_Driver/src/stm32f4xx_rcc.c ****   * You may obtain a copy of the License at:
  49:../STLibs//STM32F4xx_DSP_StdPeriph_Lib_V1.0.1/Libraries/STM32F4xx_StdPeriph_Driver/src/stm32f4xx_rcc.c ****   *
  50:../STLibs//STM32F4xx_DSP_StdPeriph_Lib_V1.0.1/Libraries/STM32F4xx_StdPeriph_Driver/src/stm32f4xx_rcc.c ****   *        http://www.st.com/software_license_agreement_liberty_v2
  51:../STLibs//STM32F4xx_DSP_StdPeriph_Lib_V1.0.1/Libraries/STM32F4xx_StdPeriph_Driver/src/stm32f4xx_rcc.c ****   *
  52:../STLibs//STM32F4xx_DSP_StdPeriph_Lib_V1.0.1/Libraries/STM32F4xx_StdPeriph_Driver/src/stm32f4xx_rcc.c ****   * Unless required by applicable law or agreed to in writing, software 
  53:../STLibs//STM32F4xx_DSP_StdPeriph_Lib_V1.0.1/Libraries/STM32F4xx_StdPeriph_Driver/src/stm32f4xx_rcc.c ****   * distributed under the License is distributed on an "AS IS" BASIS, 
  54:../STLibs//STM32F4xx_DSP_StdPeriph_Lib_V1.0.1/Libraries/STM32F4xx_StdPeriph_Driver/src/stm32f4xx_rcc.c ****   * WITHOUT WARRANTIES OR CONDITIONS OF ANY KIND, either express or implied.
  55:../STLibs//STM32F4xx_DSP_StdPeriph_Lib_V1.0.1/Libraries/STM32F4xx_StdPeriph_Driver/src/stm32f4xx_rcc.c ****   * See the License for the specific language governing permissions and
  56:../STLibs//STM32F4xx_DSP_StdPeriph_Lib_V1.0.1/Libraries/STM32F4xx_StdPeriph_Driver/src/stm32f4xx_rcc.c ****   * limitations under the License.
  57:../STLibs//STM32F4xx_DSP_StdPeriph_Lib_V1.0.1/Libraries/STM32F4xx_StdPeriph_Driver/src/stm32f4xx_rcc.c ****   *
  58:../STLibs//STM32F4xx_DSP_StdPeriph_Lib_V1.0.1/Libraries/STM32F4xx_StdPeriph_Driver/src/stm32f4xx_rcc.c ****   ******************************************************************************
  59:../STLibs//STM32F4xx_DSP_StdPeriph_Lib_V1.0.1/Libraries/STM32F4xx_StdPeriph_Driver/src/stm32f4xx_rcc.c ****   */
  60:../STLibs//STM32F4xx_DSP_StdPeriph_Lib_V1.0.1/Libraries/STM32F4xx_StdPeriph_Driver/src/stm32f4xx_rcc.c **** 
  61:../STLibs//STM32F4xx_DSP_StdPeriph_Lib_V1.0.1/Libraries/STM32F4xx_StdPeriph_Driver/src/stm32f4xx_rcc.c **** /* Includes ------------------------------------------------------------------*/
  62:../STLibs//STM32F4xx_DSP_StdPeriph_Lib_V1.0.1/Libraries/STM32F4xx_StdPeriph_Driver/src/stm32f4xx_rcc.c **** #include "stm32f4xx_rcc.h"
  63:../STLibs//STM32F4xx_DSP_StdPeriph_Lib_V1.0.1/Libraries/STM32F4xx_StdPeriph_Driver/src/stm32f4xx_rcc.c **** 
  64:../STLibs//STM32F4xx_DSP_StdPeriph_Lib_V1.0.1/Libraries/STM32F4xx_StdPeriph_Driver/src/stm32f4xx_rcc.c **** /** @addtogroup STM32F4xx_StdPeriph_Driver
  65:../STLibs//STM32F4xx_DSP_StdPeriph_Lib_V1.0.1/Libraries/STM32F4xx_StdPeriph_Driver/src/stm32f4xx_rcc.c ****   * @{
  66:../STLibs//STM32F4xx_DSP_StdPeriph_Lib_V1.0.1/Libraries/STM32F4xx_StdPeriph_Driver/src/stm32f4xx_rcc.c ****   */
  67:../STLibs//STM32F4xx_DSP_StdPeriph_Lib_V1.0.1/Libraries/STM32F4xx_StdPeriph_Driver/src/stm32f4xx_rcc.c **** 
  68:../STLibs//STM32F4xx_DSP_StdPeriph_Lib_V1.0.1/Libraries/STM32F4xx_StdPeriph_Driver/src/stm32f4xx_rcc.c **** /** @defgroup RCC 
  69:../STLibs//STM32F4xx_DSP_StdPeriph_Lib_V1.0.1/Libraries/STM32F4xx_StdPeriph_Driver/src/stm32f4xx_rcc.c ****   * @brief RCC driver modules
  70:../STLibs//STM32F4xx_DSP_StdPeriph_Lib_V1.0.1/Libraries/STM32F4xx_StdPeriph_Driver/src/stm32f4xx_rcc.c ****   * @{
  71:../STLibs//STM32F4xx_DSP_StdPeriph_Lib_V1.0.1/Libraries/STM32F4xx_StdPeriph_Driver/src/stm32f4xx_rcc.c ****   */ 
  72:../STLibs//STM32F4xx_DSP_StdPeriph_Lib_V1.0.1/Libraries/STM32F4xx_StdPeriph_Driver/src/stm32f4xx_rcc.c **** 
  73:../STLibs//STM32F4xx_DSP_StdPeriph_Lib_V1.0.1/Libraries/STM32F4xx_StdPeriph_Driver/src/stm32f4xx_rcc.c **** /* Private typedef -----------------------------------------------------------*/
  74:../STLibs//STM32F4xx_DSP_StdPeriph_Lib_V1.0.1/Libraries/STM32F4xx_StdPeriph_Driver/src/stm32f4xx_rcc.c **** /* Private define ------------------------------------------------------------*/
  75:../STLibs//STM32F4xx_DSP_StdPeriph_Lib_V1.0.1/Libraries/STM32F4xx_StdPeriph_Driver/src/stm32f4xx_rcc.c **** /* ------------ RCC registers bit address in the alias region ----------- */
  76:../STLibs//STM32F4xx_DSP_StdPeriph_Lib_V1.0.1/Libraries/STM32F4xx_StdPeriph_Driver/src/stm32f4xx_rcc.c **** #define RCC_OFFSET                (RCC_BASE - PERIPH_BASE)
  77:../STLibs//STM32F4xx_DSP_StdPeriph_Lib_V1.0.1/Libraries/STM32F4xx_StdPeriph_Driver/src/stm32f4xx_rcc.c **** /* --- CR Register ---*/
  78:../STLibs//STM32F4xx_DSP_StdPeriph_Lib_V1.0.1/Libraries/STM32F4xx_StdPeriph_Driver/src/stm32f4xx_rcc.c **** /* Alias word address of HSION bit */
  79:../STLibs//STM32F4xx_DSP_StdPeriph_Lib_V1.0.1/Libraries/STM32F4xx_StdPeriph_Driver/src/stm32f4xx_rcc.c **** #define CR_OFFSET                 (RCC_OFFSET + 0x00)
  80:../STLibs//STM32F4xx_DSP_StdPeriph_Lib_V1.0.1/Libraries/STM32F4xx_StdPeriph_Driver/src/stm32f4xx_rcc.c **** #define HSION_BitNumber           0x00
  81:../STLibs//STM32F4xx_DSP_StdPeriph_Lib_V1.0.1/Libraries/STM32F4xx_StdPeriph_Driver/src/stm32f4xx_rcc.c **** #define CR_HSION_BB               (PERIPH_BB_BASE + (CR_OFFSET * 32) + (HSION_BitNumber * 4))
  82:../STLibs//STM32F4xx_DSP_StdPeriph_Lib_V1.0.1/Libraries/STM32F4xx_StdPeriph_Driver/src/stm32f4xx_rcc.c **** /* Alias word address of CSSON bit */
  83:../STLibs//STM32F4xx_DSP_StdPeriph_Lib_V1.0.1/Libraries/STM32F4xx_StdPeriph_Driver/src/stm32f4xx_rcc.c **** #define CSSON_BitNumber           0x13
  84:../STLibs//STM32F4xx_DSP_StdPeriph_Lib_V1.0.1/Libraries/STM32F4xx_StdPeriph_Driver/src/stm32f4xx_rcc.c **** #define CR_CSSON_BB               (PERIPH_BB_BASE + (CR_OFFSET * 32) + (CSSON_BitNumber * 4))
  85:../STLibs//STM32F4xx_DSP_StdPeriph_Lib_V1.0.1/Libraries/STM32F4xx_StdPeriph_Driver/src/stm32f4xx_rcc.c **** /* Alias word address of PLLON bit */
  86:../STLibs//STM32F4xx_DSP_StdPeriph_Lib_V1.0.1/Libraries/STM32F4xx_StdPeriph_Driver/src/stm32f4xx_rcc.c **** #define PLLON_BitNumber           0x18
  87:../STLibs//STM32F4xx_DSP_StdPeriph_Lib_V1.0.1/Libraries/STM32F4xx_StdPeriph_Driver/src/stm32f4xx_rcc.c **** #define CR_PLLON_BB               (PERIPH_BB_BASE + (CR_OFFSET * 32) + (PLLON_BitNumber * 4))
  88:../STLibs//STM32F4xx_DSP_StdPeriph_Lib_V1.0.1/Libraries/STM32F4xx_StdPeriph_Driver/src/stm32f4xx_rcc.c **** /* Alias word address of PLLI2SON bit */
  89:../STLibs//STM32F4xx_DSP_StdPeriph_Lib_V1.0.1/Libraries/STM32F4xx_StdPeriph_Driver/src/stm32f4xx_rcc.c **** #define PLLI2SON_BitNumber        0x1A
  90:../STLibs//STM32F4xx_DSP_StdPeriph_Lib_V1.0.1/Libraries/STM32F4xx_StdPeriph_Driver/src/stm32f4xx_rcc.c **** #define CR_PLLI2SON_BB            (PERIPH_BB_BASE + (CR_OFFSET * 32) + (PLLI2SON_BitNumber * 4))
  91:../STLibs//STM32F4xx_DSP_StdPeriph_Lib_V1.0.1/Libraries/STM32F4xx_StdPeriph_Driver/src/stm32f4xx_rcc.c **** 
  92:../STLibs//STM32F4xx_DSP_StdPeriph_Lib_V1.0.1/Libraries/STM32F4xx_StdPeriph_Driver/src/stm32f4xx_rcc.c **** /* --- CFGR Register ---*/
  93:../STLibs//STM32F4xx_DSP_StdPeriph_Lib_V1.0.1/Libraries/STM32F4xx_StdPeriph_Driver/src/stm32f4xx_rcc.c **** /* Alias word address of I2SSRC bit */
  94:../STLibs//STM32F4xx_DSP_StdPeriph_Lib_V1.0.1/Libraries/STM32F4xx_StdPeriph_Driver/src/stm32f4xx_rcc.c **** #define CFGR_OFFSET               (RCC_OFFSET + 0x08)
  95:../STLibs//STM32F4xx_DSP_StdPeriph_Lib_V1.0.1/Libraries/STM32F4xx_StdPeriph_Driver/src/stm32f4xx_rcc.c **** #define I2SSRC_BitNumber          0x17
  96:../STLibs//STM32F4xx_DSP_StdPeriph_Lib_V1.0.1/Libraries/STM32F4xx_StdPeriph_Driver/src/stm32f4xx_rcc.c **** #define CFGR_I2SSRC_BB            (PERIPH_BB_BASE + (CFGR_OFFSET * 32) + (I2SSRC_BitNumber * 4))
  97:../STLibs//STM32F4xx_DSP_StdPeriph_Lib_V1.0.1/Libraries/STM32F4xx_StdPeriph_Driver/src/stm32f4xx_rcc.c **** 
  98:../STLibs//STM32F4xx_DSP_StdPeriph_Lib_V1.0.1/Libraries/STM32F4xx_StdPeriph_Driver/src/stm32f4xx_rcc.c **** /* --- BDCR Register ---*/
  99:../STLibs//STM32F4xx_DSP_StdPeriph_Lib_V1.0.1/Libraries/STM32F4xx_StdPeriph_Driver/src/stm32f4xx_rcc.c **** /* Alias word address of RTCEN bit */
 100:../STLibs//STM32F4xx_DSP_StdPeriph_Lib_V1.0.1/Libraries/STM32F4xx_StdPeriph_Driver/src/stm32f4xx_rcc.c **** #define BDCR_OFFSET               (RCC_OFFSET + 0x70)
 101:../STLibs//STM32F4xx_DSP_StdPeriph_Lib_V1.0.1/Libraries/STM32F4xx_StdPeriph_Driver/src/stm32f4xx_rcc.c **** #define RTCEN_BitNumber           0x0F
 102:../STLibs//STM32F4xx_DSP_StdPeriph_Lib_V1.0.1/Libraries/STM32F4xx_StdPeriph_Driver/src/stm32f4xx_rcc.c **** #define BDCR_RTCEN_BB             (PERIPH_BB_BASE + (BDCR_OFFSET * 32) + (RTCEN_BitNumber * 4))
 103:../STLibs//STM32F4xx_DSP_StdPeriph_Lib_V1.0.1/Libraries/STM32F4xx_StdPeriph_Driver/src/stm32f4xx_rcc.c **** /* Alias word address of BDRST bit */
 104:../STLibs//STM32F4xx_DSP_StdPeriph_Lib_V1.0.1/Libraries/STM32F4xx_StdPeriph_Driver/src/stm32f4xx_rcc.c **** #define BDRST_BitNumber           0x10
 105:../STLibs//STM32F4xx_DSP_StdPeriph_Lib_V1.0.1/Libraries/STM32F4xx_StdPeriph_Driver/src/stm32f4xx_rcc.c **** #define BDCR_BDRST_BB             (PERIPH_BB_BASE + (BDCR_OFFSET * 32) + (BDRST_BitNumber * 4))
 106:../STLibs//STM32F4xx_DSP_StdPeriph_Lib_V1.0.1/Libraries/STM32F4xx_StdPeriph_Driver/src/stm32f4xx_rcc.c **** /* --- CSR Register ---*/
 107:../STLibs//STM32F4xx_DSP_StdPeriph_Lib_V1.0.1/Libraries/STM32F4xx_StdPeriph_Driver/src/stm32f4xx_rcc.c **** /* Alias word address of LSION bit */
 108:../STLibs//STM32F4xx_DSP_StdPeriph_Lib_V1.0.1/Libraries/STM32F4xx_StdPeriph_Driver/src/stm32f4xx_rcc.c **** #define CSR_OFFSET                (RCC_OFFSET + 0x74)
 109:../STLibs//STM32F4xx_DSP_StdPeriph_Lib_V1.0.1/Libraries/STM32F4xx_StdPeriph_Driver/src/stm32f4xx_rcc.c **** #define LSION_BitNumber           0x00
 110:../STLibs//STM32F4xx_DSP_StdPeriph_Lib_V1.0.1/Libraries/STM32F4xx_StdPeriph_Driver/src/stm32f4xx_rcc.c **** #define CSR_LSION_BB              (PERIPH_BB_BASE + (CSR_OFFSET * 32) + (LSION_BitNumber * 4))
 111:../STLibs//STM32F4xx_DSP_StdPeriph_Lib_V1.0.1/Libraries/STM32F4xx_StdPeriph_Driver/src/stm32f4xx_rcc.c **** /* ---------------------- RCC registers bit mask ------------------------ */
 112:../STLibs//STM32F4xx_DSP_StdPeriph_Lib_V1.0.1/Libraries/STM32F4xx_StdPeriph_Driver/src/stm32f4xx_rcc.c **** /* CFGR register bit mask */
 113:../STLibs//STM32F4xx_DSP_StdPeriph_Lib_V1.0.1/Libraries/STM32F4xx_StdPeriph_Driver/src/stm32f4xx_rcc.c **** #define CFGR_MCO2_RESET_MASK      ((uint32_t)0x07FFFFFF)
 114:../STLibs//STM32F4xx_DSP_StdPeriph_Lib_V1.0.1/Libraries/STM32F4xx_StdPeriph_Driver/src/stm32f4xx_rcc.c **** #define CFGR_MCO1_RESET_MASK      ((uint32_t)0xF89FFFFF)
 115:../STLibs//STM32F4xx_DSP_StdPeriph_Lib_V1.0.1/Libraries/STM32F4xx_StdPeriph_Driver/src/stm32f4xx_rcc.c **** 
 116:../STLibs//STM32F4xx_DSP_StdPeriph_Lib_V1.0.1/Libraries/STM32F4xx_StdPeriph_Driver/src/stm32f4xx_rcc.c **** /* RCC Flag Mask */
 117:../STLibs//STM32F4xx_DSP_StdPeriph_Lib_V1.0.1/Libraries/STM32F4xx_StdPeriph_Driver/src/stm32f4xx_rcc.c **** #define FLAG_MASK                 ((uint8_t)0x1F)
 118:../STLibs//STM32F4xx_DSP_StdPeriph_Lib_V1.0.1/Libraries/STM32F4xx_StdPeriph_Driver/src/stm32f4xx_rcc.c **** 
 119:../STLibs//STM32F4xx_DSP_StdPeriph_Lib_V1.0.1/Libraries/STM32F4xx_StdPeriph_Driver/src/stm32f4xx_rcc.c **** /* CR register byte 3 (Bits[23:16]) base address */
 120:../STLibs//STM32F4xx_DSP_StdPeriph_Lib_V1.0.1/Libraries/STM32F4xx_StdPeriph_Driver/src/stm32f4xx_rcc.c **** #define CR_BYTE3_ADDRESS          ((uint32_t)0x40023802)
 121:../STLibs//STM32F4xx_DSP_StdPeriph_Lib_V1.0.1/Libraries/STM32F4xx_StdPeriph_Driver/src/stm32f4xx_rcc.c **** 
 122:../STLibs//STM32F4xx_DSP_StdPeriph_Lib_V1.0.1/Libraries/STM32F4xx_StdPeriph_Driver/src/stm32f4xx_rcc.c **** /* CIR register byte 2 (Bits[15:8]) base address */
 123:../STLibs//STM32F4xx_DSP_StdPeriph_Lib_V1.0.1/Libraries/STM32F4xx_StdPeriph_Driver/src/stm32f4xx_rcc.c **** #define CIR_BYTE2_ADDRESS         ((uint32_t)(RCC_BASE + 0x0C + 0x01))
 124:../STLibs//STM32F4xx_DSP_StdPeriph_Lib_V1.0.1/Libraries/STM32F4xx_StdPeriph_Driver/src/stm32f4xx_rcc.c **** 
 125:../STLibs//STM32F4xx_DSP_StdPeriph_Lib_V1.0.1/Libraries/STM32F4xx_StdPeriph_Driver/src/stm32f4xx_rcc.c **** /* CIR register byte 3 (Bits[23:16]) base address */
 126:../STLibs//STM32F4xx_DSP_StdPeriph_Lib_V1.0.1/Libraries/STM32F4xx_StdPeriph_Driver/src/stm32f4xx_rcc.c **** #define CIR_BYTE3_ADDRESS         ((uint32_t)(RCC_BASE + 0x0C + 0x02))
 127:../STLibs//STM32F4xx_DSP_StdPeriph_Lib_V1.0.1/Libraries/STM32F4xx_StdPeriph_Driver/src/stm32f4xx_rcc.c **** 
 128:../STLibs//STM32F4xx_DSP_StdPeriph_Lib_V1.0.1/Libraries/STM32F4xx_StdPeriph_Driver/src/stm32f4xx_rcc.c **** /* BDCR register base address */
 129:../STLibs//STM32F4xx_DSP_StdPeriph_Lib_V1.0.1/Libraries/STM32F4xx_StdPeriph_Driver/src/stm32f4xx_rcc.c **** #define BDCR_ADDRESS              (PERIPH_BASE + BDCR_OFFSET)
 130:../STLibs//STM32F4xx_DSP_StdPeriph_Lib_V1.0.1/Libraries/STM32F4xx_StdPeriph_Driver/src/stm32f4xx_rcc.c **** 
 131:../STLibs//STM32F4xx_DSP_StdPeriph_Lib_V1.0.1/Libraries/STM32F4xx_StdPeriph_Driver/src/stm32f4xx_rcc.c **** /* Private macro -------------------------------------------------------------*/
 132:../STLibs//STM32F4xx_DSP_StdPeriph_Lib_V1.0.1/Libraries/STM32F4xx_StdPeriph_Driver/src/stm32f4xx_rcc.c **** /* Private variables ---------------------------------------------------------*/
 133:../STLibs//STM32F4xx_DSP_StdPeriph_Lib_V1.0.1/Libraries/STM32F4xx_StdPeriph_Driver/src/stm32f4xx_rcc.c **** static __I uint8_t APBAHBPrescTable[16] = {0, 0, 0, 0, 1, 2, 3, 4, 1, 2, 3, 4, 6, 7, 8, 9};
 134:../STLibs//STM32F4xx_DSP_StdPeriph_Lib_V1.0.1/Libraries/STM32F4xx_StdPeriph_Driver/src/stm32f4xx_rcc.c **** 
 135:../STLibs//STM32F4xx_DSP_StdPeriph_Lib_V1.0.1/Libraries/STM32F4xx_StdPeriph_Driver/src/stm32f4xx_rcc.c **** /* Private function prototypes -----------------------------------------------*/
 136:../STLibs//STM32F4xx_DSP_StdPeriph_Lib_V1.0.1/Libraries/STM32F4xx_StdPeriph_Driver/src/stm32f4xx_rcc.c **** /* Private functions ---------------------------------------------------------*/
 137:../STLibs//STM32F4xx_DSP_StdPeriph_Lib_V1.0.1/Libraries/STM32F4xx_StdPeriph_Driver/src/stm32f4xx_rcc.c **** 
 138:../STLibs//STM32F4xx_DSP_StdPeriph_Lib_V1.0.1/Libraries/STM32F4xx_StdPeriph_Driver/src/stm32f4xx_rcc.c **** /** @defgroup RCC_Private_Functions
 139:../STLibs//STM32F4xx_DSP_StdPeriph_Lib_V1.0.1/Libraries/STM32F4xx_StdPeriph_Driver/src/stm32f4xx_rcc.c ****   * @{
 140:../STLibs//STM32F4xx_DSP_StdPeriph_Lib_V1.0.1/Libraries/STM32F4xx_StdPeriph_Driver/src/stm32f4xx_rcc.c ****   */ 
 141:../STLibs//STM32F4xx_DSP_StdPeriph_Lib_V1.0.1/Libraries/STM32F4xx_StdPeriph_Driver/src/stm32f4xx_rcc.c **** 
 142:../STLibs//STM32F4xx_DSP_StdPeriph_Lib_V1.0.1/Libraries/STM32F4xx_StdPeriph_Driver/src/stm32f4xx_rcc.c **** /** @defgroup RCC_Group1 Internal and external clocks, PLL, CSS and MCO configuration functions
 143:../STLibs//STM32F4xx_DSP_StdPeriph_Lib_V1.0.1/Libraries/STM32F4xx_StdPeriph_Driver/src/stm32f4xx_rcc.c ****  *  @brief   Internal and external clocks, PLL, CSS and MCO configuration functions 
 144:../STLibs//STM32F4xx_DSP_StdPeriph_Lib_V1.0.1/Libraries/STM32F4xx_StdPeriph_Driver/src/stm32f4xx_rcc.c ****  *
 145:../STLibs//STM32F4xx_DSP_StdPeriph_Lib_V1.0.1/Libraries/STM32F4xx_StdPeriph_Driver/src/stm32f4xx_rcc.c **** @verbatim   
 146:../STLibs//STM32F4xx_DSP_StdPeriph_Lib_V1.0.1/Libraries/STM32F4xx_StdPeriph_Driver/src/stm32f4xx_rcc.c ****  ===============================================================================
 147:../STLibs//STM32F4xx_DSP_StdPeriph_Lib_V1.0.1/Libraries/STM32F4xx_StdPeriph_Driver/src/stm32f4xx_rcc.c ****       Internal/external clocks, PLL, CSS and MCO configuration functions
 148:../STLibs//STM32F4xx_DSP_StdPeriph_Lib_V1.0.1/Libraries/STM32F4xx_StdPeriph_Driver/src/stm32f4xx_rcc.c ****  ===============================================================================  
 149:../STLibs//STM32F4xx_DSP_StdPeriph_Lib_V1.0.1/Libraries/STM32F4xx_StdPeriph_Driver/src/stm32f4xx_rcc.c **** 
 150:../STLibs//STM32F4xx_DSP_StdPeriph_Lib_V1.0.1/Libraries/STM32F4xx_StdPeriph_Driver/src/stm32f4xx_rcc.c ****   This section provide functions allowing to configure the internal/external clocks,
 151:../STLibs//STM32F4xx_DSP_StdPeriph_Lib_V1.0.1/Libraries/STM32F4xx_StdPeriph_Driver/src/stm32f4xx_rcc.c ****   PLLs, CSS and MCO pins.
 152:../STLibs//STM32F4xx_DSP_StdPeriph_Lib_V1.0.1/Libraries/STM32F4xx_StdPeriph_Driver/src/stm32f4xx_rcc.c ****   
 153:../STLibs//STM32F4xx_DSP_StdPeriph_Lib_V1.0.1/Libraries/STM32F4xx_StdPeriph_Driver/src/stm32f4xx_rcc.c ****   1. HSI (high-speed internal), 16 MHz factory-trimmed RC used directly or through
 154:../STLibs//STM32F4xx_DSP_StdPeriph_Lib_V1.0.1/Libraries/STM32F4xx_StdPeriph_Driver/src/stm32f4xx_rcc.c ****      the PLL as System clock source.
 155:../STLibs//STM32F4xx_DSP_StdPeriph_Lib_V1.0.1/Libraries/STM32F4xx_StdPeriph_Driver/src/stm32f4xx_rcc.c **** 
 156:../STLibs//STM32F4xx_DSP_StdPeriph_Lib_V1.0.1/Libraries/STM32F4xx_StdPeriph_Driver/src/stm32f4xx_rcc.c ****   2. LSI (low-speed internal), 32 KHz low consumption RC used as IWDG and/or RTC
 157:../STLibs//STM32F4xx_DSP_StdPeriph_Lib_V1.0.1/Libraries/STM32F4xx_StdPeriph_Driver/src/stm32f4xx_rcc.c ****      clock source.
 158:../STLibs//STM32F4xx_DSP_StdPeriph_Lib_V1.0.1/Libraries/STM32F4xx_StdPeriph_Driver/src/stm32f4xx_rcc.c **** 
 159:../STLibs//STM32F4xx_DSP_StdPeriph_Lib_V1.0.1/Libraries/STM32F4xx_StdPeriph_Driver/src/stm32f4xx_rcc.c ****   3. HSE (high-speed external), 4 to 26 MHz crystal oscillator used directly or
 160:../STLibs//STM32F4xx_DSP_StdPeriph_Lib_V1.0.1/Libraries/STM32F4xx_StdPeriph_Driver/src/stm32f4xx_rcc.c ****      through the PLL as System clock source. Can be used also as RTC clock source.
 161:../STLibs//STM32F4xx_DSP_StdPeriph_Lib_V1.0.1/Libraries/STM32F4xx_StdPeriph_Driver/src/stm32f4xx_rcc.c **** 
 162:../STLibs//STM32F4xx_DSP_StdPeriph_Lib_V1.0.1/Libraries/STM32F4xx_StdPeriph_Driver/src/stm32f4xx_rcc.c ****   4. LSE (low-speed external), 32 KHz oscillator used as RTC clock source.   
 163:../STLibs//STM32F4xx_DSP_StdPeriph_Lib_V1.0.1/Libraries/STM32F4xx_StdPeriph_Driver/src/stm32f4xx_rcc.c **** 
 164:../STLibs//STM32F4xx_DSP_StdPeriph_Lib_V1.0.1/Libraries/STM32F4xx_StdPeriph_Driver/src/stm32f4xx_rcc.c ****   5. PLL (clocked by HSI or HSE), featuring two different output clocks:
 165:../STLibs//STM32F4xx_DSP_StdPeriph_Lib_V1.0.1/Libraries/STM32F4xx_StdPeriph_Driver/src/stm32f4xx_rcc.c ****       - The first output is used to generate the high speed system clock (up to 168 MHz)
 166:../STLibs//STM32F4xx_DSP_StdPeriph_Lib_V1.0.1/Libraries/STM32F4xx_StdPeriph_Driver/src/stm32f4xx_rcc.c ****       - The second output is used to generate the clock for the USB OTG FS (48 MHz),
 167:../STLibs//STM32F4xx_DSP_StdPeriph_Lib_V1.0.1/Libraries/STM32F4xx_StdPeriph_Driver/src/stm32f4xx_rcc.c ****         the random analog generator (<=48 MHz) and the SDIO (<= 48 MHz).
 168:../STLibs//STM32F4xx_DSP_StdPeriph_Lib_V1.0.1/Libraries/STM32F4xx_StdPeriph_Driver/src/stm32f4xx_rcc.c **** 
 169:../STLibs//STM32F4xx_DSP_StdPeriph_Lib_V1.0.1/Libraries/STM32F4xx_StdPeriph_Driver/src/stm32f4xx_rcc.c ****   6. PLLI2S (clocked by HSI or HSE), used to generate an accurate clock to achieve 
 170:../STLibs//STM32F4xx_DSP_StdPeriph_Lib_V1.0.1/Libraries/STM32F4xx_StdPeriph_Driver/src/stm32f4xx_rcc.c ****      high-quality audio performance on the I2S interface.
 171:../STLibs//STM32F4xx_DSP_StdPeriph_Lib_V1.0.1/Libraries/STM32F4xx_StdPeriph_Driver/src/stm32f4xx_rcc.c ****   
 172:../STLibs//STM32F4xx_DSP_StdPeriph_Lib_V1.0.1/Libraries/STM32F4xx_StdPeriph_Driver/src/stm32f4xx_rcc.c ****   7. CSS (Clock security system), once enable and if a HSE clock failure occurs 
 173:../STLibs//STM32F4xx_DSP_StdPeriph_Lib_V1.0.1/Libraries/STM32F4xx_StdPeriph_Driver/src/stm32f4xx_rcc.c ****      (HSE used directly or through PLL as System clock source), the System clock
 174:../STLibs//STM32F4xx_DSP_StdPeriph_Lib_V1.0.1/Libraries/STM32F4xx_StdPeriph_Driver/src/stm32f4xx_rcc.c ****      is automatically switched to HSI and an interrupt is generated if enabled. 
 175:../STLibs//STM32F4xx_DSP_StdPeriph_Lib_V1.0.1/Libraries/STM32F4xx_StdPeriph_Driver/src/stm32f4xx_rcc.c ****      The interrupt is linked to the Cortex-M4 NMI (Non-Maskable Interrupt) 
 176:../STLibs//STM32F4xx_DSP_StdPeriph_Lib_V1.0.1/Libraries/STM32F4xx_StdPeriph_Driver/src/stm32f4xx_rcc.c ****      exception vector.   
 177:../STLibs//STM32F4xx_DSP_StdPeriph_Lib_V1.0.1/Libraries/STM32F4xx_StdPeriph_Driver/src/stm32f4xx_rcc.c **** 
 178:../STLibs//STM32F4xx_DSP_StdPeriph_Lib_V1.0.1/Libraries/STM32F4xx_StdPeriph_Driver/src/stm32f4xx_rcc.c ****   8. MCO1 (microcontroller clock output), used to output HSI, LSE, HSE or PLL
 179:../STLibs//STM32F4xx_DSP_StdPeriph_Lib_V1.0.1/Libraries/STM32F4xx_StdPeriph_Driver/src/stm32f4xx_rcc.c ****      clock (through a configurable prescaler) on PA8 pin.
 180:../STLibs//STM32F4xx_DSP_StdPeriph_Lib_V1.0.1/Libraries/STM32F4xx_StdPeriph_Driver/src/stm32f4xx_rcc.c **** 
 181:../STLibs//STM32F4xx_DSP_StdPeriph_Lib_V1.0.1/Libraries/STM32F4xx_StdPeriph_Driver/src/stm32f4xx_rcc.c ****   9. MCO2 (microcontroller clock output), used to output HSE, PLL, SYSCLK or PLLI2S
 182:../STLibs//STM32F4xx_DSP_StdPeriph_Lib_V1.0.1/Libraries/STM32F4xx_StdPeriph_Driver/src/stm32f4xx_rcc.c ****      clock (through a configurable prescaler) on PC9 pin.
 183:../STLibs//STM32F4xx_DSP_StdPeriph_Lib_V1.0.1/Libraries/STM32F4xx_StdPeriph_Driver/src/stm32f4xx_rcc.c **** 
 184:../STLibs//STM32F4xx_DSP_StdPeriph_Lib_V1.0.1/Libraries/STM32F4xx_StdPeriph_Driver/src/stm32f4xx_rcc.c **** @endverbatim
 185:../STLibs//STM32F4xx_DSP_StdPeriph_Lib_V1.0.1/Libraries/STM32F4xx_StdPeriph_Driver/src/stm32f4xx_rcc.c ****   * @{
 186:../STLibs//STM32F4xx_DSP_StdPeriph_Lib_V1.0.1/Libraries/STM32F4xx_StdPeriph_Driver/src/stm32f4xx_rcc.c ****   */
 187:../STLibs//STM32F4xx_DSP_StdPeriph_Lib_V1.0.1/Libraries/STM32F4xx_StdPeriph_Driver/src/stm32f4xx_rcc.c **** 
 188:../STLibs//STM32F4xx_DSP_StdPeriph_Lib_V1.0.1/Libraries/STM32F4xx_StdPeriph_Driver/src/stm32f4xx_rcc.c **** /**
 189:../STLibs//STM32F4xx_DSP_StdPeriph_Lib_V1.0.1/Libraries/STM32F4xx_StdPeriph_Driver/src/stm32f4xx_rcc.c ****   * @brief  Resets the RCC clock configuration to the default reset state.
 190:../STLibs//STM32F4xx_DSP_StdPeriph_Lib_V1.0.1/Libraries/STM32F4xx_StdPeriph_Driver/src/stm32f4xx_rcc.c ****   * @note   The default reset state of the clock configuration is given below:
 191:../STLibs//STM32F4xx_DSP_StdPeriph_Lib_V1.0.1/Libraries/STM32F4xx_StdPeriph_Driver/src/stm32f4xx_rcc.c ****   *            - HSI ON and used as system clock source
 192:../STLibs//STM32F4xx_DSP_StdPeriph_Lib_V1.0.1/Libraries/STM32F4xx_StdPeriph_Driver/src/stm32f4xx_rcc.c ****   *            - HSE, PLL and PLLI2S OFF
 193:../STLibs//STM32F4xx_DSP_StdPeriph_Lib_V1.0.1/Libraries/STM32F4xx_StdPeriph_Driver/src/stm32f4xx_rcc.c ****   *            - AHB, APB1 and APB2 prescaler set to 1.
 194:../STLibs//STM32F4xx_DSP_StdPeriph_Lib_V1.0.1/Libraries/STM32F4xx_StdPeriph_Driver/src/stm32f4xx_rcc.c ****   *            - CSS, MCO1 and MCO2 OFF
 195:../STLibs//STM32F4xx_DSP_StdPeriph_Lib_V1.0.1/Libraries/STM32F4xx_StdPeriph_Driver/src/stm32f4xx_rcc.c ****   *            - All interrupts disabled
 196:../STLibs//STM32F4xx_DSP_StdPeriph_Lib_V1.0.1/Libraries/STM32F4xx_StdPeriph_Driver/src/stm32f4xx_rcc.c ****   * @note   This function doesn't modify the configuration of the
 197:../STLibs//STM32F4xx_DSP_StdPeriph_Lib_V1.0.1/Libraries/STM32F4xx_StdPeriph_Driver/src/stm32f4xx_rcc.c ****   *            - Peripheral clocks
 198:../STLibs//STM32F4xx_DSP_StdPeriph_Lib_V1.0.1/Libraries/STM32F4xx_StdPeriph_Driver/src/stm32f4xx_rcc.c ****   *            - LSI, LSE and RTC clocks 
 199:../STLibs//STM32F4xx_DSP_StdPeriph_Lib_V1.0.1/Libraries/STM32F4xx_StdPeriph_Driver/src/stm32f4xx_rcc.c ****   * @param  None
 200:../STLibs//STM32F4xx_DSP_StdPeriph_Lib_V1.0.1/Libraries/STM32F4xx_StdPeriph_Driver/src/stm32f4xx_rcc.c ****   * @retval None
 201:../STLibs//STM32F4xx_DSP_StdPeriph_Lib_V1.0.1/Libraries/STM32F4xx_StdPeriph_Driver/src/stm32f4xx_rcc.c ****   */
 202:../STLibs//STM32F4xx_DSP_StdPeriph_Lib_V1.0.1/Libraries/STM32F4xx_StdPeriph_Driver/src/stm32f4xx_rcc.c **** void RCC_DeInit(void)
 203:../STLibs//STM32F4xx_DSP_StdPeriph_Lib_V1.0.1/Libraries/STM32F4xx_StdPeriph_Driver/src/stm32f4xx_rcc.c **** {
  26              		.loc 1 203 0
  27              		.cfi_startproc
  28              		@ args = 0, pretend = 0, frame = 0
  29              		@ frame_needed = 0, uses_anonymous_args = 0
  30              		@ link register save eliminated.
 204:../STLibs//STM32F4xx_DSP_StdPeriph_Lib_V1.0.1/Libraries/STM32F4xx_StdPeriph_Driver/src/stm32f4xx_rcc.c ****   /* Set HSION bit */
 205:../STLibs//STM32F4xx_DSP_StdPeriph_Lib_V1.0.1/Libraries/STM32F4xx_StdPeriph_Driver/src/stm32f4xx_rcc.c ****   RCC->CR |= (uint32_t)0x00000001;
  31              		.loc 1 205 0
  32 0000 0A4B     		ldr	r3, .L2
  33 0002 1A68     		ldr	r2, [r3]
 206:../STLibs//STM32F4xx_DSP_StdPeriph_Lib_V1.0.1/Libraries/STM32F4xx_StdPeriph_Driver/src/stm32f4xx_rcc.c **** 
 207:../STLibs//STM32F4xx_DSP_StdPeriph_Lib_V1.0.1/Libraries/STM32F4xx_StdPeriph_Driver/src/stm32f4xx_rcc.c ****   /* Reset CFGR register */
 208:../STLibs//STM32F4xx_DSP_StdPeriph_Lib_V1.0.1/Libraries/STM32F4xx_StdPeriph_Driver/src/stm32f4xx_rcc.c ****   RCC->CFGR = 0x00000000;
  34              		.loc 1 208 0
  35 0004 0021     		movs	r1, #0
 205:../STLibs//STM32F4xx_DSP_StdPeriph_Lib_V1.0.1/Libraries/STM32F4xx_StdPeriph_Driver/src/stm32f4xx_rcc.c **** 
  36              		.loc 1 205 0
  37 0006 42F00102 		orr	r2, r2, #1
  38 000a 1A60     		str	r2, [r3]
  39              		.loc 1 208 0
  40 000c 9960     		str	r1, [r3, #8]
 209:../STLibs//STM32F4xx_DSP_StdPeriph_Lib_V1.0.1/Libraries/STM32F4xx_StdPeriph_Driver/src/stm32f4xx_rcc.c **** 
 210:../STLibs//STM32F4xx_DSP_StdPeriph_Lib_V1.0.1/Libraries/STM32F4xx_StdPeriph_Driver/src/stm32f4xx_rcc.c ****   /* Reset HSEON, CSSON and PLLON bits */
 211:../STLibs//STM32F4xx_DSP_StdPeriph_Lib_V1.0.1/Libraries/STM32F4xx_StdPeriph_Driver/src/stm32f4xx_rcc.c ****   RCC->CR &= (uint32_t)0xFEF6FFFF;
  41              		.loc 1 211 0
  42 000e 1A68     		ldr	r2, [r3]
  43 0010 22F08472 		bic	r2, r2, #17301504
  44 0014 22F48032 		bic	r2, r2, #65536
  45 0018 1A60     		str	r2, [r3]
 212:../STLibs//STM32F4xx_DSP_StdPeriph_Lib_V1.0.1/Libraries/STM32F4xx_StdPeriph_Driver/src/stm32f4xx_rcc.c **** 
 213:../STLibs//STM32F4xx_DSP_StdPeriph_Lib_V1.0.1/Libraries/STM32F4xx_StdPeriph_Driver/src/stm32f4xx_rcc.c ****   /* Reset PLLCFGR register */
 214:../STLibs//STM32F4xx_DSP_StdPeriph_Lib_V1.0.1/Libraries/STM32F4xx_StdPeriph_Driver/src/stm32f4xx_rcc.c ****   RCC->PLLCFGR = 0x24003010;
  46              		.loc 1 214 0
  47 001a 054A     		ldr	r2, .L2+4
  48 001c 5A60     		str	r2, [r3, #4]
 215:../STLibs//STM32F4xx_DSP_StdPeriph_Lib_V1.0.1/Libraries/STM32F4xx_StdPeriph_Driver/src/stm32f4xx_rcc.c **** 
 216:../STLibs//STM32F4xx_DSP_StdPeriph_Lib_V1.0.1/Libraries/STM32F4xx_StdPeriph_Driver/src/stm32f4xx_rcc.c ****   /* Reset HSEBYP bit */
 217:../STLibs//STM32F4xx_DSP_StdPeriph_Lib_V1.0.1/Libraries/STM32F4xx_StdPeriph_Driver/src/stm32f4xx_rcc.c ****   RCC->CR &= (uint32_t)0xFFFBFFFF;
  49              		.loc 1 217 0
  50 001e 1A68     		ldr	r2, [r3]
  51 0020 22F48022 		bic	r2, r2, #262144
  52 0024 1A60     		str	r2, [r3]
 218:../STLibs//STM32F4xx_DSP_StdPeriph_Lib_V1.0.1/Libraries/STM32F4xx_StdPeriph_Driver/src/stm32f4xx_rcc.c **** 
 219:../STLibs//STM32F4xx_DSP_StdPeriph_Lib_V1.0.1/Libraries/STM32F4xx_StdPeriph_Driver/src/stm32f4xx_rcc.c ****   /* Disable all interrupts */
 220:../STLibs//STM32F4xx_DSP_StdPeriph_Lib_V1.0.1/Libraries/STM32F4xx_StdPeriph_Driver/src/stm32f4xx_rcc.c ****   RCC->CIR = 0x00000000;
  53              		.loc 1 220 0
  54 0026 D960     		str	r1, [r3, #12]
 221:../STLibs//STM32F4xx_DSP_StdPeriph_Lib_V1.0.1/Libraries/STM32F4xx_StdPeriph_Driver/src/stm32f4xx_rcc.c **** }
  55              		.loc 1 221 0
  56 0028 7047     		bx	lr
  57              	.L3:
  58 002a 00BF     		.align	2
  59              	.L2:
  60 002c 00380240 		.word	1073887232
  61 0030 10300024 		.word	603992080
  62              		.cfi_endproc
  63              	.LFE110:
  65              		.align	1
  66              		.global	RCC_HSEConfig
  67              		.syntax unified
  68              		.thumb
  69              		.thumb_func
  70              		.fpu fpv4-sp-d16
  72              	RCC_HSEConfig:
  73              	.LFB111:
 222:../STLibs//STM32F4xx_DSP_StdPeriph_Lib_V1.0.1/Libraries/STM32F4xx_StdPeriph_Driver/src/stm32f4xx_rcc.c **** 
 223:../STLibs//STM32F4xx_DSP_StdPeriph_Lib_V1.0.1/Libraries/STM32F4xx_StdPeriph_Driver/src/stm32f4xx_rcc.c **** /**
 224:../STLibs//STM32F4xx_DSP_StdPeriph_Lib_V1.0.1/Libraries/STM32F4xx_StdPeriph_Driver/src/stm32f4xx_rcc.c ****   * @brief  Configures the External High Speed oscillator (HSE).
 225:../STLibs//STM32F4xx_DSP_StdPeriph_Lib_V1.0.1/Libraries/STM32F4xx_StdPeriph_Driver/src/stm32f4xx_rcc.c ****   * @note   After enabling the HSE (RCC_HSE_ON or RCC_HSE_Bypass), the application
 226:../STLibs//STM32F4xx_DSP_StdPeriph_Lib_V1.0.1/Libraries/STM32F4xx_StdPeriph_Driver/src/stm32f4xx_rcc.c ****   *         software should wait on HSERDY flag to be set indicating that HSE clock
 227:../STLibs//STM32F4xx_DSP_StdPeriph_Lib_V1.0.1/Libraries/STM32F4xx_StdPeriph_Driver/src/stm32f4xx_rcc.c ****   *         is stable and can be used to clock the PLL and/or system clock.
 228:../STLibs//STM32F4xx_DSP_StdPeriph_Lib_V1.0.1/Libraries/STM32F4xx_StdPeriph_Driver/src/stm32f4xx_rcc.c ****   * @note   HSE state can not be changed if it is used directly or through the
 229:../STLibs//STM32F4xx_DSP_StdPeriph_Lib_V1.0.1/Libraries/STM32F4xx_StdPeriph_Driver/src/stm32f4xx_rcc.c ****   *         PLL as system clock. In this case, you have to select another source
 230:../STLibs//STM32F4xx_DSP_StdPeriph_Lib_V1.0.1/Libraries/STM32F4xx_StdPeriph_Driver/src/stm32f4xx_rcc.c ****   *         of the system clock then change the HSE state (ex. disable it).
 231:../STLibs//STM32F4xx_DSP_StdPeriph_Lib_V1.0.1/Libraries/STM32F4xx_StdPeriph_Driver/src/stm32f4xx_rcc.c ****   * @note   The HSE is stopped by hardware when entering STOP and STANDBY modes.  
 232:../STLibs//STM32F4xx_DSP_StdPeriph_Lib_V1.0.1/Libraries/STM32F4xx_StdPeriph_Driver/src/stm32f4xx_rcc.c ****   * @note   This function reset the CSSON bit, so if the Clock security system(CSS)
 233:../STLibs//STM32F4xx_DSP_StdPeriph_Lib_V1.0.1/Libraries/STM32F4xx_StdPeriph_Driver/src/stm32f4xx_rcc.c ****   *         was previously enabled you have to enable it again after calling this
 234:../STLibs//STM32F4xx_DSP_StdPeriph_Lib_V1.0.1/Libraries/STM32F4xx_StdPeriph_Driver/src/stm32f4xx_rcc.c ****   *         function.    
 235:../STLibs//STM32F4xx_DSP_StdPeriph_Lib_V1.0.1/Libraries/STM32F4xx_StdPeriph_Driver/src/stm32f4xx_rcc.c ****   * @param  RCC_HSE: specifies the new state of the HSE.
 236:../STLibs//STM32F4xx_DSP_StdPeriph_Lib_V1.0.1/Libraries/STM32F4xx_StdPeriph_Driver/src/stm32f4xx_rcc.c ****   *          This parameter can be one of the following values:
 237:../STLibs//STM32F4xx_DSP_StdPeriph_Lib_V1.0.1/Libraries/STM32F4xx_StdPeriph_Driver/src/stm32f4xx_rcc.c ****   *            @arg RCC_HSE_OFF: turn OFF the HSE oscillator, HSERDY flag goes low after
 238:../STLibs//STM32F4xx_DSP_StdPeriph_Lib_V1.0.1/Libraries/STM32F4xx_StdPeriph_Driver/src/stm32f4xx_rcc.c ****   *                              6 HSE oscillator clock cycles.
 239:../STLibs//STM32F4xx_DSP_StdPeriph_Lib_V1.0.1/Libraries/STM32F4xx_StdPeriph_Driver/src/stm32f4xx_rcc.c ****   *            @arg RCC_HSE_ON: turn ON the HSE oscillator
 240:../STLibs//STM32F4xx_DSP_StdPeriph_Lib_V1.0.1/Libraries/STM32F4xx_StdPeriph_Driver/src/stm32f4xx_rcc.c ****   *            @arg RCC_HSE_Bypass: HSE oscillator bypassed with external clock
 241:../STLibs//STM32F4xx_DSP_StdPeriph_Lib_V1.0.1/Libraries/STM32F4xx_StdPeriph_Driver/src/stm32f4xx_rcc.c ****   * @retval None
 242:../STLibs//STM32F4xx_DSP_StdPeriph_Lib_V1.0.1/Libraries/STM32F4xx_StdPeriph_Driver/src/stm32f4xx_rcc.c ****   */
 243:../STLibs//STM32F4xx_DSP_StdPeriph_Lib_V1.0.1/Libraries/STM32F4xx_StdPeriph_Driver/src/stm32f4xx_rcc.c **** void RCC_HSEConfig(uint8_t RCC_HSE)
 244:../STLibs//STM32F4xx_DSP_StdPeriph_Lib_V1.0.1/Libraries/STM32F4xx_StdPeriph_Driver/src/stm32f4xx_rcc.c **** {
  74              		.loc 1 244 0
  75              		.cfi_startproc
  76              		@ args = 0, pretend = 0, frame = 0
  77              		@ frame_needed = 0, uses_anonymous_args = 0
  78              		@ link register save eliminated.
  79              	.LVL0:
 245:../STLibs//STM32F4xx_DSP_StdPeriph_Lib_V1.0.1/Libraries/STM32F4xx_StdPeriph_Driver/src/stm32f4xx_rcc.c ****   /* Check the parameters */
 246:../STLibs//STM32F4xx_DSP_StdPeriph_Lib_V1.0.1/Libraries/STM32F4xx_StdPeriph_Driver/src/stm32f4xx_rcc.c ****   assert_param(IS_RCC_HSE(RCC_HSE));
 247:../STLibs//STM32F4xx_DSP_StdPeriph_Lib_V1.0.1/Libraries/STM32F4xx_StdPeriph_Driver/src/stm32f4xx_rcc.c **** 
 248:../STLibs//STM32F4xx_DSP_StdPeriph_Lib_V1.0.1/Libraries/STM32F4xx_StdPeriph_Driver/src/stm32f4xx_rcc.c ****   /* Reset HSEON and HSEBYP bits before configuring the HSE ------------------*/
 249:../STLibs//STM32F4xx_DSP_StdPeriph_Lib_V1.0.1/Libraries/STM32F4xx_StdPeriph_Driver/src/stm32f4xx_rcc.c ****   *(__IO uint8_t *) CR_BYTE3_ADDRESS = RCC_HSE_OFF;
  80              		.loc 1 249 0
  81 0034 024B     		ldr	r3, .L5
  82 0036 0022     		movs	r2, #0
  83 0038 1A70     		strb	r2, [r3]
 250:../STLibs//STM32F4xx_DSP_StdPeriph_Lib_V1.0.1/Libraries/STM32F4xx_StdPeriph_Driver/src/stm32f4xx_rcc.c **** 
 251:../STLibs//STM32F4xx_DSP_StdPeriph_Lib_V1.0.1/Libraries/STM32F4xx_StdPeriph_Driver/src/stm32f4xx_rcc.c ****   /* Set the new HSE configuration -------------------------------------------*/
 252:../STLibs//STM32F4xx_DSP_StdPeriph_Lib_V1.0.1/Libraries/STM32F4xx_StdPeriph_Driver/src/stm32f4xx_rcc.c ****   *(__IO uint8_t *) CR_BYTE3_ADDRESS = RCC_HSE;
  84              		.loc 1 252 0
  85 003a 1870     		strb	r0, [r3]
 253:../STLibs//STM32F4xx_DSP_StdPeriph_Lib_V1.0.1/Libraries/STM32F4xx_StdPeriph_Driver/src/stm32f4xx_rcc.c **** }
  86              		.loc 1 253 0
  87 003c 7047     		bx	lr
  88              	.L6:
  89 003e 00BF     		.align	2
  90              	.L5:
  91 0040 02380240 		.word	1073887234
  92              		.cfi_endproc
  93              	.LFE111:
  95              		.align	1
  96              		.global	RCC_AdjustHSICalibrationValue
  97              		.syntax unified
  98              		.thumb
  99              		.thumb_func
 100              		.fpu fpv4-sp-d16
 102              	RCC_AdjustHSICalibrationValue:
 103              	.LFB113:
 254:../STLibs//STM32F4xx_DSP_StdPeriph_Lib_V1.0.1/Libraries/STM32F4xx_StdPeriph_Driver/src/stm32f4xx_rcc.c **** 
 255:../STLibs//STM32F4xx_DSP_StdPeriph_Lib_V1.0.1/Libraries/STM32F4xx_StdPeriph_Driver/src/stm32f4xx_rcc.c **** /**
 256:../STLibs//STM32F4xx_DSP_StdPeriph_Lib_V1.0.1/Libraries/STM32F4xx_StdPeriph_Driver/src/stm32f4xx_rcc.c ****   * @brief  Waits for HSE start-up.
 257:../STLibs//STM32F4xx_DSP_StdPeriph_Lib_V1.0.1/Libraries/STM32F4xx_StdPeriph_Driver/src/stm32f4xx_rcc.c ****   * @note   This functions waits on HSERDY flag to be set and return SUCCESS if 
 258:../STLibs//STM32F4xx_DSP_StdPeriph_Lib_V1.0.1/Libraries/STM32F4xx_StdPeriph_Driver/src/stm32f4xx_rcc.c ****   *         this flag is set, otherwise returns ERROR if the timeout is reached 
 259:../STLibs//STM32F4xx_DSP_StdPeriph_Lib_V1.0.1/Libraries/STM32F4xx_StdPeriph_Driver/src/stm32f4xx_rcc.c ****   *         and this flag is not set. The timeout value is defined by the constant
 260:../STLibs//STM32F4xx_DSP_StdPeriph_Lib_V1.0.1/Libraries/STM32F4xx_StdPeriph_Driver/src/stm32f4xx_rcc.c ****   *         HSE_STARTUP_TIMEOUT in stm32f4xx.h file. You can tailor it depending
 261:../STLibs//STM32F4xx_DSP_StdPeriph_Lib_V1.0.1/Libraries/STM32F4xx_StdPeriph_Driver/src/stm32f4xx_rcc.c ****   *         on the HSE crystal used in your application. 
 262:../STLibs//STM32F4xx_DSP_StdPeriph_Lib_V1.0.1/Libraries/STM32F4xx_StdPeriph_Driver/src/stm32f4xx_rcc.c ****   * @param  None
 263:../STLibs//STM32F4xx_DSP_StdPeriph_Lib_V1.0.1/Libraries/STM32F4xx_StdPeriph_Driver/src/stm32f4xx_rcc.c ****   * @retval An ErrorStatus enumeration value:
 264:../STLibs//STM32F4xx_DSP_StdPeriph_Lib_V1.0.1/Libraries/STM32F4xx_StdPeriph_Driver/src/stm32f4xx_rcc.c ****   *          - SUCCESS: HSE oscillator is stable and ready to use
 265:../STLibs//STM32F4xx_DSP_StdPeriph_Lib_V1.0.1/Libraries/STM32F4xx_StdPeriph_Driver/src/stm32f4xx_rcc.c ****   *          - ERROR: HSE oscillator not yet ready
 266:../STLibs//STM32F4xx_DSP_StdPeriph_Lib_V1.0.1/Libraries/STM32F4xx_StdPeriph_Driver/src/stm32f4xx_rcc.c ****   */
 267:../STLibs//STM32F4xx_DSP_StdPeriph_Lib_V1.0.1/Libraries/STM32F4xx_StdPeriph_Driver/src/stm32f4xx_rcc.c **** ErrorStatus RCC_WaitForHSEStartUp(void)
 268:../STLibs//STM32F4xx_DSP_StdPeriph_Lib_V1.0.1/Libraries/STM32F4xx_StdPeriph_Driver/src/stm32f4xx_rcc.c **** {
 269:../STLibs//STM32F4xx_DSP_StdPeriph_Lib_V1.0.1/Libraries/STM32F4xx_StdPeriph_Driver/src/stm32f4xx_rcc.c ****   __IO uint32_t startupcounter = 0;
 270:../STLibs//STM32F4xx_DSP_StdPeriph_Lib_V1.0.1/Libraries/STM32F4xx_StdPeriph_Driver/src/stm32f4xx_rcc.c ****   ErrorStatus status = ERROR;
 271:../STLibs//STM32F4xx_DSP_StdPeriph_Lib_V1.0.1/Libraries/STM32F4xx_StdPeriph_Driver/src/stm32f4xx_rcc.c ****   FlagStatus hsestatus = RESET;
 272:../STLibs//STM32F4xx_DSP_StdPeriph_Lib_V1.0.1/Libraries/STM32F4xx_StdPeriph_Driver/src/stm32f4xx_rcc.c ****   /* Wait till HSE is ready and if Time out is reached exit */
 273:../STLibs//STM32F4xx_DSP_StdPeriph_Lib_V1.0.1/Libraries/STM32F4xx_StdPeriph_Driver/src/stm32f4xx_rcc.c ****   do
 274:../STLibs//STM32F4xx_DSP_StdPeriph_Lib_V1.0.1/Libraries/STM32F4xx_StdPeriph_Driver/src/stm32f4xx_rcc.c ****   {
 275:../STLibs//STM32F4xx_DSP_StdPeriph_Lib_V1.0.1/Libraries/STM32F4xx_StdPeriph_Driver/src/stm32f4xx_rcc.c ****     hsestatus = RCC_GetFlagStatus(RCC_FLAG_HSERDY);
 276:../STLibs//STM32F4xx_DSP_StdPeriph_Lib_V1.0.1/Libraries/STM32F4xx_StdPeriph_Driver/src/stm32f4xx_rcc.c ****     startupcounter++;
 277:../STLibs//STM32F4xx_DSP_StdPeriph_Lib_V1.0.1/Libraries/STM32F4xx_StdPeriph_Driver/src/stm32f4xx_rcc.c ****   } while((startupcounter != HSE_STARTUP_TIMEOUT) && (hsestatus == RESET));
 278:../STLibs//STM32F4xx_DSP_StdPeriph_Lib_V1.0.1/Libraries/STM32F4xx_StdPeriph_Driver/src/stm32f4xx_rcc.c **** 
 279:../STLibs//STM32F4xx_DSP_StdPeriph_Lib_V1.0.1/Libraries/STM32F4xx_StdPeriph_Driver/src/stm32f4xx_rcc.c ****   if (RCC_GetFlagStatus(RCC_FLAG_HSERDY) != RESET)
 280:../STLibs//STM32F4xx_DSP_StdPeriph_Lib_V1.0.1/Libraries/STM32F4xx_StdPeriph_Driver/src/stm32f4xx_rcc.c ****   {
 281:../STLibs//STM32F4xx_DSP_StdPeriph_Lib_V1.0.1/Libraries/STM32F4xx_StdPeriph_Driver/src/stm32f4xx_rcc.c ****     status = SUCCESS;
 282:../STLibs//STM32F4xx_DSP_StdPeriph_Lib_V1.0.1/Libraries/STM32F4xx_StdPeriph_Driver/src/stm32f4xx_rcc.c ****   }
 283:../STLibs//STM32F4xx_DSP_StdPeriph_Lib_V1.0.1/Libraries/STM32F4xx_StdPeriph_Driver/src/stm32f4xx_rcc.c ****   else
 284:../STLibs//STM32F4xx_DSP_StdPeriph_Lib_V1.0.1/Libraries/STM32F4xx_StdPeriph_Driver/src/stm32f4xx_rcc.c ****   {
 285:../STLibs//STM32F4xx_DSP_StdPeriph_Lib_V1.0.1/Libraries/STM32F4xx_StdPeriph_Driver/src/stm32f4xx_rcc.c ****     status = ERROR;
 286:../STLibs//STM32F4xx_DSP_StdPeriph_Lib_V1.0.1/Libraries/STM32F4xx_StdPeriph_Driver/src/stm32f4xx_rcc.c ****   }
 287:../STLibs//STM32F4xx_DSP_StdPeriph_Lib_V1.0.1/Libraries/STM32F4xx_StdPeriph_Driver/src/stm32f4xx_rcc.c ****   return (status);
 288:../STLibs//STM32F4xx_DSP_StdPeriph_Lib_V1.0.1/Libraries/STM32F4xx_StdPeriph_Driver/src/stm32f4xx_rcc.c **** }
 289:../STLibs//STM32F4xx_DSP_StdPeriph_Lib_V1.0.1/Libraries/STM32F4xx_StdPeriph_Driver/src/stm32f4xx_rcc.c **** 
 290:../STLibs//STM32F4xx_DSP_StdPeriph_Lib_V1.0.1/Libraries/STM32F4xx_StdPeriph_Driver/src/stm32f4xx_rcc.c **** /**
 291:../STLibs//STM32F4xx_DSP_StdPeriph_Lib_V1.0.1/Libraries/STM32F4xx_StdPeriph_Driver/src/stm32f4xx_rcc.c ****   * @brief  Adjusts the Internal High Speed oscillator (HSI) calibration value.
 292:../STLibs//STM32F4xx_DSP_StdPeriph_Lib_V1.0.1/Libraries/STM32F4xx_StdPeriph_Driver/src/stm32f4xx_rcc.c ****   * @note   The calibration is used to compensate for the variations in voltage
 293:../STLibs//STM32F4xx_DSP_StdPeriph_Lib_V1.0.1/Libraries/STM32F4xx_StdPeriph_Driver/src/stm32f4xx_rcc.c ****   *         and temperature that influence the frequency of the internal HSI RC.
 294:../STLibs//STM32F4xx_DSP_StdPeriph_Lib_V1.0.1/Libraries/STM32F4xx_StdPeriph_Driver/src/stm32f4xx_rcc.c ****   * @param  HSICalibrationValue: specifies the calibration trimming value.
 295:../STLibs//STM32F4xx_DSP_StdPeriph_Lib_V1.0.1/Libraries/STM32F4xx_StdPeriph_Driver/src/stm32f4xx_rcc.c ****   *         This parameter must be a number between 0 and 0x1F.
 296:../STLibs//STM32F4xx_DSP_StdPeriph_Lib_V1.0.1/Libraries/STM32F4xx_StdPeriph_Driver/src/stm32f4xx_rcc.c ****   * @retval None
 297:../STLibs//STM32F4xx_DSP_StdPeriph_Lib_V1.0.1/Libraries/STM32F4xx_StdPeriph_Driver/src/stm32f4xx_rcc.c ****   */
 298:../STLibs//STM32F4xx_DSP_StdPeriph_Lib_V1.0.1/Libraries/STM32F4xx_StdPeriph_Driver/src/stm32f4xx_rcc.c **** void RCC_AdjustHSICalibrationValue(uint8_t HSICalibrationValue)
 299:../STLibs//STM32F4xx_DSP_StdPeriph_Lib_V1.0.1/Libraries/STM32F4xx_StdPeriph_Driver/src/stm32f4xx_rcc.c **** {
 104              		.loc 1 299 0
 105              		.cfi_startproc
 106              		@ args = 0, pretend = 0, frame = 0
 107              		@ frame_needed = 0, uses_anonymous_args = 0
 108              		@ link register save eliminated.
 109              	.LVL1:
 300:../STLibs//STM32F4xx_DSP_StdPeriph_Lib_V1.0.1/Libraries/STM32F4xx_StdPeriph_Driver/src/stm32f4xx_rcc.c ****   uint32_t tmpreg = 0;
 301:../STLibs//STM32F4xx_DSP_StdPeriph_Lib_V1.0.1/Libraries/STM32F4xx_StdPeriph_Driver/src/stm32f4xx_rcc.c ****   /* Check the parameters */
 302:../STLibs//STM32F4xx_DSP_StdPeriph_Lib_V1.0.1/Libraries/STM32F4xx_StdPeriph_Driver/src/stm32f4xx_rcc.c ****   assert_param(IS_RCC_CALIBRATION_VALUE(HSICalibrationValue));
 303:../STLibs//STM32F4xx_DSP_StdPeriph_Lib_V1.0.1/Libraries/STM32F4xx_StdPeriph_Driver/src/stm32f4xx_rcc.c **** 
 304:../STLibs//STM32F4xx_DSP_StdPeriph_Lib_V1.0.1/Libraries/STM32F4xx_StdPeriph_Driver/src/stm32f4xx_rcc.c ****   tmpreg = RCC->CR;
 110              		.loc 1 304 0
 111 0044 034A     		ldr	r2, .L8
 112 0046 1368     		ldr	r3, [r2]
 113              	.LVL2:
 305:../STLibs//STM32F4xx_DSP_StdPeriph_Lib_V1.0.1/Libraries/STM32F4xx_StdPeriph_Driver/src/stm32f4xx_rcc.c **** 
 306:../STLibs//STM32F4xx_DSP_StdPeriph_Lib_V1.0.1/Libraries/STM32F4xx_StdPeriph_Driver/src/stm32f4xx_rcc.c ****   /* Clear HSITRIM[4:0] bits */
 307:../STLibs//STM32F4xx_DSP_StdPeriph_Lib_V1.0.1/Libraries/STM32F4xx_StdPeriph_Driver/src/stm32f4xx_rcc.c ****   tmpreg &= ~RCC_CR_HSITRIM;
 114              		.loc 1 307 0
 115 0048 23F0F803 		bic	r3, r3, #248
 116              	.LVL3:
 308:../STLibs//STM32F4xx_DSP_StdPeriph_Lib_V1.0.1/Libraries/STM32F4xx_StdPeriph_Driver/src/stm32f4xx_rcc.c **** 
 309:../STLibs//STM32F4xx_DSP_StdPeriph_Lib_V1.0.1/Libraries/STM32F4xx_StdPeriph_Driver/src/stm32f4xx_rcc.c ****   /* Set the HSITRIM[4:0] bits according to HSICalibrationValue value */
 310:../STLibs//STM32F4xx_DSP_StdPeriph_Lib_V1.0.1/Libraries/STM32F4xx_StdPeriph_Driver/src/stm32f4xx_rcc.c ****   tmpreg |= (uint32_t)HSICalibrationValue << 3;
 117              		.loc 1 310 0
 118 004c 43EAC000 		orr	r0, r3, r0, lsl #3
 119              	.LVL4:
 311:../STLibs//STM32F4xx_DSP_StdPeriph_Lib_V1.0.1/Libraries/STM32F4xx_StdPeriph_Driver/src/stm32f4xx_rcc.c **** 
 312:../STLibs//STM32F4xx_DSP_StdPeriph_Lib_V1.0.1/Libraries/STM32F4xx_StdPeriph_Driver/src/stm32f4xx_rcc.c ****   /* Store the new value */
 313:../STLibs//STM32F4xx_DSP_StdPeriph_Lib_V1.0.1/Libraries/STM32F4xx_StdPeriph_Driver/src/stm32f4xx_rcc.c ****   RCC->CR = tmpreg;
 120              		.loc 1 313 0
 121 0050 1060     		str	r0, [r2]
 314:../STLibs//STM32F4xx_DSP_StdPeriph_Lib_V1.0.1/Libraries/STM32F4xx_StdPeriph_Driver/src/stm32f4xx_rcc.c **** }
 122              		.loc 1 314 0
 123 0052 7047     		bx	lr
 124              	.L9:
 125              		.align	2
 126              	.L8:
 127 0054 00380240 		.word	1073887232
 128              		.cfi_endproc
 129              	.LFE113:
 131              		.align	1
 132              		.global	RCC_HSICmd
 133              		.syntax unified
 134              		.thumb
 135              		.thumb_func
 136              		.fpu fpv4-sp-d16
 138              	RCC_HSICmd:
 139              	.LFB114:
 315:../STLibs//STM32F4xx_DSP_StdPeriph_Lib_V1.0.1/Libraries/STM32F4xx_StdPeriph_Driver/src/stm32f4xx_rcc.c **** 
 316:../STLibs//STM32F4xx_DSP_StdPeriph_Lib_V1.0.1/Libraries/STM32F4xx_StdPeriph_Driver/src/stm32f4xx_rcc.c **** /**
 317:../STLibs//STM32F4xx_DSP_StdPeriph_Lib_V1.0.1/Libraries/STM32F4xx_StdPeriph_Driver/src/stm32f4xx_rcc.c ****   * @brief  Enables or disables the Internal High Speed oscillator (HSI).
 318:../STLibs//STM32F4xx_DSP_StdPeriph_Lib_V1.0.1/Libraries/STM32F4xx_StdPeriph_Driver/src/stm32f4xx_rcc.c ****   * @note   The HSI is stopped by hardware when entering STOP and STANDBY modes.
 319:../STLibs//STM32F4xx_DSP_StdPeriph_Lib_V1.0.1/Libraries/STM32F4xx_StdPeriph_Driver/src/stm32f4xx_rcc.c ****   *         It is used (enabled by hardware) as system clock source after startup
 320:../STLibs//STM32F4xx_DSP_StdPeriph_Lib_V1.0.1/Libraries/STM32F4xx_StdPeriph_Driver/src/stm32f4xx_rcc.c ****   *         from Reset, wakeup from STOP and STANDBY mode, or in case of failure
 321:../STLibs//STM32F4xx_DSP_StdPeriph_Lib_V1.0.1/Libraries/STM32F4xx_StdPeriph_Driver/src/stm32f4xx_rcc.c ****   *         of the HSE used directly or indirectly as system clock (if the Clock
 322:../STLibs//STM32F4xx_DSP_StdPeriph_Lib_V1.0.1/Libraries/STM32F4xx_StdPeriph_Driver/src/stm32f4xx_rcc.c ****   *         Security System CSS is enabled).             
 323:../STLibs//STM32F4xx_DSP_StdPeriph_Lib_V1.0.1/Libraries/STM32F4xx_StdPeriph_Driver/src/stm32f4xx_rcc.c ****   * @note   HSI can not be stopped if it is used as system clock source. In this case,
 324:../STLibs//STM32F4xx_DSP_StdPeriph_Lib_V1.0.1/Libraries/STM32F4xx_StdPeriph_Driver/src/stm32f4xx_rcc.c ****   *         you have to select another source of the system clock then stop the HSI.  
 325:../STLibs//STM32F4xx_DSP_StdPeriph_Lib_V1.0.1/Libraries/STM32F4xx_StdPeriph_Driver/src/stm32f4xx_rcc.c ****   * @note   After enabling the HSI, the application software should wait on HSIRDY
 326:../STLibs//STM32F4xx_DSP_StdPeriph_Lib_V1.0.1/Libraries/STM32F4xx_StdPeriph_Driver/src/stm32f4xx_rcc.c ****   *         flag to be set indicating that HSI clock is stable and can be used as
 327:../STLibs//STM32F4xx_DSP_StdPeriph_Lib_V1.0.1/Libraries/STM32F4xx_StdPeriph_Driver/src/stm32f4xx_rcc.c ****   *         system clock source.  
 328:../STLibs//STM32F4xx_DSP_StdPeriph_Lib_V1.0.1/Libraries/STM32F4xx_StdPeriph_Driver/src/stm32f4xx_rcc.c ****   * @param  NewState: new state of the HSI.
 329:../STLibs//STM32F4xx_DSP_StdPeriph_Lib_V1.0.1/Libraries/STM32F4xx_StdPeriph_Driver/src/stm32f4xx_rcc.c ****   *          This parameter can be: ENABLE or DISABLE.
 330:../STLibs//STM32F4xx_DSP_StdPeriph_Lib_V1.0.1/Libraries/STM32F4xx_StdPeriph_Driver/src/stm32f4xx_rcc.c ****   * @note   When the HSI is stopped, HSIRDY flag goes low after 6 HSI oscillator
 331:../STLibs//STM32F4xx_DSP_StdPeriph_Lib_V1.0.1/Libraries/STM32F4xx_StdPeriph_Driver/src/stm32f4xx_rcc.c ****   *         clock cycles.  
 332:../STLibs//STM32F4xx_DSP_StdPeriph_Lib_V1.0.1/Libraries/STM32F4xx_StdPeriph_Driver/src/stm32f4xx_rcc.c ****   * @retval None
 333:../STLibs//STM32F4xx_DSP_StdPeriph_Lib_V1.0.1/Libraries/STM32F4xx_StdPeriph_Driver/src/stm32f4xx_rcc.c ****   */
 334:../STLibs//STM32F4xx_DSP_StdPeriph_Lib_V1.0.1/Libraries/STM32F4xx_StdPeriph_Driver/src/stm32f4xx_rcc.c **** void RCC_HSICmd(FunctionalState NewState)
 335:../STLibs//STM32F4xx_DSP_StdPeriph_Lib_V1.0.1/Libraries/STM32F4xx_StdPeriph_Driver/src/stm32f4xx_rcc.c **** {
 140              		.loc 1 335 0
 141              		.cfi_startproc
 142              		@ args = 0, pretend = 0, frame = 0
 143              		@ frame_needed = 0, uses_anonymous_args = 0
 144              		@ link register save eliminated.
 145              	.LVL5:
 336:../STLibs//STM32F4xx_DSP_StdPeriph_Lib_V1.0.1/Libraries/STM32F4xx_StdPeriph_Driver/src/stm32f4xx_rcc.c ****   /* Check the parameters */
 337:../STLibs//STM32F4xx_DSP_StdPeriph_Lib_V1.0.1/Libraries/STM32F4xx_StdPeriph_Driver/src/stm32f4xx_rcc.c ****   assert_param(IS_FUNCTIONAL_STATE(NewState));
 338:../STLibs//STM32F4xx_DSP_StdPeriph_Lib_V1.0.1/Libraries/STM32F4xx_StdPeriph_Driver/src/stm32f4xx_rcc.c **** 
 339:../STLibs//STM32F4xx_DSP_StdPeriph_Lib_V1.0.1/Libraries/STM32F4xx_StdPeriph_Driver/src/stm32f4xx_rcc.c ****   *(__IO uint32_t *) CR_HSION_BB = (uint32_t)NewState;
 146              		.loc 1 339 0
 147 0058 014B     		ldr	r3, .L11
 148 005a 1860     		str	r0, [r3]
 340:../STLibs//STM32F4xx_DSP_StdPeriph_Lib_V1.0.1/Libraries/STM32F4xx_StdPeriph_Driver/src/stm32f4xx_rcc.c **** }
 149              		.loc 1 340 0
 150 005c 7047     		bx	lr
 151              	.L12:
 152 005e 00BF     		.align	2
 153              	.L11:
 154 0060 00004742 		.word	1111949312
 155              		.cfi_endproc
 156              	.LFE114:
 158              		.align	1
 159              		.global	RCC_LSEConfig
 160              		.syntax unified
 161              		.thumb
 162              		.thumb_func
 163              		.fpu fpv4-sp-d16
 165              	RCC_LSEConfig:
 166              	.LFB115:
 341:../STLibs//STM32F4xx_DSP_StdPeriph_Lib_V1.0.1/Libraries/STM32F4xx_StdPeriph_Driver/src/stm32f4xx_rcc.c **** 
 342:../STLibs//STM32F4xx_DSP_StdPeriph_Lib_V1.0.1/Libraries/STM32F4xx_StdPeriph_Driver/src/stm32f4xx_rcc.c **** /**
 343:../STLibs//STM32F4xx_DSP_StdPeriph_Lib_V1.0.1/Libraries/STM32F4xx_StdPeriph_Driver/src/stm32f4xx_rcc.c ****   * @brief  Configures the External Low Speed oscillator (LSE).
 344:../STLibs//STM32F4xx_DSP_StdPeriph_Lib_V1.0.1/Libraries/STM32F4xx_StdPeriph_Driver/src/stm32f4xx_rcc.c ****   * @note   As the LSE is in the Backup domain and write access is denied to
 345:../STLibs//STM32F4xx_DSP_StdPeriph_Lib_V1.0.1/Libraries/STM32F4xx_StdPeriph_Driver/src/stm32f4xx_rcc.c ****   *         this domain after reset, you have to enable write access using 
 346:../STLibs//STM32F4xx_DSP_StdPeriph_Lib_V1.0.1/Libraries/STM32F4xx_StdPeriph_Driver/src/stm32f4xx_rcc.c ****   *         PWR_BackupAccessCmd(ENABLE) function before to configure the LSE
 347:../STLibs//STM32F4xx_DSP_StdPeriph_Lib_V1.0.1/Libraries/STM32F4xx_StdPeriph_Driver/src/stm32f4xx_rcc.c ****   *         (to be done once after reset).  
 348:../STLibs//STM32F4xx_DSP_StdPeriph_Lib_V1.0.1/Libraries/STM32F4xx_StdPeriph_Driver/src/stm32f4xx_rcc.c ****   * @note   After enabling the LSE (RCC_LSE_ON or RCC_LSE_Bypass), the application
 349:../STLibs//STM32F4xx_DSP_StdPeriph_Lib_V1.0.1/Libraries/STM32F4xx_StdPeriph_Driver/src/stm32f4xx_rcc.c ****   *         software should wait on LSERDY flag to be set indicating that LSE clock
 350:../STLibs//STM32F4xx_DSP_StdPeriph_Lib_V1.0.1/Libraries/STM32F4xx_StdPeriph_Driver/src/stm32f4xx_rcc.c ****   *         is stable and can be used to clock the RTC.
 351:../STLibs//STM32F4xx_DSP_StdPeriph_Lib_V1.0.1/Libraries/STM32F4xx_StdPeriph_Driver/src/stm32f4xx_rcc.c ****   * @param  RCC_LSE: specifies the new state of the LSE.
 352:../STLibs//STM32F4xx_DSP_StdPeriph_Lib_V1.0.1/Libraries/STM32F4xx_StdPeriph_Driver/src/stm32f4xx_rcc.c ****   *          This parameter can be one of the following values:
 353:../STLibs//STM32F4xx_DSP_StdPeriph_Lib_V1.0.1/Libraries/STM32F4xx_StdPeriph_Driver/src/stm32f4xx_rcc.c ****   *            @arg RCC_LSE_OFF: turn OFF the LSE oscillator, LSERDY flag goes low after
 354:../STLibs//STM32F4xx_DSP_StdPeriph_Lib_V1.0.1/Libraries/STM32F4xx_StdPeriph_Driver/src/stm32f4xx_rcc.c ****   *                              6 LSE oscillator clock cycles.
 355:../STLibs//STM32F4xx_DSP_StdPeriph_Lib_V1.0.1/Libraries/STM32F4xx_StdPeriph_Driver/src/stm32f4xx_rcc.c ****   *            @arg RCC_LSE_ON: turn ON the LSE oscillator
 356:../STLibs//STM32F4xx_DSP_StdPeriph_Lib_V1.0.1/Libraries/STM32F4xx_StdPeriph_Driver/src/stm32f4xx_rcc.c ****   *            @arg RCC_LSE_Bypass: LSE oscillator bypassed with external clock
 357:../STLibs//STM32F4xx_DSP_StdPeriph_Lib_V1.0.1/Libraries/STM32F4xx_StdPeriph_Driver/src/stm32f4xx_rcc.c ****   * @retval None
 358:../STLibs//STM32F4xx_DSP_StdPeriph_Lib_V1.0.1/Libraries/STM32F4xx_StdPeriph_Driver/src/stm32f4xx_rcc.c ****   */
 359:../STLibs//STM32F4xx_DSP_StdPeriph_Lib_V1.0.1/Libraries/STM32F4xx_StdPeriph_Driver/src/stm32f4xx_rcc.c **** void RCC_LSEConfig(uint8_t RCC_LSE)
 360:../STLibs//STM32F4xx_DSP_StdPeriph_Lib_V1.0.1/Libraries/STM32F4xx_StdPeriph_Driver/src/stm32f4xx_rcc.c **** {
 167              		.loc 1 360 0
 168              		.cfi_startproc
 169              		@ args = 0, pretend = 0, frame = 0
 170              		@ frame_needed = 0, uses_anonymous_args = 0
 171              		@ link register save eliminated.
 172              	.LVL6:
 361:../STLibs//STM32F4xx_DSP_StdPeriph_Lib_V1.0.1/Libraries/STM32F4xx_StdPeriph_Driver/src/stm32f4xx_rcc.c ****   /* Check the parameters */
 362:../STLibs//STM32F4xx_DSP_StdPeriph_Lib_V1.0.1/Libraries/STM32F4xx_StdPeriph_Driver/src/stm32f4xx_rcc.c ****   assert_param(IS_RCC_LSE(RCC_LSE));
 363:../STLibs//STM32F4xx_DSP_StdPeriph_Lib_V1.0.1/Libraries/STM32F4xx_StdPeriph_Driver/src/stm32f4xx_rcc.c **** 
 364:../STLibs//STM32F4xx_DSP_StdPeriph_Lib_V1.0.1/Libraries/STM32F4xx_StdPeriph_Driver/src/stm32f4xx_rcc.c ****   /* Reset LSEON and LSEBYP bits before configuring the LSE ------------------*/
 365:../STLibs//STM32F4xx_DSP_StdPeriph_Lib_V1.0.1/Libraries/STM32F4xx_StdPeriph_Driver/src/stm32f4xx_rcc.c ****   /* Reset LSEON bit */
 366:../STLibs//STM32F4xx_DSP_StdPeriph_Lib_V1.0.1/Libraries/STM32F4xx_StdPeriph_Driver/src/stm32f4xx_rcc.c ****   *(__IO uint8_t *) BDCR_ADDRESS = RCC_LSE_OFF;
 173              		.loc 1 366 0
 174 0064 064B     		ldr	r3, .L17
 175 0066 0022     		movs	r2, #0
 367:../STLibs//STM32F4xx_DSP_StdPeriph_Lib_V1.0.1/Libraries/STM32F4xx_StdPeriph_Driver/src/stm32f4xx_rcc.c **** 
 368:../STLibs//STM32F4xx_DSP_StdPeriph_Lib_V1.0.1/Libraries/STM32F4xx_StdPeriph_Driver/src/stm32f4xx_rcc.c ****   /* Reset LSEBYP bit */
 369:../STLibs//STM32F4xx_DSP_StdPeriph_Lib_V1.0.1/Libraries/STM32F4xx_StdPeriph_Driver/src/stm32f4xx_rcc.c ****   *(__IO uint8_t *) BDCR_ADDRESS = RCC_LSE_OFF;
 370:../STLibs//STM32F4xx_DSP_StdPeriph_Lib_V1.0.1/Libraries/STM32F4xx_StdPeriph_Driver/src/stm32f4xx_rcc.c **** 
 371:../STLibs//STM32F4xx_DSP_StdPeriph_Lib_V1.0.1/Libraries/STM32F4xx_StdPeriph_Driver/src/stm32f4xx_rcc.c ****   /* Configure LSE (RCC_LSE_OFF is already covered by the code section above) */
 372:../STLibs//STM32F4xx_DSP_StdPeriph_Lib_V1.0.1/Libraries/STM32F4xx_StdPeriph_Driver/src/stm32f4xx_rcc.c ****   switch (RCC_LSE)
 176              		.loc 1 372 0
 177 0068 0128     		cmp	r0, #1
 366:../STLibs//STM32F4xx_DSP_StdPeriph_Lib_V1.0.1/Libraries/STM32F4xx_StdPeriph_Driver/src/stm32f4xx_rcc.c **** 
 178              		.loc 1 366 0
 179 006a 1A70     		strb	r2, [r3]
 369:../STLibs//STM32F4xx_DSP_StdPeriph_Lib_V1.0.1/Libraries/STM32F4xx_StdPeriph_Driver/src/stm32f4xx_rcc.c **** 
 180              		.loc 1 369 0
 181 006c 1A70     		strb	r2, [r3]
 182              		.loc 1 372 0
 183 006e 02D0     		beq	.L15
 184 0070 0428     		cmp	r0, #4
 185 0072 02D0     		beq	.L16
 186 0074 7047     		bx	lr
 187              	.L15:
 373:../STLibs//STM32F4xx_DSP_StdPeriph_Lib_V1.0.1/Libraries/STM32F4xx_StdPeriph_Driver/src/stm32f4xx_rcc.c ****   {
 374:../STLibs//STM32F4xx_DSP_StdPeriph_Lib_V1.0.1/Libraries/STM32F4xx_StdPeriph_Driver/src/stm32f4xx_rcc.c ****     case RCC_LSE_ON:
 375:../STLibs//STM32F4xx_DSP_StdPeriph_Lib_V1.0.1/Libraries/STM32F4xx_StdPeriph_Driver/src/stm32f4xx_rcc.c ****       /* Set LSEON bit */
 376:../STLibs//STM32F4xx_DSP_StdPeriph_Lib_V1.0.1/Libraries/STM32F4xx_StdPeriph_Driver/src/stm32f4xx_rcc.c ****       *(__IO uint8_t *) BDCR_ADDRESS = RCC_LSE_ON;
 188              		.loc 1 376 0
 189 0076 1870     		strb	r0, [r3]
 377:../STLibs//STM32F4xx_DSP_StdPeriph_Lib_V1.0.1/Libraries/STM32F4xx_StdPeriph_Driver/src/stm32f4xx_rcc.c ****       break;
 190              		.loc 1 377 0
 191 0078 7047     		bx	lr
 192              	.L16:
 378:../STLibs//STM32F4xx_DSP_StdPeriph_Lib_V1.0.1/Libraries/STM32F4xx_StdPeriph_Driver/src/stm32f4xx_rcc.c ****     case RCC_LSE_Bypass:
 379:../STLibs//STM32F4xx_DSP_StdPeriph_Lib_V1.0.1/Libraries/STM32F4xx_StdPeriph_Driver/src/stm32f4xx_rcc.c ****       /* Set LSEBYP and LSEON bits */
 380:../STLibs//STM32F4xx_DSP_StdPeriph_Lib_V1.0.1/Libraries/STM32F4xx_StdPeriph_Driver/src/stm32f4xx_rcc.c ****       *(__IO uint8_t *) BDCR_ADDRESS = RCC_LSE_Bypass | RCC_LSE_ON;
 193              		.loc 1 380 0
 194 007a 0522     		movs	r2, #5
 195 007c 1A70     		strb	r2, [r3]
 381:../STLibs//STM32F4xx_DSP_StdPeriph_Lib_V1.0.1/Libraries/STM32F4xx_StdPeriph_Driver/src/stm32f4xx_rcc.c ****       break;
 382:../STLibs//STM32F4xx_DSP_StdPeriph_Lib_V1.0.1/Libraries/STM32F4xx_StdPeriph_Driver/src/stm32f4xx_rcc.c ****     default:
 383:../STLibs//STM32F4xx_DSP_StdPeriph_Lib_V1.0.1/Libraries/STM32F4xx_StdPeriph_Driver/src/stm32f4xx_rcc.c ****       break;
 384:../STLibs//STM32F4xx_DSP_StdPeriph_Lib_V1.0.1/Libraries/STM32F4xx_StdPeriph_Driver/src/stm32f4xx_rcc.c ****   }
 385:../STLibs//STM32F4xx_DSP_StdPeriph_Lib_V1.0.1/Libraries/STM32F4xx_StdPeriph_Driver/src/stm32f4xx_rcc.c **** }
 196              		.loc 1 385 0
 197 007e 7047     		bx	lr
 198              	.L18:
 199              		.align	2
 200              	.L17:
 201 0080 70380240 		.word	1073887344
 202              		.cfi_endproc
 203              	.LFE115:
 205              		.align	1
 206              		.global	RCC_LSICmd
 207              		.syntax unified
 208              		.thumb
 209              		.thumb_func
 210              		.fpu fpv4-sp-d16
 212              	RCC_LSICmd:
 213              	.LFB116:
 386:../STLibs//STM32F4xx_DSP_StdPeriph_Lib_V1.0.1/Libraries/STM32F4xx_StdPeriph_Driver/src/stm32f4xx_rcc.c **** 
 387:../STLibs//STM32F4xx_DSP_StdPeriph_Lib_V1.0.1/Libraries/STM32F4xx_StdPeriph_Driver/src/stm32f4xx_rcc.c **** /**
 388:../STLibs//STM32F4xx_DSP_StdPeriph_Lib_V1.0.1/Libraries/STM32F4xx_StdPeriph_Driver/src/stm32f4xx_rcc.c ****   * @brief  Enables or disables the Internal Low Speed oscillator (LSI).
 389:../STLibs//STM32F4xx_DSP_StdPeriph_Lib_V1.0.1/Libraries/STM32F4xx_StdPeriph_Driver/src/stm32f4xx_rcc.c ****   * @note   After enabling the LSI, the application software should wait on 
 390:../STLibs//STM32F4xx_DSP_StdPeriph_Lib_V1.0.1/Libraries/STM32F4xx_StdPeriph_Driver/src/stm32f4xx_rcc.c ****   *         LSIRDY flag to be set indicating that LSI clock is stable and can
 391:../STLibs//STM32F4xx_DSP_StdPeriph_Lib_V1.0.1/Libraries/STM32F4xx_StdPeriph_Driver/src/stm32f4xx_rcc.c ****   *         be used to clock the IWDG and/or the RTC.
 392:../STLibs//STM32F4xx_DSP_StdPeriph_Lib_V1.0.1/Libraries/STM32F4xx_StdPeriph_Driver/src/stm32f4xx_rcc.c ****   * @note   LSI can not be disabled if the IWDG is running.  
 393:../STLibs//STM32F4xx_DSP_StdPeriph_Lib_V1.0.1/Libraries/STM32F4xx_StdPeriph_Driver/src/stm32f4xx_rcc.c ****   * @param  NewState: new state of the LSI.
 394:../STLibs//STM32F4xx_DSP_StdPeriph_Lib_V1.0.1/Libraries/STM32F4xx_StdPeriph_Driver/src/stm32f4xx_rcc.c ****   *          This parameter can be: ENABLE or DISABLE.
 395:../STLibs//STM32F4xx_DSP_StdPeriph_Lib_V1.0.1/Libraries/STM32F4xx_StdPeriph_Driver/src/stm32f4xx_rcc.c ****   * @note   When the LSI is stopped, LSIRDY flag goes low after 6 LSI oscillator
 396:../STLibs//STM32F4xx_DSP_StdPeriph_Lib_V1.0.1/Libraries/STM32F4xx_StdPeriph_Driver/src/stm32f4xx_rcc.c ****   *         clock cycles. 
 397:../STLibs//STM32F4xx_DSP_StdPeriph_Lib_V1.0.1/Libraries/STM32F4xx_StdPeriph_Driver/src/stm32f4xx_rcc.c ****   * @retval None
 398:../STLibs//STM32F4xx_DSP_StdPeriph_Lib_V1.0.1/Libraries/STM32F4xx_StdPeriph_Driver/src/stm32f4xx_rcc.c ****   */
 399:../STLibs//STM32F4xx_DSP_StdPeriph_Lib_V1.0.1/Libraries/STM32F4xx_StdPeriph_Driver/src/stm32f4xx_rcc.c **** void RCC_LSICmd(FunctionalState NewState)
 400:../STLibs//STM32F4xx_DSP_StdPeriph_Lib_V1.0.1/Libraries/STM32F4xx_StdPeriph_Driver/src/stm32f4xx_rcc.c **** {
 214              		.loc 1 400 0
 215              		.cfi_startproc
 216              		@ args = 0, pretend = 0, frame = 0
 217              		@ frame_needed = 0, uses_anonymous_args = 0
 218              		@ link register save eliminated.
 219              	.LVL7:
 401:../STLibs//STM32F4xx_DSP_StdPeriph_Lib_V1.0.1/Libraries/STM32F4xx_StdPeriph_Driver/src/stm32f4xx_rcc.c ****   /* Check the parameters */
 402:../STLibs//STM32F4xx_DSP_StdPeriph_Lib_V1.0.1/Libraries/STM32F4xx_StdPeriph_Driver/src/stm32f4xx_rcc.c ****   assert_param(IS_FUNCTIONAL_STATE(NewState));
 403:../STLibs//STM32F4xx_DSP_StdPeriph_Lib_V1.0.1/Libraries/STM32F4xx_StdPeriph_Driver/src/stm32f4xx_rcc.c **** 
 404:../STLibs//STM32F4xx_DSP_StdPeriph_Lib_V1.0.1/Libraries/STM32F4xx_StdPeriph_Driver/src/stm32f4xx_rcc.c ****   *(__IO uint32_t *) CSR_LSION_BB = (uint32_t)NewState;
 220              		.loc 1 404 0
 221 0084 014B     		ldr	r3, .L20
 222 0086 1860     		str	r0, [r3]
 405:../STLibs//STM32F4xx_DSP_StdPeriph_Lib_V1.0.1/Libraries/STM32F4xx_StdPeriph_Driver/src/stm32f4xx_rcc.c **** }
 223              		.loc 1 405 0
 224 0088 7047     		bx	lr
 225              	.L21:
 226 008a 00BF     		.align	2
 227              	.L20:
 228 008c 800E4742 		.word	1111953024
 229              		.cfi_endproc
 230              	.LFE116:
 232              		.align	1
 233              		.global	RCC_PLLConfig
 234              		.syntax unified
 235              		.thumb
 236              		.thumb_func
 237              		.fpu fpv4-sp-d16
 239              	RCC_PLLConfig:
 240              	.LFB117:
 406:../STLibs//STM32F4xx_DSP_StdPeriph_Lib_V1.0.1/Libraries/STM32F4xx_StdPeriph_Driver/src/stm32f4xx_rcc.c **** 
 407:../STLibs//STM32F4xx_DSP_StdPeriph_Lib_V1.0.1/Libraries/STM32F4xx_StdPeriph_Driver/src/stm32f4xx_rcc.c **** /**
 408:../STLibs//STM32F4xx_DSP_StdPeriph_Lib_V1.0.1/Libraries/STM32F4xx_StdPeriph_Driver/src/stm32f4xx_rcc.c ****   * @brief  Configures the main PLL clock source, multiplication and division factors.
 409:../STLibs//STM32F4xx_DSP_StdPeriph_Lib_V1.0.1/Libraries/STM32F4xx_StdPeriph_Driver/src/stm32f4xx_rcc.c ****   * @note   This function must be used only when the main PLL is disabled.
 410:../STLibs//STM32F4xx_DSP_StdPeriph_Lib_V1.0.1/Libraries/STM32F4xx_StdPeriph_Driver/src/stm32f4xx_rcc.c ****   *  
 411:../STLibs//STM32F4xx_DSP_StdPeriph_Lib_V1.0.1/Libraries/STM32F4xx_StdPeriph_Driver/src/stm32f4xx_rcc.c ****   * @param  RCC_PLLSource: specifies the PLL entry clock source.
 412:../STLibs//STM32F4xx_DSP_StdPeriph_Lib_V1.0.1/Libraries/STM32F4xx_StdPeriph_Driver/src/stm32f4xx_rcc.c ****   *          This parameter can be one of the following values:
 413:../STLibs//STM32F4xx_DSP_StdPeriph_Lib_V1.0.1/Libraries/STM32F4xx_StdPeriph_Driver/src/stm32f4xx_rcc.c ****   *            @arg RCC_PLLSource_HSI: HSI oscillator clock selected as PLL clock entry
 414:../STLibs//STM32F4xx_DSP_StdPeriph_Lib_V1.0.1/Libraries/STM32F4xx_StdPeriph_Driver/src/stm32f4xx_rcc.c ****   *            @arg RCC_PLLSource_HSE: HSE oscillator clock selected as PLL clock entry
 415:../STLibs//STM32F4xx_DSP_StdPeriph_Lib_V1.0.1/Libraries/STM32F4xx_StdPeriph_Driver/src/stm32f4xx_rcc.c ****   * @note   This clock source (RCC_PLLSource) is common for the main PLL and PLLI2S.  
 416:../STLibs//STM32F4xx_DSP_StdPeriph_Lib_V1.0.1/Libraries/STM32F4xx_StdPeriph_Driver/src/stm32f4xx_rcc.c ****   *  
 417:../STLibs//STM32F4xx_DSP_StdPeriph_Lib_V1.0.1/Libraries/STM32F4xx_StdPeriph_Driver/src/stm32f4xx_rcc.c ****   * @param  PLLM: specifies the division factor for PLL VCO input clock
 418:../STLibs//STM32F4xx_DSP_StdPeriph_Lib_V1.0.1/Libraries/STM32F4xx_StdPeriph_Driver/src/stm32f4xx_rcc.c ****   *          This parameter must be a number between 0 and 63.
 419:../STLibs//STM32F4xx_DSP_StdPeriph_Lib_V1.0.1/Libraries/STM32F4xx_StdPeriph_Driver/src/stm32f4xx_rcc.c ****   * @note   You have to set the PLLM parameter correctly to ensure that the VCO input
 420:../STLibs//STM32F4xx_DSP_StdPeriph_Lib_V1.0.1/Libraries/STM32F4xx_StdPeriph_Driver/src/stm32f4xx_rcc.c ****   *         frequency ranges from 1 to 2 MHz. It is recommended to select a frequency
 421:../STLibs//STM32F4xx_DSP_StdPeriph_Lib_V1.0.1/Libraries/STM32F4xx_StdPeriph_Driver/src/stm32f4xx_rcc.c ****   *         of 2 MHz to limit PLL jitter.
 422:../STLibs//STM32F4xx_DSP_StdPeriph_Lib_V1.0.1/Libraries/STM32F4xx_StdPeriph_Driver/src/stm32f4xx_rcc.c ****   *  
 423:../STLibs//STM32F4xx_DSP_StdPeriph_Lib_V1.0.1/Libraries/STM32F4xx_StdPeriph_Driver/src/stm32f4xx_rcc.c ****   * @param  PLLN: specifies the multiplication factor for PLL VCO output clock
 424:../STLibs//STM32F4xx_DSP_StdPeriph_Lib_V1.0.1/Libraries/STM32F4xx_StdPeriph_Driver/src/stm32f4xx_rcc.c ****   *          This parameter must be a number between 192 and 432.
 425:../STLibs//STM32F4xx_DSP_StdPeriph_Lib_V1.0.1/Libraries/STM32F4xx_StdPeriph_Driver/src/stm32f4xx_rcc.c ****   * @note   You have to set the PLLN parameter correctly to ensure that the VCO
 426:../STLibs//STM32F4xx_DSP_StdPeriph_Lib_V1.0.1/Libraries/STM32F4xx_StdPeriph_Driver/src/stm32f4xx_rcc.c ****   *         output frequency is between 192 and 432 MHz.
 427:../STLibs//STM32F4xx_DSP_StdPeriph_Lib_V1.0.1/Libraries/STM32F4xx_StdPeriph_Driver/src/stm32f4xx_rcc.c ****   *   
 428:../STLibs//STM32F4xx_DSP_StdPeriph_Lib_V1.0.1/Libraries/STM32F4xx_StdPeriph_Driver/src/stm32f4xx_rcc.c ****   * @param  PLLP: specifies the division factor for main system clock (SYSCLK)
 429:../STLibs//STM32F4xx_DSP_StdPeriph_Lib_V1.0.1/Libraries/STM32F4xx_StdPeriph_Driver/src/stm32f4xx_rcc.c ****   *          This parameter must be a number in the range {2, 4, 6, or 8}.
 430:../STLibs//STM32F4xx_DSP_StdPeriph_Lib_V1.0.1/Libraries/STM32F4xx_StdPeriph_Driver/src/stm32f4xx_rcc.c ****   * @note   You have to set the PLLP parameter correctly to not exceed 168 MHz on
 431:../STLibs//STM32F4xx_DSP_StdPeriph_Lib_V1.0.1/Libraries/STM32F4xx_StdPeriph_Driver/src/stm32f4xx_rcc.c ****   *         the System clock frequency.
 432:../STLibs//STM32F4xx_DSP_StdPeriph_Lib_V1.0.1/Libraries/STM32F4xx_StdPeriph_Driver/src/stm32f4xx_rcc.c ****   *  
 433:../STLibs//STM32F4xx_DSP_StdPeriph_Lib_V1.0.1/Libraries/STM32F4xx_StdPeriph_Driver/src/stm32f4xx_rcc.c ****   * @param  PLLQ: specifies the division factor for OTG FS, SDIO and RNG clocks
 434:../STLibs//STM32F4xx_DSP_StdPeriph_Lib_V1.0.1/Libraries/STM32F4xx_StdPeriph_Driver/src/stm32f4xx_rcc.c ****   *          This parameter must be a number between 4 and 15.
 435:../STLibs//STM32F4xx_DSP_StdPeriph_Lib_V1.0.1/Libraries/STM32F4xx_StdPeriph_Driver/src/stm32f4xx_rcc.c ****   * @note   If the USB OTG FS is used in your application, you have to set the
 436:../STLibs//STM32F4xx_DSP_StdPeriph_Lib_V1.0.1/Libraries/STM32F4xx_StdPeriph_Driver/src/stm32f4xx_rcc.c ****   *         PLLQ parameter correctly to have 48 MHz clock for the USB. However,
 437:../STLibs//STM32F4xx_DSP_StdPeriph_Lib_V1.0.1/Libraries/STM32F4xx_StdPeriph_Driver/src/stm32f4xx_rcc.c ****   *         the SDIO and RNG need a frequency lower than or equal to 48 MHz to work
 438:../STLibs//STM32F4xx_DSP_StdPeriph_Lib_V1.0.1/Libraries/STM32F4xx_StdPeriph_Driver/src/stm32f4xx_rcc.c ****   *         correctly.
 439:../STLibs//STM32F4xx_DSP_StdPeriph_Lib_V1.0.1/Libraries/STM32F4xx_StdPeriph_Driver/src/stm32f4xx_rcc.c ****   *   
 440:../STLibs//STM32F4xx_DSP_StdPeriph_Lib_V1.0.1/Libraries/STM32F4xx_StdPeriph_Driver/src/stm32f4xx_rcc.c ****   * @retval None
 441:../STLibs//STM32F4xx_DSP_StdPeriph_Lib_V1.0.1/Libraries/STM32F4xx_StdPeriph_Driver/src/stm32f4xx_rcc.c ****   */
 442:../STLibs//STM32F4xx_DSP_StdPeriph_Lib_V1.0.1/Libraries/STM32F4xx_StdPeriph_Driver/src/stm32f4xx_rcc.c **** void RCC_PLLConfig(uint32_t RCC_PLLSource, uint32_t PLLM, uint32_t PLLN, uint32_t PLLP, uint32_t PL
 443:../STLibs//STM32F4xx_DSP_StdPeriph_Lib_V1.0.1/Libraries/STM32F4xx_StdPeriph_Driver/src/stm32f4xx_rcc.c **** {
 241              		.loc 1 443 0
 242              		.cfi_startproc
 243              		@ args = 4, pretend = 0, frame = 0
 244              		@ frame_needed = 0, uses_anonymous_args = 0
 245              	.LVL8:
 246 0090 10B5     		push	{r4, lr}
 247              	.LCFI0:
 248              		.cfi_def_cfa_offset 8
 249              		.cfi_offset 4, -8
 250              		.cfi_offset 14, -4
 444:../STLibs//STM32F4xx_DSP_StdPeriph_Lib_V1.0.1/Libraries/STM32F4xx_StdPeriph_Driver/src/stm32f4xx_rcc.c ****   /* Check the parameters */
 445:../STLibs//STM32F4xx_DSP_StdPeriph_Lib_V1.0.1/Libraries/STM32F4xx_StdPeriph_Driver/src/stm32f4xx_rcc.c ****   assert_param(IS_RCC_PLL_SOURCE(RCC_PLLSource));
 446:../STLibs//STM32F4xx_DSP_StdPeriph_Lib_V1.0.1/Libraries/STM32F4xx_StdPeriph_Driver/src/stm32f4xx_rcc.c ****   assert_param(IS_RCC_PLLM_VALUE(PLLM));
 447:../STLibs//STM32F4xx_DSP_StdPeriph_Lib_V1.0.1/Libraries/STM32F4xx_StdPeriph_Driver/src/stm32f4xx_rcc.c ****   assert_param(IS_RCC_PLLN_VALUE(PLLN));
 448:../STLibs//STM32F4xx_DSP_StdPeriph_Lib_V1.0.1/Libraries/STM32F4xx_StdPeriph_Driver/src/stm32f4xx_rcc.c ****   assert_param(IS_RCC_PLLP_VALUE(PLLP));
 449:../STLibs//STM32F4xx_DSP_StdPeriph_Lib_V1.0.1/Libraries/STM32F4xx_StdPeriph_Driver/src/stm32f4xx_rcc.c ****   assert_param(IS_RCC_PLLQ_VALUE(PLLQ));
 450:../STLibs//STM32F4xx_DSP_StdPeriph_Lib_V1.0.1/Libraries/STM32F4xx_StdPeriph_Driver/src/stm32f4xx_rcc.c **** 
 451:../STLibs//STM32F4xx_DSP_StdPeriph_Lib_V1.0.1/Libraries/STM32F4xx_StdPeriph_Driver/src/stm32f4xx_rcc.c ****   RCC->PLLCFGR = PLLM | (PLLN << 6) | (((PLLP >> 1) -1) << 16) | (RCC_PLLSource) |
 251              		.loc 1 451 0
 252 0092 029C     		ldr	r4, [sp, #8]
 253 0094 40EA0460 		orr	r0, r0, r4, lsl #24
 254              	.LVL9:
 255 0098 0843     		orrs	r0, r0, r1
 256 009a 5B08     		lsrs	r3, r3, #1
 257              	.LVL10:
 258 009c 013B     		subs	r3, r3, #1
 259 009e 40EA8210 		orr	r0, r0, r2, lsl #6
 260 00a2 40EA0340 		orr	r0, r0, r3, lsl #16
 261 00a6 014B     		ldr	r3, .L23
 262 00a8 5860     		str	r0, [r3, #4]
 263              	.LVL11:
 452:../STLibs//STM32F4xx_DSP_StdPeriph_Lib_V1.0.1/Libraries/STM32F4xx_StdPeriph_Driver/src/stm32f4xx_rcc.c ****                  (PLLQ << 24);
 453:../STLibs//STM32F4xx_DSP_StdPeriph_Lib_V1.0.1/Libraries/STM32F4xx_StdPeriph_Driver/src/stm32f4xx_rcc.c **** }
 264              		.loc 1 453 0
 265 00aa 10BD     		pop	{r4, pc}
 266              	.L24:
 267              		.align	2
 268              	.L23:
 269 00ac 00380240 		.word	1073887232
 270              		.cfi_endproc
 271              	.LFE117:
 273              		.align	1
 274              		.global	RCC_PLLCmd
 275              		.syntax unified
 276              		.thumb
 277              		.thumb_func
 278              		.fpu fpv4-sp-d16
 280              	RCC_PLLCmd:
 281              	.LFB118:
 454:../STLibs//STM32F4xx_DSP_StdPeriph_Lib_V1.0.1/Libraries/STM32F4xx_StdPeriph_Driver/src/stm32f4xx_rcc.c **** 
 455:../STLibs//STM32F4xx_DSP_StdPeriph_Lib_V1.0.1/Libraries/STM32F4xx_StdPeriph_Driver/src/stm32f4xx_rcc.c **** /**
 456:../STLibs//STM32F4xx_DSP_StdPeriph_Lib_V1.0.1/Libraries/STM32F4xx_StdPeriph_Driver/src/stm32f4xx_rcc.c ****   * @brief  Enables or disables the main PLL.
 457:../STLibs//STM32F4xx_DSP_StdPeriph_Lib_V1.0.1/Libraries/STM32F4xx_StdPeriph_Driver/src/stm32f4xx_rcc.c ****   * @note   After enabling the main PLL, the application software should wait on 
 458:../STLibs//STM32F4xx_DSP_StdPeriph_Lib_V1.0.1/Libraries/STM32F4xx_StdPeriph_Driver/src/stm32f4xx_rcc.c ****   *         PLLRDY flag to be set indicating that PLL clock is stable and can
 459:../STLibs//STM32F4xx_DSP_StdPeriph_Lib_V1.0.1/Libraries/STM32F4xx_StdPeriph_Driver/src/stm32f4xx_rcc.c ****   *         be used as system clock source.
 460:../STLibs//STM32F4xx_DSP_StdPeriph_Lib_V1.0.1/Libraries/STM32F4xx_StdPeriph_Driver/src/stm32f4xx_rcc.c ****   * @note   The main PLL can not be disabled if it is used as system clock source
 461:../STLibs//STM32F4xx_DSP_StdPeriph_Lib_V1.0.1/Libraries/STM32F4xx_StdPeriph_Driver/src/stm32f4xx_rcc.c ****   * @note   The main PLL is disabled by hardware when entering STOP and STANDBY modes.
 462:../STLibs//STM32F4xx_DSP_StdPeriph_Lib_V1.0.1/Libraries/STM32F4xx_StdPeriph_Driver/src/stm32f4xx_rcc.c ****   * @param  NewState: new state of the main PLL. This parameter can be: ENABLE or DISABLE.
 463:../STLibs//STM32F4xx_DSP_StdPeriph_Lib_V1.0.1/Libraries/STM32F4xx_StdPeriph_Driver/src/stm32f4xx_rcc.c ****   * @retval None
 464:../STLibs//STM32F4xx_DSP_StdPeriph_Lib_V1.0.1/Libraries/STM32F4xx_StdPeriph_Driver/src/stm32f4xx_rcc.c ****   */
 465:../STLibs//STM32F4xx_DSP_StdPeriph_Lib_V1.0.1/Libraries/STM32F4xx_StdPeriph_Driver/src/stm32f4xx_rcc.c **** void RCC_PLLCmd(FunctionalState NewState)
 466:../STLibs//STM32F4xx_DSP_StdPeriph_Lib_V1.0.1/Libraries/STM32F4xx_StdPeriph_Driver/src/stm32f4xx_rcc.c **** {
 282              		.loc 1 466 0
 283              		.cfi_startproc
 284              		@ args = 0, pretend = 0, frame = 0
 285              		@ frame_needed = 0, uses_anonymous_args = 0
 286              		@ link register save eliminated.
 287              	.LVL12:
 467:../STLibs//STM32F4xx_DSP_StdPeriph_Lib_V1.0.1/Libraries/STM32F4xx_StdPeriph_Driver/src/stm32f4xx_rcc.c ****   /* Check the parameters */
 468:../STLibs//STM32F4xx_DSP_StdPeriph_Lib_V1.0.1/Libraries/STM32F4xx_StdPeriph_Driver/src/stm32f4xx_rcc.c ****   assert_param(IS_FUNCTIONAL_STATE(NewState));
 469:../STLibs//STM32F4xx_DSP_StdPeriph_Lib_V1.0.1/Libraries/STM32F4xx_StdPeriph_Driver/src/stm32f4xx_rcc.c ****   *(__IO uint32_t *) CR_PLLON_BB = (uint32_t)NewState;
 288              		.loc 1 469 0
 289 00b0 014B     		ldr	r3, .L26
 290 00b2 1860     		str	r0, [r3]
 470:../STLibs//STM32F4xx_DSP_StdPeriph_Lib_V1.0.1/Libraries/STM32F4xx_StdPeriph_Driver/src/stm32f4xx_rcc.c **** }
 291              		.loc 1 470 0
 292 00b4 7047     		bx	lr
 293              	.L27:
 294 00b6 00BF     		.align	2
 295              	.L26:
 296 00b8 60004742 		.word	1111949408
 297              		.cfi_endproc
 298              	.LFE118:
 300              		.align	1
 301              		.global	RCC_PLLI2SConfig
 302              		.syntax unified
 303              		.thumb
 304              		.thumb_func
 305              		.fpu fpv4-sp-d16
 307              	RCC_PLLI2SConfig:
 308              	.LFB119:
 471:../STLibs//STM32F4xx_DSP_StdPeriph_Lib_V1.0.1/Libraries/STM32F4xx_StdPeriph_Driver/src/stm32f4xx_rcc.c **** 
 472:../STLibs//STM32F4xx_DSP_StdPeriph_Lib_V1.0.1/Libraries/STM32F4xx_StdPeriph_Driver/src/stm32f4xx_rcc.c **** /**
 473:../STLibs//STM32F4xx_DSP_StdPeriph_Lib_V1.0.1/Libraries/STM32F4xx_StdPeriph_Driver/src/stm32f4xx_rcc.c ****   * @brief  Configures the PLLI2S clock multiplication and division factors.
 474:../STLibs//STM32F4xx_DSP_StdPeriph_Lib_V1.0.1/Libraries/STM32F4xx_StdPeriph_Driver/src/stm32f4xx_rcc.c ****   *  
 475:../STLibs//STM32F4xx_DSP_StdPeriph_Lib_V1.0.1/Libraries/STM32F4xx_StdPeriph_Driver/src/stm32f4xx_rcc.c ****   * @note   This function must be used only when the PLLI2S is disabled.
 476:../STLibs//STM32F4xx_DSP_StdPeriph_Lib_V1.0.1/Libraries/STM32F4xx_StdPeriph_Driver/src/stm32f4xx_rcc.c ****   * @note   PLLI2S clock source is common with the main PLL (configured in 
 477:../STLibs//STM32F4xx_DSP_StdPeriph_Lib_V1.0.1/Libraries/STM32F4xx_StdPeriph_Driver/src/stm32f4xx_rcc.c ****   *         RCC_PLLConfig function )  
 478:../STLibs//STM32F4xx_DSP_StdPeriph_Lib_V1.0.1/Libraries/STM32F4xx_StdPeriph_Driver/src/stm32f4xx_rcc.c ****   *             
 479:../STLibs//STM32F4xx_DSP_StdPeriph_Lib_V1.0.1/Libraries/STM32F4xx_StdPeriph_Driver/src/stm32f4xx_rcc.c ****   * @param  PLLI2SN: specifies the multiplication factor for PLLI2S VCO output clock
 480:../STLibs//STM32F4xx_DSP_StdPeriph_Lib_V1.0.1/Libraries/STM32F4xx_StdPeriph_Driver/src/stm32f4xx_rcc.c ****   *          This parameter must be a number between 192 and 432.
 481:../STLibs//STM32F4xx_DSP_StdPeriph_Lib_V1.0.1/Libraries/STM32F4xx_StdPeriph_Driver/src/stm32f4xx_rcc.c ****   * @note   You have to set the PLLI2SN parameter correctly to ensure that the VCO 
 482:../STLibs//STM32F4xx_DSP_StdPeriph_Lib_V1.0.1/Libraries/STM32F4xx_StdPeriph_Driver/src/stm32f4xx_rcc.c ****   *         output frequency is between 192 and 432 MHz.
 483:../STLibs//STM32F4xx_DSP_StdPeriph_Lib_V1.0.1/Libraries/STM32F4xx_StdPeriph_Driver/src/stm32f4xx_rcc.c ****   *    
 484:../STLibs//STM32F4xx_DSP_StdPeriph_Lib_V1.0.1/Libraries/STM32F4xx_StdPeriph_Driver/src/stm32f4xx_rcc.c ****   * @param  PLLI2SR: specifies the division factor for I2S clock
 485:../STLibs//STM32F4xx_DSP_StdPeriph_Lib_V1.0.1/Libraries/STM32F4xx_StdPeriph_Driver/src/stm32f4xx_rcc.c ****   *          This parameter must be a number between 2 and 7.
 486:../STLibs//STM32F4xx_DSP_StdPeriph_Lib_V1.0.1/Libraries/STM32F4xx_StdPeriph_Driver/src/stm32f4xx_rcc.c ****   * @note   You have to set the PLLI2SR parameter correctly to not exceed 192 MHz
 487:../STLibs//STM32F4xx_DSP_StdPeriph_Lib_V1.0.1/Libraries/STM32F4xx_StdPeriph_Driver/src/stm32f4xx_rcc.c ****   *         on the I2S clock frequency.
 488:../STLibs//STM32F4xx_DSP_StdPeriph_Lib_V1.0.1/Libraries/STM32F4xx_StdPeriph_Driver/src/stm32f4xx_rcc.c ****   *   
 489:../STLibs//STM32F4xx_DSP_StdPeriph_Lib_V1.0.1/Libraries/STM32F4xx_StdPeriph_Driver/src/stm32f4xx_rcc.c ****   * @retval None
 490:../STLibs//STM32F4xx_DSP_StdPeriph_Lib_V1.0.1/Libraries/STM32F4xx_StdPeriph_Driver/src/stm32f4xx_rcc.c ****   */
 491:../STLibs//STM32F4xx_DSP_StdPeriph_Lib_V1.0.1/Libraries/STM32F4xx_StdPeriph_Driver/src/stm32f4xx_rcc.c **** void RCC_PLLI2SConfig(uint32_t PLLI2SN, uint32_t PLLI2SR)
 492:../STLibs//STM32F4xx_DSP_StdPeriph_Lib_V1.0.1/Libraries/STM32F4xx_StdPeriph_Driver/src/stm32f4xx_rcc.c **** {
 309              		.loc 1 492 0
 310              		.cfi_startproc
 311              		@ args = 0, pretend = 0, frame = 0
 312              		@ frame_needed = 0, uses_anonymous_args = 0
 313              		@ link register save eliminated.
 314              	.LVL13:
 493:../STLibs//STM32F4xx_DSP_StdPeriph_Lib_V1.0.1/Libraries/STM32F4xx_StdPeriph_Driver/src/stm32f4xx_rcc.c ****   /* Check the parameters */
 494:../STLibs//STM32F4xx_DSP_StdPeriph_Lib_V1.0.1/Libraries/STM32F4xx_StdPeriph_Driver/src/stm32f4xx_rcc.c ****   assert_param(IS_RCC_PLLI2SN_VALUE(PLLI2SN));
 495:../STLibs//STM32F4xx_DSP_StdPeriph_Lib_V1.0.1/Libraries/STM32F4xx_StdPeriph_Driver/src/stm32f4xx_rcc.c ****   assert_param(IS_RCC_PLLI2SR_VALUE(PLLI2SR));
 496:../STLibs//STM32F4xx_DSP_StdPeriph_Lib_V1.0.1/Libraries/STM32F4xx_StdPeriph_Driver/src/stm32f4xx_rcc.c **** 
 497:../STLibs//STM32F4xx_DSP_StdPeriph_Lib_V1.0.1/Libraries/STM32F4xx_StdPeriph_Driver/src/stm32f4xx_rcc.c ****   RCC->PLLI2SCFGR = (PLLI2SN << 6) | (PLLI2SR << 28);
 315              		.loc 1 497 0
 316 00bc 0907     		lsls	r1, r1, #28
 317              	.LVL14:
 318 00be 034B     		ldr	r3, .L29
 319 00c0 41EA8011 		orr	r1, r1, r0, lsl #6
 320 00c4 C3F88410 		str	r1, [r3, #132]
 498:../STLibs//STM32F4xx_DSP_StdPeriph_Lib_V1.0.1/Libraries/STM32F4xx_StdPeriph_Driver/src/stm32f4xx_rcc.c **** }
 321              		.loc 1 498 0
 322 00c8 7047     		bx	lr
 323              	.L30:
 324 00ca 00BF     		.align	2
 325              	.L29:
 326 00cc 00380240 		.word	1073887232
 327              		.cfi_endproc
 328              	.LFE119:
 330              		.align	1
 331              		.global	RCC_PLLI2SCmd
 332              		.syntax unified
 333              		.thumb
 334              		.thumb_func
 335              		.fpu fpv4-sp-d16
 337              	RCC_PLLI2SCmd:
 338              	.LFB120:
 499:../STLibs//STM32F4xx_DSP_StdPeriph_Lib_V1.0.1/Libraries/STM32F4xx_StdPeriph_Driver/src/stm32f4xx_rcc.c **** 
 500:../STLibs//STM32F4xx_DSP_StdPeriph_Lib_V1.0.1/Libraries/STM32F4xx_StdPeriph_Driver/src/stm32f4xx_rcc.c **** /**
 501:../STLibs//STM32F4xx_DSP_StdPeriph_Lib_V1.0.1/Libraries/STM32F4xx_StdPeriph_Driver/src/stm32f4xx_rcc.c ****   * @brief  Enables or disables the PLLI2S. 
 502:../STLibs//STM32F4xx_DSP_StdPeriph_Lib_V1.0.1/Libraries/STM32F4xx_StdPeriph_Driver/src/stm32f4xx_rcc.c ****   * @note   The PLLI2S is disabled by hardware when entering STOP and STANDBY modes.  
 503:../STLibs//STM32F4xx_DSP_StdPeriph_Lib_V1.0.1/Libraries/STM32F4xx_StdPeriph_Driver/src/stm32f4xx_rcc.c ****   * @param  NewState: new state of the PLLI2S. This parameter can be: ENABLE or DISABLE.
 504:../STLibs//STM32F4xx_DSP_StdPeriph_Lib_V1.0.1/Libraries/STM32F4xx_StdPeriph_Driver/src/stm32f4xx_rcc.c ****   * @retval None
 505:../STLibs//STM32F4xx_DSP_StdPeriph_Lib_V1.0.1/Libraries/STM32F4xx_StdPeriph_Driver/src/stm32f4xx_rcc.c ****   */
 506:../STLibs//STM32F4xx_DSP_StdPeriph_Lib_V1.0.1/Libraries/STM32F4xx_StdPeriph_Driver/src/stm32f4xx_rcc.c **** void RCC_PLLI2SCmd(FunctionalState NewState)
 507:../STLibs//STM32F4xx_DSP_StdPeriph_Lib_V1.0.1/Libraries/STM32F4xx_StdPeriph_Driver/src/stm32f4xx_rcc.c **** {
 339              		.loc 1 507 0
 340              		.cfi_startproc
 341              		@ args = 0, pretend = 0, frame = 0
 342              		@ frame_needed = 0, uses_anonymous_args = 0
 343              		@ link register save eliminated.
 344              	.LVL15:
 508:../STLibs//STM32F4xx_DSP_StdPeriph_Lib_V1.0.1/Libraries/STM32F4xx_StdPeriph_Driver/src/stm32f4xx_rcc.c ****   /* Check the parameters */
 509:../STLibs//STM32F4xx_DSP_StdPeriph_Lib_V1.0.1/Libraries/STM32F4xx_StdPeriph_Driver/src/stm32f4xx_rcc.c ****   assert_param(IS_FUNCTIONAL_STATE(NewState));
 510:../STLibs//STM32F4xx_DSP_StdPeriph_Lib_V1.0.1/Libraries/STM32F4xx_StdPeriph_Driver/src/stm32f4xx_rcc.c ****   *(__IO uint32_t *) CR_PLLI2SON_BB = (uint32_t)NewState;
 345              		.loc 1 510 0
 346 00d0 014B     		ldr	r3, .L32
 347 00d2 1860     		str	r0, [r3]
 511:../STLibs//STM32F4xx_DSP_StdPeriph_Lib_V1.0.1/Libraries/STM32F4xx_StdPeriph_Driver/src/stm32f4xx_rcc.c **** }
 348              		.loc 1 511 0
 349 00d4 7047     		bx	lr
 350              	.L33:
 351 00d6 00BF     		.align	2
 352              	.L32:
 353 00d8 68004742 		.word	1111949416
 354              		.cfi_endproc
 355              	.LFE120:
 357              		.align	1
 358              		.global	RCC_ClockSecuritySystemCmd
 359              		.syntax unified
 360              		.thumb
 361              		.thumb_func
 362              		.fpu fpv4-sp-d16
 364              	RCC_ClockSecuritySystemCmd:
 365              	.LFB121:
 512:../STLibs//STM32F4xx_DSP_StdPeriph_Lib_V1.0.1/Libraries/STM32F4xx_StdPeriph_Driver/src/stm32f4xx_rcc.c **** 
 513:../STLibs//STM32F4xx_DSP_StdPeriph_Lib_V1.0.1/Libraries/STM32F4xx_StdPeriph_Driver/src/stm32f4xx_rcc.c **** /**
 514:../STLibs//STM32F4xx_DSP_StdPeriph_Lib_V1.0.1/Libraries/STM32F4xx_StdPeriph_Driver/src/stm32f4xx_rcc.c ****   * @brief  Enables or disables the Clock Security System.
 515:../STLibs//STM32F4xx_DSP_StdPeriph_Lib_V1.0.1/Libraries/STM32F4xx_StdPeriph_Driver/src/stm32f4xx_rcc.c ****   * @note   If a failure is detected on the HSE oscillator clock, this oscillator
 516:../STLibs//STM32F4xx_DSP_StdPeriph_Lib_V1.0.1/Libraries/STM32F4xx_StdPeriph_Driver/src/stm32f4xx_rcc.c ****   *         is automatically disabled and an interrupt is generated to inform the
 517:../STLibs//STM32F4xx_DSP_StdPeriph_Lib_V1.0.1/Libraries/STM32F4xx_StdPeriph_Driver/src/stm32f4xx_rcc.c ****   *         software about the failure (Clock Security System Interrupt, CSSI),
 518:../STLibs//STM32F4xx_DSP_StdPeriph_Lib_V1.0.1/Libraries/STM32F4xx_StdPeriph_Driver/src/stm32f4xx_rcc.c ****   *         allowing the MCU to perform rescue operations. The CSSI is linked to 
 519:../STLibs//STM32F4xx_DSP_StdPeriph_Lib_V1.0.1/Libraries/STM32F4xx_StdPeriph_Driver/src/stm32f4xx_rcc.c ****   *         the Cortex-M4 NMI (Non-Maskable Interrupt) exception vector.  
 520:../STLibs//STM32F4xx_DSP_StdPeriph_Lib_V1.0.1/Libraries/STM32F4xx_StdPeriph_Driver/src/stm32f4xx_rcc.c ****   * @param  NewState: new state of the Clock Security System.
 521:../STLibs//STM32F4xx_DSP_StdPeriph_Lib_V1.0.1/Libraries/STM32F4xx_StdPeriph_Driver/src/stm32f4xx_rcc.c ****   *         This parameter can be: ENABLE or DISABLE.
 522:../STLibs//STM32F4xx_DSP_StdPeriph_Lib_V1.0.1/Libraries/STM32F4xx_StdPeriph_Driver/src/stm32f4xx_rcc.c ****   * @retval None
 523:../STLibs//STM32F4xx_DSP_StdPeriph_Lib_V1.0.1/Libraries/STM32F4xx_StdPeriph_Driver/src/stm32f4xx_rcc.c ****   */
 524:../STLibs//STM32F4xx_DSP_StdPeriph_Lib_V1.0.1/Libraries/STM32F4xx_StdPeriph_Driver/src/stm32f4xx_rcc.c **** void RCC_ClockSecuritySystemCmd(FunctionalState NewState)
 525:../STLibs//STM32F4xx_DSP_StdPeriph_Lib_V1.0.1/Libraries/STM32F4xx_StdPeriph_Driver/src/stm32f4xx_rcc.c **** {
 366              		.loc 1 525 0
 367              		.cfi_startproc
 368              		@ args = 0, pretend = 0, frame = 0
 369              		@ frame_needed = 0, uses_anonymous_args = 0
 370              		@ link register save eliminated.
 371              	.LVL16:
 526:../STLibs//STM32F4xx_DSP_StdPeriph_Lib_V1.0.1/Libraries/STM32F4xx_StdPeriph_Driver/src/stm32f4xx_rcc.c ****   /* Check the parameters */
 527:../STLibs//STM32F4xx_DSP_StdPeriph_Lib_V1.0.1/Libraries/STM32F4xx_StdPeriph_Driver/src/stm32f4xx_rcc.c ****   assert_param(IS_FUNCTIONAL_STATE(NewState));
 528:../STLibs//STM32F4xx_DSP_StdPeriph_Lib_V1.0.1/Libraries/STM32F4xx_StdPeriph_Driver/src/stm32f4xx_rcc.c ****   *(__IO uint32_t *) CR_CSSON_BB = (uint32_t)NewState;
 372              		.loc 1 528 0
 373 00dc 014B     		ldr	r3, .L35
 374 00de 1860     		str	r0, [r3]
 529:../STLibs//STM32F4xx_DSP_StdPeriph_Lib_V1.0.1/Libraries/STM32F4xx_StdPeriph_Driver/src/stm32f4xx_rcc.c **** }
 375              		.loc 1 529 0
 376 00e0 7047     		bx	lr
 377              	.L36:
 378 00e2 00BF     		.align	2
 379              	.L35:
 380 00e4 4C004742 		.word	1111949388
 381              		.cfi_endproc
 382              	.LFE121:
 384              		.align	1
 385              		.global	RCC_MCO1Config
 386              		.syntax unified
 387              		.thumb
 388              		.thumb_func
 389              		.fpu fpv4-sp-d16
 391              	RCC_MCO1Config:
 392              	.LFB122:
 530:../STLibs//STM32F4xx_DSP_StdPeriph_Lib_V1.0.1/Libraries/STM32F4xx_StdPeriph_Driver/src/stm32f4xx_rcc.c **** 
 531:../STLibs//STM32F4xx_DSP_StdPeriph_Lib_V1.0.1/Libraries/STM32F4xx_StdPeriph_Driver/src/stm32f4xx_rcc.c **** /**
 532:../STLibs//STM32F4xx_DSP_StdPeriph_Lib_V1.0.1/Libraries/STM32F4xx_StdPeriph_Driver/src/stm32f4xx_rcc.c ****   * @brief  Selects the clock source to output on MCO1 pin(PA8).
 533:../STLibs//STM32F4xx_DSP_StdPeriph_Lib_V1.0.1/Libraries/STM32F4xx_StdPeriph_Driver/src/stm32f4xx_rcc.c ****   * @note   PA8 should be configured in alternate function mode.
 534:../STLibs//STM32F4xx_DSP_StdPeriph_Lib_V1.0.1/Libraries/STM32F4xx_StdPeriph_Driver/src/stm32f4xx_rcc.c ****   * @param  RCC_MCO1Source: specifies the clock source to output.
 535:../STLibs//STM32F4xx_DSP_StdPeriph_Lib_V1.0.1/Libraries/STM32F4xx_StdPeriph_Driver/src/stm32f4xx_rcc.c ****   *          This parameter can be one of the following values:
 536:../STLibs//STM32F4xx_DSP_StdPeriph_Lib_V1.0.1/Libraries/STM32F4xx_StdPeriph_Driver/src/stm32f4xx_rcc.c ****   *            @arg RCC_MCO1Source_HSI: HSI clock selected as MCO1 source
 537:../STLibs//STM32F4xx_DSP_StdPeriph_Lib_V1.0.1/Libraries/STM32F4xx_StdPeriph_Driver/src/stm32f4xx_rcc.c ****   *            @arg RCC_MCO1Source_LSE: LSE clock selected as MCO1 source
 538:../STLibs//STM32F4xx_DSP_StdPeriph_Lib_V1.0.1/Libraries/STM32F4xx_StdPeriph_Driver/src/stm32f4xx_rcc.c ****   *            @arg RCC_MCO1Source_HSE: HSE clock selected as MCO1 source
 539:../STLibs//STM32F4xx_DSP_StdPeriph_Lib_V1.0.1/Libraries/STM32F4xx_StdPeriph_Driver/src/stm32f4xx_rcc.c ****   *            @arg RCC_MCO1Source_PLLCLK: main PLL clock selected as MCO1 source
 540:../STLibs//STM32F4xx_DSP_StdPeriph_Lib_V1.0.1/Libraries/STM32F4xx_StdPeriph_Driver/src/stm32f4xx_rcc.c ****   * @param  RCC_MCO1Div: specifies the MCO1 prescaler.
 541:../STLibs//STM32F4xx_DSP_StdPeriph_Lib_V1.0.1/Libraries/STM32F4xx_StdPeriph_Driver/src/stm32f4xx_rcc.c ****   *          This parameter can be one of the following values:
 542:../STLibs//STM32F4xx_DSP_StdPeriph_Lib_V1.0.1/Libraries/STM32F4xx_StdPeriph_Driver/src/stm32f4xx_rcc.c ****   *            @arg RCC_MCO1Div_1: no division applied to MCO1 clock
 543:../STLibs//STM32F4xx_DSP_StdPeriph_Lib_V1.0.1/Libraries/STM32F4xx_StdPeriph_Driver/src/stm32f4xx_rcc.c ****   *            @arg RCC_MCO1Div_2: division by 2 applied to MCO1 clock
 544:../STLibs//STM32F4xx_DSP_StdPeriph_Lib_V1.0.1/Libraries/STM32F4xx_StdPeriph_Driver/src/stm32f4xx_rcc.c ****   *            @arg RCC_MCO1Div_3: division by 3 applied to MCO1 clock
 545:../STLibs//STM32F4xx_DSP_StdPeriph_Lib_V1.0.1/Libraries/STM32F4xx_StdPeriph_Driver/src/stm32f4xx_rcc.c ****   *            @arg RCC_MCO1Div_4: division by 4 applied to MCO1 clock
 546:../STLibs//STM32F4xx_DSP_StdPeriph_Lib_V1.0.1/Libraries/STM32F4xx_StdPeriph_Driver/src/stm32f4xx_rcc.c ****   *            @arg RCC_MCO1Div_5: division by 5 applied to MCO1 clock
 547:../STLibs//STM32F4xx_DSP_StdPeriph_Lib_V1.0.1/Libraries/STM32F4xx_StdPeriph_Driver/src/stm32f4xx_rcc.c ****   * @retval None
 548:../STLibs//STM32F4xx_DSP_StdPeriph_Lib_V1.0.1/Libraries/STM32F4xx_StdPeriph_Driver/src/stm32f4xx_rcc.c ****   */
 549:../STLibs//STM32F4xx_DSP_StdPeriph_Lib_V1.0.1/Libraries/STM32F4xx_StdPeriph_Driver/src/stm32f4xx_rcc.c **** void RCC_MCO1Config(uint32_t RCC_MCO1Source, uint32_t RCC_MCO1Div)
 550:../STLibs//STM32F4xx_DSP_StdPeriph_Lib_V1.0.1/Libraries/STM32F4xx_StdPeriph_Driver/src/stm32f4xx_rcc.c **** {
 393              		.loc 1 550 0
 394              		.cfi_startproc
 395              		@ args = 0, pretend = 0, frame = 0
 396              		@ frame_needed = 0, uses_anonymous_args = 0
 397              		@ link register save eliminated.
 398              	.LVL17:
 551:../STLibs//STM32F4xx_DSP_StdPeriph_Lib_V1.0.1/Libraries/STM32F4xx_StdPeriph_Driver/src/stm32f4xx_rcc.c ****   uint32_t tmpreg = 0;
 552:../STLibs//STM32F4xx_DSP_StdPeriph_Lib_V1.0.1/Libraries/STM32F4xx_StdPeriph_Driver/src/stm32f4xx_rcc.c ****   
 553:../STLibs//STM32F4xx_DSP_StdPeriph_Lib_V1.0.1/Libraries/STM32F4xx_StdPeriph_Driver/src/stm32f4xx_rcc.c ****   /* Check the parameters */
 554:../STLibs//STM32F4xx_DSP_StdPeriph_Lib_V1.0.1/Libraries/STM32F4xx_StdPeriph_Driver/src/stm32f4xx_rcc.c ****   assert_param(IS_RCC_MCO1SOURCE(RCC_MCO1Source));
 555:../STLibs//STM32F4xx_DSP_StdPeriph_Lib_V1.0.1/Libraries/STM32F4xx_StdPeriph_Driver/src/stm32f4xx_rcc.c ****   assert_param(IS_RCC_MCO1DIV(RCC_MCO1Div));  
 556:../STLibs//STM32F4xx_DSP_StdPeriph_Lib_V1.0.1/Libraries/STM32F4xx_StdPeriph_Driver/src/stm32f4xx_rcc.c **** 
 557:../STLibs//STM32F4xx_DSP_StdPeriph_Lib_V1.0.1/Libraries/STM32F4xx_StdPeriph_Driver/src/stm32f4xx_rcc.c ****   tmpreg = RCC->CFGR;
 399              		.loc 1 557 0
 400 00e8 034A     		ldr	r2, .L38
 401 00ea 9368     		ldr	r3, [r2, #8]
 402              	.LVL18:
 558:../STLibs//STM32F4xx_DSP_StdPeriph_Lib_V1.0.1/Libraries/STM32F4xx_StdPeriph_Driver/src/stm32f4xx_rcc.c **** 
 559:../STLibs//STM32F4xx_DSP_StdPeriph_Lib_V1.0.1/Libraries/STM32F4xx_StdPeriph_Driver/src/stm32f4xx_rcc.c ****   /* Clear MCO1[1:0] and MCO1PRE[2:0] bits */
 560:../STLibs//STM32F4xx_DSP_StdPeriph_Lib_V1.0.1/Libraries/STM32F4xx_StdPeriph_Driver/src/stm32f4xx_rcc.c ****   tmpreg &= CFGR_MCO1_RESET_MASK;
 403              		.loc 1 560 0
 404 00ec 23F0EC63 		bic	r3, r3, #123731968
 405              	.LVL19:
 406 00f0 1943     		orrs	r1, r1, r3
 407              	.LVL20:
 561:../STLibs//STM32F4xx_DSP_StdPeriph_Lib_V1.0.1/Libraries/STM32F4xx_StdPeriph_Driver/src/stm32f4xx_rcc.c **** 
 562:../STLibs//STM32F4xx_DSP_StdPeriph_Lib_V1.0.1/Libraries/STM32F4xx_StdPeriph_Driver/src/stm32f4xx_rcc.c ****   /* Select MCO1 clock source and prescaler */
 563:../STLibs//STM32F4xx_DSP_StdPeriph_Lib_V1.0.1/Libraries/STM32F4xx_StdPeriph_Driver/src/stm32f4xx_rcc.c ****   tmpreg |= RCC_MCO1Source | RCC_MCO1Div;
 408              		.loc 1 563 0
 409 00f2 0143     		orrs	r1, r1, r0
 410              	.LVL21:
 564:../STLibs//STM32F4xx_DSP_StdPeriph_Lib_V1.0.1/Libraries/STM32F4xx_StdPeriph_Driver/src/stm32f4xx_rcc.c **** 
 565:../STLibs//STM32F4xx_DSP_StdPeriph_Lib_V1.0.1/Libraries/STM32F4xx_StdPeriph_Driver/src/stm32f4xx_rcc.c ****   /* Store the new value */
 566:../STLibs//STM32F4xx_DSP_StdPeriph_Lib_V1.0.1/Libraries/STM32F4xx_StdPeriph_Driver/src/stm32f4xx_rcc.c ****   RCC->CFGR = tmpreg;  
 411              		.loc 1 566 0
 412 00f4 9160     		str	r1, [r2, #8]
 567:../STLibs//STM32F4xx_DSP_StdPeriph_Lib_V1.0.1/Libraries/STM32F4xx_StdPeriph_Driver/src/stm32f4xx_rcc.c **** }
 413              		.loc 1 567 0
 414 00f6 7047     		bx	lr
 415              	.L39:
 416              		.align	2
 417              	.L38:
 418 00f8 00380240 		.word	1073887232
 419              		.cfi_endproc
 420              	.LFE122:
 422              		.align	1
 423              		.global	RCC_MCO2Config
 424              		.syntax unified
 425              		.thumb
 426              		.thumb_func
 427              		.fpu fpv4-sp-d16
 429              	RCC_MCO2Config:
 430              	.LFB123:
 568:../STLibs//STM32F4xx_DSP_StdPeriph_Lib_V1.0.1/Libraries/STM32F4xx_StdPeriph_Driver/src/stm32f4xx_rcc.c **** 
 569:../STLibs//STM32F4xx_DSP_StdPeriph_Lib_V1.0.1/Libraries/STM32F4xx_StdPeriph_Driver/src/stm32f4xx_rcc.c **** /**
 570:../STLibs//STM32F4xx_DSP_StdPeriph_Lib_V1.0.1/Libraries/STM32F4xx_StdPeriph_Driver/src/stm32f4xx_rcc.c ****   * @brief  Selects the clock source to output on MCO2 pin(PC9).
 571:../STLibs//STM32F4xx_DSP_StdPeriph_Lib_V1.0.1/Libraries/STM32F4xx_StdPeriph_Driver/src/stm32f4xx_rcc.c ****   * @note   PC9 should be configured in alternate function mode.
 572:../STLibs//STM32F4xx_DSP_StdPeriph_Lib_V1.0.1/Libraries/STM32F4xx_StdPeriph_Driver/src/stm32f4xx_rcc.c ****   * @param  RCC_MCO2Source: specifies the clock source to output.
 573:../STLibs//STM32F4xx_DSP_StdPeriph_Lib_V1.0.1/Libraries/STM32F4xx_StdPeriph_Driver/src/stm32f4xx_rcc.c ****   *          This parameter can be one of the following values:
 574:../STLibs//STM32F4xx_DSP_StdPeriph_Lib_V1.0.1/Libraries/STM32F4xx_StdPeriph_Driver/src/stm32f4xx_rcc.c ****   *            @arg RCC_MCO2Source_SYSCLK: System clock (SYSCLK) selected as MCO2 source
 575:../STLibs//STM32F4xx_DSP_StdPeriph_Lib_V1.0.1/Libraries/STM32F4xx_StdPeriph_Driver/src/stm32f4xx_rcc.c ****   *            @arg RCC_MCO2Source_PLLI2SCLK: PLLI2S clock selected as MCO2 source
 576:../STLibs//STM32F4xx_DSP_StdPeriph_Lib_V1.0.1/Libraries/STM32F4xx_StdPeriph_Driver/src/stm32f4xx_rcc.c ****   *            @arg RCC_MCO2Source_HSE: HSE clock selected as MCO2 source
 577:../STLibs//STM32F4xx_DSP_StdPeriph_Lib_V1.0.1/Libraries/STM32F4xx_StdPeriph_Driver/src/stm32f4xx_rcc.c ****   *            @arg RCC_MCO2Source_PLLCLK: main PLL clock selected as MCO2 source
 578:../STLibs//STM32F4xx_DSP_StdPeriph_Lib_V1.0.1/Libraries/STM32F4xx_StdPeriph_Driver/src/stm32f4xx_rcc.c ****   * @param  RCC_MCO2Div: specifies the MCO2 prescaler.
 579:../STLibs//STM32F4xx_DSP_StdPeriph_Lib_V1.0.1/Libraries/STM32F4xx_StdPeriph_Driver/src/stm32f4xx_rcc.c ****   *          This parameter can be one of the following values:
 580:../STLibs//STM32F4xx_DSP_StdPeriph_Lib_V1.0.1/Libraries/STM32F4xx_StdPeriph_Driver/src/stm32f4xx_rcc.c ****   *            @arg RCC_MCO2Div_1: no division applied to MCO2 clock
 581:../STLibs//STM32F4xx_DSP_StdPeriph_Lib_V1.0.1/Libraries/STM32F4xx_StdPeriph_Driver/src/stm32f4xx_rcc.c ****   *            @arg RCC_MCO2Div_2: division by 2 applied to MCO2 clock
 582:../STLibs//STM32F4xx_DSP_StdPeriph_Lib_V1.0.1/Libraries/STM32F4xx_StdPeriph_Driver/src/stm32f4xx_rcc.c ****   *            @arg RCC_MCO2Div_3: division by 3 applied to MCO2 clock
 583:../STLibs//STM32F4xx_DSP_StdPeriph_Lib_V1.0.1/Libraries/STM32F4xx_StdPeriph_Driver/src/stm32f4xx_rcc.c ****   *            @arg RCC_MCO2Div_4: division by 4 applied to MCO2 clock
 584:../STLibs//STM32F4xx_DSP_StdPeriph_Lib_V1.0.1/Libraries/STM32F4xx_StdPeriph_Driver/src/stm32f4xx_rcc.c ****   *            @arg RCC_MCO2Div_5: division by 5 applied to MCO2 clock
 585:../STLibs//STM32F4xx_DSP_StdPeriph_Lib_V1.0.1/Libraries/STM32F4xx_StdPeriph_Driver/src/stm32f4xx_rcc.c ****   * @retval None
 586:../STLibs//STM32F4xx_DSP_StdPeriph_Lib_V1.0.1/Libraries/STM32F4xx_StdPeriph_Driver/src/stm32f4xx_rcc.c ****   */
 587:../STLibs//STM32F4xx_DSP_StdPeriph_Lib_V1.0.1/Libraries/STM32F4xx_StdPeriph_Driver/src/stm32f4xx_rcc.c **** void RCC_MCO2Config(uint32_t RCC_MCO2Source, uint32_t RCC_MCO2Div)
 588:../STLibs//STM32F4xx_DSP_StdPeriph_Lib_V1.0.1/Libraries/STM32F4xx_StdPeriph_Driver/src/stm32f4xx_rcc.c **** {
 431              		.loc 1 588 0
 432              		.cfi_startproc
 433              		@ args = 0, pretend = 0, frame = 0
 434              		@ frame_needed = 0, uses_anonymous_args = 0
 435              		@ link register save eliminated.
 436              	.LVL22:
 589:../STLibs//STM32F4xx_DSP_StdPeriph_Lib_V1.0.1/Libraries/STM32F4xx_StdPeriph_Driver/src/stm32f4xx_rcc.c ****   uint32_t tmpreg = 0;
 590:../STLibs//STM32F4xx_DSP_StdPeriph_Lib_V1.0.1/Libraries/STM32F4xx_StdPeriph_Driver/src/stm32f4xx_rcc.c ****   
 591:../STLibs//STM32F4xx_DSP_StdPeriph_Lib_V1.0.1/Libraries/STM32F4xx_StdPeriph_Driver/src/stm32f4xx_rcc.c ****   /* Check the parameters */
 592:../STLibs//STM32F4xx_DSP_StdPeriph_Lib_V1.0.1/Libraries/STM32F4xx_StdPeriph_Driver/src/stm32f4xx_rcc.c ****   assert_param(IS_RCC_MCO2SOURCE(RCC_MCO2Source));
 593:../STLibs//STM32F4xx_DSP_StdPeriph_Lib_V1.0.1/Libraries/STM32F4xx_StdPeriph_Driver/src/stm32f4xx_rcc.c ****   assert_param(IS_RCC_MCO2DIV(RCC_MCO2Div));
 594:../STLibs//STM32F4xx_DSP_StdPeriph_Lib_V1.0.1/Libraries/STM32F4xx_StdPeriph_Driver/src/stm32f4xx_rcc.c ****   
 595:../STLibs//STM32F4xx_DSP_StdPeriph_Lib_V1.0.1/Libraries/STM32F4xx_StdPeriph_Driver/src/stm32f4xx_rcc.c ****   tmpreg = RCC->CFGR;
 437              		.loc 1 595 0
 438 00fc 034A     		ldr	r2, .L41
 439 00fe 9368     		ldr	r3, [r2, #8]
 440              	.LVL23:
 596:../STLibs//STM32F4xx_DSP_StdPeriph_Lib_V1.0.1/Libraries/STM32F4xx_StdPeriph_Driver/src/stm32f4xx_rcc.c ****   
 597:../STLibs//STM32F4xx_DSP_StdPeriph_Lib_V1.0.1/Libraries/STM32F4xx_StdPeriph_Driver/src/stm32f4xx_rcc.c ****   /* Clear MCO2 and MCO2PRE[2:0] bits */
 598:../STLibs//STM32F4xx_DSP_StdPeriph_Lib_V1.0.1/Libraries/STM32F4xx_StdPeriph_Driver/src/stm32f4xx_rcc.c ****   tmpreg &= CFGR_MCO2_RESET_MASK;
 441              		.loc 1 598 0
 442 0100 23F07843 		bic	r3, r3, #-134217728
 443              	.LVL24:
 444 0104 1943     		orrs	r1, r1, r3
 445              	.LVL25:
 599:../STLibs//STM32F4xx_DSP_StdPeriph_Lib_V1.0.1/Libraries/STM32F4xx_StdPeriph_Driver/src/stm32f4xx_rcc.c **** 
 600:../STLibs//STM32F4xx_DSP_StdPeriph_Lib_V1.0.1/Libraries/STM32F4xx_StdPeriph_Driver/src/stm32f4xx_rcc.c ****   /* Select MCO2 clock source and prescaler */
 601:../STLibs//STM32F4xx_DSP_StdPeriph_Lib_V1.0.1/Libraries/STM32F4xx_StdPeriph_Driver/src/stm32f4xx_rcc.c ****   tmpreg |= RCC_MCO2Source | RCC_MCO2Div;
 446              		.loc 1 601 0
 447 0106 0143     		orrs	r1, r1, r0
 448              	.LVL26:
 602:../STLibs//STM32F4xx_DSP_StdPeriph_Lib_V1.0.1/Libraries/STM32F4xx_StdPeriph_Driver/src/stm32f4xx_rcc.c **** 
 603:../STLibs//STM32F4xx_DSP_StdPeriph_Lib_V1.0.1/Libraries/STM32F4xx_StdPeriph_Driver/src/stm32f4xx_rcc.c ****   /* Store the new value */
 604:../STLibs//STM32F4xx_DSP_StdPeriph_Lib_V1.0.1/Libraries/STM32F4xx_StdPeriph_Driver/src/stm32f4xx_rcc.c ****   RCC->CFGR = tmpreg;  
 449              		.loc 1 604 0
 450 0108 9160     		str	r1, [r2, #8]
 605:../STLibs//STM32F4xx_DSP_StdPeriph_Lib_V1.0.1/Libraries/STM32F4xx_StdPeriph_Driver/src/stm32f4xx_rcc.c **** }
 451              		.loc 1 605 0
 452 010a 7047     		bx	lr
 453              	.L42:
 454              		.align	2
 455              	.L41:
 456 010c 00380240 		.word	1073887232
 457              		.cfi_endproc
 458              	.LFE123:
 460              		.align	1
 461              		.global	RCC_SYSCLKConfig
 462              		.syntax unified
 463              		.thumb
 464              		.thumb_func
 465              		.fpu fpv4-sp-d16
 467              	RCC_SYSCLKConfig:
 468              	.LFB124:
 606:../STLibs//STM32F4xx_DSP_StdPeriph_Lib_V1.0.1/Libraries/STM32F4xx_StdPeriph_Driver/src/stm32f4xx_rcc.c **** 
 607:../STLibs//STM32F4xx_DSP_StdPeriph_Lib_V1.0.1/Libraries/STM32F4xx_StdPeriph_Driver/src/stm32f4xx_rcc.c **** /**
 608:../STLibs//STM32F4xx_DSP_StdPeriph_Lib_V1.0.1/Libraries/STM32F4xx_StdPeriph_Driver/src/stm32f4xx_rcc.c ****   * @}
 609:../STLibs//STM32F4xx_DSP_StdPeriph_Lib_V1.0.1/Libraries/STM32F4xx_StdPeriph_Driver/src/stm32f4xx_rcc.c ****   */
 610:../STLibs//STM32F4xx_DSP_StdPeriph_Lib_V1.0.1/Libraries/STM32F4xx_StdPeriph_Driver/src/stm32f4xx_rcc.c **** 
 611:../STLibs//STM32F4xx_DSP_StdPeriph_Lib_V1.0.1/Libraries/STM32F4xx_StdPeriph_Driver/src/stm32f4xx_rcc.c **** /** @defgroup RCC_Group2 System AHB and APB busses clocks configuration functions
 612:../STLibs//STM32F4xx_DSP_StdPeriph_Lib_V1.0.1/Libraries/STM32F4xx_StdPeriph_Driver/src/stm32f4xx_rcc.c ****  *  @brief   System, AHB and APB busses clocks configuration functions
 613:../STLibs//STM32F4xx_DSP_StdPeriph_Lib_V1.0.1/Libraries/STM32F4xx_StdPeriph_Driver/src/stm32f4xx_rcc.c ****  *
 614:../STLibs//STM32F4xx_DSP_StdPeriph_Lib_V1.0.1/Libraries/STM32F4xx_StdPeriph_Driver/src/stm32f4xx_rcc.c **** @verbatim   
 615:../STLibs//STM32F4xx_DSP_StdPeriph_Lib_V1.0.1/Libraries/STM32F4xx_StdPeriph_Driver/src/stm32f4xx_rcc.c ****  ===============================================================================
 616:../STLibs//STM32F4xx_DSP_StdPeriph_Lib_V1.0.1/Libraries/STM32F4xx_StdPeriph_Driver/src/stm32f4xx_rcc.c ****              System, AHB and APB busses clocks configuration functions
 617:../STLibs//STM32F4xx_DSP_StdPeriph_Lib_V1.0.1/Libraries/STM32F4xx_StdPeriph_Driver/src/stm32f4xx_rcc.c ****  ===============================================================================  
 618:../STLibs//STM32F4xx_DSP_StdPeriph_Lib_V1.0.1/Libraries/STM32F4xx_StdPeriph_Driver/src/stm32f4xx_rcc.c **** 
 619:../STLibs//STM32F4xx_DSP_StdPeriph_Lib_V1.0.1/Libraries/STM32F4xx_StdPeriph_Driver/src/stm32f4xx_rcc.c ****   This section provide functions allowing to configure the System, AHB, APB1 and 
 620:../STLibs//STM32F4xx_DSP_StdPeriph_Lib_V1.0.1/Libraries/STM32F4xx_StdPeriph_Driver/src/stm32f4xx_rcc.c ****   APB2 busses clocks.
 621:../STLibs//STM32F4xx_DSP_StdPeriph_Lib_V1.0.1/Libraries/STM32F4xx_StdPeriph_Driver/src/stm32f4xx_rcc.c ****   
 622:../STLibs//STM32F4xx_DSP_StdPeriph_Lib_V1.0.1/Libraries/STM32F4xx_StdPeriph_Driver/src/stm32f4xx_rcc.c ****   1. Several clock sources can be used to drive the System clock (SYSCLK): HSI,
 623:../STLibs//STM32F4xx_DSP_StdPeriph_Lib_V1.0.1/Libraries/STM32F4xx_StdPeriph_Driver/src/stm32f4xx_rcc.c ****      HSE and PLL.
 624:../STLibs//STM32F4xx_DSP_StdPeriph_Lib_V1.0.1/Libraries/STM32F4xx_StdPeriph_Driver/src/stm32f4xx_rcc.c ****      The AHB clock (HCLK) is derived from System clock through configurable prescaler
 625:../STLibs//STM32F4xx_DSP_StdPeriph_Lib_V1.0.1/Libraries/STM32F4xx_StdPeriph_Driver/src/stm32f4xx_rcc.c ****      and used to clock the CPU, memory and peripherals mapped on AHB bus (DMA, GPIO...).
 626:../STLibs//STM32F4xx_DSP_StdPeriph_Lib_V1.0.1/Libraries/STM32F4xx_StdPeriph_Driver/src/stm32f4xx_rcc.c ****      APB1 (PCLK1) and APB2 (PCLK2) clocks are derived from AHB clock through 
 627:../STLibs//STM32F4xx_DSP_StdPeriph_Lib_V1.0.1/Libraries/STM32F4xx_StdPeriph_Driver/src/stm32f4xx_rcc.c ****      configurable prescalers and used to clock the peripherals mapped on these busses.
 628:../STLibs//STM32F4xx_DSP_StdPeriph_Lib_V1.0.1/Libraries/STM32F4xx_StdPeriph_Driver/src/stm32f4xx_rcc.c ****      You can use "RCC_GetClocksFreq()" function to retrieve the frequencies of these clocks.  
 629:../STLibs//STM32F4xx_DSP_StdPeriph_Lib_V1.0.1/Libraries/STM32F4xx_StdPeriph_Driver/src/stm32f4xx_rcc.c **** 
 630:../STLibs//STM32F4xx_DSP_StdPeriph_Lib_V1.0.1/Libraries/STM32F4xx_StdPeriph_Driver/src/stm32f4xx_rcc.c **** @note All the peripheral clocks are derived from the System clock (SYSCLK) except:
 631:../STLibs//STM32F4xx_DSP_StdPeriph_Lib_V1.0.1/Libraries/STM32F4xx_StdPeriph_Driver/src/stm32f4xx_rcc.c ****        - I2S: the I2S clock can be derived either from a specific PLL (PLLI2S) or
 632:../STLibs//STM32F4xx_DSP_StdPeriph_Lib_V1.0.1/Libraries/STM32F4xx_StdPeriph_Driver/src/stm32f4xx_rcc.c ****           from an external clock mapped on the I2S_CKIN pin. 
 633:../STLibs//STM32F4xx_DSP_StdPeriph_Lib_V1.0.1/Libraries/STM32F4xx_StdPeriph_Driver/src/stm32f4xx_rcc.c ****           You have to use RCC_I2SCLKConfig() function to configure this clock. 
 634:../STLibs//STM32F4xx_DSP_StdPeriph_Lib_V1.0.1/Libraries/STM32F4xx_StdPeriph_Driver/src/stm32f4xx_rcc.c ****        - RTC: the RTC clock can be derived either from the LSI, LSE or HSE clock
 635:../STLibs//STM32F4xx_DSP_StdPeriph_Lib_V1.0.1/Libraries/STM32F4xx_StdPeriph_Driver/src/stm32f4xx_rcc.c ****           divided by 2 to 31. You have to use RCC_RTCCLKConfig() and RCC_RTCCLKCmd()
 636:../STLibs//STM32F4xx_DSP_StdPeriph_Lib_V1.0.1/Libraries/STM32F4xx_StdPeriph_Driver/src/stm32f4xx_rcc.c ****           functions to configure this clock. 
 637:../STLibs//STM32F4xx_DSP_StdPeriph_Lib_V1.0.1/Libraries/STM32F4xx_StdPeriph_Driver/src/stm32f4xx_rcc.c ****        - USB OTG FS, SDIO and RTC: USB OTG FS require a frequency equal to 48 MHz
 638:../STLibs//STM32F4xx_DSP_StdPeriph_Lib_V1.0.1/Libraries/STM32F4xx_StdPeriph_Driver/src/stm32f4xx_rcc.c ****           to work correctly, while the SDIO require a frequency equal or lower than
 639:../STLibs//STM32F4xx_DSP_StdPeriph_Lib_V1.0.1/Libraries/STM32F4xx_StdPeriph_Driver/src/stm32f4xx_rcc.c ****           to 48. This clock is derived of the main PLL through PLLQ divider.
 640:../STLibs//STM32F4xx_DSP_StdPeriph_Lib_V1.0.1/Libraries/STM32F4xx_StdPeriph_Driver/src/stm32f4xx_rcc.c ****        - IWDG clock which is always the LSI clock.
 641:../STLibs//STM32F4xx_DSP_StdPeriph_Lib_V1.0.1/Libraries/STM32F4xx_StdPeriph_Driver/src/stm32f4xx_rcc.c ****        
 642:../STLibs//STM32F4xx_DSP_StdPeriph_Lib_V1.0.1/Libraries/STM32F4xx_StdPeriph_Driver/src/stm32f4xx_rcc.c ****   2. The maximum frequency of the SYSCLK and HCLK is 168 MHz, PCLK2 82 MHz and PCLK1 42 MHz.
 643:../STLibs//STM32F4xx_DSP_StdPeriph_Lib_V1.0.1/Libraries/STM32F4xx_StdPeriph_Driver/src/stm32f4xx_rcc.c ****      Depending on the device voltage range, the maximum frequency should be 
 644:../STLibs//STM32F4xx_DSP_StdPeriph_Lib_V1.0.1/Libraries/STM32F4xx_StdPeriph_Driver/src/stm32f4xx_rcc.c ****      adapted accordingly:
 645:../STLibs//STM32F4xx_DSP_StdPeriph_Lib_V1.0.1/Libraries/STM32F4xx_StdPeriph_Driver/src/stm32f4xx_rcc.c ****  +-------------------------------------------------------------------------------------+     
 646:../STLibs//STM32F4xx_DSP_StdPeriph_Lib_V1.0.1/Libraries/STM32F4xx_StdPeriph_Driver/src/stm32f4xx_rcc.c ****  | Latency       |                HCLK clock frequency (MHz)                           |
 647:../STLibs//STM32F4xx_DSP_StdPeriph_Lib_V1.0.1/Libraries/STM32F4xx_StdPeriph_Driver/src/stm32f4xx_rcc.c ****  |               |---------------------------------------------------------------------|     
 648:../STLibs//STM32F4xx_DSP_StdPeriph_Lib_V1.0.1/Libraries/STM32F4xx_StdPeriph_Driver/src/stm32f4xx_rcc.c ****  |               | voltage range  | voltage range  | voltage range   | voltage range   |
 649:../STLibs//STM32F4xx_DSP_StdPeriph_Lib_V1.0.1/Libraries/STM32F4xx_StdPeriph_Driver/src/stm32f4xx_rcc.c ****  |               | 2.7 V - 3.6 V  | 2.4 V - 2.7 V  | 2.1 V - 2.4 V   | 1.8 V - 2.1 V   |
 650:../STLibs//STM32F4xx_DSP_StdPeriph_Lib_V1.0.1/Libraries/STM32F4xx_StdPeriph_Driver/src/stm32f4xx_rcc.c ****  |---------------|----------------|----------------|-----------------|-----------------|           
 651:../STLibs//STM32F4xx_DSP_StdPeriph_Lib_V1.0.1/Libraries/STM32F4xx_StdPeriph_Driver/src/stm32f4xx_rcc.c ****  |0WS(1CPU cycle)|0 < HCLK <= 30  |0 < HCLK <= 24  |0 < HCLK <= 18   |0 < HCLK <= 16   |
 652:../STLibs//STM32F4xx_DSP_StdPeriph_Lib_V1.0.1/Libraries/STM32F4xx_StdPeriph_Driver/src/stm32f4xx_rcc.c ****  |---------------|----------------|----------------|-----------------|-----------------|   
 653:../STLibs//STM32F4xx_DSP_StdPeriph_Lib_V1.0.1/Libraries/STM32F4xx_StdPeriph_Driver/src/stm32f4xx_rcc.c ****  |1WS(2CPU cycle)|30 < HCLK <= 60 |24 < HCLK <= 48 |18 < HCLK <= 36  |16 < HCLK <= 32  | 
 654:../STLibs//STM32F4xx_DSP_StdPeriph_Lib_V1.0.1/Libraries/STM32F4xx_StdPeriph_Driver/src/stm32f4xx_rcc.c ****  |---------------|----------------|----------------|-----------------|-----------------|   
 655:../STLibs//STM32F4xx_DSP_StdPeriph_Lib_V1.0.1/Libraries/STM32F4xx_StdPeriph_Driver/src/stm32f4xx_rcc.c ****  |2WS(3CPU cycle)|60 < HCLK <= 90 |48 < HCLK <= 72 |36 < HCLK <= 54  |32 < HCLK <= 48  |
 656:../STLibs//STM32F4xx_DSP_StdPeriph_Lib_V1.0.1/Libraries/STM32F4xx_StdPeriph_Driver/src/stm32f4xx_rcc.c ****  |---------------|----------------|----------------|-----------------|-----------------| 
 657:../STLibs//STM32F4xx_DSP_StdPeriph_Lib_V1.0.1/Libraries/STM32F4xx_StdPeriph_Driver/src/stm32f4xx_rcc.c ****  |3WS(4CPU cycle)|90 < HCLK <= 120|72 < HCLK <= 96 |54 < HCLK <= 72  |48 < HCLK <= 64  |
 658:../STLibs//STM32F4xx_DSP_StdPeriph_Lib_V1.0.1/Libraries/STM32F4xx_StdPeriph_Driver/src/stm32f4xx_rcc.c ****  |---------------|----------------|----------------|-----------------|-----------------| 
 659:../STLibs//STM32F4xx_DSP_StdPeriph_Lib_V1.0.1/Libraries/STM32F4xx_StdPeriph_Driver/src/stm32f4xx_rcc.c ****  |4WS(5CPU cycle)|120< HCLK <= 150|96 < HCLK <= 120|72 < HCLK <= 90  |64 < HCLK <= 80  |
 660:../STLibs//STM32F4xx_DSP_StdPeriph_Lib_V1.0.1/Libraries/STM32F4xx_StdPeriph_Driver/src/stm32f4xx_rcc.c ****  |---------------|----------------|----------------|-----------------|-----------------| 
 661:../STLibs//STM32F4xx_DSP_StdPeriph_Lib_V1.0.1/Libraries/STM32F4xx_StdPeriph_Driver/src/stm32f4xx_rcc.c ****  |5WS(6CPU cycle)|120< HCLK <= 168|120< HCLK <= 144|90 < HCLK <= 108 |80 < HCLK <= 96  | 
 662:../STLibs//STM32F4xx_DSP_StdPeriph_Lib_V1.0.1/Libraries/STM32F4xx_StdPeriph_Driver/src/stm32f4xx_rcc.c ****  |---------------|----------------|----------------|-----------------|-----------------| 
 663:../STLibs//STM32F4xx_DSP_StdPeriph_Lib_V1.0.1/Libraries/STM32F4xx_StdPeriph_Driver/src/stm32f4xx_rcc.c ****  |6WS(7CPU cycle)|      NA        |144< HCLK <= 168|108 < HCLK <= 120|96 < HCLK <= 112 | 
 664:../STLibs//STM32F4xx_DSP_StdPeriph_Lib_V1.0.1/Libraries/STM32F4xx_StdPeriph_Driver/src/stm32f4xx_rcc.c ****  |---------------|----------------|----------------|-----------------|-----------------| 
 665:../STLibs//STM32F4xx_DSP_StdPeriph_Lib_V1.0.1/Libraries/STM32F4xx_StdPeriph_Driver/src/stm32f4xx_rcc.c ****  |7WS(8CPU cycle)|      NA        |      NA        |120 < HCLK <= 138|112 < HCLK <= 120| 
 666:../STLibs//STM32F4xx_DSP_StdPeriph_Lib_V1.0.1/Libraries/STM32F4xx_StdPeriph_Driver/src/stm32f4xx_rcc.c ****  +-------------------------------------------------------------------------------------+    
 667:../STLibs//STM32F4xx_DSP_StdPeriph_Lib_V1.0.1/Libraries/STM32F4xx_StdPeriph_Driver/src/stm32f4xx_rcc.c ****    @note When VOS bit (in PWR_CR register) is reset to '0, the maximum value of HCLK is 144 MHz.
 668:../STLibs//STM32F4xx_DSP_StdPeriph_Lib_V1.0.1/Libraries/STM32F4xx_StdPeriph_Driver/src/stm32f4xx_rcc.c ****          You can use PWR_MainRegulatorModeConfig() function to set or reset this bit.
 669:../STLibs//STM32F4xx_DSP_StdPeriph_Lib_V1.0.1/Libraries/STM32F4xx_StdPeriph_Driver/src/stm32f4xx_rcc.c **** 
 670:../STLibs//STM32F4xx_DSP_StdPeriph_Lib_V1.0.1/Libraries/STM32F4xx_StdPeriph_Driver/src/stm32f4xx_rcc.c **** @endverbatim
 671:../STLibs//STM32F4xx_DSP_StdPeriph_Lib_V1.0.1/Libraries/STM32F4xx_StdPeriph_Driver/src/stm32f4xx_rcc.c ****   * @{
 672:../STLibs//STM32F4xx_DSP_StdPeriph_Lib_V1.0.1/Libraries/STM32F4xx_StdPeriph_Driver/src/stm32f4xx_rcc.c ****   */
 673:../STLibs//STM32F4xx_DSP_StdPeriph_Lib_V1.0.1/Libraries/STM32F4xx_StdPeriph_Driver/src/stm32f4xx_rcc.c **** 
 674:../STLibs//STM32F4xx_DSP_StdPeriph_Lib_V1.0.1/Libraries/STM32F4xx_StdPeriph_Driver/src/stm32f4xx_rcc.c **** /**
 675:../STLibs//STM32F4xx_DSP_StdPeriph_Lib_V1.0.1/Libraries/STM32F4xx_StdPeriph_Driver/src/stm32f4xx_rcc.c ****   * @brief  Configures the system clock (SYSCLK).
 676:../STLibs//STM32F4xx_DSP_StdPeriph_Lib_V1.0.1/Libraries/STM32F4xx_StdPeriph_Driver/src/stm32f4xx_rcc.c ****   * @note   The HSI is used (enabled by hardware) as system clock source after
 677:../STLibs//STM32F4xx_DSP_StdPeriph_Lib_V1.0.1/Libraries/STM32F4xx_StdPeriph_Driver/src/stm32f4xx_rcc.c ****   *         startup from Reset, wake-up from STOP and STANDBY mode, or in case
 678:../STLibs//STM32F4xx_DSP_StdPeriph_Lib_V1.0.1/Libraries/STM32F4xx_StdPeriph_Driver/src/stm32f4xx_rcc.c ****   *         of failure of the HSE used directly or indirectly as system clock
 679:../STLibs//STM32F4xx_DSP_StdPeriph_Lib_V1.0.1/Libraries/STM32F4xx_StdPeriph_Driver/src/stm32f4xx_rcc.c ****   *         (if the Clock Security System CSS is enabled).
 680:../STLibs//STM32F4xx_DSP_StdPeriph_Lib_V1.0.1/Libraries/STM32F4xx_StdPeriph_Driver/src/stm32f4xx_rcc.c ****   * @note   A switch from one clock source to another occurs only if the target
 681:../STLibs//STM32F4xx_DSP_StdPeriph_Lib_V1.0.1/Libraries/STM32F4xx_StdPeriph_Driver/src/stm32f4xx_rcc.c ****   *         clock source is ready (clock stable after startup delay or PLL locked). 
 682:../STLibs//STM32F4xx_DSP_StdPeriph_Lib_V1.0.1/Libraries/STM32F4xx_StdPeriph_Driver/src/stm32f4xx_rcc.c ****   *         If a clock source which is not yet ready is selected, the switch will
 683:../STLibs//STM32F4xx_DSP_StdPeriph_Lib_V1.0.1/Libraries/STM32F4xx_StdPeriph_Driver/src/stm32f4xx_rcc.c ****   *         occur when the clock source will be ready. 
 684:../STLibs//STM32F4xx_DSP_StdPeriph_Lib_V1.0.1/Libraries/STM32F4xx_StdPeriph_Driver/src/stm32f4xx_rcc.c ****   *         You can use RCC_GetSYSCLKSource() function to know which clock is
 685:../STLibs//STM32F4xx_DSP_StdPeriph_Lib_V1.0.1/Libraries/STM32F4xx_StdPeriph_Driver/src/stm32f4xx_rcc.c ****   *         currently used as system clock source. 
 686:../STLibs//STM32F4xx_DSP_StdPeriph_Lib_V1.0.1/Libraries/STM32F4xx_StdPeriph_Driver/src/stm32f4xx_rcc.c ****   * @param  RCC_SYSCLKSource: specifies the clock source used as system clock.
 687:../STLibs//STM32F4xx_DSP_StdPeriph_Lib_V1.0.1/Libraries/STM32F4xx_StdPeriph_Driver/src/stm32f4xx_rcc.c ****   *          This parameter can be one of the following values:
 688:../STLibs//STM32F4xx_DSP_StdPeriph_Lib_V1.0.1/Libraries/STM32F4xx_StdPeriph_Driver/src/stm32f4xx_rcc.c ****   *            @arg RCC_SYSCLKSource_HSI:    HSI selected as system clock source
 689:../STLibs//STM32F4xx_DSP_StdPeriph_Lib_V1.0.1/Libraries/STM32F4xx_StdPeriph_Driver/src/stm32f4xx_rcc.c ****   *            @arg RCC_SYSCLKSource_HSE:    HSE selected as system clock source
 690:../STLibs//STM32F4xx_DSP_StdPeriph_Lib_V1.0.1/Libraries/STM32F4xx_StdPeriph_Driver/src/stm32f4xx_rcc.c ****   *            @arg RCC_SYSCLKSource_PLLCLK: PLL selected as system clock source
 691:../STLibs//STM32F4xx_DSP_StdPeriph_Lib_V1.0.1/Libraries/STM32F4xx_StdPeriph_Driver/src/stm32f4xx_rcc.c ****   * @retval None
 692:../STLibs//STM32F4xx_DSP_StdPeriph_Lib_V1.0.1/Libraries/STM32F4xx_StdPeriph_Driver/src/stm32f4xx_rcc.c ****   */
 693:../STLibs//STM32F4xx_DSP_StdPeriph_Lib_V1.0.1/Libraries/STM32F4xx_StdPeriph_Driver/src/stm32f4xx_rcc.c **** void RCC_SYSCLKConfig(uint32_t RCC_SYSCLKSource)
 694:../STLibs//STM32F4xx_DSP_StdPeriph_Lib_V1.0.1/Libraries/STM32F4xx_StdPeriph_Driver/src/stm32f4xx_rcc.c **** {
 469              		.loc 1 694 0
 470              		.cfi_startproc
 471              		@ args = 0, pretend = 0, frame = 0
 472              		@ frame_needed = 0, uses_anonymous_args = 0
 473              		@ link register save eliminated.
 474              	.LVL27:
 695:../STLibs//STM32F4xx_DSP_StdPeriph_Lib_V1.0.1/Libraries/STM32F4xx_StdPeriph_Driver/src/stm32f4xx_rcc.c ****   uint32_t tmpreg = 0;
 696:../STLibs//STM32F4xx_DSP_StdPeriph_Lib_V1.0.1/Libraries/STM32F4xx_StdPeriph_Driver/src/stm32f4xx_rcc.c **** 
 697:../STLibs//STM32F4xx_DSP_StdPeriph_Lib_V1.0.1/Libraries/STM32F4xx_StdPeriph_Driver/src/stm32f4xx_rcc.c ****   /* Check the parameters */
 698:../STLibs//STM32F4xx_DSP_StdPeriph_Lib_V1.0.1/Libraries/STM32F4xx_StdPeriph_Driver/src/stm32f4xx_rcc.c ****   assert_param(IS_RCC_SYSCLK_SOURCE(RCC_SYSCLKSource));
 699:../STLibs//STM32F4xx_DSP_StdPeriph_Lib_V1.0.1/Libraries/STM32F4xx_StdPeriph_Driver/src/stm32f4xx_rcc.c **** 
 700:../STLibs//STM32F4xx_DSP_StdPeriph_Lib_V1.0.1/Libraries/STM32F4xx_StdPeriph_Driver/src/stm32f4xx_rcc.c ****   tmpreg = RCC->CFGR;
 475              		.loc 1 700 0
 476 0110 034A     		ldr	r2, .L44
 477 0112 9368     		ldr	r3, [r2, #8]
 478              	.LVL28:
 701:../STLibs//STM32F4xx_DSP_StdPeriph_Lib_V1.0.1/Libraries/STM32F4xx_StdPeriph_Driver/src/stm32f4xx_rcc.c **** 
 702:../STLibs//STM32F4xx_DSP_StdPeriph_Lib_V1.0.1/Libraries/STM32F4xx_StdPeriph_Driver/src/stm32f4xx_rcc.c ****   /* Clear SW[1:0] bits */
 703:../STLibs//STM32F4xx_DSP_StdPeriph_Lib_V1.0.1/Libraries/STM32F4xx_StdPeriph_Driver/src/stm32f4xx_rcc.c ****   tmpreg &= ~RCC_CFGR_SW;
 479              		.loc 1 703 0
 480 0114 23F00303 		bic	r3, r3, #3
 481              	.LVL29:
 704:../STLibs//STM32F4xx_DSP_StdPeriph_Lib_V1.0.1/Libraries/STM32F4xx_StdPeriph_Driver/src/stm32f4xx_rcc.c **** 
 705:../STLibs//STM32F4xx_DSP_StdPeriph_Lib_V1.0.1/Libraries/STM32F4xx_StdPeriph_Driver/src/stm32f4xx_rcc.c ****   /* Set SW[1:0] bits according to RCC_SYSCLKSource value */
 706:../STLibs//STM32F4xx_DSP_StdPeriph_Lib_V1.0.1/Libraries/STM32F4xx_StdPeriph_Driver/src/stm32f4xx_rcc.c ****   tmpreg |= RCC_SYSCLKSource;
 482              		.loc 1 706 0
 483 0118 1843     		orrs	r0, r0, r3
 484              	.LVL30:
 707:../STLibs//STM32F4xx_DSP_StdPeriph_Lib_V1.0.1/Libraries/STM32F4xx_StdPeriph_Driver/src/stm32f4xx_rcc.c **** 
 708:../STLibs//STM32F4xx_DSP_StdPeriph_Lib_V1.0.1/Libraries/STM32F4xx_StdPeriph_Driver/src/stm32f4xx_rcc.c ****   /* Store the new value */
 709:../STLibs//STM32F4xx_DSP_StdPeriph_Lib_V1.0.1/Libraries/STM32F4xx_StdPeriph_Driver/src/stm32f4xx_rcc.c ****   RCC->CFGR = tmpreg;
 485              		.loc 1 709 0
 486 011a 9060     		str	r0, [r2, #8]
 710:../STLibs//STM32F4xx_DSP_StdPeriph_Lib_V1.0.1/Libraries/STM32F4xx_StdPeriph_Driver/src/stm32f4xx_rcc.c **** }
 487              		.loc 1 710 0
 488 011c 7047     		bx	lr
 489              	.L45:
 490 011e 00BF     		.align	2
 491              	.L44:
 492 0120 00380240 		.word	1073887232
 493              		.cfi_endproc
 494              	.LFE124:
 496              		.align	1
 497              		.global	RCC_GetSYSCLKSource
 498              		.syntax unified
 499              		.thumb
 500              		.thumb_func
 501              		.fpu fpv4-sp-d16
 503              	RCC_GetSYSCLKSource:
 504              	.LFB125:
 711:../STLibs//STM32F4xx_DSP_StdPeriph_Lib_V1.0.1/Libraries/STM32F4xx_StdPeriph_Driver/src/stm32f4xx_rcc.c **** 
 712:../STLibs//STM32F4xx_DSP_StdPeriph_Lib_V1.0.1/Libraries/STM32F4xx_StdPeriph_Driver/src/stm32f4xx_rcc.c **** /**
 713:../STLibs//STM32F4xx_DSP_StdPeriph_Lib_V1.0.1/Libraries/STM32F4xx_StdPeriph_Driver/src/stm32f4xx_rcc.c ****   * @brief  Returns the clock source used as system clock.
 714:../STLibs//STM32F4xx_DSP_StdPeriph_Lib_V1.0.1/Libraries/STM32F4xx_StdPeriph_Driver/src/stm32f4xx_rcc.c ****   * @param  None
 715:../STLibs//STM32F4xx_DSP_StdPeriph_Lib_V1.0.1/Libraries/STM32F4xx_StdPeriph_Driver/src/stm32f4xx_rcc.c ****   * @retval The clock source used as system clock. The returned value can be one
 716:../STLibs//STM32F4xx_DSP_StdPeriph_Lib_V1.0.1/Libraries/STM32F4xx_StdPeriph_Driver/src/stm32f4xx_rcc.c ****   *         of the following:
 717:../STLibs//STM32F4xx_DSP_StdPeriph_Lib_V1.0.1/Libraries/STM32F4xx_StdPeriph_Driver/src/stm32f4xx_rcc.c ****   *              - 0x00: HSI used as system clock
 718:../STLibs//STM32F4xx_DSP_StdPeriph_Lib_V1.0.1/Libraries/STM32F4xx_StdPeriph_Driver/src/stm32f4xx_rcc.c ****   *              - 0x04: HSE used as system clock
 719:../STLibs//STM32F4xx_DSP_StdPeriph_Lib_V1.0.1/Libraries/STM32F4xx_StdPeriph_Driver/src/stm32f4xx_rcc.c ****   *              - 0x08: PLL used as system clock
 720:../STLibs//STM32F4xx_DSP_StdPeriph_Lib_V1.0.1/Libraries/STM32F4xx_StdPeriph_Driver/src/stm32f4xx_rcc.c ****   */
 721:../STLibs//STM32F4xx_DSP_StdPeriph_Lib_V1.0.1/Libraries/STM32F4xx_StdPeriph_Driver/src/stm32f4xx_rcc.c **** uint8_t RCC_GetSYSCLKSource(void)
 722:../STLibs//STM32F4xx_DSP_StdPeriph_Lib_V1.0.1/Libraries/STM32F4xx_StdPeriph_Driver/src/stm32f4xx_rcc.c **** {
 505              		.loc 1 722 0
 506              		.cfi_startproc
 507              		@ args = 0, pretend = 0, frame = 0
 508              		@ frame_needed = 0, uses_anonymous_args = 0
 509              		@ link register save eliminated.
 723:../STLibs//STM32F4xx_DSP_StdPeriph_Lib_V1.0.1/Libraries/STM32F4xx_StdPeriph_Driver/src/stm32f4xx_rcc.c ****   return ((uint8_t)(RCC->CFGR & RCC_CFGR_SWS));
 510              		.loc 1 723 0
 511 0124 024B     		ldr	r3, .L47
 512 0126 9868     		ldr	r0, [r3, #8]
 724:../STLibs//STM32F4xx_DSP_StdPeriph_Lib_V1.0.1/Libraries/STM32F4xx_StdPeriph_Driver/src/stm32f4xx_rcc.c **** }
 513              		.loc 1 724 0
 514 0128 00F00C00 		and	r0, r0, #12
 515 012c 7047     		bx	lr
 516              	.L48:
 517 012e 00BF     		.align	2
 518              	.L47:
 519 0130 00380240 		.word	1073887232
 520              		.cfi_endproc
 521              	.LFE125:
 523              		.align	1
 524              		.global	RCC_HCLKConfig
 525              		.syntax unified
 526              		.thumb
 527              		.thumb_func
 528              		.fpu fpv4-sp-d16
 530              	RCC_HCLKConfig:
 531              	.LFB126:
 725:../STLibs//STM32F4xx_DSP_StdPeriph_Lib_V1.0.1/Libraries/STM32F4xx_StdPeriph_Driver/src/stm32f4xx_rcc.c **** 
 726:../STLibs//STM32F4xx_DSP_StdPeriph_Lib_V1.0.1/Libraries/STM32F4xx_StdPeriph_Driver/src/stm32f4xx_rcc.c **** /**
 727:../STLibs//STM32F4xx_DSP_StdPeriph_Lib_V1.0.1/Libraries/STM32F4xx_StdPeriph_Driver/src/stm32f4xx_rcc.c ****   * @brief  Configures the AHB clock (HCLK).
 728:../STLibs//STM32F4xx_DSP_StdPeriph_Lib_V1.0.1/Libraries/STM32F4xx_StdPeriph_Driver/src/stm32f4xx_rcc.c ****   * @note   Depending on the device voltage range, the software has to set correctly
 729:../STLibs//STM32F4xx_DSP_StdPeriph_Lib_V1.0.1/Libraries/STM32F4xx_StdPeriph_Driver/src/stm32f4xx_rcc.c ****   *         these bits to ensure that HCLK not exceed the maximum allowed frequency
 730:../STLibs//STM32F4xx_DSP_StdPeriph_Lib_V1.0.1/Libraries/STM32F4xx_StdPeriph_Driver/src/stm32f4xx_rcc.c ****   *         (for more details refer to section above
 731:../STLibs//STM32F4xx_DSP_StdPeriph_Lib_V1.0.1/Libraries/STM32F4xx_StdPeriph_Driver/src/stm32f4xx_rcc.c ****   *           "CPU, AHB and APB busses clocks configuration functions")
 732:../STLibs//STM32F4xx_DSP_StdPeriph_Lib_V1.0.1/Libraries/STM32F4xx_StdPeriph_Driver/src/stm32f4xx_rcc.c ****   * @param  RCC_SYSCLK: defines the AHB clock divider. This clock is derived from 
 733:../STLibs//STM32F4xx_DSP_StdPeriph_Lib_V1.0.1/Libraries/STM32F4xx_StdPeriph_Driver/src/stm32f4xx_rcc.c ****   *         the system clock (SYSCLK).
 734:../STLibs//STM32F4xx_DSP_StdPeriph_Lib_V1.0.1/Libraries/STM32F4xx_StdPeriph_Driver/src/stm32f4xx_rcc.c ****   *          This parameter can be one of the following values:
 735:../STLibs//STM32F4xx_DSP_StdPeriph_Lib_V1.0.1/Libraries/STM32F4xx_StdPeriph_Driver/src/stm32f4xx_rcc.c ****   *            @arg RCC_SYSCLK_Div1: AHB clock = SYSCLK
 736:../STLibs//STM32F4xx_DSP_StdPeriph_Lib_V1.0.1/Libraries/STM32F4xx_StdPeriph_Driver/src/stm32f4xx_rcc.c ****   *            @arg RCC_SYSCLK_Div2: AHB clock = SYSCLK/2
 737:../STLibs//STM32F4xx_DSP_StdPeriph_Lib_V1.0.1/Libraries/STM32F4xx_StdPeriph_Driver/src/stm32f4xx_rcc.c ****   *            @arg RCC_SYSCLK_Div4: AHB clock = SYSCLK/4
 738:../STLibs//STM32F4xx_DSP_StdPeriph_Lib_V1.0.1/Libraries/STM32F4xx_StdPeriph_Driver/src/stm32f4xx_rcc.c ****   *            @arg RCC_SYSCLK_Div8: AHB clock = SYSCLK/8
 739:../STLibs//STM32F4xx_DSP_StdPeriph_Lib_V1.0.1/Libraries/STM32F4xx_StdPeriph_Driver/src/stm32f4xx_rcc.c ****   *            @arg RCC_SYSCLK_Div16: AHB clock = SYSCLK/16
 740:../STLibs//STM32F4xx_DSP_StdPeriph_Lib_V1.0.1/Libraries/STM32F4xx_StdPeriph_Driver/src/stm32f4xx_rcc.c ****   *            @arg RCC_SYSCLK_Div64: AHB clock = SYSCLK/64
 741:../STLibs//STM32F4xx_DSP_StdPeriph_Lib_V1.0.1/Libraries/STM32F4xx_StdPeriph_Driver/src/stm32f4xx_rcc.c ****   *            @arg RCC_SYSCLK_Div128: AHB clock = SYSCLK/128
 742:../STLibs//STM32F4xx_DSP_StdPeriph_Lib_V1.0.1/Libraries/STM32F4xx_StdPeriph_Driver/src/stm32f4xx_rcc.c ****   *            @arg RCC_SYSCLK_Div256: AHB clock = SYSCLK/256
 743:../STLibs//STM32F4xx_DSP_StdPeriph_Lib_V1.0.1/Libraries/STM32F4xx_StdPeriph_Driver/src/stm32f4xx_rcc.c ****   *            @arg RCC_SYSCLK_Div512: AHB clock = SYSCLK/512
 744:../STLibs//STM32F4xx_DSP_StdPeriph_Lib_V1.0.1/Libraries/STM32F4xx_StdPeriph_Driver/src/stm32f4xx_rcc.c ****   * @retval None
 745:../STLibs//STM32F4xx_DSP_StdPeriph_Lib_V1.0.1/Libraries/STM32F4xx_StdPeriph_Driver/src/stm32f4xx_rcc.c ****   */
 746:../STLibs//STM32F4xx_DSP_StdPeriph_Lib_V1.0.1/Libraries/STM32F4xx_StdPeriph_Driver/src/stm32f4xx_rcc.c **** void RCC_HCLKConfig(uint32_t RCC_SYSCLK)
 747:../STLibs//STM32F4xx_DSP_StdPeriph_Lib_V1.0.1/Libraries/STM32F4xx_StdPeriph_Driver/src/stm32f4xx_rcc.c **** {
 532              		.loc 1 747 0
 533              		.cfi_startproc
 534              		@ args = 0, pretend = 0, frame = 0
 535              		@ frame_needed = 0, uses_anonymous_args = 0
 536              		@ link register save eliminated.
 537              	.LVL31:
 748:../STLibs//STM32F4xx_DSP_StdPeriph_Lib_V1.0.1/Libraries/STM32F4xx_StdPeriph_Driver/src/stm32f4xx_rcc.c ****   uint32_t tmpreg = 0;
 749:../STLibs//STM32F4xx_DSP_StdPeriph_Lib_V1.0.1/Libraries/STM32F4xx_StdPeriph_Driver/src/stm32f4xx_rcc.c ****   
 750:../STLibs//STM32F4xx_DSP_StdPeriph_Lib_V1.0.1/Libraries/STM32F4xx_StdPeriph_Driver/src/stm32f4xx_rcc.c ****   /* Check the parameters */
 751:../STLibs//STM32F4xx_DSP_StdPeriph_Lib_V1.0.1/Libraries/STM32F4xx_StdPeriph_Driver/src/stm32f4xx_rcc.c ****   assert_param(IS_RCC_HCLK(RCC_SYSCLK));
 752:../STLibs//STM32F4xx_DSP_StdPeriph_Lib_V1.0.1/Libraries/STM32F4xx_StdPeriph_Driver/src/stm32f4xx_rcc.c **** 
 753:../STLibs//STM32F4xx_DSP_StdPeriph_Lib_V1.0.1/Libraries/STM32F4xx_StdPeriph_Driver/src/stm32f4xx_rcc.c ****   tmpreg = RCC->CFGR;
 538              		.loc 1 753 0
 539 0134 034A     		ldr	r2, .L50
 540 0136 9368     		ldr	r3, [r2, #8]
 541              	.LVL32:
 754:../STLibs//STM32F4xx_DSP_StdPeriph_Lib_V1.0.1/Libraries/STM32F4xx_StdPeriph_Driver/src/stm32f4xx_rcc.c **** 
 755:../STLibs//STM32F4xx_DSP_StdPeriph_Lib_V1.0.1/Libraries/STM32F4xx_StdPeriph_Driver/src/stm32f4xx_rcc.c ****   /* Clear HPRE[3:0] bits */
 756:../STLibs//STM32F4xx_DSP_StdPeriph_Lib_V1.0.1/Libraries/STM32F4xx_StdPeriph_Driver/src/stm32f4xx_rcc.c ****   tmpreg &= ~RCC_CFGR_HPRE;
 542              		.loc 1 756 0
 543 0138 23F0F003 		bic	r3, r3, #240
 544              	.LVL33:
 757:../STLibs//STM32F4xx_DSP_StdPeriph_Lib_V1.0.1/Libraries/STM32F4xx_StdPeriph_Driver/src/stm32f4xx_rcc.c **** 
 758:../STLibs//STM32F4xx_DSP_StdPeriph_Lib_V1.0.1/Libraries/STM32F4xx_StdPeriph_Driver/src/stm32f4xx_rcc.c ****   /* Set HPRE[3:0] bits according to RCC_SYSCLK value */
 759:../STLibs//STM32F4xx_DSP_StdPeriph_Lib_V1.0.1/Libraries/STM32F4xx_StdPeriph_Driver/src/stm32f4xx_rcc.c ****   tmpreg |= RCC_SYSCLK;
 545              		.loc 1 759 0
 546 013c 1843     		orrs	r0, r0, r3
 547              	.LVL34:
 760:../STLibs//STM32F4xx_DSP_StdPeriph_Lib_V1.0.1/Libraries/STM32F4xx_StdPeriph_Driver/src/stm32f4xx_rcc.c **** 
 761:../STLibs//STM32F4xx_DSP_StdPeriph_Lib_V1.0.1/Libraries/STM32F4xx_StdPeriph_Driver/src/stm32f4xx_rcc.c ****   /* Store the new value */
 762:../STLibs//STM32F4xx_DSP_StdPeriph_Lib_V1.0.1/Libraries/STM32F4xx_StdPeriph_Driver/src/stm32f4xx_rcc.c ****   RCC->CFGR = tmpreg;
 548              		.loc 1 762 0
 549 013e 9060     		str	r0, [r2, #8]
 763:../STLibs//STM32F4xx_DSP_StdPeriph_Lib_V1.0.1/Libraries/STM32F4xx_StdPeriph_Driver/src/stm32f4xx_rcc.c **** }
 550              		.loc 1 763 0
 551 0140 7047     		bx	lr
 552              	.L51:
 553 0142 00BF     		.align	2
 554              	.L50:
 555 0144 00380240 		.word	1073887232
 556              		.cfi_endproc
 557              	.LFE126:
 559              		.align	1
 560              		.global	RCC_PCLK1Config
 561              		.syntax unified
 562              		.thumb
 563              		.thumb_func
 564              		.fpu fpv4-sp-d16
 566              	RCC_PCLK1Config:
 567              	.LFB127:
 764:../STLibs//STM32F4xx_DSP_StdPeriph_Lib_V1.0.1/Libraries/STM32F4xx_StdPeriph_Driver/src/stm32f4xx_rcc.c **** 
 765:../STLibs//STM32F4xx_DSP_StdPeriph_Lib_V1.0.1/Libraries/STM32F4xx_StdPeriph_Driver/src/stm32f4xx_rcc.c **** 
 766:../STLibs//STM32F4xx_DSP_StdPeriph_Lib_V1.0.1/Libraries/STM32F4xx_StdPeriph_Driver/src/stm32f4xx_rcc.c **** /**
 767:../STLibs//STM32F4xx_DSP_StdPeriph_Lib_V1.0.1/Libraries/STM32F4xx_StdPeriph_Driver/src/stm32f4xx_rcc.c ****   * @brief  Configures the Low Speed APB clock (PCLK1).
 768:../STLibs//STM32F4xx_DSP_StdPeriph_Lib_V1.0.1/Libraries/STM32F4xx_StdPeriph_Driver/src/stm32f4xx_rcc.c ****   * @param  RCC_HCLK: defines the APB1 clock divider. This clock is derived from 
 769:../STLibs//STM32F4xx_DSP_StdPeriph_Lib_V1.0.1/Libraries/STM32F4xx_StdPeriph_Driver/src/stm32f4xx_rcc.c ****   *         the AHB clock (HCLK).
 770:../STLibs//STM32F4xx_DSP_StdPeriph_Lib_V1.0.1/Libraries/STM32F4xx_StdPeriph_Driver/src/stm32f4xx_rcc.c ****   *          This parameter can be one of the following values:
 771:../STLibs//STM32F4xx_DSP_StdPeriph_Lib_V1.0.1/Libraries/STM32F4xx_StdPeriph_Driver/src/stm32f4xx_rcc.c ****   *            @arg RCC_HCLK_Div1:  APB1 clock = HCLK
 772:../STLibs//STM32F4xx_DSP_StdPeriph_Lib_V1.0.1/Libraries/STM32F4xx_StdPeriph_Driver/src/stm32f4xx_rcc.c ****   *            @arg RCC_HCLK_Div2:  APB1 clock = HCLK/2
 773:../STLibs//STM32F4xx_DSP_StdPeriph_Lib_V1.0.1/Libraries/STM32F4xx_StdPeriph_Driver/src/stm32f4xx_rcc.c ****   *            @arg RCC_HCLK_Div4:  APB1 clock = HCLK/4
 774:../STLibs//STM32F4xx_DSP_StdPeriph_Lib_V1.0.1/Libraries/STM32F4xx_StdPeriph_Driver/src/stm32f4xx_rcc.c ****   *            @arg RCC_HCLK_Div8:  APB1 clock = HCLK/8
 775:../STLibs//STM32F4xx_DSP_StdPeriph_Lib_V1.0.1/Libraries/STM32F4xx_StdPeriph_Driver/src/stm32f4xx_rcc.c ****   *            @arg RCC_HCLK_Div16: APB1 clock = HCLK/16
 776:../STLibs//STM32F4xx_DSP_StdPeriph_Lib_V1.0.1/Libraries/STM32F4xx_StdPeriph_Driver/src/stm32f4xx_rcc.c ****   * @retval None
 777:../STLibs//STM32F4xx_DSP_StdPeriph_Lib_V1.0.1/Libraries/STM32F4xx_StdPeriph_Driver/src/stm32f4xx_rcc.c ****   */
 778:../STLibs//STM32F4xx_DSP_StdPeriph_Lib_V1.0.1/Libraries/STM32F4xx_StdPeriph_Driver/src/stm32f4xx_rcc.c **** void RCC_PCLK1Config(uint32_t RCC_HCLK)
 779:../STLibs//STM32F4xx_DSP_StdPeriph_Lib_V1.0.1/Libraries/STM32F4xx_StdPeriph_Driver/src/stm32f4xx_rcc.c **** {
 568              		.loc 1 779 0
 569              		.cfi_startproc
 570              		@ args = 0, pretend = 0, frame = 0
 571              		@ frame_needed = 0, uses_anonymous_args = 0
 572              		@ link register save eliminated.
 573              	.LVL35:
 780:../STLibs//STM32F4xx_DSP_StdPeriph_Lib_V1.0.1/Libraries/STM32F4xx_StdPeriph_Driver/src/stm32f4xx_rcc.c ****   uint32_t tmpreg = 0;
 781:../STLibs//STM32F4xx_DSP_StdPeriph_Lib_V1.0.1/Libraries/STM32F4xx_StdPeriph_Driver/src/stm32f4xx_rcc.c **** 
 782:../STLibs//STM32F4xx_DSP_StdPeriph_Lib_V1.0.1/Libraries/STM32F4xx_StdPeriph_Driver/src/stm32f4xx_rcc.c ****   /* Check the parameters */
 783:../STLibs//STM32F4xx_DSP_StdPeriph_Lib_V1.0.1/Libraries/STM32F4xx_StdPeriph_Driver/src/stm32f4xx_rcc.c ****   assert_param(IS_RCC_PCLK(RCC_HCLK));
 784:../STLibs//STM32F4xx_DSP_StdPeriph_Lib_V1.0.1/Libraries/STM32F4xx_StdPeriph_Driver/src/stm32f4xx_rcc.c **** 
 785:../STLibs//STM32F4xx_DSP_StdPeriph_Lib_V1.0.1/Libraries/STM32F4xx_StdPeriph_Driver/src/stm32f4xx_rcc.c ****   tmpreg = RCC->CFGR;
 574              		.loc 1 785 0
 575 0148 034A     		ldr	r2, .L53
 576 014a 9368     		ldr	r3, [r2, #8]
 577              	.LVL36:
 786:../STLibs//STM32F4xx_DSP_StdPeriph_Lib_V1.0.1/Libraries/STM32F4xx_StdPeriph_Driver/src/stm32f4xx_rcc.c **** 
 787:../STLibs//STM32F4xx_DSP_StdPeriph_Lib_V1.0.1/Libraries/STM32F4xx_StdPeriph_Driver/src/stm32f4xx_rcc.c ****   /* Clear PPRE1[2:0] bits */
 788:../STLibs//STM32F4xx_DSP_StdPeriph_Lib_V1.0.1/Libraries/STM32F4xx_StdPeriph_Driver/src/stm32f4xx_rcc.c ****   tmpreg &= ~RCC_CFGR_PPRE1;
 578              		.loc 1 788 0
 579 014c 23F4E053 		bic	r3, r3, #7168
 580              	.LVL37:
 789:../STLibs//STM32F4xx_DSP_StdPeriph_Lib_V1.0.1/Libraries/STM32F4xx_StdPeriph_Driver/src/stm32f4xx_rcc.c **** 
 790:../STLibs//STM32F4xx_DSP_StdPeriph_Lib_V1.0.1/Libraries/STM32F4xx_StdPeriph_Driver/src/stm32f4xx_rcc.c ****   /* Set PPRE1[2:0] bits according to RCC_HCLK value */
 791:../STLibs//STM32F4xx_DSP_StdPeriph_Lib_V1.0.1/Libraries/STM32F4xx_StdPeriph_Driver/src/stm32f4xx_rcc.c ****   tmpreg |= RCC_HCLK;
 581              		.loc 1 791 0
 582 0150 1843     		orrs	r0, r0, r3
 583              	.LVL38:
 792:../STLibs//STM32F4xx_DSP_StdPeriph_Lib_V1.0.1/Libraries/STM32F4xx_StdPeriph_Driver/src/stm32f4xx_rcc.c **** 
 793:../STLibs//STM32F4xx_DSP_StdPeriph_Lib_V1.0.1/Libraries/STM32F4xx_StdPeriph_Driver/src/stm32f4xx_rcc.c ****   /* Store the new value */
 794:../STLibs//STM32F4xx_DSP_StdPeriph_Lib_V1.0.1/Libraries/STM32F4xx_StdPeriph_Driver/src/stm32f4xx_rcc.c ****   RCC->CFGR = tmpreg;
 584              		.loc 1 794 0
 585 0152 9060     		str	r0, [r2, #8]
 795:../STLibs//STM32F4xx_DSP_StdPeriph_Lib_V1.0.1/Libraries/STM32F4xx_StdPeriph_Driver/src/stm32f4xx_rcc.c **** }
 586              		.loc 1 795 0
 587 0154 7047     		bx	lr
 588              	.L54:
 589 0156 00BF     		.align	2
 590              	.L53:
 591 0158 00380240 		.word	1073887232
 592              		.cfi_endproc
 593              	.LFE127:
 595              		.align	1
 596              		.global	RCC_PCLK2Config
 597              		.syntax unified
 598              		.thumb
 599              		.thumb_func
 600              		.fpu fpv4-sp-d16
 602              	RCC_PCLK2Config:
 603              	.LFB128:
 796:../STLibs//STM32F4xx_DSP_StdPeriph_Lib_V1.0.1/Libraries/STM32F4xx_StdPeriph_Driver/src/stm32f4xx_rcc.c **** 
 797:../STLibs//STM32F4xx_DSP_StdPeriph_Lib_V1.0.1/Libraries/STM32F4xx_StdPeriph_Driver/src/stm32f4xx_rcc.c **** /**
 798:../STLibs//STM32F4xx_DSP_StdPeriph_Lib_V1.0.1/Libraries/STM32F4xx_StdPeriph_Driver/src/stm32f4xx_rcc.c ****   * @brief  Configures the High Speed APB clock (PCLK2).
 799:../STLibs//STM32F4xx_DSP_StdPeriph_Lib_V1.0.1/Libraries/STM32F4xx_StdPeriph_Driver/src/stm32f4xx_rcc.c ****   * @param  RCC_HCLK: defines the APB2 clock divider. This clock is derived from 
 800:../STLibs//STM32F4xx_DSP_StdPeriph_Lib_V1.0.1/Libraries/STM32F4xx_StdPeriph_Driver/src/stm32f4xx_rcc.c ****   *         the AHB clock (HCLK).
 801:../STLibs//STM32F4xx_DSP_StdPeriph_Lib_V1.0.1/Libraries/STM32F4xx_StdPeriph_Driver/src/stm32f4xx_rcc.c ****   *          This parameter can be one of the following values:
 802:../STLibs//STM32F4xx_DSP_StdPeriph_Lib_V1.0.1/Libraries/STM32F4xx_StdPeriph_Driver/src/stm32f4xx_rcc.c ****   *            @arg RCC_HCLK_Div1:  APB2 clock = HCLK
 803:../STLibs//STM32F4xx_DSP_StdPeriph_Lib_V1.0.1/Libraries/STM32F4xx_StdPeriph_Driver/src/stm32f4xx_rcc.c ****   *            @arg RCC_HCLK_Div2:  APB2 clock = HCLK/2
 804:../STLibs//STM32F4xx_DSP_StdPeriph_Lib_V1.0.1/Libraries/STM32F4xx_StdPeriph_Driver/src/stm32f4xx_rcc.c ****   *            @arg RCC_HCLK_Div4:  APB2 clock = HCLK/4
 805:../STLibs//STM32F4xx_DSP_StdPeriph_Lib_V1.0.1/Libraries/STM32F4xx_StdPeriph_Driver/src/stm32f4xx_rcc.c ****   *            @arg RCC_HCLK_Div8:  APB2 clock = HCLK/8
 806:../STLibs//STM32F4xx_DSP_StdPeriph_Lib_V1.0.1/Libraries/STM32F4xx_StdPeriph_Driver/src/stm32f4xx_rcc.c ****   *            @arg RCC_HCLK_Div16: APB2 clock = HCLK/16
 807:../STLibs//STM32F4xx_DSP_StdPeriph_Lib_V1.0.1/Libraries/STM32F4xx_StdPeriph_Driver/src/stm32f4xx_rcc.c ****   * @retval None
 808:../STLibs//STM32F4xx_DSP_StdPeriph_Lib_V1.0.1/Libraries/STM32F4xx_StdPeriph_Driver/src/stm32f4xx_rcc.c ****   */
 809:../STLibs//STM32F4xx_DSP_StdPeriph_Lib_V1.0.1/Libraries/STM32F4xx_StdPeriph_Driver/src/stm32f4xx_rcc.c **** void RCC_PCLK2Config(uint32_t RCC_HCLK)
 810:../STLibs//STM32F4xx_DSP_StdPeriph_Lib_V1.0.1/Libraries/STM32F4xx_StdPeriph_Driver/src/stm32f4xx_rcc.c **** {
 604              		.loc 1 810 0
 605              		.cfi_startproc
 606              		@ args = 0, pretend = 0, frame = 0
 607              		@ frame_needed = 0, uses_anonymous_args = 0
 608              		@ link register save eliminated.
 609              	.LVL39:
 811:../STLibs//STM32F4xx_DSP_StdPeriph_Lib_V1.0.1/Libraries/STM32F4xx_StdPeriph_Driver/src/stm32f4xx_rcc.c ****   uint32_t tmpreg = 0;
 812:../STLibs//STM32F4xx_DSP_StdPeriph_Lib_V1.0.1/Libraries/STM32F4xx_StdPeriph_Driver/src/stm32f4xx_rcc.c **** 
 813:../STLibs//STM32F4xx_DSP_StdPeriph_Lib_V1.0.1/Libraries/STM32F4xx_StdPeriph_Driver/src/stm32f4xx_rcc.c ****   /* Check the parameters */
 814:../STLibs//STM32F4xx_DSP_StdPeriph_Lib_V1.0.1/Libraries/STM32F4xx_StdPeriph_Driver/src/stm32f4xx_rcc.c ****   assert_param(IS_RCC_PCLK(RCC_HCLK));
 815:../STLibs//STM32F4xx_DSP_StdPeriph_Lib_V1.0.1/Libraries/STM32F4xx_StdPeriph_Driver/src/stm32f4xx_rcc.c **** 
 816:../STLibs//STM32F4xx_DSP_StdPeriph_Lib_V1.0.1/Libraries/STM32F4xx_StdPeriph_Driver/src/stm32f4xx_rcc.c ****   tmpreg = RCC->CFGR;
 610              		.loc 1 816 0
 611 015c 034A     		ldr	r2, .L56
 612 015e 9368     		ldr	r3, [r2, #8]
 613              	.LVL40:
 817:../STLibs//STM32F4xx_DSP_StdPeriph_Lib_V1.0.1/Libraries/STM32F4xx_StdPeriph_Driver/src/stm32f4xx_rcc.c **** 
 818:../STLibs//STM32F4xx_DSP_StdPeriph_Lib_V1.0.1/Libraries/STM32F4xx_StdPeriph_Driver/src/stm32f4xx_rcc.c ****   /* Clear PPRE2[2:0] bits */
 819:../STLibs//STM32F4xx_DSP_StdPeriph_Lib_V1.0.1/Libraries/STM32F4xx_StdPeriph_Driver/src/stm32f4xx_rcc.c ****   tmpreg &= ~RCC_CFGR_PPRE2;
 614              		.loc 1 819 0
 615 0160 23F46043 		bic	r3, r3, #57344
 616              	.LVL41:
 820:../STLibs//STM32F4xx_DSP_StdPeriph_Lib_V1.0.1/Libraries/STM32F4xx_StdPeriph_Driver/src/stm32f4xx_rcc.c **** 
 821:../STLibs//STM32F4xx_DSP_StdPeriph_Lib_V1.0.1/Libraries/STM32F4xx_StdPeriph_Driver/src/stm32f4xx_rcc.c ****   /* Set PPRE2[2:0] bits according to RCC_HCLK value */
 822:../STLibs//STM32F4xx_DSP_StdPeriph_Lib_V1.0.1/Libraries/STM32F4xx_StdPeriph_Driver/src/stm32f4xx_rcc.c ****   tmpreg |= RCC_HCLK << 3;
 617              		.loc 1 822 0
 618 0164 43EAC000 		orr	r0, r3, r0, lsl #3
 619              	.LVL42:
 823:../STLibs//STM32F4xx_DSP_StdPeriph_Lib_V1.0.1/Libraries/STM32F4xx_StdPeriph_Driver/src/stm32f4xx_rcc.c **** 
 824:../STLibs//STM32F4xx_DSP_StdPeriph_Lib_V1.0.1/Libraries/STM32F4xx_StdPeriph_Driver/src/stm32f4xx_rcc.c ****   /* Store the new value */
 825:../STLibs//STM32F4xx_DSP_StdPeriph_Lib_V1.0.1/Libraries/STM32F4xx_StdPeriph_Driver/src/stm32f4xx_rcc.c ****   RCC->CFGR = tmpreg;
 620              		.loc 1 825 0
 621 0168 9060     		str	r0, [r2, #8]
 826:../STLibs//STM32F4xx_DSP_StdPeriph_Lib_V1.0.1/Libraries/STM32F4xx_StdPeriph_Driver/src/stm32f4xx_rcc.c **** }
 622              		.loc 1 826 0
 623 016a 7047     		bx	lr
 624              	.L57:
 625              		.align	2
 626              	.L56:
 627 016c 00380240 		.word	1073887232
 628              		.cfi_endproc
 629              	.LFE128:
 631              		.align	1
 632              		.global	RCC_GetClocksFreq
 633              		.syntax unified
 634              		.thumb
 635              		.thumb_func
 636              		.fpu fpv4-sp-d16
 638              	RCC_GetClocksFreq:
 639              	.LFB129:
 827:../STLibs//STM32F4xx_DSP_StdPeriph_Lib_V1.0.1/Libraries/STM32F4xx_StdPeriph_Driver/src/stm32f4xx_rcc.c **** 
 828:../STLibs//STM32F4xx_DSP_StdPeriph_Lib_V1.0.1/Libraries/STM32F4xx_StdPeriph_Driver/src/stm32f4xx_rcc.c **** /**
 829:../STLibs//STM32F4xx_DSP_StdPeriph_Lib_V1.0.1/Libraries/STM32F4xx_StdPeriph_Driver/src/stm32f4xx_rcc.c ****   * @brief  Returns the frequencies of different on chip clocks; SYSCLK, HCLK, 
 830:../STLibs//STM32F4xx_DSP_StdPeriph_Lib_V1.0.1/Libraries/STM32F4xx_StdPeriph_Driver/src/stm32f4xx_rcc.c ****   *         PCLK1 and PCLK2.       
 831:../STLibs//STM32F4xx_DSP_StdPeriph_Lib_V1.0.1/Libraries/STM32F4xx_StdPeriph_Driver/src/stm32f4xx_rcc.c ****   * 
 832:../STLibs//STM32F4xx_DSP_StdPeriph_Lib_V1.0.1/Libraries/STM32F4xx_StdPeriph_Driver/src/stm32f4xx_rcc.c ****   * @note   The system frequency computed by this function is not the real 
 833:../STLibs//STM32F4xx_DSP_StdPeriph_Lib_V1.0.1/Libraries/STM32F4xx_StdPeriph_Driver/src/stm32f4xx_rcc.c ****   *         frequency in the chip. It is calculated based on the predefined 
 834:../STLibs//STM32F4xx_DSP_StdPeriph_Lib_V1.0.1/Libraries/STM32F4xx_StdPeriph_Driver/src/stm32f4xx_rcc.c ****   *         constant and the selected clock source:
 835:../STLibs//STM32F4xx_DSP_StdPeriph_Lib_V1.0.1/Libraries/STM32F4xx_StdPeriph_Driver/src/stm32f4xx_rcc.c ****   * @note     If SYSCLK source is HSI, function returns values based on HSI_VALUE(*)
 836:../STLibs//STM32F4xx_DSP_StdPeriph_Lib_V1.0.1/Libraries/STM32F4xx_StdPeriph_Driver/src/stm32f4xx_rcc.c ****   * @note     If SYSCLK source is HSE, function returns values based on HSE_VALUE(**)
 837:../STLibs//STM32F4xx_DSP_StdPeriph_Lib_V1.0.1/Libraries/STM32F4xx_StdPeriph_Driver/src/stm32f4xx_rcc.c ****   * @note     If SYSCLK source is PLL, function returns values based on HSE_VALUE(**) 
 838:../STLibs//STM32F4xx_DSP_StdPeriph_Lib_V1.0.1/Libraries/STM32F4xx_StdPeriph_Driver/src/stm32f4xx_rcc.c ****   *           or HSI_VALUE(*) multiplied/divided by the PLL factors.         
 839:../STLibs//STM32F4xx_DSP_StdPeriph_Lib_V1.0.1/Libraries/STM32F4xx_StdPeriph_Driver/src/stm32f4xx_rcc.c ****   * @note     (*) HSI_VALUE is a constant defined in stm32f4xx.h file (default value
 840:../STLibs//STM32F4xx_DSP_StdPeriph_Lib_V1.0.1/Libraries/STM32F4xx_StdPeriph_Driver/src/stm32f4xx_rcc.c ****   *               16 MHz) but the real value may vary depending on the variations
 841:../STLibs//STM32F4xx_DSP_StdPeriph_Lib_V1.0.1/Libraries/STM32F4xx_StdPeriph_Driver/src/stm32f4xx_rcc.c ****   *               in voltage and temperature.
 842:../STLibs//STM32F4xx_DSP_StdPeriph_Lib_V1.0.1/Libraries/STM32F4xx_StdPeriph_Driver/src/stm32f4xx_rcc.c ****   * @note     (**) HSE_VALUE is a constant defined in stm32f4xx.h file (default value
 843:../STLibs//STM32F4xx_DSP_StdPeriph_Lib_V1.0.1/Libraries/STM32F4xx_StdPeriph_Driver/src/stm32f4xx_rcc.c ****   *                25 MHz), user has to ensure that HSE_VALUE is same as the real
 844:../STLibs//STM32F4xx_DSP_StdPeriph_Lib_V1.0.1/Libraries/STM32F4xx_StdPeriph_Driver/src/stm32f4xx_rcc.c ****   *                frequency of the crystal used. Otherwise, this function may
 845:../STLibs//STM32F4xx_DSP_StdPeriph_Lib_V1.0.1/Libraries/STM32F4xx_StdPeriph_Driver/src/stm32f4xx_rcc.c ****   *                have wrong result.
 846:../STLibs//STM32F4xx_DSP_StdPeriph_Lib_V1.0.1/Libraries/STM32F4xx_StdPeriph_Driver/src/stm32f4xx_rcc.c ****   *                
 847:../STLibs//STM32F4xx_DSP_StdPeriph_Lib_V1.0.1/Libraries/STM32F4xx_StdPeriph_Driver/src/stm32f4xx_rcc.c ****   * @note   The result of this function could be not correct when using fractional
 848:../STLibs//STM32F4xx_DSP_StdPeriph_Lib_V1.0.1/Libraries/STM32F4xx_StdPeriph_Driver/src/stm32f4xx_rcc.c ****   *         value for HSE crystal.
 849:../STLibs//STM32F4xx_DSP_StdPeriph_Lib_V1.0.1/Libraries/STM32F4xx_StdPeriph_Driver/src/stm32f4xx_rcc.c ****   *   
 850:../STLibs//STM32F4xx_DSP_StdPeriph_Lib_V1.0.1/Libraries/STM32F4xx_StdPeriph_Driver/src/stm32f4xx_rcc.c ****   * @param  RCC_Clocks: pointer to a RCC_ClocksTypeDef structure which will hold
 851:../STLibs//STM32F4xx_DSP_StdPeriph_Lib_V1.0.1/Libraries/STM32F4xx_StdPeriph_Driver/src/stm32f4xx_rcc.c ****   *          the clocks frequencies.
 852:../STLibs//STM32F4xx_DSP_StdPeriph_Lib_V1.0.1/Libraries/STM32F4xx_StdPeriph_Driver/src/stm32f4xx_rcc.c ****   *     
 853:../STLibs//STM32F4xx_DSP_StdPeriph_Lib_V1.0.1/Libraries/STM32F4xx_StdPeriph_Driver/src/stm32f4xx_rcc.c ****   * @note   This function can be used by the user application to compute the 
 854:../STLibs//STM32F4xx_DSP_StdPeriph_Lib_V1.0.1/Libraries/STM32F4xx_StdPeriph_Driver/src/stm32f4xx_rcc.c ****   *         baudrate for the communication peripherals or configure other parameters.
 855:../STLibs//STM32F4xx_DSP_StdPeriph_Lib_V1.0.1/Libraries/STM32F4xx_StdPeriph_Driver/src/stm32f4xx_rcc.c ****   * @note   Each time SYSCLK, HCLK, PCLK1 and/or PCLK2 clock changes, this function
 856:../STLibs//STM32F4xx_DSP_StdPeriph_Lib_V1.0.1/Libraries/STM32F4xx_StdPeriph_Driver/src/stm32f4xx_rcc.c ****   *         must be called to update the structure's field. Otherwise, any
 857:../STLibs//STM32F4xx_DSP_StdPeriph_Lib_V1.0.1/Libraries/STM32F4xx_StdPeriph_Driver/src/stm32f4xx_rcc.c ****   *         configuration based on this function will be incorrect.
 858:../STLibs//STM32F4xx_DSP_StdPeriph_Lib_V1.0.1/Libraries/STM32F4xx_StdPeriph_Driver/src/stm32f4xx_rcc.c ****   *    
 859:../STLibs//STM32F4xx_DSP_StdPeriph_Lib_V1.0.1/Libraries/STM32F4xx_StdPeriph_Driver/src/stm32f4xx_rcc.c ****   * @retval None
 860:../STLibs//STM32F4xx_DSP_StdPeriph_Lib_V1.0.1/Libraries/STM32F4xx_StdPeriph_Driver/src/stm32f4xx_rcc.c ****   */
 861:../STLibs//STM32F4xx_DSP_StdPeriph_Lib_V1.0.1/Libraries/STM32F4xx_StdPeriph_Driver/src/stm32f4xx_rcc.c **** void RCC_GetClocksFreq(RCC_ClocksTypeDef* RCC_Clocks)
 862:../STLibs//STM32F4xx_DSP_StdPeriph_Lib_V1.0.1/Libraries/STM32F4xx_StdPeriph_Driver/src/stm32f4xx_rcc.c **** {
 640              		.loc 1 862 0
 641              		.cfi_startproc
 642              		@ args = 0, pretend = 0, frame = 0
 643              		@ frame_needed = 0, uses_anonymous_args = 0
 644              	.LVL43:
 863:../STLibs//STM32F4xx_DSP_StdPeriph_Lib_V1.0.1/Libraries/STM32F4xx_StdPeriph_Driver/src/stm32f4xx_rcc.c ****   uint32_t tmp = 0, presc = 0, pllvco = 0, pllp = 2, pllsource = 0, pllm = 2;
 864:../STLibs//STM32F4xx_DSP_StdPeriph_Lib_V1.0.1/Libraries/STM32F4xx_StdPeriph_Driver/src/stm32f4xx_rcc.c **** 
 865:../STLibs//STM32F4xx_DSP_StdPeriph_Lib_V1.0.1/Libraries/STM32F4xx_StdPeriph_Driver/src/stm32f4xx_rcc.c ****   /* Get SYSCLK source -------------------------------------------------------*/
 866:../STLibs//STM32F4xx_DSP_StdPeriph_Lib_V1.0.1/Libraries/STM32F4xx_StdPeriph_Driver/src/stm32f4xx_rcc.c ****   tmp = RCC->CFGR & RCC_CFGR_SWS;
 645              		.loc 1 866 0
 646 0170 1D4A     		ldr	r2, .L67
 647 0172 9368     		ldr	r3, [r2, #8]
 648              	.LVL44:
 649 0174 03F00C03 		and	r3, r3, #12
 650              	.LVL45:
 867:../STLibs//STM32F4xx_DSP_StdPeriph_Lib_V1.0.1/Libraries/STM32F4xx_StdPeriph_Driver/src/stm32f4xx_rcc.c **** 
 868:../STLibs//STM32F4xx_DSP_StdPeriph_Lib_V1.0.1/Libraries/STM32F4xx_StdPeriph_Driver/src/stm32f4xx_rcc.c ****   switch (tmp)
 651              		.loc 1 868 0
 652 0178 042B     		cmp	r3, #4
 862:../STLibs//STM32F4xx_DSP_StdPeriph_Lib_V1.0.1/Libraries/STM32F4xx_StdPeriph_Driver/src/stm32f4xx_rcc.c ****   uint32_t tmp = 0, presc = 0, pllvco = 0, pllp = 2, pllsource = 0, pllm = 2;
 653              		.loc 1 862 0
 654 017a 10B5     		push	{r4, lr}
 655              	.LCFI1:
 656              		.cfi_def_cfa_offset 8
 657              		.cfi_offset 4, -8
 658              		.cfi_offset 14, -4
 659              		.loc 1 868 0
 660 017c 1AD0     		beq	.L60
 661 017e 082B     		cmp	r3, #8
 662 0180 1AD0     		beq	.L61
 869:../STLibs//STM32F4xx_DSP_StdPeriph_Lib_V1.0.1/Libraries/STM32F4xx_StdPeriph_Driver/src/stm32f4xx_rcc.c ****   {
 870:../STLibs//STM32F4xx_DSP_StdPeriph_Lib_V1.0.1/Libraries/STM32F4xx_StdPeriph_Driver/src/stm32f4xx_rcc.c ****     case 0x00:  /* HSI used as system clock source */
 871:../STLibs//STM32F4xx_DSP_StdPeriph_Lib_V1.0.1/Libraries/STM32F4xx_StdPeriph_Driver/src/stm32f4xx_rcc.c ****       RCC_Clocks->SYSCLK_Frequency = HSI_VALUE;
 663              		.loc 1 871 0
 664 0182 1A4B     		ldr	r3, .L67+4
 665              	.LVL46:
 666              	.L66:
 872:../STLibs//STM32F4xx_DSP_StdPeriph_Lib_V1.0.1/Libraries/STM32F4xx_StdPeriph_Driver/src/stm32f4xx_rcc.c ****       break;
 873:../STLibs//STM32F4xx_DSP_StdPeriph_Lib_V1.0.1/Libraries/STM32F4xx_StdPeriph_Driver/src/stm32f4xx_rcc.c ****     case 0x04:  /* HSE used as system clock  source */
 874:../STLibs//STM32F4xx_DSP_StdPeriph_Lib_V1.0.1/Libraries/STM32F4xx_StdPeriph_Driver/src/stm32f4xx_rcc.c ****       RCC_Clocks->SYSCLK_Frequency = HSE_VALUE;
 875:../STLibs//STM32F4xx_DSP_StdPeriph_Lib_V1.0.1/Libraries/STM32F4xx_StdPeriph_Driver/src/stm32f4xx_rcc.c ****       break;
 876:../STLibs//STM32F4xx_DSP_StdPeriph_Lib_V1.0.1/Libraries/STM32F4xx_StdPeriph_Driver/src/stm32f4xx_rcc.c ****     case 0x08:  /* PLL used as system clock  source */
 877:../STLibs//STM32F4xx_DSP_StdPeriph_Lib_V1.0.1/Libraries/STM32F4xx_StdPeriph_Driver/src/stm32f4xx_rcc.c **** 
 878:../STLibs//STM32F4xx_DSP_StdPeriph_Lib_V1.0.1/Libraries/STM32F4xx_StdPeriph_Driver/src/stm32f4xx_rcc.c ****       /* PLL_VCO = (HSE_VALUE or HSI_VALUE / PLLM) * PLLN
 879:../STLibs//STM32F4xx_DSP_StdPeriph_Lib_V1.0.1/Libraries/STM32F4xx_StdPeriph_Driver/src/stm32f4xx_rcc.c ****          SYSCLK = PLL_VCO / PLLP
 880:../STLibs//STM32F4xx_DSP_StdPeriph_Lib_V1.0.1/Libraries/STM32F4xx_StdPeriph_Driver/src/stm32f4xx_rcc.c ****          */    
 881:../STLibs//STM32F4xx_DSP_StdPeriph_Lib_V1.0.1/Libraries/STM32F4xx_StdPeriph_Driver/src/stm32f4xx_rcc.c ****       pllsource = (RCC->PLLCFGR & RCC_PLLCFGR_PLLSRC) >> 22;
 882:../STLibs//STM32F4xx_DSP_StdPeriph_Lib_V1.0.1/Libraries/STM32F4xx_StdPeriph_Driver/src/stm32f4xx_rcc.c ****       pllm = RCC->PLLCFGR & RCC_PLLCFGR_PLLM;
 883:../STLibs//STM32F4xx_DSP_StdPeriph_Lib_V1.0.1/Libraries/STM32F4xx_StdPeriph_Driver/src/stm32f4xx_rcc.c ****       
 884:../STLibs//STM32F4xx_DSP_StdPeriph_Lib_V1.0.1/Libraries/STM32F4xx_StdPeriph_Driver/src/stm32f4xx_rcc.c ****       if (pllsource != 0)
 885:../STLibs//STM32F4xx_DSP_StdPeriph_Lib_V1.0.1/Libraries/STM32F4xx_StdPeriph_Driver/src/stm32f4xx_rcc.c ****       {
 886:../STLibs//STM32F4xx_DSP_StdPeriph_Lib_V1.0.1/Libraries/STM32F4xx_StdPeriph_Driver/src/stm32f4xx_rcc.c ****         /* HSE used as PLL clock source */
 887:../STLibs//STM32F4xx_DSP_StdPeriph_Lib_V1.0.1/Libraries/STM32F4xx_StdPeriph_Driver/src/stm32f4xx_rcc.c ****         pllvco = (HSE_VALUE / pllm) * ((RCC->PLLCFGR & RCC_PLLCFGR_PLLN) >> 6);
 888:../STLibs//STM32F4xx_DSP_StdPeriph_Lib_V1.0.1/Libraries/STM32F4xx_StdPeriph_Driver/src/stm32f4xx_rcc.c ****       }
 889:../STLibs//STM32F4xx_DSP_StdPeriph_Lib_V1.0.1/Libraries/STM32F4xx_StdPeriph_Driver/src/stm32f4xx_rcc.c ****       else
 890:../STLibs//STM32F4xx_DSP_StdPeriph_Lib_V1.0.1/Libraries/STM32F4xx_StdPeriph_Driver/src/stm32f4xx_rcc.c ****       {
 891:../STLibs//STM32F4xx_DSP_StdPeriph_Lib_V1.0.1/Libraries/STM32F4xx_StdPeriph_Driver/src/stm32f4xx_rcc.c ****         /* HSI used as PLL clock source */
 892:../STLibs//STM32F4xx_DSP_StdPeriph_Lib_V1.0.1/Libraries/STM32F4xx_StdPeriph_Driver/src/stm32f4xx_rcc.c ****         pllvco = (HSI_VALUE / pllm) * ((RCC->PLLCFGR & RCC_PLLCFGR_PLLN) >> 6);      
 893:../STLibs//STM32F4xx_DSP_StdPeriph_Lib_V1.0.1/Libraries/STM32F4xx_StdPeriph_Driver/src/stm32f4xx_rcc.c ****       }
 894:../STLibs//STM32F4xx_DSP_StdPeriph_Lib_V1.0.1/Libraries/STM32F4xx_StdPeriph_Driver/src/stm32f4xx_rcc.c **** 
 895:../STLibs//STM32F4xx_DSP_StdPeriph_Lib_V1.0.1/Libraries/STM32F4xx_StdPeriph_Driver/src/stm32f4xx_rcc.c ****       pllp = (((RCC->PLLCFGR & RCC_PLLCFGR_PLLP) >>16) + 1 ) *2;
 896:../STLibs//STM32F4xx_DSP_StdPeriph_Lib_V1.0.1/Libraries/STM32F4xx_StdPeriph_Driver/src/stm32f4xx_rcc.c ****       RCC_Clocks->SYSCLK_Frequency = pllvco/pllp;
 897:../STLibs//STM32F4xx_DSP_StdPeriph_Lib_V1.0.1/Libraries/STM32F4xx_StdPeriph_Driver/src/stm32f4xx_rcc.c ****       break;
 898:../STLibs//STM32F4xx_DSP_StdPeriph_Lib_V1.0.1/Libraries/STM32F4xx_StdPeriph_Driver/src/stm32f4xx_rcc.c ****     default:
 899:../STLibs//STM32F4xx_DSP_StdPeriph_Lib_V1.0.1/Libraries/STM32F4xx_StdPeriph_Driver/src/stm32f4xx_rcc.c ****       RCC_Clocks->SYSCLK_Frequency = HSI_VALUE;
 900:../STLibs//STM32F4xx_DSP_StdPeriph_Lib_V1.0.1/Libraries/STM32F4xx_StdPeriph_Driver/src/stm32f4xx_rcc.c ****       break;
 901:../STLibs//STM32F4xx_DSP_StdPeriph_Lib_V1.0.1/Libraries/STM32F4xx_StdPeriph_Driver/src/stm32f4xx_rcc.c ****   }
 902:../STLibs//STM32F4xx_DSP_StdPeriph_Lib_V1.0.1/Libraries/STM32F4xx_StdPeriph_Driver/src/stm32f4xx_rcc.c ****   /* Compute HCLK, PCLK1 and PCLK2 clocks frequencies ------------------------*/
 903:../STLibs//STM32F4xx_DSP_StdPeriph_Lib_V1.0.1/Libraries/STM32F4xx_StdPeriph_Driver/src/stm32f4xx_rcc.c **** 
 904:../STLibs//STM32F4xx_DSP_StdPeriph_Lib_V1.0.1/Libraries/STM32F4xx_StdPeriph_Driver/src/stm32f4xx_rcc.c ****   /* Get HCLK prescaler */
 905:../STLibs//STM32F4xx_DSP_StdPeriph_Lib_V1.0.1/Libraries/STM32F4xx_StdPeriph_Driver/src/stm32f4xx_rcc.c ****   tmp = RCC->CFGR & RCC_CFGR_HPRE;
 667              		.loc 1 905 0
 668 0184 184A     		ldr	r2, .L67
 896:../STLibs//STM32F4xx_DSP_StdPeriph_Lib_V1.0.1/Libraries/STM32F4xx_StdPeriph_Driver/src/stm32f4xx_rcc.c ****       break;
 669              		.loc 1 896 0
 670 0186 0360     		str	r3, [r0]
 671              		.loc 1 905 0
 672 0188 9368     		ldr	r3, [r2, #8]
 673              	.LVL47:
 906:../STLibs//STM32F4xx_DSP_StdPeriph_Lib_V1.0.1/Libraries/STM32F4xx_StdPeriph_Driver/src/stm32f4xx_rcc.c ****   tmp = tmp >> 4;
 907:../STLibs//STM32F4xx_DSP_StdPeriph_Lib_V1.0.1/Libraries/STM32F4xx_StdPeriph_Driver/src/stm32f4xx_rcc.c ****   presc = APBAHBPrescTable[tmp];
 674              		.loc 1 907 0
 675 018a 1949     		ldr	r1, .L67+8
 906:../STLibs//STM32F4xx_DSP_StdPeriph_Lib_V1.0.1/Libraries/STM32F4xx_StdPeriph_Driver/src/stm32f4xx_rcc.c ****   tmp = tmp >> 4;
 676              		.loc 1 906 0
 677 018c C3F30313 		ubfx	r3, r3, #4, #4
 678              	.LVL48:
 679              		.loc 1 907 0
 680 0190 CC5C     		ldrb	r4, [r1, r3]	@ zero_extendqisi2
 681              	.LVL49:
 908:../STLibs//STM32F4xx_DSP_StdPeriph_Lib_V1.0.1/Libraries/STM32F4xx_StdPeriph_Driver/src/stm32f4xx_rcc.c ****   /* HCLK clock frequency */
 909:../STLibs//STM32F4xx_DSP_StdPeriph_Lib_V1.0.1/Libraries/STM32F4xx_StdPeriph_Driver/src/stm32f4xx_rcc.c ****   RCC_Clocks->HCLK_Frequency = RCC_Clocks->SYSCLK_Frequency >> presc;
 682              		.loc 1 909 0
 683 0192 0368     		ldr	r3, [r0]
 684              	.LVL50:
 685 0194 E340     		lsrs	r3, r3, r4
 686 0196 4360     		str	r3, [r0, #4]
 910:../STLibs//STM32F4xx_DSP_StdPeriph_Lib_V1.0.1/Libraries/STM32F4xx_StdPeriph_Driver/src/stm32f4xx_rcc.c **** 
 911:../STLibs//STM32F4xx_DSP_StdPeriph_Lib_V1.0.1/Libraries/STM32F4xx_StdPeriph_Driver/src/stm32f4xx_rcc.c ****   /* Get PCLK1 prescaler */
 912:../STLibs//STM32F4xx_DSP_StdPeriph_Lib_V1.0.1/Libraries/STM32F4xx_StdPeriph_Driver/src/stm32f4xx_rcc.c ****   tmp = RCC->CFGR & RCC_CFGR_PPRE1;
 687              		.loc 1 912 0
 688 0198 9468     		ldr	r4, [r2, #8]
 689              	.LVL51:
 913:../STLibs//STM32F4xx_DSP_StdPeriph_Lib_V1.0.1/Libraries/STM32F4xx_StdPeriph_Driver/src/stm32f4xx_rcc.c ****   tmp = tmp >> 10;
 690              		.loc 1 913 0
 691 019a C4F38224 		ubfx	r4, r4, #10, #3
 692              	.LVL52:
 914:../STLibs//STM32F4xx_DSP_StdPeriph_Lib_V1.0.1/Libraries/STM32F4xx_StdPeriph_Driver/src/stm32f4xx_rcc.c ****   presc = APBAHBPrescTable[tmp];
 693              		.loc 1 914 0
 694 019e 0C5D     		ldrb	r4, [r1, r4]	@ zero_extendqisi2
 695              	.LVL53:
 915:../STLibs//STM32F4xx_DSP_StdPeriph_Lib_V1.0.1/Libraries/STM32F4xx_StdPeriph_Driver/src/stm32f4xx_rcc.c ****   /* PCLK1 clock frequency */
 916:../STLibs//STM32F4xx_DSP_StdPeriph_Lib_V1.0.1/Libraries/STM32F4xx_StdPeriph_Driver/src/stm32f4xx_rcc.c ****   RCC_Clocks->PCLK1_Frequency = RCC_Clocks->HCLK_Frequency >> presc;
 696              		.loc 1 916 0
 697 01a0 23FA04F4 		lsr	r4, r3, r4
 698              	.LVL54:
 699 01a4 8460     		str	r4, [r0, #8]
 917:../STLibs//STM32F4xx_DSP_StdPeriph_Lib_V1.0.1/Libraries/STM32F4xx_StdPeriph_Driver/src/stm32f4xx_rcc.c **** 
 918:../STLibs//STM32F4xx_DSP_StdPeriph_Lib_V1.0.1/Libraries/STM32F4xx_StdPeriph_Driver/src/stm32f4xx_rcc.c ****   /* Get PCLK2 prescaler */
 919:../STLibs//STM32F4xx_DSP_StdPeriph_Lib_V1.0.1/Libraries/STM32F4xx_StdPeriph_Driver/src/stm32f4xx_rcc.c ****   tmp = RCC->CFGR & RCC_CFGR_PPRE2;
 700              		.loc 1 919 0
 701 01a6 9268     		ldr	r2, [r2, #8]
 702              	.LVL55:
 920:../STLibs//STM32F4xx_DSP_StdPeriph_Lib_V1.0.1/Libraries/STM32F4xx_StdPeriph_Driver/src/stm32f4xx_rcc.c ****   tmp = tmp >> 13;
 703              		.loc 1 920 0
 704 01a8 C2F34232 		ubfx	r2, r2, #13, #3
 705              	.LVL56:
 921:../STLibs//STM32F4xx_DSP_StdPeriph_Lib_V1.0.1/Libraries/STM32F4xx_StdPeriph_Driver/src/stm32f4xx_rcc.c ****   presc = APBAHBPrescTable[tmp];
 706              		.loc 1 921 0
 707 01ac 8A5C     		ldrb	r2, [r1, r2]	@ zero_extendqisi2
 708              	.LVL57:
 922:../STLibs//STM32F4xx_DSP_StdPeriph_Lib_V1.0.1/Libraries/STM32F4xx_StdPeriph_Driver/src/stm32f4xx_rcc.c ****   /* PCLK2 clock frequency */
 923:../STLibs//STM32F4xx_DSP_StdPeriph_Lib_V1.0.1/Libraries/STM32F4xx_StdPeriph_Driver/src/stm32f4xx_rcc.c ****   RCC_Clocks->PCLK2_Frequency = RCC_Clocks->HCLK_Frequency >> presc;
 709              		.loc 1 923 0
 710 01ae D340     		lsrs	r3, r3, r2
 711 01b0 C360     		str	r3, [r0, #12]
 924:../STLibs//STM32F4xx_DSP_StdPeriph_Lib_V1.0.1/Libraries/STM32F4xx_StdPeriph_Driver/src/stm32f4xx_rcc.c **** }
 712              		.loc 1 924 0
 713 01b2 10BD     		pop	{r4, pc}
 714              	.LVL58:
 715              	.L60:
 874:../STLibs//STM32F4xx_DSP_StdPeriph_Lib_V1.0.1/Libraries/STM32F4xx_StdPeriph_Driver/src/stm32f4xx_rcc.c ****       break;
 716              		.loc 1 874 0
 717 01b4 0F4B     		ldr	r3, .L67+12
 718              	.LVL59:
 719 01b6 E5E7     		b	.L66
 720              	.LVL60:
 721              	.L61:
 881:../STLibs//STM32F4xx_DSP_StdPeriph_Lib_V1.0.1/Libraries/STM32F4xx_StdPeriph_Driver/src/stm32f4xx_rcc.c ****       pllm = RCC->PLLCFGR & RCC_PLLCFGR_PLLM;
 722              		.loc 1 881 0
 723 01b8 5468     		ldr	r4, [r2, #4]
 724              	.LVL61:
 882:../STLibs//STM32F4xx_DSP_StdPeriph_Lib_V1.0.1/Libraries/STM32F4xx_StdPeriph_Driver/src/stm32f4xx_rcc.c ****       
 725              		.loc 1 882 0
 726 01ba 5168     		ldr	r1, [r2, #4]
 887:../STLibs//STM32F4xx_DSP_StdPeriph_Lib_V1.0.1/Libraries/STM32F4xx_StdPeriph_Driver/src/stm32f4xx_rcc.c ****       }
 727              		.loc 1 887 0
 728 01bc 5268     		ldr	r2, [r2, #4]
 884:../STLibs//STM32F4xx_DSP_StdPeriph_Lib_V1.0.1/Libraries/STM32F4xx_StdPeriph_Driver/src/stm32f4xx_rcc.c ****       {
 729              		.loc 1 884 0
 730 01be 6302     		lsls	r3, r4, #9
 731              	.LVL62:
 887:../STLibs//STM32F4xx_DSP_StdPeriph_Lib_V1.0.1/Libraries/STM32F4xx_StdPeriph_Driver/src/stm32f4xx_rcc.c ****       }
 732              		.loc 1 887 0
 733 01c0 C2F38812 		ubfx	r2, r2, #6, #9
 882:../STLibs//STM32F4xx_DSP_StdPeriph_Lib_V1.0.1/Libraries/STM32F4xx_StdPeriph_Driver/src/stm32f4xx_rcc.c ****       
 734              		.loc 1 882 0
 735 01c4 01F03F01 		and	r1, r1, #63
 736              	.LVL63:
 887:../STLibs//STM32F4xx_DSP_StdPeriph_Lib_V1.0.1/Libraries/STM32F4xx_StdPeriph_Driver/src/stm32f4xx_rcc.c ****       }
 737              		.loc 1 887 0
 738 01c8 4CBF     		ite	mi
 739 01ca 0A4B     		ldrmi	r3, .L67+12
 892:../STLibs//STM32F4xx_DSP_StdPeriph_Lib_V1.0.1/Libraries/STM32F4xx_StdPeriph_Driver/src/stm32f4xx_rcc.c ****       }
 740              		.loc 1 892 0
 741 01cc 074B     		ldrpl	r3, .L67+4
 742 01ce B3FBF1F3 		udiv	r3, r3, r1
 743 01d2 5343     		muls	r3, r2, r3
 744              	.LVL64:
 895:../STLibs//STM32F4xx_DSP_StdPeriph_Lib_V1.0.1/Libraries/STM32F4xx_StdPeriph_Driver/src/stm32f4xx_rcc.c ****       RCC_Clocks->SYSCLK_Frequency = pllvco/pllp;
 745              		.loc 1 895 0
 746 01d4 044A     		ldr	r2, .L67
 747 01d6 5268     		ldr	r2, [r2, #4]
 748              	.LVL65:
 749 01d8 C2F30142 		ubfx	r2, r2, #16, #2
 750              	.LVL66:
 751 01dc 0132     		adds	r2, r2, #1
 752 01de 5200     		lsls	r2, r2, #1
 896:../STLibs//STM32F4xx_DSP_StdPeriph_Lib_V1.0.1/Libraries/STM32F4xx_StdPeriph_Driver/src/stm32f4xx_rcc.c ****       break;
 753              		.loc 1 896 0
 754 01e0 B3FBF2F3 		udiv	r3, r3, r2
 755              	.LVL67:
 756 01e4 CEE7     		b	.L66
 757              	.L68:
 758 01e6 00BF     		.align	2
 759              	.L67:
 760 01e8 00380240 		.word	1073887232
 761 01ec 0024F400 		.word	16000000
 762 01f0 00000000 		.word	.LANCHOR0
 763 01f4 00127A00 		.word	8000000
 764              		.cfi_endproc
 765              	.LFE129:
 767              		.align	1
 768              		.global	RCC_RTCCLKConfig
 769              		.syntax unified
 770              		.thumb
 771              		.thumb_func
 772              		.fpu fpv4-sp-d16
 774              	RCC_RTCCLKConfig:
 775              	.LFB130:
 925:../STLibs//STM32F4xx_DSP_StdPeriph_Lib_V1.0.1/Libraries/STM32F4xx_StdPeriph_Driver/src/stm32f4xx_rcc.c **** 
 926:../STLibs//STM32F4xx_DSP_StdPeriph_Lib_V1.0.1/Libraries/STM32F4xx_StdPeriph_Driver/src/stm32f4xx_rcc.c **** /**
 927:../STLibs//STM32F4xx_DSP_StdPeriph_Lib_V1.0.1/Libraries/STM32F4xx_StdPeriph_Driver/src/stm32f4xx_rcc.c ****   * @}
 928:../STLibs//STM32F4xx_DSP_StdPeriph_Lib_V1.0.1/Libraries/STM32F4xx_StdPeriph_Driver/src/stm32f4xx_rcc.c ****   */
 929:../STLibs//STM32F4xx_DSP_StdPeriph_Lib_V1.0.1/Libraries/STM32F4xx_StdPeriph_Driver/src/stm32f4xx_rcc.c **** 
 930:../STLibs//STM32F4xx_DSP_StdPeriph_Lib_V1.0.1/Libraries/STM32F4xx_StdPeriph_Driver/src/stm32f4xx_rcc.c **** /** @defgroup RCC_Group3 Peripheral clocks configuration functions
 931:../STLibs//STM32F4xx_DSP_StdPeriph_Lib_V1.0.1/Libraries/STM32F4xx_StdPeriph_Driver/src/stm32f4xx_rcc.c ****  *  @brief   Peripheral clocks configuration functions 
 932:../STLibs//STM32F4xx_DSP_StdPeriph_Lib_V1.0.1/Libraries/STM32F4xx_StdPeriph_Driver/src/stm32f4xx_rcc.c ****  *
 933:../STLibs//STM32F4xx_DSP_StdPeriph_Lib_V1.0.1/Libraries/STM32F4xx_StdPeriph_Driver/src/stm32f4xx_rcc.c **** @verbatim   
 934:../STLibs//STM32F4xx_DSP_StdPeriph_Lib_V1.0.1/Libraries/STM32F4xx_StdPeriph_Driver/src/stm32f4xx_rcc.c ****  ===============================================================================
 935:../STLibs//STM32F4xx_DSP_StdPeriph_Lib_V1.0.1/Libraries/STM32F4xx_StdPeriph_Driver/src/stm32f4xx_rcc.c ****                    Peripheral clocks configuration functions
 936:../STLibs//STM32F4xx_DSP_StdPeriph_Lib_V1.0.1/Libraries/STM32F4xx_StdPeriph_Driver/src/stm32f4xx_rcc.c ****  ===============================================================================  
 937:../STLibs//STM32F4xx_DSP_StdPeriph_Lib_V1.0.1/Libraries/STM32F4xx_StdPeriph_Driver/src/stm32f4xx_rcc.c **** 
 938:../STLibs//STM32F4xx_DSP_StdPeriph_Lib_V1.0.1/Libraries/STM32F4xx_StdPeriph_Driver/src/stm32f4xx_rcc.c ****   This section provide functions allowing to configure the Peripheral clocks. 
 939:../STLibs//STM32F4xx_DSP_StdPeriph_Lib_V1.0.1/Libraries/STM32F4xx_StdPeriph_Driver/src/stm32f4xx_rcc.c ****   
 940:../STLibs//STM32F4xx_DSP_StdPeriph_Lib_V1.0.1/Libraries/STM32F4xx_StdPeriph_Driver/src/stm32f4xx_rcc.c ****   1. The RTC clock which is derived from the LSI, LSE or HSE clock divided by 2 to 31.
 941:../STLibs//STM32F4xx_DSP_StdPeriph_Lib_V1.0.1/Libraries/STM32F4xx_StdPeriph_Driver/src/stm32f4xx_rcc.c ****      
 942:../STLibs//STM32F4xx_DSP_StdPeriph_Lib_V1.0.1/Libraries/STM32F4xx_StdPeriph_Driver/src/stm32f4xx_rcc.c ****   2. After restart from Reset or wakeup from STANDBY, all peripherals are off
 943:../STLibs//STM32F4xx_DSP_StdPeriph_Lib_V1.0.1/Libraries/STM32F4xx_StdPeriph_Driver/src/stm32f4xx_rcc.c ****      except internal SRAM, Flash and JTAG. Before to start using a peripheral you
 944:../STLibs//STM32F4xx_DSP_StdPeriph_Lib_V1.0.1/Libraries/STM32F4xx_StdPeriph_Driver/src/stm32f4xx_rcc.c ****      have to enable its interface clock. You can do this using RCC_AHBPeriphClockCmd()
 945:../STLibs//STM32F4xx_DSP_StdPeriph_Lib_V1.0.1/Libraries/STM32F4xx_StdPeriph_Driver/src/stm32f4xx_rcc.c ****      , RCC_APB2PeriphClockCmd() and RCC_APB1PeriphClockCmd() functions.
 946:../STLibs//STM32F4xx_DSP_StdPeriph_Lib_V1.0.1/Libraries/STM32F4xx_StdPeriph_Driver/src/stm32f4xx_rcc.c **** 
 947:../STLibs//STM32F4xx_DSP_StdPeriph_Lib_V1.0.1/Libraries/STM32F4xx_StdPeriph_Driver/src/stm32f4xx_rcc.c ****   3. To reset the peripherals configuration (to the default state after device reset)
 948:../STLibs//STM32F4xx_DSP_StdPeriph_Lib_V1.0.1/Libraries/STM32F4xx_StdPeriph_Driver/src/stm32f4xx_rcc.c ****      you can use RCC_AHBPeriphResetCmd(), RCC_APB2PeriphResetCmd() and 
 949:../STLibs//STM32F4xx_DSP_StdPeriph_Lib_V1.0.1/Libraries/STM32F4xx_StdPeriph_Driver/src/stm32f4xx_rcc.c ****      RCC_APB1PeriphResetCmd() functions.
 950:../STLibs//STM32F4xx_DSP_StdPeriph_Lib_V1.0.1/Libraries/STM32F4xx_StdPeriph_Driver/src/stm32f4xx_rcc.c ****      
 951:../STLibs//STM32F4xx_DSP_StdPeriph_Lib_V1.0.1/Libraries/STM32F4xx_StdPeriph_Driver/src/stm32f4xx_rcc.c ****   4. To further reduce power consumption in SLEEP mode the peripheral clocks can
 952:../STLibs//STM32F4xx_DSP_StdPeriph_Lib_V1.0.1/Libraries/STM32F4xx_StdPeriph_Driver/src/stm32f4xx_rcc.c ****      be disabled prior to executing the WFI or WFE instructions. You can do this
 953:../STLibs//STM32F4xx_DSP_StdPeriph_Lib_V1.0.1/Libraries/STM32F4xx_StdPeriph_Driver/src/stm32f4xx_rcc.c ****      using RCC_AHBPeriphClockLPModeCmd(), RCC_APB2PeriphClockLPModeCmd() and
 954:../STLibs//STM32F4xx_DSP_StdPeriph_Lib_V1.0.1/Libraries/STM32F4xx_StdPeriph_Driver/src/stm32f4xx_rcc.c ****      RCC_APB1PeriphClockLPModeCmd() functions.  
 955:../STLibs//STM32F4xx_DSP_StdPeriph_Lib_V1.0.1/Libraries/STM32F4xx_StdPeriph_Driver/src/stm32f4xx_rcc.c **** 
 956:../STLibs//STM32F4xx_DSP_StdPeriph_Lib_V1.0.1/Libraries/STM32F4xx_StdPeriph_Driver/src/stm32f4xx_rcc.c **** @endverbatim
 957:../STLibs//STM32F4xx_DSP_StdPeriph_Lib_V1.0.1/Libraries/STM32F4xx_StdPeriph_Driver/src/stm32f4xx_rcc.c ****   * @{
 958:../STLibs//STM32F4xx_DSP_StdPeriph_Lib_V1.0.1/Libraries/STM32F4xx_StdPeriph_Driver/src/stm32f4xx_rcc.c ****   */
 959:../STLibs//STM32F4xx_DSP_StdPeriph_Lib_V1.0.1/Libraries/STM32F4xx_StdPeriph_Driver/src/stm32f4xx_rcc.c **** 
 960:../STLibs//STM32F4xx_DSP_StdPeriph_Lib_V1.0.1/Libraries/STM32F4xx_StdPeriph_Driver/src/stm32f4xx_rcc.c **** /**
 961:../STLibs//STM32F4xx_DSP_StdPeriph_Lib_V1.0.1/Libraries/STM32F4xx_StdPeriph_Driver/src/stm32f4xx_rcc.c ****   * @brief  Configures the RTC clock (RTCCLK).
 962:../STLibs//STM32F4xx_DSP_StdPeriph_Lib_V1.0.1/Libraries/STM32F4xx_StdPeriph_Driver/src/stm32f4xx_rcc.c ****   * @note   As the RTC clock configuration bits are in the Backup domain and write
 963:../STLibs//STM32F4xx_DSP_StdPeriph_Lib_V1.0.1/Libraries/STM32F4xx_StdPeriph_Driver/src/stm32f4xx_rcc.c ****   *         access is denied to this domain after reset, you have to enable write
 964:../STLibs//STM32F4xx_DSP_StdPeriph_Lib_V1.0.1/Libraries/STM32F4xx_StdPeriph_Driver/src/stm32f4xx_rcc.c ****   *         access using PWR_BackupAccessCmd(ENABLE) function before to configure
 965:../STLibs//STM32F4xx_DSP_StdPeriph_Lib_V1.0.1/Libraries/STM32F4xx_StdPeriph_Driver/src/stm32f4xx_rcc.c ****   *         the RTC clock source (to be done once after reset).    
 966:../STLibs//STM32F4xx_DSP_StdPeriph_Lib_V1.0.1/Libraries/STM32F4xx_StdPeriph_Driver/src/stm32f4xx_rcc.c ****   * @note   Once the RTC clock is configured it can't be changed unless the  
 967:../STLibs//STM32F4xx_DSP_StdPeriph_Lib_V1.0.1/Libraries/STM32F4xx_StdPeriph_Driver/src/stm32f4xx_rcc.c ****   *         Backup domain is reset using RCC_BackupResetCmd() function, or by
 968:../STLibs//STM32F4xx_DSP_StdPeriph_Lib_V1.0.1/Libraries/STM32F4xx_StdPeriph_Driver/src/stm32f4xx_rcc.c ****   *         a Power On Reset (POR).
 969:../STLibs//STM32F4xx_DSP_StdPeriph_Lib_V1.0.1/Libraries/STM32F4xx_StdPeriph_Driver/src/stm32f4xx_rcc.c ****   *    
 970:../STLibs//STM32F4xx_DSP_StdPeriph_Lib_V1.0.1/Libraries/STM32F4xx_StdPeriph_Driver/src/stm32f4xx_rcc.c ****   * @param  RCC_RTCCLKSource: specifies the RTC clock source.
 971:../STLibs//STM32F4xx_DSP_StdPeriph_Lib_V1.0.1/Libraries/STM32F4xx_StdPeriph_Driver/src/stm32f4xx_rcc.c ****   *          This parameter can be one of the following values:
 972:../STLibs//STM32F4xx_DSP_StdPeriph_Lib_V1.0.1/Libraries/STM32F4xx_StdPeriph_Driver/src/stm32f4xx_rcc.c ****   *            @arg RCC_RTCCLKSource_LSE: LSE selected as RTC clock
 973:../STLibs//STM32F4xx_DSP_StdPeriph_Lib_V1.0.1/Libraries/STM32F4xx_StdPeriph_Driver/src/stm32f4xx_rcc.c ****   *            @arg RCC_RTCCLKSource_LSI: LSI selected as RTC clock
 974:../STLibs//STM32F4xx_DSP_StdPeriph_Lib_V1.0.1/Libraries/STM32F4xx_StdPeriph_Driver/src/stm32f4xx_rcc.c ****   *            @arg RCC_RTCCLKSource_HSE_Divx: HSE clock divided by x selected
 975:../STLibs//STM32F4xx_DSP_StdPeriph_Lib_V1.0.1/Libraries/STM32F4xx_StdPeriph_Driver/src/stm32f4xx_rcc.c ****   *                                            as RTC clock, where x:[2,31]
 976:../STLibs//STM32F4xx_DSP_StdPeriph_Lib_V1.0.1/Libraries/STM32F4xx_StdPeriph_Driver/src/stm32f4xx_rcc.c ****   *  
 977:../STLibs//STM32F4xx_DSP_StdPeriph_Lib_V1.0.1/Libraries/STM32F4xx_StdPeriph_Driver/src/stm32f4xx_rcc.c ****   * @note   If the LSE or LSI is used as RTC clock source, the RTC continues to
 978:../STLibs//STM32F4xx_DSP_StdPeriph_Lib_V1.0.1/Libraries/STM32F4xx_StdPeriph_Driver/src/stm32f4xx_rcc.c ****   *         work in STOP and STANDBY modes, and can be used as wakeup source.
 979:../STLibs//STM32F4xx_DSP_StdPeriph_Lib_V1.0.1/Libraries/STM32F4xx_StdPeriph_Driver/src/stm32f4xx_rcc.c ****   *         However, when the HSE clock is used as RTC clock source, the RTC
 980:../STLibs//STM32F4xx_DSP_StdPeriph_Lib_V1.0.1/Libraries/STM32F4xx_StdPeriph_Driver/src/stm32f4xx_rcc.c ****   *         cannot be used in STOP and STANDBY modes.    
 981:../STLibs//STM32F4xx_DSP_StdPeriph_Lib_V1.0.1/Libraries/STM32F4xx_StdPeriph_Driver/src/stm32f4xx_rcc.c ****   * @note   The maximum input clock frequency for RTC is 1MHz (when using HSE as
 982:../STLibs//STM32F4xx_DSP_StdPeriph_Lib_V1.0.1/Libraries/STM32F4xx_StdPeriph_Driver/src/stm32f4xx_rcc.c ****   *         RTC clock source).
 983:../STLibs//STM32F4xx_DSP_StdPeriph_Lib_V1.0.1/Libraries/STM32F4xx_StdPeriph_Driver/src/stm32f4xx_rcc.c ****   *  
 984:../STLibs//STM32F4xx_DSP_StdPeriph_Lib_V1.0.1/Libraries/STM32F4xx_StdPeriph_Driver/src/stm32f4xx_rcc.c ****   * @retval None
 985:../STLibs//STM32F4xx_DSP_StdPeriph_Lib_V1.0.1/Libraries/STM32F4xx_StdPeriph_Driver/src/stm32f4xx_rcc.c ****   */
 986:../STLibs//STM32F4xx_DSP_StdPeriph_Lib_V1.0.1/Libraries/STM32F4xx_StdPeriph_Driver/src/stm32f4xx_rcc.c **** void RCC_RTCCLKConfig(uint32_t RCC_RTCCLKSource)
 987:../STLibs//STM32F4xx_DSP_StdPeriph_Lib_V1.0.1/Libraries/STM32F4xx_StdPeriph_Driver/src/stm32f4xx_rcc.c **** {
 776              		.loc 1 987 0
 777              		.cfi_startproc
 778              		@ args = 0, pretend = 0, frame = 0
 779              		@ frame_needed = 0, uses_anonymous_args = 0
 780              		@ link register save eliminated.
 781              	.LVL68:
 988:../STLibs//STM32F4xx_DSP_StdPeriph_Lib_V1.0.1/Libraries/STM32F4xx_StdPeriph_Driver/src/stm32f4xx_rcc.c ****   uint32_t tmpreg = 0;
 989:../STLibs//STM32F4xx_DSP_StdPeriph_Lib_V1.0.1/Libraries/STM32F4xx_StdPeriph_Driver/src/stm32f4xx_rcc.c **** 
 990:../STLibs//STM32F4xx_DSP_StdPeriph_Lib_V1.0.1/Libraries/STM32F4xx_StdPeriph_Driver/src/stm32f4xx_rcc.c ****   /* Check the parameters */
 991:../STLibs//STM32F4xx_DSP_StdPeriph_Lib_V1.0.1/Libraries/STM32F4xx_StdPeriph_Driver/src/stm32f4xx_rcc.c ****   assert_param(IS_RCC_RTCCLK_SOURCE(RCC_RTCCLKSource));
 992:../STLibs//STM32F4xx_DSP_StdPeriph_Lib_V1.0.1/Libraries/STM32F4xx_StdPeriph_Driver/src/stm32f4xx_rcc.c **** 
 993:../STLibs//STM32F4xx_DSP_StdPeriph_Lib_V1.0.1/Libraries/STM32F4xx_StdPeriph_Driver/src/stm32f4xx_rcc.c ****   if ((RCC_RTCCLKSource & 0x00000300) == 0x00000300)
 782              		.loc 1 993 0
 783 01f8 00F44073 		and	r3, r0, #768
 784 01fc B3F5407F 		cmp	r3, #768
 785 0200 084A     		ldr	r2, .L71
 786 0202 08D1     		bne	.L70
 994:../STLibs//STM32F4xx_DSP_StdPeriph_Lib_V1.0.1/Libraries/STM32F4xx_StdPeriph_Driver/src/stm32f4xx_rcc.c ****   { /* If HSE is selected as RTC clock source, configure HSE division factor for RTC clock */
 995:../STLibs//STM32F4xx_DSP_StdPeriph_Lib_V1.0.1/Libraries/STM32F4xx_StdPeriph_Driver/src/stm32f4xx_rcc.c ****     tmpreg = RCC->CFGR;
 787              		.loc 1 995 0
 788 0204 9168     		ldr	r1, [r2, #8]
 789              	.LVL69:
 996:../STLibs//STM32F4xx_DSP_StdPeriph_Lib_V1.0.1/Libraries/STM32F4xx_StdPeriph_Driver/src/stm32f4xx_rcc.c **** 
 997:../STLibs//STM32F4xx_DSP_StdPeriph_Lib_V1.0.1/Libraries/STM32F4xx_StdPeriph_Driver/src/stm32f4xx_rcc.c ****     /* Clear RTCPRE[4:0] bits */
 998:../STLibs//STM32F4xx_DSP_StdPeriph_Lib_V1.0.1/Libraries/STM32F4xx_StdPeriph_Driver/src/stm32f4xx_rcc.c ****     tmpreg &= ~RCC_CFGR_RTCPRE;
 999:../STLibs//STM32F4xx_DSP_StdPeriph_Lib_V1.0.1/Libraries/STM32F4xx_StdPeriph_Driver/src/stm32f4xx_rcc.c **** 
1000:../STLibs//STM32F4xx_DSP_StdPeriph_Lib_V1.0.1/Libraries/STM32F4xx_StdPeriph_Driver/src/stm32f4xx_rcc.c ****     /* Configure HSE division factor for RTC clock */
1001:../STLibs//STM32F4xx_DSP_StdPeriph_Lib_V1.0.1/Libraries/STM32F4xx_StdPeriph_Driver/src/stm32f4xx_rcc.c ****     tmpreg |= (RCC_RTCCLKSource & 0xFFFFCFF);
 790              		.loc 1 1001 0
 791 0206 20F07043 		bic	r3, r0, #-268435456
 998:../STLibs//STM32F4xx_DSP_StdPeriph_Lib_V1.0.1/Libraries/STM32F4xx_StdPeriph_Driver/src/stm32f4xx_rcc.c **** 
 792              		.loc 1 998 0
 793 020a 21F4F811 		bic	r1, r1, #2031616
 794              	.LVL70:
 795              		.loc 1 1001 0
 796 020e 23F44073 		bic	r3, r3, #768
 797 0212 0B43     		orrs	r3, r3, r1
 798              	.LVL71:
1002:../STLibs//STM32F4xx_DSP_StdPeriph_Lib_V1.0.1/Libraries/STM32F4xx_StdPeriph_Driver/src/stm32f4xx_rcc.c **** 
1003:../STLibs//STM32F4xx_DSP_StdPeriph_Lib_V1.0.1/Libraries/STM32F4xx_StdPeriph_Driver/src/stm32f4xx_rcc.c ****     /* Store the new value */
1004:../STLibs//STM32F4xx_DSP_StdPeriph_Lib_V1.0.1/Libraries/STM32F4xx_StdPeriph_Driver/src/stm32f4xx_rcc.c ****     RCC->CFGR = tmpreg;
 799              		.loc 1 1004 0
 800 0214 9360     		str	r3, [r2, #8]
 801              	.LVL72:
 802              	.L70:
1005:../STLibs//STM32F4xx_DSP_StdPeriph_Lib_V1.0.1/Libraries/STM32F4xx_StdPeriph_Driver/src/stm32f4xx_rcc.c ****   }
1006:../STLibs//STM32F4xx_DSP_StdPeriph_Lib_V1.0.1/Libraries/STM32F4xx_StdPeriph_Driver/src/stm32f4xx_rcc.c ****     
1007:../STLibs//STM32F4xx_DSP_StdPeriph_Lib_V1.0.1/Libraries/STM32F4xx_StdPeriph_Driver/src/stm32f4xx_rcc.c ****   /* Select the RTC clock source */
1008:../STLibs//STM32F4xx_DSP_StdPeriph_Lib_V1.0.1/Libraries/STM32F4xx_StdPeriph_Driver/src/stm32f4xx_rcc.c ****   RCC->BDCR |= (RCC_RTCCLKSource & 0x00000FFF);
 803              		.loc 1 1008 0
 804 0216 136F     		ldr	r3, [r2, #112]
 805 0218 C0F30B00 		ubfx	r0, r0, #0, #12
 806              	.LVL73:
 807 021c 1843     		orrs	r0, r0, r3
 808 021e 1067     		str	r0, [r2, #112]
1009:../STLibs//STM32F4xx_DSP_StdPeriph_Lib_V1.0.1/Libraries/STM32F4xx_StdPeriph_Driver/src/stm32f4xx_rcc.c **** }
 809              		.loc 1 1009 0
 810 0220 7047     		bx	lr
 811              	.L72:
 812 0222 00BF     		.align	2
 813              	.L71:
 814 0224 00380240 		.word	1073887232
 815              		.cfi_endproc
 816              	.LFE130:
 818              		.align	1
 819              		.global	RCC_RTCCLKCmd
 820              		.syntax unified
 821              		.thumb
 822              		.thumb_func
 823              		.fpu fpv4-sp-d16
 825              	RCC_RTCCLKCmd:
 826              	.LFB131:
1010:../STLibs//STM32F4xx_DSP_StdPeriph_Lib_V1.0.1/Libraries/STM32F4xx_StdPeriph_Driver/src/stm32f4xx_rcc.c **** 
1011:../STLibs//STM32F4xx_DSP_StdPeriph_Lib_V1.0.1/Libraries/STM32F4xx_StdPeriph_Driver/src/stm32f4xx_rcc.c **** /**
1012:../STLibs//STM32F4xx_DSP_StdPeriph_Lib_V1.0.1/Libraries/STM32F4xx_StdPeriph_Driver/src/stm32f4xx_rcc.c ****   * @brief  Enables or disables the RTC clock.
1013:../STLibs//STM32F4xx_DSP_StdPeriph_Lib_V1.0.1/Libraries/STM32F4xx_StdPeriph_Driver/src/stm32f4xx_rcc.c ****   * @note   This function must be used only after the RTC clock source was selected
1014:../STLibs//STM32F4xx_DSP_StdPeriph_Lib_V1.0.1/Libraries/STM32F4xx_StdPeriph_Driver/src/stm32f4xx_rcc.c ****   *         using the RCC_RTCCLKConfig function.
1015:../STLibs//STM32F4xx_DSP_StdPeriph_Lib_V1.0.1/Libraries/STM32F4xx_StdPeriph_Driver/src/stm32f4xx_rcc.c ****   * @param  NewState: new state of the RTC clock. This parameter can be: ENABLE or DISABLE.
1016:../STLibs//STM32F4xx_DSP_StdPeriph_Lib_V1.0.1/Libraries/STM32F4xx_StdPeriph_Driver/src/stm32f4xx_rcc.c ****   * @retval None
1017:../STLibs//STM32F4xx_DSP_StdPeriph_Lib_V1.0.1/Libraries/STM32F4xx_StdPeriph_Driver/src/stm32f4xx_rcc.c ****   */
1018:../STLibs//STM32F4xx_DSP_StdPeriph_Lib_V1.0.1/Libraries/STM32F4xx_StdPeriph_Driver/src/stm32f4xx_rcc.c **** void RCC_RTCCLKCmd(FunctionalState NewState)
1019:../STLibs//STM32F4xx_DSP_StdPeriph_Lib_V1.0.1/Libraries/STM32F4xx_StdPeriph_Driver/src/stm32f4xx_rcc.c **** {
 827              		.loc 1 1019 0
 828              		.cfi_startproc
 829              		@ args = 0, pretend = 0, frame = 0
 830              		@ frame_needed = 0, uses_anonymous_args = 0
 831              		@ link register save eliminated.
 832              	.LVL74:
1020:../STLibs//STM32F4xx_DSP_StdPeriph_Lib_V1.0.1/Libraries/STM32F4xx_StdPeriph_Driver/src/stm32f4xx_rcc.c ****   /* Check the parameters */
1021:../STLibs//STM32F4xx_DSP_StdPeriph_Lib_V1.0.1/Libraries/STM32F4xx_StdPeriph_Driver/src/stm32f4xx_rcc.c ****   assert_param(IS_FUNCTIONAL_STATE(NewState));
1022:../STLibs//STM32F4xx_DSP_StdPeriph_Lib_V1.0.1/Libraries/STM32F4xx_StdPeriph_Driver/src/stm32f4xx_rcc.c **** 
1023:../STLibs//STM32F4xx_DSP_StdPeriph_Lib_V1.0.1/Libraries/STM32F4xx_StdPeriph_Driver/src/stm32f4xx_rcc.c ****   *(__IO uint32_t *) BDCR_RTCEN_BB = (uint32_t)NewState;
 833              		.loc 1 1023 0
 834 0228 014B     		ldr	r3, .L74
 835 022a 1860     		str	r0, [r3]
1024:../STLibs//STM32F4xx_DSP_StdPeriph_Lib_V1.0.1/Libraries/STM32F4xx_StdPeriph_Driver/src/stm32f4xx_rcc.c **** }
 836              		.loc 1 1024 0
 837 022c 7047     		bx	lr
 838              	.L75:
 839 022e 00BF     		.align	2
 840              	.L74:
 841 0230 3C0E4742 		.word	1111952956
 842              		.cfi_endproc
 843              	.LFE131:
 845              		.align	1
 846              		.global	RCC_BackupResetCmd
 847              		.syntax unified
 848              		.thumb
 849              		.thumb_func
 850              		.fpu fpv4-sp-d16
 852              	RCC_BackupResetCmd:
 853              	.LFB132:
1025:../STLibs//STM32F4xx_DSP_StdPeriph_Lib_V1.0.1/Libraries/STM32F4xx_StdPeriph_Driver/src/stm32f4xx_rcc.c **** 
1026:../STLibs//STM32F4xx_DSP_StdPeriph_Lib_V1.0.1/Libraries/STM32F4xx_StdPeriph_Driver/src/stm32f4xx_rcc.c **** /**
1027:../STLibs//STM32F4xx_DSP_StdPeriph_Lib_V1.0.1/Libraries/STM32F4xx_StdPeriph_Driver/src/stm32f4xx_rcc.c ****   * @brief  Forces or releases the Backup domain reset.
1028:../STLibs//STM32F4xx_DSP_StdPeriph_Lib_V1.0.1/Libraries/STM32F4xx_StdPeriph_Driver/src/stm32f4xx_rcc.c ****   * @note   This function resets the RTC peripheral (including the backup registers)
1029:../STLibs//STM32F4xx_DSP_StdPeriph_Lib_V1.0.1/Libraries/STM32F4xx_StdPeriph_Driver/src/stm32f4xx_rcc.c ****   *         and the RTC clock source selection in RCC_CSR register.
1030:../STLibs//STM32F4xx_DSP_StdPeriph_Lib_V1.0.1/Libraries/STM32F4xx_StdPeriph_Driver/src/stm32f4xx_rcc.c ****   * @note   The BKPSRAM is not affected by this reset.    
1031:../STLibs//STM32F4xx_DSP_StdPeriph_Lib_V1.0.1/Libraries/STM32F4xx_StdPeriph_Driver/src/stm32f4xx_rcc.c ****   * @param  NewState: new state of the Backup domain reset.
1032:../STLibs//STM32F4xx_DSP_StdPeriph_Lib_V1.0.1/Libraries/STM32F4xx_StdPeriph_Driver/src/stm32f4xx_rcc.c ****   *          This parameter can be: ENABLE or DISABLE.
1033:../STLibs//STM32F4xx_DSP_StdPeriph_Lib_V1.0.1/Libraries/STM32F4xx_StdPeriph_Driver/src/stm32f4xx_rcc.c ****   * @retval None
1034:../STLibs//STM32F4xx_DSP_StdPeriph_Lib_V1.0.1/Libraries/STM32F4xx_StdPeriph_Driver/src/stm32f4xx_rcc.c ****   */
1035:../STLibs//STM32F4xx_DSP_StdPeriph_Lib_V1.0.1/Libraries/STM32F4xx_StdPeriph_Driver/src/stm32f4xx_rcc.c **** void RCC_BackupResetCmd(FunctionalState NewState)
1036:../STLibs//STM32F4xx_DSP_StdPeriph_Lib_V1.0.1/Libraries/STM32F4xx_StdPeriph_Driver/src/stm32f4xx_rcc.c **** {
 854              		.loc 1 1036 0
 855              		.cfi_startproc
 856              		@ args = 0, pretend = 0, frame = 0
 857              		@ frame_needed = 0, uses_anonymous_args = 0
 858              		@ link register save eliminated.
 859              	.LVL75:
1037:../STLibs//STM32F4xx_DSP_StdPeriph_Lib_V1.0.1/Libraries/STM32F4xx_StdPeriph_Driver/src/stm32f4xx_rcc.c ****   /* Check the parameters */
1038:../STLibs//STM32F4xx_DSP_StdPeriph_Lib_V1.0.1/Libraries/STM32F4xx_StdPeriph_Driver/src/stm32f4xx_rcc.c ****   assert_param(IS_FUNCTIONAL_STATE(NewState));
1039:../STLibs//STM32F4xx_DSP_StdPeriph_Lib_V1.0.1/Libraries/STM32F4xx_StdPeriph_Driver/src/stm32f4xx_rcc.c ****   *(__IO uint32_t *) BDCR_BDRST_BB = (uint32_t)NewState;
 860              		.loc 1 1039 0
 861 0234 014B     		ldr	r3, .L77
 862 0236 1860     		str	r0, [r3]
1040:../STLibs//STM32F4xx_DSP_StdPeriph_Lib_V1.0.1/Libraries/STM32F4xx_StdPeriph_Driver/src/stm32f4xx_rcc.c **** }
 863              		.loc 1 1040 0
 864 0238 7047     		bx	lr
 865              	.L78:
 866 023a 00BF     		.align	2
 867              	.L77:
 868 023c 400E4742 		.word	1111952960
 869              		.cfi_endproc
 870              	.LFE132:
 872              		.align	1
 873              		.global	RCC_I2SCLKConfig
 874              		.syntax unified
 875              		.thumb
 876              		.thumb_func
 877              		.fpu fpv4-sp-d16
 879              	RCC_I2SCLKConfig:
 880              	.LFB133:
1041:../STLibs//STM32F4xx_DSP_StdPeriph_Lib_V1.0.1/Libraries/STM32F4xx_StdPeriph_Driver/src/stm32f4xx_rcc.c **** 
1042:../STLibs//STM32F4xx_DSP_StdPeriph_Lib_V1.0.1/Libraries/STM32F4xx_StdPeriph_Driver/src/stm32f4xx_rcc.c **** /**
1043:../STLibs//STM32F4xx_DSP_StdPeriph_Lib_V1.0.1/Libraries/STM32F4xx_StdPeriph_Driver/src/stm32f4xx_rcc.c ****   * @brief  Configures the I2S clock source (I2SCLK).
1044:../STLibs//STM32F4xx_DSP_StdPeriph_Lib_V1.0.1/Libraries/STM32F4xx_StdPeriph_Driver/src/stm32f4xx_rcc.c ****   * @note   This function must be called before enabling the I2S APB clock.
1045:../STLibs//STM32F4xx_DSP_StdPeriph_Lib_V1.0.1/Libraries/STM32F4xx_StdPeriph_Driver/src/stm32f4xx_rcc.c ****   * @param  RCC_I2SCLKSource: specifies the I2S clock source.
1046:../STLibs//STM32F4xx_DSP_StdPeriph_Lib_V1.0.1/Libraries/STM32F4xx_StdPeriph_Driver/src/stm32f4xx_rcc.c ****   *          This parameter can be one of the following values:
1047:../STLibs//STM32F4xx_DSP_StdPeriph_Lib_V1.0.1/Libraries/STM32F4xx_StdPeriph_Driver/src/stm32f4xx_rcc.c ****   *            @arg RCC_I2S2CLKSource_PLLI2S: PLLI2S clock used as I2S clock source
1048:../STLibs//STM32F4xx_DSP_StdPeriph_Lib_V1.0.1/Libraries/STM32F4xx_StdPeriph_Driver/src/stm32f4xx_rcc.c ****   *            @arg RCC_I2S2CLKSource_Ext: External clock mapped on the I2S_CKIN pin
1049:../STLibs//STM32F4xx_DSP_StdPeriph_Lib_V1.0.1/Libraries/STM32F4xx_StdPeriph_Driver/src/stm32f4xx_rcc.c ****   *                                        used as I2S clock source
1050:../STLibs//STM32F4xx_DSP_StdPeriph_Lib_V1.0.1/Libraries/STM32F4xx_StdPeriph_Driver/src/stm32f4xx_rcc.c ****   * @retval None
1051:../STLibs//STM32F4xx_DSP_StdPeriph_Lib_V1.0.1/Libraries/STM32F4xx_StdPeriph_Driver/src/stm32f4xx_rcc.c ****   */
1052:../STLibs//STM32F4xx_DSP_StdPeriph_Lib_V1.0.1/Libraries/STM32F4xx_StdPeriph_Driver/src/stm32f4xx_rcc.c **** void RCC_I2SCLKConfig(uint32_t RCC_I2SCLKSource)
1053:../STLibs//STM32F4xx_DSP_StdPeriph_Lib_V1.0.1/Libraries/STM32F4xx_StdPeriph_Driver/src/stm32f4xx_rcc.c **** {
 881              		.loc 1 1053 0
 882              		.cfi_startproc
 883              		@ args = 0, pretend = 0, frame = 0
 884              		@ frame_needed = 0, uses_anonymous_args = 0
 885              		@ link register save eliminated.
 886              	.LVL76:
1054:../STLibs//STM32F4xx_DSP_StdPeriph_Lib_V1.0.1/Libraries/STM32F4xx_StdPeriph_Driver/src/stm32f4xx_rcc.c ****   /* Check the parameters */
1055:../STLibs//STM32F4xx_DSP_StdPeriph_Lib_V1.0.1/Libraries/STM32F4xx_StdPeriph_Driver/src/stm32f4xx_rcc.c ****   assert_param(IS_RCC_I2SCLK_SOURCE(RCC_I2SCLKSource));
1056:../STLibs//STM32F4xx_DSP_StdPeriph_Lib_V1.0.1/Libraries/STM32F4xx_StdPeriph_Driver/src/stm32f4xx_rcc.c **** 
1057:../STLibs//STM32F4xx_DSP_StdPeriph_Lib_V1.0.1/Libraries/STM32F4xx_StdPeriph_Driver/src/stm32f4xx_rcc.c ****   *(__IO uint32_t *) CFGR_I2SSRC_BB = RCC_I2SCLKSource;
 887              		.loc 1 1057 0
 888 0240 014B     		ldr	r3, .L80
 889 0242 1860     		str	r0, [r3]
1058:../STLibs//STM32F4xx_DSP_StdPeriph_Lib_V1.0.1/Libraries/STM32F4xx_StdPeriph_Driver/src/stm32f4xx_rcc.c **** }
 890              		.loc 1 1058 0
 891 0244 7047     		bx	lr
 892              	.L81:
 893 0246 00BF     		.align	2
 894              	.L80:
 895 0248 5C014742 		.word	1111949660
 896              		.cfi_endproc
 897              	.LFE133:
 899              		.align	1
 900              		.global	RCC_AHB1PeriphClockCmd
 901              		.syntax unified
 902              		.thumb
 903              		.thumb_func
 904              		.fpu fpv4-sp-d16
 906              	RCC_AHB1PeriphClockCmd:
 907              	.LFB134:
1059:../STLibs//STM32F4xx_DSP_StdPeriph_Lib_V1.0.1/Libraries/STM32F4xx_StdPeriph_Driver/src/stm32f4xx_rcc.c **** 
1060:../STLibs//STM32F4xx_DSP_StdPeriph_Lib_V1.0.1/Libraries/STM32F4xx_StdPeriph_Driver/src/stm32f4xx_rcc.c **** /**
1061:../STLibs//STM32F4xx_DSP_StdPeriph_Lib_V1.0.1/Libraries/STM32F4xx_StdPeriph_Driver/src/stm32f4xx_rcc.c ****   * @brief  Enables or disables the AHB1 peripheral clock.
1062:../STLibs//STM32F4xx_DSP_StdPeriph_Lib_V1.0.1/Libraries/STM32F4xx_StdPeriph_Driver/src/stm32f4xx_rcc.c ****   * @note   After reset, the peripheral clock (used for registers read/write access)
1063:../STLibs//STM32F4xx_DSP_StdPeriph_Lib_V1.0.1/Libraries/STM32F4xx_StdPeriph_Driver/src/stm32f4xx_rcc.c ****   *         is disabled and the application software has to enable this clock before 
1064:../STLibs//STM32F4xx_DSP_StdPeriph_Lib_V1.0.1/Libraries/STM32F4xx_StdPeriph_Driver/src/stm32f4xx_rcc.c ****   *         using it.   
1065:../STLibs//STM32F4xx_DSP_StdPeriph_Lib_V1.0.1/Libraries/STM32F4xx_StdPeriph_Driver/src/stm32f4xx_rcc.c ****   * @param  RCC_AHBPeriph: specifies the AHB1 peripheral to gates its clock.
1066:../STLibs//STM32F4xx_DSP_StdPeriph_Lib_V1.0.1/Libraries/STM32F4xx_StdPeriph_Driver/src/stm32f4xx_rcc.c ****   *          This parameter can be any combination of the following values:
1067:../STLibs//STM32F4xx_DSP_StdPeriph_Lib_V1.0.1/Libraries/STM32F4xx_StdPeriph_Driver/src/stm32f4xx_rcc.c ****   *            @arg RCC_AHB1Periph_GPIOA:       GPIOA clock
1068:../STLibs//STM32F4xx_DSP_StdPeriph_Lib_V1.0.1/Libraries/STM32F4xx_StdPeriph_Driver/src/stm32f4xx_rcc.c ****   *            @arg RCC_AHB1Periph_GPIOB:       GPIOB clock 
1069:../STLibs//STM32F4xx_DSP_StdPeriph_Lib_V1.0.1/Libraries/STM32F4xx_StdPeriph_Driver/src/stm32f4xx_rcc.c ****   *            @arg RCC_AHB1Periph_GPIOC:       GPIOC clock
1070:../STLibs//STM32F4xx_DSP_StdPeriph_Lib_V1.0.1/Libraries/STM32F4xx_StdPeriph_Driver/src/stm32f4xx_rcc.c ****   *            @arg RCC_AHB1Periph_GPIOD:       GPIOD clock
1071:../STLibs//STM32F4xx_DSP_StdPeriph_Lib_V1.0.1/Libraries/STM32F4xx_StdPeriph_Driver/src/stm32f4xx_rcc.c ****   *            @arg RCC_AHB1Periph_GPIOE:       GPIOE clock
1072:../STLibs//STM32F4xx_DSP_StdPeriph_Lib_V1.0.1/Libraries/STM32F4xx_StdPeriph_Driver/src/stm32f4xx_rcc.c ****   *            @arg RCC_AHB1Periph_GPIOF:       GPIOF clock
1073:../STLibs//STM32F4xx_DSP_StdPeriph_Lib_V1.0.1/Libraries/STM32F4xx_StdPeriph_Driver/src/stm32f4xx_rcc.c ****   *            @arg RCC_AHB1Periph_GPIOG:       GPIOG clock
1074:../STLibs//STM32F4xx_DSP_StdPeriph_Lib_V1.0.1/Libraries/STM32F4xx_StdPeriph_Driver/src/stm32f4xx_rcc.c ****   *            @arg RCC_AHB1Periph_GPIOG:       GPIOG clock
1075:../STLibs//STM32F4xx_DSP_StdPeriph_Lib_V1.0.1/Libraries/STM32F4xx_StdPeriph_Driver/src/stm32f4xx_rcc.c ****   *            @arg RCC_AHB1Periph_GPIOI:       GPIOI clock
1076:../STLibs//STM32F4xx_DSP_StdPeriph_Lib_V1.0.1/Libraries/STM32F4xx_StdPeriph_Driver/src/stm32f4xx_rcc.c ****   *            @arg RCC_AHB1Periph_CRC:         CRC clock
1077:../STLibs//STM32F4xx_DSP_StdPeriph_Lib_V1.0.1/Libraries/STM32F4xx_StdPeriph_Driver/src/stm32f4xx_rcc.c ****   *            @arg RCC_AHB1Periph_BKPSRAM:     BKPSRAM interface clock
1078:../STLibs//STM32F4xx_DSP_StdPeriph_Lib_V1.0.1/Libraries/STM32F4xx_StdPeriph_Driver/src/stm32f4xx_rcc.c ****   *            @arg RCC_AHB1Periph_CCMDATARAMEN CCM data RAM interface clock
1079:../STLibs//STM32F4xx_DSP_StdPeriph_Lib_V1.0.1/Libraries/STM32F4xx_StdPeriph_Driver/src/stm32f4xx_rcc.c ****   *            @arg RCC_AHB1Periph_DMA1:        DMA1 clock
1080:../STLibs//STM32F4xx_DSP_StdPeriph_Lib_V1.0.1/Libraries/STM32F4xx_StdPeriph_Driver/src/stm32f4xx_rcc.c ****   *            @arg RCC_AHB1Periph_DMA2:        DMA2 clock
1081:../STLibs//STM32F4xx_DSP_StdPeriph_Lib_V1.0.1/Libraries/STM32F4xx_StdPeriph_Driver/src/stm32f4xx_rcc.c ****   *            @arg RCC_AHB1Periph_ETH_MAC:     Ethernet MAC clock
1082:../STLibs//STM32F4xx_DSP_StdPeriph_Lib_V1.0.1/Libraries/STM32F4xx_StdPeriph_Driver/src/stm32f4xx_rcc.c ****   *            @arg RCC_AHB1Periph_ETH_MAC_Tx:  Ethernet Transmission clock
1083:../STLibs//STM32F4xx_DSP_StdPeriph_Lib_V1.0.1/Libraries/STM32F4xx_StdPeriph_Driver/src/stm32f4xx_rcc.c ****   *            @arg RCC_AHB1Periph_ETH_MAC_Rx:  Ethernet Reception clock
1084:../STLibs//STM32F4xx_DSP_StdPeriph_Lib_V1.0.1/Libraries/STM32F4xx_StdPeriph_Driver/src/stm32f4xx_rcc.c ****   *            @arg RCC_AHB1Periph_ETH_MAC_PTP: Ethernet PTP clock
1085:../STLibs//STM32F4xx_DSP_StdPeriph_Lib_V1.0.1/Libraries/STM32F4xx_StdPeriph_Driver/src/stm32f4xx_rcc.c ****   *            @arg RCC_AHB1Periph_OTG_HS:      USB OTG HS clock
1086:../STLibs//STM32F4xx_DSP_StdPeriph_Lib_V1.0.1/Libraries/STM32F4xx_StdPeriph_Driver/src/stm32f4xx_rcc.c ****   *            @arg RCC_AHB1Periph_OTG_HS_ULPI: USB OTG HS ULPI clock
1087:../STLibs//STM32F4xx_DSP_StdPeriph_Lib_V1.0.1/Libraries/STM32F4xx_StdPeriph_Driver/src/stm32f4xx_rcc.c ****   * @param  NewState: new state of the specified peripheral clock.
1088:../STLibs//STM32F4xx_DSP_StdPeriph_Lib_V1.0.1/Libraries/STM32F4xx_StdPeriph_Driver/src/stm32f4xx_rcc.c ****   *          This parameter can be: ENABLE or DISABLE.
1089:../STLibs//STM32F4xx_DSP_StdPeriph_Lib_V1.0.1/Libraries/STM32F4xx_StdPeriph_Driver/src/stm32f4xx_rcc.c ****   * @retval None
1090:../STLibs//STM32F4xx_DSP_StdPeriph_Lib_V1.0.1/Libraries/STM32F4xx_StdPeriph_Driver/src/stm32f4xx_rcc.c ****   */
1091:../STLibs//STM32F4xx_DSP_StdPeriph_Lib_V1.0.1/Libraries/STM32F4xx_StdPeriph_Driver/src/stm32f4xx_rcc.c **** void RCC_AHB1PeriphClockCmd(uint32_t RCC_AHB1Periph, FunctionalState NewState)
1092:../STLibs//STM32F4xx_DSP_StdPeriph_Lib_V1.0.1/Libraries/STM32F4xx_StdPeriph_Driver/src/stm32f4xx_rcc.c **** {
 908              		.loc 1 1092 0
 909              		.cfi_startproc
 910              		@ args = 0, pretend = 0, frame = 0
 911              		@ frame_needed = 0, uses_anonymous_args = 0
 912              		@ link register save eliminated.
 913              	.LVL77:
 914 024c 044B     		ldr	r3, .L86
1093:../STLibs//STM32F4xx_DSP_StdPeriph_Lib_V1.0.1/Libraries/STM32F4xx_StdPeriph_Driver/src/stm32f4xx_rcc.c ****   /* Check the parameters */
1094:../STLibs//STM32F4xx_DSP_StdPeriph_Lib_V1.0.1/Libraries/STM32F4xx_StdPeriph_Driver/src/stm32f4xx_rcc.c ****   assert_param(IS_RCC_AHB1_CLOCK_PERIPH(RCC_AHB1Periph));
1095:../STLibs//STM32F4xx_DSP_StdPeriph_Lib_V1.0.1/Libraries/STM32F4xx_StdPeriph_Driver/src/stm32f4xx_rcc.c **** 
1096:../STLibs//STM32F4xx_DSP_StdPeriph_Lib_V1.0.1/Libraries/STM32F4xx_StdPeriph_Driver/src/stm32f4xx_rcc.c ****   assert_param(IS_FUNCTIONAL_STATE(NewState));
1097:../STLibs//STM32F4xx_DSP_StdPeriph_Lib_V1.0.1/Libraries/STM32F4xx_StdPeriph_Driver/src/stm32f4xx_rcc.c ****   if (NewState != DISABLE)
1098:../STLibs//STM32F4xx_DSP_StdPeriph_Lib_V1.0.1/Libraries/STM32F4xx_StdPeriph_Driver/src/stm32f4xx_rcc.c ****   {
1099:../STLibs//STM32F4xx_DSP_StdPeriph_Lib_V1.0.1/Libraries/STM32F4xx_StdPeriph_Driver/src/stm32f4xx_rcc.c ****     RCC->AHB1ENR |= RCC_AHB1Periph;
 915              		.loc 1 1099 0
 916 024e 1A6B     		ldr	r2, [r3, #48]
1097:../STLibs//STM32F4xx_DSP_StdPeriph_Lib_V1.0.1/Libraries/STM32F4xx_StdPeriph_Driver/src/stm32f4xx_rcc.c ****   {
 917              		.loc 1 1097 0
 918 0250 11B1     		cbz	r1, .L83
 919              		.loc 1 1099 0
 920 0252 1043     		orrs	r0, r0, r2
 921              	.LVL78:
 922              	.L85:
1100:../STLibs//STM32F4xx_DSP_StdPeriph_Lib_V1.0.1/Libraries/STM32F4xx_StdPeriph_Driver/src/stm32f4xx_rcc.c ****   }
1101:../STLibs//STM32F4xx_DSP_StdPeriph_Lib_V1.0.1/Libraries/STM32F4xx_StdPeriph_Driver/src/stm32f4xx_rcc.c ****   else
1102:../STLibs//STM32F4xx_DSP_StdPeriph_Lib_V1.0.1/Libraries/STM32F4xx_StdPeriph_Driver/src/stm32f4xx_rcc.c ****   {
1103:../STLibs//STM32F4xx_DSP_StdPeriph_Lib_V1.0.1/Libraries/STM32F4xx_StdPeriph_Driver/src/stm32f4xx_rcc.c ****     RCC->AHB1ENR &= ~RCC_AHB1Periph;
 923              		.loc 1 1103 0
 924 0254 1863     		str	r0, [r3, #48]
1104:../STLibs//STM32F4xx_DSP_StdPeriph_Lib_V1.0.1/Libraries/STM32F4xx_StdPeriph_Driver/src/stm32f4xx_rcc.c ****   }
1105:../STLibs//STM32F4xx_DSP_StdPeriph_Lib_V1.0.1/Libraries/STM32F4xx_StdPeriph_Driver/src/stm32f4xx_rcc.c **** }
 925              		.loc 1 1105 0
 926 0256 7047     		bx	lr
 927              	.LVL79:
 928              	.L83:
1103:../STLibs//STM32F4xx_DSP_StdPeriph_Lib_V1.0.1/Libraries/STM32F4xx_StdPeriph_Driver/src/stm32f4xx_rcc.c ****   }
 929              		.loc 1 1103 0
 930 0258 22EA0000 		bic	r0, r2, r0
 931              	.LVL80:
 932 025c FAE7     		b	.L85
 933              	.L87:
 934 025e 00BF     		.align	2
 935              	.L86:
 936 0260 00380240 		.word	1073887232
 937              		.cfi_endproc
 938              	.LFE134:
 940              		.align	1
 941              		.global	RCC_AHB2PeriphClockCmd
 942              		.syntax unified
 943              		.thumb
 944              		.thumb_func
 945              		.fpu fpv4-sp-d16
 947              	RCC_AHB2PeriphClockCmd:
 948              	.LFB135:
1106:../STLibs//STM32F4xx_DSP_StdPeriph_Lib_V1.0.1/Libraries/STM32F4xx_StdPeriph_Driver/src/stm32f4xx_rcc.c **** 
1107:../STLibs//STM32F4xx_DSP_StdPeriph_Lib_V1.0.1/Libraries/STM32F4xx_StdPeriph_Driver/src/stm32f4xx_rcc.c **** /**
1108:../STLibs//STM32F4xx_DSP_StdPeriph_Lib_V1.0.1/Libraries/STM32F4xx_StdPeriph_Driver/src/stm32f4xx_rcc.c ****   * @brief  Enables or disables the AHB2 peripheral clock.
1109:../STLibs//STM32F4xx_DSP_StdPeriph_Lib_V1.0.1/Libraries/STM32F4xx_StdPeriph_Driver/src/stm32f4xx_rcc.c ****   * @note   After reset, the peripheral clock (used for registers read/write access)
1110:../STLibs//STM32F4xx_DSP_StdPeriph_Lib_V1.0.1/Libraries/STM32F4xx_StdPeriph_Driver/src/stm32f4xx_rcc.c ****   *         is disabled and the application software has to enable this clock before 
1111:../STLibs//STM32F4xx_DSP_StdPeriph_Lib_V1.0.1/Libraries/STM32F4xx_StdPeriph_Driver/src/stm32f4xx_rcc.c ****   *         using it. 
1112:../STLibs//STM32F4xx_DSP_StdPeriph_Lib_V1.0.1/Libraries/STM32F4xx_StdPeriph_Driver/src/stm32f4xx_rcc.c ****   * @param  RCC_AHBPeriph: specifies the AHB2 peripheral to gates its clock.
1113:../STLibs//STM32F4xx_DSP_StdPeriph_Lib_V1.0.1/Libraries/STM32F4xx_StdPeriph_Driver/src/stm32f4xx_rcc.c ****   *          This parameter can be any combination of the following values:
1114:../STLibs//STM32F4xx_DSP_StdPeriph_Lib_V1.0.1/Libraries/STM32F4xx_StdPeriph_Driver/src/stm32f4xx_rcc.c ****   *            @arg RCC_AHB2Periph_DCMI:   DCMI clock
1115:../STLibs//STM32F4xx_DSP_StdPeriph_Lib_V1.0.1/Libraries/STM32F4xx_StdPeriph_Driver/src/stm32f4xx_rcc.c ****   *            @arg RCC_AHB2Periph_CRYP:   CRYP clock
1116:../STLibs//STM32F4xx_DSP_StdPeriph_Lib_V1.0.1/Libraries/STM32F4xx_StdPeriph_Driver/src/stm32f4xx_rcc.c ****   *            @arg RCC_AHB2Periph_HASH:   HASH clock
1117:../STLibs//STM32F4xx_DSP_StdPeriph_Lib_V1.0.1/Libraries/STM32F4xx_StdPeriph_Driver/src/stm32f4xx_rcc.c ****   *            @arg RCC_AHB2Periph_RNG:    RNG clock
1118:../STLibs//STM32F4xx_DSP_StdPeriph_Lib_V1.0.1/Libraries/STM32F4xx_StdPeriph_Driver/src/stm32f4xx_rcc.c ****   *            @arg RCC_AHB2Periph_OTG_FS: USB OTG FS clock
1119:../STLibs//STM32F4xx_DSP_StdPeriph_Lib_V1.0.1/Libraries/STM32F4xx_StdPeriph_Driver/src/stm32f4xx_rcc.c ****   * @param  NewState: new state of the specified peripheral clock.
1120:../STLibs//STM32F4xx_DSP_StdPeriph_Lib_V1.0.1/Libraries/STM32F4xx_StdPeriph_Driver/src/stm32f4xx_rcc.c ****   *          This parameter can be: ENABLE or DISABLE.
1121:../STLibs//STM32F4xx_DSP_StdPeriph_Lib_V1.0.1/Libraries/STM32F4xx_StdPeriph_Driver/src/stm32f4xx_rcc.c ****   * @retval None
1122:../STLibs//STM32F4xx_DSP_StdPeriph_Lib_V1.0.1/Libraries/STM32F4xx_StdPeriph_Driver/src/stm32f4xx_rcc.c ****   */
1123:../STLibs//STM32F4xx_DSP_StdPeriph_Lib_V1.0.1/Libraries/STM32F4xx_StdPeriph_Driver/src/stm32f4xx_rcc.c **** void RCC_AHB2PeriphClockCmd(uint32_t RCC_AHB2Periph, FunctionalState NewState)
1124:../STLibs//STM32F4xx_DSP_StdPeriph_Lib_V1.0.1/Libraries/STM32F4xx_StdPeriph_Driver/src/stm32f4xx_rcc.c **** {
 949              		.loc 1 1124 0
 950              		.cfi_startproc
 951              		@ args = 0, pretend = 0, frame = 0
 952              		@ frame_needed = 0, uses_anonymous_args = 0
 953              		@ link register save eliminated.
 954              	.LVL81:
 955 0264 044B     		ldr	r3, .L92
1125:../STLibs//STM32F4xx_DSP_StdPeriph_Lib_V1.0.1/Libraries/STM32F4xx_StdPeriph_Driver/src/stm32f4xx_rcc.c ****   /* Check the parameters */
1126:../STLibs//STM32F4xx_DSP_StdPeriph_Lib_V1.0.1/Libraries/STM32F4xx_StdPeriph_Driver/src/stm32f4xx_rcc.c ****   assert_param(IS_RCC_AHB2_PERIPH(RCC_AHB2Periph));
1127:../STLibs//STM32F4xx_DSP_StdPeriph_Lib_V1.0.1/Libraries/STM32F4xx_StdPeriph_Driver/src/stm32f4xx_rcc.c ****   assert_param(IS_FUNCTIONAL_STATE(NewState));
1128:../STLibs//STM32F4xx_DSP_StdPeriph_Lib_V1.0.1/Libraries/STM32F4xx_StdPeriph_Driver/src/stm32f4xx_rcc.c **** 
1129:../STLibs//STM32F4xx_DSP_StdPeriph_Lib_V1.0.1/Libraries/STM32F4xx_StdPeriph_Driver/src/stm32f4xx_rcc.c ****   if (NewState != DISABLE)
1130:../STLibs//STM32F4xx_DSP_StdPeriph_Lib_V1.0.1/Libraries/STM32F4xx_StdPeriph_Driver/src/stm32f4xx_rcc.c ****   {
1131:../STLibs//STM32F4xx_DSP_StdPeriph_Lib_V1.0.1/Libraries/STM32F4xx_StdPeriph_Driver/src/stm32f4xx_rcc.c ****     RCC->AHB2ENR |= RCC_AHB2Periph;
 956              		.loc 1 1131 0
 957 0266 5A6B     		ldr	r2, [r3, #52]
1129:../STLibs//STM32F4xx_DSP_StdPeriph_Lib_V1.0.1/Libraries/STM32F4xx_StdPeriph_Driver/src/stm32f4xx_rcc.c ****   {
 958              		.loc 1 1129 0
 959 0268 11B1     		cbz	r1, .L89
 960              		.loc 1 1131 0
 961 026a 1043     		orrs	r0, r0, r2
 962              	.LVL82:
 963              	.L91:
1132:../STLibs//STM32F4xx_DSP_StdPeriph_Lib_V1.0.1/Libraries/STM32F4xx_StdPeriph_Driver/src/stm32f4xx_rcc.c ****   }
1133:../STLibs//STM32F4xx_DSP_StdPeriph_Lib_V1.0.1/Libraries/STM32F4xx_StdPeriph_Driver/src/stm32f4xx_rcc.c ****   else
1134:../STLibs//STM32F4xx_DSP_StdPeriph_Lib_V1.0.1/Libraries/STM32F4xx_StdPeriph_Driver/src/stm32f4xx_rcc.c ****   {
1135:../STLibs//STM32F4xx_DSP_StdPeriph_Lib_V1.0.1/Libraries/STM32F4xx_StdPeriph_Driver/src/stm32f4xx_rcc.c ****     RCC->AHB2ENR &= ~RCC_AHB2Periph;
 964              		.loc 1 1135 0
 965 026c 5863     		str	r0, [r3, #52]
1136:../STLibs//STM32F4xx_DSP_StdPeriph_Lib_V1.0.1/Libraries/STM32F4xx_StdPeriph_Driver/src/stm32f4xx_rcc.c ****   }
1137:../STLibs//STM32F4xx_DSP_StdPeriph_Lib_V1.0.1/Libraries/STM32F4xx_StdPeriph_Driver/src/stm32f4xx_rcc.c **** }
 966              		.loc 1 1137 0
 967 026e 7047     		bx	lr
 968              	.LVL83:
 969              	.L89:
1135:../STLibs//STM32F4xx_DSP_StdPeriph_Lib_V1.0.1/Libraries/STM32F4xx_StdPeriph_Driver/src/stm32f4xx_rcc.c ****   }
 970              		.loc 1 1135 0
 971 0270 22EA0000 		bic	r0, r2, r0
 972              	.LVL84:
 973 0274 FAE7     		b	.L91
 974              	.L93:
 975 0276 00BF     		.align	2
 976              	.L92:
 977 0278 00380240 		.word	1073887232
 978              		.cfi_endproc
 979              	.LFE135:
 981              		.align	1
 982              		.global	RCC_AHB3PeriphClockCmd
 983              		.syntax unified
 984              		.thumb
 985              		.thumb_func
 986              		.fpu fpv4-sp-d16
 988              	RCC_AHB3PeriphClockCmd:
 989              	.LFB136:
1138:../STLibs//STM32F4xx_DSP_StdPeriph_Lib_V1.0.1/Libraries/STM32F4xx_StdPeriph_Driver/src/stm32f4xx_rcc.c **** 
1139:../STLibs//STM32F4xx_DSP_StdPeriph_Lib_V1.0.1/Libraries/STM32F4xx_StdPeriph_Driver/src/stm32f4xx_rcc.c **** /**
1140:../STLibs//STM32F4xx_DSP_StdPeriph_Lib_V1.0.1/Libraries/STM32F4xx_StdPeriph_Driver/src/stm32f4xx_rcc.c ****   * @brief  Enables or disables the AHB3 peripheral clock.
1141:../STLibs//STM32F4xx_DSP_StdPeriph_Lib_V1.0.1/Libraries/STM32F4xx_StdPeriph_Driver/src/stm32f4xx_rcc.c ****   * @note   After reset, the peripheral clock (used for registers read/write access)
1142:../STLibs//STM32F4xx_DSP_StdPeriph_Lib_V1.0.1/Libraries/STM32F4xx_StdPeriph_Driver/src/stm32f4xx_rcc.c ****   *         is disabled and the application software has to enable this clock before 
1143:../STLibs//STM32F4xx_DSP_StdPeriph_Lib_V1.0.1/Libraries/STM32F4xx_StdPeriph_Driver/src/stm32f4xx_rcc.c ****   *         using it. 
1144:../STLibs//STM32F4xx_DSP_StdPeriph_Lib_V1.0.1/Libraries/STM32F4xx_StdPeriph_Driver/src/stm32f4xx_rcc.c ****   * @param  RCC_AHBPeriph: specifies the AHB3 peripheral to gates its clock.
1145:../STLibs//STM32F4xx_DSP_StdPeriph_Lib_V1.0.1/Libraries/STM32F4xx_StdPeriph_Driver/src/stm32f4xx_rcc.c ****   *          This parameter must be: RCC_AHB3Periph_FSMC
1146:../STLibs//STM32F4xx_DSP_StdPeriph_Lib_V1.0.1/Libraries/STM32F4xx_StdPeriph_Driver/src/stm32f4xx_rcc.c ****   * @param  NewState: new state of the specified peripheral clock.
1147:../STLibs//STM32F4xx_DSP_StdPeriph_Lib_V1.0.1/Libraries/STM32F4xx_StdPeriph_Driver/src/stm32f4xx_rcc.c ****   *          This parameter can be: ENABLE or DISABLE.
1148:../STLibs//STM32F4xx_DSP_StdPeriph_Lib_V1.0.1/Libraries/STM32F4xx_StdPeriph_Driver/src/stm32f4xx_rcc.c ****   * @retval None
1149:../STLibs//STM32F4xx_DSP_StdPeriph_Lib_V1.0.1/Libraries/STM32F4xx_StdPeriph_Driver/src/stm32f4xx_rcc.c ****   */
1150:../STLibs//STM32F4xx_DSP_StdPeriph_Lib_V1.0.1/Libraries/STM32F4xx_StdPeriph_Driver/src/stm32f4xx_rcc.c **** void RCC_AHB3PeriphClockCmd(uint32_t RCC_AHB3Periph, FunctionalState NewState)
1151:../STLibs//STM32F4xx_DSP_StdPeriph_Lib_V1.0.1/Libraries/STM32F4xx_StdPeriph_Driver/src/stm32f4xx_rcc.c **** {
 990              		.loc 1 1151 0
 991              		.cfi_startproc
 992              		@ args = 0, pretend = 0, frame = 0
 993              		@ frame_needed = 0, uses_anonymous_args = 0
 994              		@ link register save eliminated.
 995              	.LVL85:
 996 027c 044B     		ldr	r3, .L98
1152:../STLibs//STM32F4xx_DSP_StdPeriph_Lib_V1.0.1/Libraries/STM32F4xx_StdPeriph_Driver/src/stm32f4xx_rcc.c ****   /* Check the parameters */
1153:../STLibs//STM32F4xx_DSP_StdPeriph_Lib_V1.0.1/Libraries/STM32F4xx_StdPeriph_Driver/src/stm32f4xx_rcc.c ****   assert_param(IS_RCC_AHB3_PERIPH(RCC_AHB3Periph));  
1154:../STLibs//STM32F4xx_DSP_StdPeriph_Lib_V1.0.1/Libraries/STM32F4xx_StdPeriph_Driver/src/stm32f4xx_rcc.c ****   assert_param(IS_FUNCTIONAL_STATE(NewState));
1155:../STLibs//STM32F4xx_DSP_StdPeriph_Lib_V1.0.1/Libraries/STM32F4xx_StdPeriph_Driver/src/stm32f4xx_rcc.c **** 
1156:../STLibs//STM32F4xx_DSP_StdPeriph_Lib_V1.0.1/Libraries/STM32F4xx_StdPeriph_Driver/src/stm32f4xx_rcc.c ****   if (NewState != DISABLE)
1157:../STLibs//STM32F4xx_DSP_StdPeriph_Lib_V1.0.1/Libraries/STM32F4xx_StdPeriph_Driver/src/stm32f4xx_rcc.c ****   {
1158:../STLibs//STM32F4xx_DSP_StdPeriph_Lib_V1.0.1/Libraries/STM32F4xx_StdPeriph_Driver/src/stm32f4xx_rcc.c ****     RCC->AHB3ENR |= RCC_AHB3Periph;
 997              		.loc 1 1158 0
 998 027e 9A6B     		ldr	r2, [r3, #56]
1156:../STLibs//STM32F4xx_DSP_StdPeriph_Lib_V1.0.1/Libraries/STM32F4xx_StdPeriph_Driver/src/stm32f4xx_rcc.c ****   {
 999              		.loc 1 1156 0
 1000 0280 11B1     		cbz	r1, .L95
 1001              		.loc 1 1158 0
 1002 0282 1043     		orrs	r0, r0, r2
 1003              	.LVL86:
 1004              	.L97:
1159:../STLibs//STM32F4xx_DSP_StdPeriph_Lib_V1.0.1/Libraries/STM32F4xx_StdPeriph_Driver/src/stm32f4xx_rcc.c ****   }
1160:../STLibs//STM32F4xx_DSP_StdPeriph_Lib_V1.0.1/Libraries/STM32F4xx_StdPeriph_Driver/src/stm32f4xx_rcc.c ****   else
1161:../STLibs//STM32F4xx_DSP_StdPeriph_Lib_V1.0.1/Libraries/STM32F4xx_StdPeriph_Driver/src/stm32f4xx_rcc.c ****   {
1162:../STLibs//STM32F4xx_DSP_StdPeriph_Lib_V1.0.1/Libraries/STM32F4xx_StdPeriph_Driver/src/stm32f4xx_rcc.c ****     RCC->AHB3ENR &= ~RCC_AHB3Periph;
 1005              		.loc 1 1162 0
 1006 0284 9863     		str	r0, [r3, #56]
1163:../STLibs//STM32F4xx_DSP_StdPeriph_Lib_V1.0.1/Libraries/STM32F4xx_StdPeriph_Driver/src/stm32f4xx_rcc.c ****   }
1164:../STLibs//STM32F4xx_DSP_StdPeriph_Lib_V1.0.1/Libraries/STM32F4xx_StdPeriph_Driver/src/stm32f4xx_rcc.c **** }
 1007              		.loc 1 1164 0
 1008 0286 7047     		bx	lr
 1009              	.LVL87:
 1010              	.L95:
1162:../STLibs//STM32F4xx_DSP_StdPeriph_Lib_V1.0.1/Libraries/STM32F4xx_StdPeriph_Driver/src/stm32f4xx_rcc.c ****   }
 1011              		.loc 1 1162 0
 1012 0288 22EA0000 		bic	r0, r2, r0
 1013              	.LVL88:
 1014 028c FAE7     		b	.L97
 1015              	.L99:
 1016 028e 00BF     		.align	2
 1017              	.L98:
 1018 0290 00380240 		.word	1073887232
 1019              		.cfi_endproc
 1020              	.LFE136:
 1022              		.align	1
 1023              		.global	RCC_APB1PeriphClockCmd
 1024              		.syntax unified
 1025              		.thumb
 1026              		.thumb_func
 1027              		.fpu fpv4-sp-d16
 1029              	RCC_APB1PeriphClockCmd:
 1030              	.LFB137:
1165:../STLibs//STM32F4xx_DSP_StdPeriph_Lib_V1.0.1/Libraries/STM32F4xx_StdPeriph_Driver/src/stm32f4xx_rcc.c **** 
1166:../STLibs//STM32F4xx_DSP_StdPeriph_Lib_V1.0.1/Libraries/STM32F4xx_StdPeriph_Driver/src/stm32f4xx_rcc.c **** /**
1167:../STLibs//STM32F4xx_DSP_StdPeriph_Lib_V1.0.1/Libraries/STM32F4xx_StdPeriph_Driver/src/stm32f4xx_rcc.c ****   * @brief  Enables or disables the Low Speed APB (APB1) peripheral clock.
1168:../STLibs//STM32F4xx_DSP_StdPeriph_Lib_V1.0.1/Libraries/STM32F4xx_StdPeriph_Driver/src/stm32f4xx_rcc.c ****   * @note   After reset, the peripheral clock (used for registers read/write access)
1169:../STLibs//STM32F4xx_DSP_StdPeriph_Lib_V1.0.1/Libraries/STM32F4xx_StdPeriph_Driver/src/stm32f4xx_rcc.c ****   *         is disabled and the application software has to enable this clock before 
1170:../STLibs//STM32F4xx_DSP_StdPeriph_Lib_V1.0.1/Libraries/STM32F4xx_StdPeriph_Driver/src/stm32f4xx_rcc.c ****   *         using it. 
1171:../STLibs//STM32F4xx_DSP_StdPeriph_Lib_V1.0.1/Libraries/STM32F4xx_StdPeriph_Driver/src/stm32f4xx_rcc.c ****   * @param  RCC_APB1Periph: specifies the APB1 peripheral to gates its clock.
1172:../STLibs//STM32F4xx_DSP_StdPeriph_Lib_V1.0.1/Libraries/STM32F4xx_StdPeriph_Driver/src/stm32f4xx_rcc.c ****   *          This parameter can be any combination of the following values:
1173:../STLibs//STM32F4xx_DSP_StdPeriph_Lib_V1.0.1/Libraries/STM32F4xx_StdPeriph_Driver/src/stm32f4xx_rcc.c ****   *            @arg RCC_APB1Periph_TIM2:   TIM2 clock
1174:../STLibs//STM32F4xx_DSP_StdPeriph_Lib_V1.0.1/Libraries/STM32F4xx_StdPeriph_Driver/src/stm32f4xx_rcc.c ****   *            @arg RCC_APB1Periph_TIM3:   TIM3 clock
1175:../STLibs//STM32F4xx_DSP_StdPeriph_Lib_V1.0.1/Libraries/STM32F4xx_StdPeriph_Driver/src/stm32f4xx_rcc.c ****   *            @arg RCC_APB1Periph_TIM4:   TIM4 clock
1176:../STLibs//STM32F4xx_DSP_StdPeriph_Lib_V1.0.1/Libraries/STM32F4xx_StdPeriph_Driver/src/stm32f4xx_rcc.c ****   *            @arg RCC_APB1Periph_TIM5:   TIM5 clock
1177:../STLibs//STM32F4xx_DSP_StdPeriph_Lib_V1.0.1/Libraries/STM32F4xx_StdPeriph_Driver/src/stm32f4xx_rcc.c ****   *            @arg RCC_APB1Periph_TIM6:   TIM6 clock
1178:../STLibs//STM32F4xx_DSP_StdPeriph_Lib_V1.0.1/Libraries/STM32F4xx_StdPeriph_Driver/src/stm32f4xx_rcc.c ****   *            @arg RCC_APB1Periph_TIM7:   TIM7 clock
1179:../STLibs//STM32F4xx_DSP_StdPeriph_Lib_V1.0.1/Libraries/STM32F4xx_StdPeriph_Driver/src/stm32f4xx_rcc.c ****   *            @arg RCC_APB1Periph_TIM12:  TIM12 clock
1180:../STLibs//STM32F4xx_DSP_StdPeriph_Lib_V1.0.1/Libraries/STM32F4xx_StdPeriph_Driver/src/stm32f4xx_rcc.c ****   *            @arg RCC_APB1Periph_TIM13:  TIM13 clock
1181:../STLibs//STM32F4xx_DSP_StdPeriph_Lib_V1.0.1/Libraries/STM32F4xx_StdPeriph_Driver/src/stm32f4xx_rcc.c ****   *            @arg RCC_APB1Periph_TIM14:  TIM14 clock
1182:../STLibs//STM32F4xx_DSP_StdPeriph_Lib_V1.0.1/Libraries/STM32F4xx_StdPeriph_Driver/src/stm32f4xx_rcc.c ****   *            @arg RCC_APB1Periph_WWDG:   WWDG clock
1183:../STLibs//STM32F4xx_DSP_StdPeriph_Lib_V1.0.1/Libraries/STM32F4xx_StdPeriph_Driver/src/stm32f4xx_rcc.c ****   *            @arg RCC_APB1Periph_SPI2:   SPI2 clock
1184:../STLibs//STM32F4xx_DSP_StdPeriph_Lib_V1.0.1/Libraries/STM32F4xx_StdPeriph_Driver/src/stm32f4xx_rcc.c ****   *            @arg RCC_APB1Periph_SPI3:   SPI3 clock
1185:../STLibs//STM32F4xx_DSP_StdPeriph_Lib_V1.0.1/Libraries/STM32F4xx_StdPeriph_Driver/src/stm32f4xx_rcc.c ****   *            @arg RCC_APB1Periph_USART2: USART2 clock
1186:../STLibs//STM32F4xx_DSP_StdPeriph_Lib_V1.0.1/Libraries/STM32F4xx_StdPeriph_Driver/src/stm32f4xx_rcc.c ****   *            @arg RCC_APB1Periph_USART3: USART3 clock
1187:../STLibs//STM32F4xx_DSP_StdPeriph_Lib_V1.0.1/Libraries/STM32F4xx_StdPeriph_Driver/src/stm32f4xx_rcc.c ****   *            @arg RCC_APB1Periph_UART4:  UART4 clock
1188:../STLibs//STM32F4xx_DSP_StdPeriph_Lib_V1.0.1/Libraries/STM32F4xx_StdPeriph_Driver/src/stm32f4xx_rcc.c ****   *            @arg RCC_APB1Periph_UART5:  UART5 clock
1189:../STLibs//STM32F4xx_DSP_StdPeriph_Lib_V1.0.1/Libraries/STM32F4xx_StdPeriph_Driver/src/stm32f4xx_rcc.c ****   *            @arg RCC_APB1Periph_I2C1:   I2C1 clock
1190:../STLibs//STM32F4xx_DSP_StdPeriph_Lib_V1.0.1/Libraries/STM32F4xx_StdPeriph_Driver/src/stm32f4xx_rcc.c ****   *            @arg RCC_APB1Periph_I2C2:   I2C2 clock
1191:../STLibs//STM32F4xx_DSP_StdPeriph_Lib_V1.0.1/Libraries/STM32F4xx_StdPeriph_Driver/src/stm32f4xx_rcc.c ****   *            @arg RCC_APB1Periph_I2C3:   I2C3 clock
1192:../STLibs//STM32F4xx_DSP_StdPeriph_Lib_V1.0.1/Libraries/STM32F4xx_StdPeriph_Driver/src/stm32f4xx_rcc.c ****   *            @arg RCC_APB1Periph_CAN1:   CAN1 clock
1193:../STLibs//STM32F4xx_DSP_StdPeriph_Lib_V1.0.1/Libraries/STM32F4xx_StdPeriph_Driver/src/stm32f4xx_rcc.c ****   *            @arg RCC_APB1Periph_CAN2:   CAN2 clock
1194:../STLibs//STM32F4xx_DSP_StdPeriph_Lib_V1.0.1/Libraries/STM32F4xx_StdPeriph_Driver/src/stm32f4xx_rcc.c ****   *            @arg RCC_APB1Periph_PWR:    PWR clock
1195:../STLibs//STM32F4xx_DSP_StdPeriph_Lib_V1.0.1/Libraries/STM32F4xx_StdPeriph_Driver/src/stm32f4xx_rcc.c ****   *            @arg RCC_APB1Periph_DAC:    DAC clock
1196:../STLibs//STM32F4xx_DSP_StdPeriph_Lib_V1.0.1/Libraries/STM32F4xx_StdPeriph_Driver/src/stm32f4xx_rcc.c ****   * @param  NewState: new state of the specified peripheral clock.
1197:../STLibs//STM32F4xx_DSP_StdPeriph_Lib_V1.0.1/Libraries/STM32F4xx_StdPeriph_Driver/src/stm32f4xx_rcc.c ****   *          This parameter can be: ENABLE or DISABLE.
1198:../STLibs//STM32F4xx_DSP_StdPeriph_Lib_V1.0.1/Libraries/STM32F4xx_StdPeriph_Driver/src/stm32f4xx_rcc.c ****   * @retval None
1199:../STLibs//STM32F4xx_DSP_StdPeriph_Lib_V1.0.1/Libraries/STM32F4xx_StdPeriph_Driver/src/stm32f4xx_rcc.c ****   */
1200:../STLibs//STM32F4xx_DSP_StdPeriph_Lib_V1.0.1/Libraries/STM32F4xx_StdPeriph_Driver/src/stm32f4xx_rcc.c **** void RCC_APB1PeriphClockCmd(uint32_t RCC_APB1Periph, FunctionalState NewState)
1201:../STLibs//STM32F4xx_DSP_StdPeriph_Lib_V1.0.1/Libraries/STM32F4xx_StdPeriph_Driver/src/stm32f4xx_rcc.c **** {
 1031              		.loc 1 1201 0
 1032              		.cfi_startproc
 1033              		@ args = 0, pretend = 0, frame = 0
 1034              		@ frame_needed = 0, uses_anonymous_args = 0
 1035              		@ link register save eliminated.
 1036              	.LVL89:
 1037 0294 044B     		ldr	r3, .L104
1202:../STLibs//STM32F4xx_DSP_StdPeriph_Lib_V1.0.1/Libraries/STM32F4xx_StdPeriph_Driver/src/stm32f4xx_rcc.c ****   /* Check the parameters */
1203:../STLibs//STM32F4xx_DSP_StdPeriph_Lib_V1.0.1/Libraries/STM32F4xx_StdPeriph_Driver/src/stm32f4xx_rcc.c ****   assert_param(IS_RCC_APB1_PERIPH(RCC_APB1Periph));  
1204:../STLibs//STM32F4xx_DSP_StdPeriph_Lib_V1.0.1/Libraries/STM32F4xx_StdPeriph_Driver/src/stm32f4xx_rcc.c ****   assert_param(IS_FUNCTIONAL_STATE(NewState));
1205:../STLibs//STM32F4xx_DSP_StdPeriph_Lib_V1.0.1/Libraries/STM32F4xx_StdPeriph_Driver/src/stm32f4xx_rcc.c **** 
1206:../STLibs//STM32F4xx_DSP_StdPeriph_Lib_V1.0.1/Libraries/STM32F4xx_StdPeriph_Driver/src/stm32f4xx_rcc.c ****   if (NewState != DISABLE)
1207:../STLibs//STM32F4xx_DSP_StdPeriph_Lib_V1.0.1/Libraries/STM32F4xx_StdPeriph_Driver/src/stm32f4xx_rcc.c ****   {
1208:../STLibs//STM32F4xx_DSP_StdPeriph_Lib_V1.0.1/Libraries/STM32F4xx_StdPeriph_Driver/src/stm32f4xx_rcc.c ****     RCC->APB1ENR |= RCC_APB1Periph;
 1038              		.loc 1 1208 0
 1039 0296 1A6C     		ldr	r2, [r3, #64]
1206:../STLibs//STM32F4xx_DSP_StdPeriph_Lib_V1.0.1/Libraries/STM32F4xx_StdPeriph_Driver/src/stm32f4xx_rcc.c ****   {
 1040              		.loc 1 1206 0
 1041 0298 11B1     		cbz	r1, .L101
 1042              		.loc 1 1208 0
 1043 029a 1043     		orrs	r0, r0, r2
 1044              	.LVL90:
 1045              	.L103:
1209:../STLibs//STM32F4xx_DSP_StdPeriph_Lib_V1.0.1/Libraries/STM32F4xx_StdPeriph_Driver/src/stm32f4xx_rcc.c ****   }
1210:../STLibs//STM32F4xx_DSP_StdPeriph_Lib_V1.0.1/Libraries/STM32F4xx_StdPeriph_Driver/src/stm32f4xx_rcc.c ****   else
1211:../STLibs//STM32F4xx_DSP_StdPeriph_Lib_V1.0.1/Libraries/STM32F4xx_StdPeriph_Driver/src/stm32f4xx_rcc.c ****   {
1212:../STLibs//STM32F4xx_DSP_StdPeriph_Lib_V1.0.1/Libraries/STM32F4xx_StdPeriph_Driver/src/stm32f4xx_rcc.c ****     RCC->APB1ENR &= ~RCC_APB1Periph;
 1046              		.loc 1 1212 0
 1047 029c 1864     		str	r0, [r3, #64]
1213:../STLibs//STM32F4xx_DSP_StdPeriph_Lib_V1.0.1/Libraries/STM32F4xx_StdPeriph_Driver/src/stm32f4xx_rcc.c ****   }
1214:../STLibs//STM32F4xx_DSP_StdPeriph_Lib_V1.0.1/Libraries/STM32F4xx_StdPeriph_Driver/src/stm32f4xx_rcc.c **** }
 1048              		.loc 1 1214 0
 1049 029e 7047     		bx	lr
 1050              	.LVL91:
 1051              	.L101:
1212:../STLibs//STM32F4xx_DSP_StdPeriph_Lib_V1.0.1/Libraries/STM32F4xx_StdPeriph_Driver/src/stm32f4xx_rcc.c ****   }
 1052              		.loc 1 1212 0
 1053 02a0 22EA0000 		bic	r0, r2, r0
 1054              	.LVL92:
 1055 02a4 FAE7     		b	.L103
 1056              	.L105:
 1057 02a6 00BF     		.align	2
 1058              	.L104:
 1059 02a8 00380240 		.word	1073887232
 1060              		.cfi_endproc
 1061              	.LFE137:
 1063              		.align	1
 1064              		.global	RCC_APB2PeriphClockCmd
 1065              		.syntax unified
 1066              		.thumb
 1067              		.thumb_func
 1068              		.fpu fpv4-sp-d16
 1070              	RCC_APB2PeriphClockCmd:
 1071              	.LFB138:
1215:../STLibs//STM32F4xx_DSP_StdPeriph_Lib_V1.0.1/Libraries/STM32F4xx_StdPeriph_Driver/src/stm32f4xx_rcc.c **** 
1216:../STLibs//STM32F4xx_DSP_StdPeriph_Lib_V1.0.1/Libraries/STM32F4xx_StdPeriph_Driver/src/stm32f4xx_rcc.c **** /**
1217:../STLibs//STM32F4xx_DSP_StdPeriph_Lib_V1.0.1/Libraries/STM32F4xx_StdPeriph_Driver/src/stm32f4xx_rcc.c ****   * @brief  Enables or disables the High Speed APB (APB2) peripheral clock.
1218:../STLibs//STM32F4xx_DSP_StdPeriph_Lib_V1.0.1/Libraries/STM32F4xx_StdPeriph_Driver/src/stm32f4xx_rcc.c ****   * @note   After reset, the peripheral clock (used for registers read/write access)
1219:../STLibs//STM32F4xx_DSP_StdPeriph_Lib_V1.0.1/Libraries/STM32F4xx_StdPeriph_Driver/src/stm32f4xx_rcc.c ****   *         is disabled and the application software has to enable this clock before 
1220:../STLibs//STM32F4xx_DSP_StdPeriph_Lib_V1.0.1/Libraries/STM32F4xx_StdPeriph_Driver/src/stm32f4xx_rcc.c ****   *         using it.
1221:../STLibs//STM32F4xx_DSP_StdPeriph_Lib_V1.0.1/Libraries/STM32F4xx_StdPeriph_Driver/src/stm32f4xx_rcc.c ****   * @param  RCC_APB2Periph: specifies the APB2 peripheral to gates its clock.
1222:../STLibs//STM32F4xx_DSP_StdPeriph_Lib_V1.0.1/Libraries/STM32F4xx_StdPeriph_Driver/src/stm32f4xx_rcc.c ****   *          This parameter can be any combination of the following values:
1223:../STLibs//STM32F4xx_DSP_StdPeriph_Lib_V1.0.1/Libraries/STM32F4xx_StdPeriph_Driver/src/stm32f4xx_rcc.c ****   *            @arg RCC_APB2Periph_TIM1:   TIM1 clock
1224:../STLibs//STM32F4xx_DSP_StdPeriph_Lib_V1.0.1/Libraries/STM32F4xx_StdPeriph_Driver/src/stm32f4xx_rcc.c ****   *            @arg RCC_APB2Periph_TIM8:   TIM8 clock
1225:../STLibs//STM32F4xx_DSP_StdPeriph_Lib_V1.0.1/Libraries/STM32F4xx_StdPeriph_Driver/src/stm32f4xx_rcc.c ****   *            @arg RCC_APB2Periph_USART1: USART1 clock
1226:../STLibs//STM32F4xx_DSP_StdPeriph_Lib_V1.0.1/Libraries/STM32F4xx_StdPeriph_Driver/src/stm32f4xx_rcc.c ****   *            @arg RCC_APB2Periph_USART6: USART6 clock
1227:../STLibs//STM32F4xx_DSP_StdPeriph_Lib_V1.0.1/Libraries/STM32F4xx_StdPeriph_Driver/src/stm32f4xx_rcc.c ****   *            @arg RCC_APB2Periph_ADC1:   ADC1 clock
1228:../STLibs//STM32F4xx_DSP_StdPeriph_Lib_V1.0.1/Libraries/STM32F4xx_StdPeriph_Driver/src/stm32f4xx_rcc.c ****   *            @arg RCC_APB2Periph_ADC2:   ADC2 clock
1229:../STLibs//STM32F4xx_DSP_StdPeriph_Lib_V1.0.1/Libraries/STM32F4xx_StdPeriph_Driver/src/stm32f4xx_rcc.c ****   *            @arg RCC_APB2Periph_ADC3:   ADC3 clock
1230:../STLibs//STM32F4xx_DSP_StdPeriph_Lib_V1.0.1/Libraries/STM32F4xx_StdPeriph_Driver/src/stm32f4xx_rcc.c ****   *            @arg RCC_APB2Periph_SDIO:   SDIO clock
1231:../STLibs//STM32F4xx_DSP_StdPeriph_Lib_V1.0.1/Libraries/STM32F4xx_StdPeriph_Driver/src/stm32f4xx_rcc.c ****   *            @arg RCC_APB2Periph_SPI1:   SPI1 clock
1232:../STLibs//STM32F4xx_DSP_StdPeriph_Lib_V1.0.1/Libraries/STM32F4xx_StdPeriph_Driver/src/stm32f4xx_rcc.c ****   *            @arg RCC_APB2Periph_SYSCFG: SYSCFG clock
1233:../STLibs//STM32F4xx_DSP_StdPeriph_Lib_V1.0.1/Libraries/STM32F4xx_StdPeriph_Driver/src/stm32f4xx_rcc.c ****   *            @arg RCC_APB2Periph_TIM9:   TIM9 clock
1234:../STLibs//STM32F4xx_DSP_StdPeriph_Lib_V1.0.1/Libraries/STM32F4xx_StdPeriph_Driver/src/stm32f4xx_rcc.c ****   *            @arg RCC_APB2Periph_TIM10:  TIM10 clock
1235:../STLibs//STM32F4xx_DSP_StdPeriph_Lib_V1.0.1/Libraries/STM32F4xx_StdPeriph_Driver/src/stm32f4xx_rcc.c ****   *            @arg RCC_APB2Periph_TIM11:  TIM11 clock
1236:../STLibs//STM32F4xx_DSP_StdPeriph_Lib_V1.0.1/Libraries/STM32F4xx_StdPeriph_Driver/src/stm32f4xx_rcc.c ****   * @param  NewState: new state of the specified peripheral clock.
1237:../STLibs//STM32F4xx_DSP_StdPeriph_Lib_V1.0.1/Libraries/STM32F4xx_StdPeriph_Driver/src/stm32f4xx_rcc.c ****   *          This parameter can be: ENABLE or DISABLE.
1238:../STLibs//STM32F4xx_DSP_StdPeriph_Lib_V1.0.1/Libraries/STM32F4xx_StdPeriph_Driver/src/stm32f4xx_rcc.c ****   * @retval None
1239:../STLibs//STM32F4xx_DSP_StdPeriph_Lib_V1.0.1/Libraries/STM32F4xx_StdPeriph_Driver/src/stm32f4xx_rcc.c ****   */
1240:../STLibs//STM32F4xx_DSP_StdPeriph_Lib_V1.0.1/Libraries/STM32F4xx_StdPeriph_Driver/src/stm32f4xx_rcc.c **** void RCC_APB2PeriphClockCmd(uint32_t RCC_APB2Periph, FunctionalState NewState)
1241:../STLibs//STM32F4xx_DSP_StdPeriph_Lib_V1.0.1/Libraries/STM32F4xx_StdPeriph_Driver/src/stm32f4xx_rcc.c **** {
 1072              		.loc 1 1241 0
 1073              		.cfi_startproc
 1074              		@ args = 0, pretend = 0, frame = 0
 1075              		@ frame_needed = 0, uses_anonymous_args = 0
 1076              		@ link register save eliminated.
 1077              	.LVL93:
 1078 02ac 044B     		ldr	r3, .L110
1242:../STLibs//STM32F4xx_DSP_StdPeriph_Lib_V1.0.1/Libraries/STM32F4xx_StdPeriph_Driver/src/stm32f4xx_rcc.c ****   /* Check the parameters */
1243:../STLibs//STM32F4xx_DSP_StdPeriph_Lib_V1.0.1/Libraries/STM32F4xx_StdPeriph_Driver/src/stm32f4xx_rcc.c ****   assert_param(IS_RCC_APB2_PERIPH(RCC_APB2Periph));
1244:../STLibs//STM32F4xx_DSP_StdPeriph_Lib_V1.0.1/Libraries/STM32F4xx_StdPeriph_Driver/src/stm32f4xx_rcc.c ****   assert_param(IS_FUNCTIONAL_STATE(NewState));
1245:../STLibs//STM32F4xx_DSP_StdPeriph_Lib_V1.0.1/Libraries/STM32F4xx_StdPeriph_Driver/src/stm32f4xx_rcc.c **** 
1246:../STLibs//STM32F4xx_DSP_StdPeriph_Lib_V1.0.1/Libraries/STM32F4xx_StdPeriph_Driver/src/stm32f4xx_rcc.c ****   if (NewState != DISABLE)
1247:../STLibs//STM32F4xx_DSP_StdPeriph_Lib_V1.0.1/Libraries/STM32F4xx_StdPeriph_Driver/src/stm32f4xx_rcc.c ****   {
1248:../STLibs//STM32F4xx_DSP_StdPeriph_Lib_V1.0.1/Libraries/STM32F4xx_StdPeriph_Driver/src/stm32f4xx_rcc.c ****     RCC->APB2ENR |= RCC_APB2Periph;
 1079              		.loc 1 1248 0
 1080 02ae 5A6C     		ldr	r2, [r3, #68]
1246:../STLibs//STM32F4xx_DSP_StdPeriph_Lib_V1.0.1/Libraries/STM32F4xx_StdPeriph_Driver/src/stm32f4xx_rcc.c ****   {
 1081              		.loc 1 1246 0
 1082 02b0 11B1     		cbz	r1, .L107
 1083              		.loc 1 1248 0
 1084 02b2 1043     		orrs	r0, r0, r2
 1085              	.LVL94:
 1086              	.L109:
1249:../STLibs//STM32F4xx_DSP_StdPeriph_Lib_V1.0.1/Libraries/STM32F4xx_StdPeriph_Driver/src/stm32f4xx_rcc.c ****   }
1250:../STLibs//STM32F4xx_DSP_StdPeriph_Lib_V1.0.1/Libraries/STM32F4xx_StdPeriph_Driver/src/stm32f4xx_rcc.c ****   else
1251:../STLibs//STM32F4xx_DSP_StdPeriph_Lib_V1.0.1/Libraries/STM32F4xx_StdPeriph_Driver/src/stm32f4xx_rcc.c ****   {
1252:../STLibs//STM32F4xx_DSP_StdPeriph_Lib_V1.0.1/Libraries/STM32F4xx_StdPeriph_Driver/src/stm32f4xx_rcc.c ****     RCC->APB2ENR &= ~RCC_APB2Periph;
 1087              		.loc 1 1252 0
 1088 02b4 5864     		str	r0, [r3, #68]
1253:../STLibs//STM32F4xx_DSP_StdPeriph_Lib_V1.0.1/Libraries/STM32F4xx_StdPeriph_Driver/src/stm32f4xx_rcc.c ****   }
1254:../STLibs//STM32F4xx_DSP_StdPeriph_Lib_V1.0.1/Libraries/STM32F4xx_StdPeriph_Driver/src/stm32f4xx_rcc.c **** }
 1089              		.loc 1 1254 0
 1090 02b6 7047     		bx	lr
 1091              	.LVL95:
 1092              	.L107:
1252:../STLibs//STM32F4xx_DSP_StdPeriph_Lib_V1.0.1/Libraries/STM32F4xx_StdPeriph_Driver/src/stm32f4xx_rcc.c ****   }
 1093              		.loc 1 1252 0
 1094 02b8 22EA0000 		bic	r0, r2, r0
 1095              	.LVL96:
 1096 02bc FAE7     		b	.L109
 1097              	.L111:
 1098 02be 00BF     		.align	2
 1099              	.L110:
 1100 02c0 00380240 		.word	1073887232
 1101              		.cfi_endproc
 1102              	.LFE138:
 1104              		.align	1
 1105              		.global	RCC_AHB1PeriphResetCmd
 1106              		.syntax unified
 1107              		.thumb
 1108              		.thumb_func
 1109              		.fpu fpv4-sp-d16
 1111              	RCC_AHB1PeriphResetCmd:
 1112              	.LFB139:
1255:../STLibs//STM32F4xx_DSP_StdPeriph_Lib_V1.0.1/Libraries/STM32F4xx_StdPeriph_Driver/src/stm32f4xx_rcc.c **** 
1256:../STLibs//STM32F4xx_DSP_StdPeriph_Lib_V1.0.1/Libraries/STM32F4xx_StdPeriph_Driver/src/stm32f4xx_rcc.c **** /**
1257:../STLibs//STM32F4xx_DSP_StdPeriph_Lib_V1.0.1/Libraries/STM32F4xx_StdPeriph_Driver/src/stm32f4xx_rcc.c ****   * @brief  Forces or releases AHB1 peripheral reset.
1258:../STLibs//STM32F4xx_DSP_StdPeriph_Lib_V1.0.1/Libraries/STM32F4xx_StdPeriph_Driver/src/stm32f4xx_rcc.c ****   * @param  RCC_AHB1Periph: specifies the AHB1 peripheral to reset.
1259:../STLibs//STM32F4xx_DSP_StdPeriph_Lib_V1.0.1/Libraries/STM32F4xx_StdPeriph_Driver/src/stm32f4xx_rcc.c ****   *          This parameter can be any combination of the following values:
1260:../STLibs//STM32F4xx_DSP_StdPeriph_Lib_V1.0.1/Libraries/STM32F4xx_StdPeriph_Driver/src/stm32f4xx_rcc.c ****   *            @arg RCC_AHB1Periph_GPIOA:   GPIOA clock
1261:../STLibs//STM32F4xx_DSP_StdPeriph_Lib_V1.0.1/Libraries/STM32F4xx_StdPeriph_Driver/src/stm32f4xx_rcc.c ****   *            @arg RCC_AHB1Periph_GPIOB:   GPIOB clock 
1262:../STLibs//STM32F4xx_DSP_StdPeriph_Lib_V1.0.1/Libraries/STM32F4xx_StdPeriph_Driver/src/stm32f4xx_rcc.c ****   *            @arg RCC_AHB1Periph_GPIOC:   GPIOC clock
1263:../STLibs//STM32F4xx_DSP_StdPeriph_Lib_V1.0.1/Libraries/STM32F4xx_StdPeriph_Driver/src/stm32f4xx_rcc.c ****   *            @arg RCC_AHB1Periph_GPIOD:   GPIOD clock
1264:../STLibs//STM32F4xx_DSP_StdPeriph_Lib_V1.0.1/Libraries/STM32F4xx_StdPeriph_Driver/src/stm32f4xx_rcc.c ****   *            @arg RCC_AHB1Periph_GPIOE:   GPIOE clock
1265:../STLibs//STM32F4xx_DSP_StdPeriph_Lib_V1.0.1/Libraries/STM32F4xx_StdPeriph_Driver/src/stm32f4xx_rcc.c ****   *            @arg RCC_AHB1Periph_GPIOF:   GPIOF clock
1266:../STLibs//STM32F4xx_DSP_StdPeriph_Lib_V1.0.1/Libraries/STM32F4xx_StdPeriph_Driver/src/stm32f4xx_rcc.c ****   *            @arg RCC_AHB1Periph_GPIOG:   GPIOG clock
1267:../STLibs//STM32F4xx_DSP_StdPeriph_Lib_V1.0.1/Libraries/STM32F4xx_StdPeriph_Driver/src/stm32f4xx_rcc.c ****   *            @arg RCC_AHB1Periph_GPIOG:   GPIOG clock
1268:../STLibs//STM32F4xx_DSP_StdPeriph_Lib_V1.0.1/Libraries/STM32F4xx_StdPeriph_Driver/src/stm32f4xx_rcc.c ****   *            @arg RCC_AHB1Periph_GPIOI:   GPIOI clock
1269:../STLibs//STM32F4xx_DSP_StdPeriph_Lib_V1.0.1/Libraries/STM32F4xx_StdPeriph_Driver/src/stm32f4xx_rcc.c ****   *            @arg RCC_AHB1Periph_CRC:     CRC clock
1270:../STLibs//STM32F4xx_DSP_StdPeriph_Lib_V1.0.1/Libraries/STM32F4xx_StdPeriph_Driver/src/stm32f4xx_rcc.c ****   *            @arg RCC_AHB1Periph_DMA1:    DMA1 clock
1271:../STLibs//STM32F4xx_DSP_StdPeriph_Lib_V1.0.1/Libraries/STM32F4xx_StdPeriph_Driver/src/stm32f4xx_rcc.c ****   *            @arg RCC_AHB1Periph_DMA2:    DMA2 clock
1272:../STLibs//STM32F4xx_DSP_StdPeriph_Lib_V1.0.1/Libraries/STM32F4xx_StdPeriph_Driver/src/stm32f4xx_rcc.c ****   *            @arg RCC_AHB1Periph_ETH_MAC: Ethernet MAC clock
1273:../STLibs//STM32F4xx_DSP_StdPeriph_Lib_V1.0.1/Libraries/STM32F4xx_StdPeriph_Driver/src/stm32f4xx_rcc.c ****   *            @arg RCC_AHB1Periph_OTG_HS:  USB OTG HS clock
1274:../STLibs//STM32F4xx_DSP_StdPeriph_Lib_V1.0.1/Libraries/STM32F4xx_StdPeriph_Driver/src/stm32f4xx_rcc.c ****   *                  
1275:../STLibs//STM32F4xx_DSP_StdPeriph_Lib_V1.0.1/Libraries/STM32F4xx_StdPeriph_Driver/src/stm32f4xx_rcc.c ****   * @param  NewState: new state of the specified peripheral reset.
1276:../STLibs//STM32F4xx_DSP_StdPeriph_Lib_V1.0.1/Libraries/STM32F4xx_StdPeriph_Driver/src/stm32f4xx_rcc.c ****   *          This parameter can be: ENABLE or DISABLE.
1277:../STLibs//STM32F4xx_DSP_StdPeriph_Lib_V1.0.1/Libraries/STM32F4xx_StdPeriph_Driver/src/stm32f4xx_rcc.c ****   * @retval None
1278:../STLibs//STM32F4xx_DSP_StdPeriph_Lib_V1.0.1/Libraries/STM32F4xx_StdPeriph_Driver/src/stm32f4xx_rcc.c ****   */
1279:../STLibs//STM32F4xx_DSP_StdPeriph_Lib_V1.0.1/Libraries/STM32F4xx_StdPeriph_Driver/src/stm32f4xx_rcc.c **** void RCC_AHB1PeriphResetCmd(uint32_t RCC_AHB1Periph, FunctionalState NewState)
1280:../STLibs//STM32F4xx_DSP_StdPeriph_Lib_V1.0.1/Libraries/STM32F4xx_StdPeriph_Driver/src/stm32f4xx_rcc.c **** {
 1113              		.loc 1 1280 0
 1114              		.cfi_startproc
 1115              		@ args = 0, pretend = 0, frame = 0
 1116              		@ frame_needed = 0, uses_anonymous_args = 0
 1117              		@ link register save eliminated.
 1118              	.LVL97:
 1119 02c4 044B     		ldr	r3, .L116
1281:../STLibs//STM32F4xx_DSP_StdPeriph_Lib_V1.0.1/Libraries/STM32F4xx_StdPeriph_Driver/src/stm32f4xx_rcc.c ****   /* Check the parameters */
1282:../STLibs//STM32F4xx_DSP_StdPeriph_Lib_V1.0.1/Libraries/STM32F4xx_StdPeriph_Driver/src/stm32f4xx_rcc.c ****   assert_param(IS_RCC_AHB1_RESET_PERIPH(RCC_AHB1Periph));
1283:../STLibs//STM32F4xx_DSP_StdPeriph_Lib_V1.0.1/Libraries/STM32F4xx_StdPeriph_Driver/src/stm32f4xx_rcc.c ****   assert_param(IS_FUNCTIONAL_STATE(NewState));
1284:../STLibs//STM32F4xx_DSP_StdPeriph_Lib_V1.0.1/Libraries/STM32F4xx_StdPeriph_Driver/src/stm32f4xx_rcc.c **** 
1285:../STLibs//STM32F4xx_DSP_StdPeriph_Lib_V1.0.1/Libraries/STM32F4xx_StdPeriph_Driver/src/stm32f4xx_rcc.c ****   if (NewState != DISABLE)
1286:../STLibs//STM32F4xx_DSP_StdPeriph_Lib_V1.0.1/Libraries/STM32F4xx_StdPeriph_Driver/src/stm32f4xx_rcc.c ****   {
1287:../STLibs//STM32F4xx_DSP_StdPeriph_Lib_V1.0.1/Libraries/STM32F4xx_StdPeriph_Driver/src/stm32f4xx_rcc.c ****     RCC->AHB1RSTR |= RCC_AHB1Periph;
 1120              		.loc 1 1287 0
 1121 02c6 1A69     		ldr	r2, [r3, #16]
1285:../STLibs//STM32F4xx_DSP_StdPeriph_Lib_V1.0.1/Libraries/STM32F4xx_StdPeriph_Driver/src/stm32f4xx_rcc.c ****   {
 1122              		.loc 1 1285 0
 1123 02c8 11B1     		cbz	r1, .L113
 1124              		.loc 1 1287 0
 1125 02ca 1043     		orrs	r0, r0, r2
 1126              	.LVL98:
 1127              	.L115:
1288:../STLibs//STM32F4xx_DSP_StdPeriph_Lib_V1.0.1/Libraries/STM32F4xx_StdPeriph_Driver/src/stm32f4xx_rcc.c ****   }
1289:../STLibs//STM32F4xx_DSP_StdPeriph_Lib_V1.0.1/Libraries/STM32F4xx_StdPeriph_Driver/src/stm32f4xx_rcc.c ****   else
1290:../STLibs//STM32F4xx_DSP_StdPeriph_Lib_V1.0.1/Libraries/STM32F4xx_StdPeriph_Driver/src/stm32f4xx_rcc.c ****   {
1291:../STLibs//STM32F4xx_DSP_StdPeriph_Lib_V1.0.1/Libraries/STM32F4xx_StdPeriph_Driver/src/stm32f4xx_rcc.c ****     RCC->AHB1RSTR &= ~RCC_AHB1Periph;
 1128              		.loc 1 1291 0
 1129 02cc 1861     		str	r0, [r3, #16]
1292:../STLibs//STM32F4xx_DSP_StdPeriph_Lib_V1.0.1/Libraries/STM32F4xx_StdPeriph_Driver/src/stm32f4xx_rcc.c ****   }
1293:../STLibs//STM32F4xx_DSP_StdPeriph_Lib_V1.0.1/Libraries/STM32F4xx_StdPeriph_Driver/src/stm32f4xx_rcc.c **** }
 1130              		.loc 1 1293 0
 1131 02ce 7047     		bx	lr
 1132              	.LVL99:
 1133              	.L113:
1291:../STLibs//STM32F4xx_DSP_StdPeriph_Lib_V1.0.1/Libraries/STM32F4xx_StdPeriph_Driver/src/stm32f4xx_rcc.c ****   }
 1134              		.loc 1 1291 0
 1135 02d0 22EA0000 		bic	r0, r2, r0
 1136              	.LVL100:
 1137 02d4 FAE7     		b	.L115
 1138              	.L117:
 1139 02d6 00BF     		.align	2
 1140              	.L116:
 1141 02d8 00380240 		.word	1073887232
 1142              		.cfi_endproc
 1143              	.LFE139:
 1145              		.align	1
 1146              		.global	RCC_AHB2PeriphResetCmd
 1147              		.syntax unified
 1148              		.thumb
 1149              		.thumb_func
 1150              		.fpu fpv4-sp-d16
 1152              	RCC_AHB2PeriphResetCmd:
 1153              	.LFB140:
1294:../STLibs//STM32F4xx_DSP_StdPeriph_Lib_V1.0.1/Libraries/STM32F4xx_StdPeriph_Driver/src/stm32f4xx_rcc.c **** 
1295:../STLibs//STM32F4xx_DSP_StdPeriph_Lib_V1.0.1/Libraries/STM32F4xx_StdPeriph_Driver/src/stm32f4xx_rcc.c **** /**
1296:../STLibs//STM32F4xx_DSP_StdPeriph_Lib_V1.0.1/Libraries/STM32F4xx_StdPeriph_Driver/src/stm32f4xx_rcc.c ****   * @brief  Forces or releases AHB2 peripheral reset.
1297:../STLibs//STM32F4xx_DSP_StdPeriph_Lib_V1.0.1/Libraries/STM32F4xx_StdPeriph_Driver/src/stm32f4xx_rcc.c ****   * @param  RCC_AHB2Periph: specifies the AHB2 peripheral to reset.
1298:../STLibs//STM32F4xx_DSP_StdPeriph_Lib_V1.0.1/Libraries/STM32F4xx_StdPeriph_Driver/src/stm32f4xx_rcc.c ****   *          This parameter can be any combination of the following values:
1299:../STLibs//STM32F4xx_DSP_StdPeriph_Lib_V1.0.1/Libraries/STM32F4xx_StdPeriph_Driver/src/stm32f4xx_rcc.c ****   *            @arg RCC_AHB2Periph_DCMI:   DCMI clock
1300:../STLibs//STM32F4xx_DSP_StdPeriph_Lib_V1.0.1/Libraries/STM32F4xx_StdPeriph_Driver/src/stm32f4xx_rcc.c ****   *            @arg RCC_AHB2Periph_CRYP:   CRYP clock
1301:../STLibs//STM32F4xx_DSP_StdPeriph_Lib_V1.0.1/Libraries/STM32F4xx_StdPeriph_Driver/src/stm32f4xx_rcc.c ****   *            @arg RCC_AHB2Periph_HASH:   HASH clock
1302:../STLibs//STM32F4xx_DSP_StdPeriph_Lib_V1.0.1/Libraries/STM32F4xx_StdPeriph_Driver/src/stm32f4xx_rcc.c ****   *            @arg RCC_AHB2Periph_RNG:    RNG clock
1303:../STLibs//STM32F4xx_DSP_StdPeriph_Lib_V1.0.1/Libraries/STM32F4xx_StdPeriph_Driver/src/stm32f4xx_rcc.c ****   *            @arg RCC_AHB2Periph_OTG_FS: USB OTG FS clock
1304:../STLibs//STM32F4xx_DSP_StdPeriph_Lib_V1.0.1/Libraries/STM32F4xx_StdPeriph_Driver/src/stm32f4xx_rcc.c ****   * @param  NewState: new state of the specified peripheral reset.
1305:../STLibs//STM32F4xx_DSP_StdPeriph_Lib_V1.0.1/Libraries/STM32F4xx_StdPeriph_Driver/src/stm32f4xx_rcc.c ****   *          This parameter can be: ENABLE or DISABLE.
1306:../STLibs//STM32F4xx_DSP_StdPeriph_Lib_V1.0.1/Libraries/STM32F4xx_StdPeriph_Driver/src/stm32f4xx_rcc.c ****   * @retval None
1307:../STLibs//STM32F4xx_DSP_StdPeriph_Lib_V1.0.1/Libraries/STM32F4xx_StdPeriph_Driver/src/stm32f4xx_rcc.c ****   */
1308:../STLibs//STM32F4xx_DSP_StdPeriph_Lib_V1.0.1/Libraries/STM32F4xx_StdPeriph_Driver/src/stm32f4xx_rcc.c **** void RCC_AHB2PeriphResetCmd(uint32_t RCC_AHB2Periph, FunctionalState NewState)
1309:../STLibs//STM32F4xx_DSP_StdPeriph_Lib_V1.0.1/Libraries/STM32F4xx_StdPeriph_Driver/src/stm32f4xx_rcc.c **** {
 1154              		.loc 1 1309 0
 1155              		.cfi_startproc
 1156              		@ args = 0, pretend = 0, frame = 0
 1157              		@ frame_needed = 0, uses_anonymous_args = 0
 1158              		@ link register save eliminated.
 1159              	.LVL101:
 1160 02dc 044B     		ldr	r3, .L122
1310:../STLibs//STM32F4xx_DSP_StdPeriph_Lib_V1.0.1/Libraries/STM32F4xx_StdPeriph_Driver/src/stm32f4xx_rcc.c ****   /* Check the parameters */
1311:../STLibs//STM32F4xx_DSP_StdPeriph_Lib_V1.0.1/Libraries/STM32F4xx_StdPeriph_Driver/src/stm32f4xx_rcc.c ****   assert_param(IS_RCC_AHB2_PERIPH(RCC_AHB2Periph));
1312:../STLibs//STM32F4xx_DSP_StdPeriph_Lib_V1.0.1/Libraries/STM32F4xx_StdPeriph_Driver/src/stm32f4xx_rcc.c ****   assert_param(IS_FUNCTIONAL_STATE(NewState));
1313:../STLibs//STM32F4xx_DSP_StdPeriph_Lib_V1.0.1/Libraries/STM32F4xx_StdPeriph_Driver/src/stm32f4xx_rcc.c **** 
1314:../STLibs//STM32F4xx_DSP_StdPeriph_Lib_V1.0.1/Libraries/STM32F4xx_StdPeriph_Driver/src/stm32f4xx_rcc.c ****   if (NewState != DISABLE)
1315:../STLibs//STM32F4xx_DSP_StdPeriph_Lib_V1.0.1/Libraries/STM32F4xx_StdPeriph_Driver/src/stm32f4xx_rcc.c ****   {
1316:../STLibs//STM32F4xx_DSP_StdPeriph_Lib_V1.0.1/Libraries/STM32F4xx_StdPeriph_Driver/src/stm32f4xx_rcc.c ****     RCC->AHB2RSTR |= RCC_AHB2Periph;
 1161              		.loc 1 1316 0
 1162 02de 5A69     		ldr	r2, [r3, #20]
1314:../STLibs//STM32F4xx_DSP_StdPeriph_Lib_V1.0.1/Libraries/STM32F4xx_StdPeriph_Driver/src/stm32f4xx_rcc.c ****   {
 1163              		.loc 1 1314 0
 1164 02e0 11B1     		cbz	r1, .L119
 1165              		.loc 1 1316 0
 1166 02e2 1043     		orrs	r0, r0, r2
 1167              	.LVL102:
 1168              	.L121:
1317:../STLibs//STM32F4xx_DSP_StdPeriph_Lib_V1.0.1/Libraries/STM32F4xx_StdPeriph_Driver/src/stm32f4xx_rcc.c ****   }
1318:../STLibs//STM32F4xx_DSP_StdPeriph_Lib_V1.0.1/Libraries/STM32F4xx_StdPeriph_Driver/src/stm32f4xx_rcc.c ****   else
1319:../STLibs//STM32F4xx_DSP_StdPeriph_Lib_V1.0.1/Libraries/STM32F4xx_StdPeriph_Driver/src/stm32f4xx_rcc.c ****   {
1320:../STLibs//STM32F4xx_DSP_StdPeriph_Lib_V1.0.1/Libraries/STM32F4xx_StdPeriph_Driver/src/stm32f4xx_rcc.c ****     RCC->AHB2RSTR &= ~RCC_AHB2Periph;
 1169              		.loc 1 1320 0
 1170 02e4 5861     		str	r0, [r3, #20]
1321:../STLibs//STM32F4xx_DSP_StdPeriph_Lib_V1.0.1/Libraries/STM32F4xx_StdPeriph_Driver/src/stm32f4xx_rcc.c ****   }
1322:../STLibs//STM32F4xx_DSP_StdPeriph_Lib_V1.0.1/Libraries/STM32F4xx_StdPeriph_Driver/src/stm32f4xx_rcc.c **** }
 1171              		.loc 1 1322 0
 1172 02e6 7047     		bx	lr
 1173              	.LVL103:
 1174              	.L119:
1320:../STLibs//STM32F4xx_DSP_StdPeriph_Lib_V1.0.1/Libraries/STM32F4xx_StdPeriph_Driver/src/stm32f4xx_rcc.c ****   }
 1175              		.loc 1 1320 0
 1176 02e8 22EA0000 		bic	r0, r2, r0
 1177              	.LVL104:
 1178 02ec FAE7     		b	.L121
 1179              	.L123:
 1180 02ee 00BF     		.align	2
 1181              	.L122:
 1182 02f0 00380240 		.word	1073887232
 1183              		.cfi_endproc
 1184              	.LFE140:
 1186              		.align	1
 1187              		.global	RCC_AHB3PeriphResetCmd
 1188              		.syntax unified
 1189              		.thumb
 1190              		.thumb_func
 1191              		.fpu fpv4-sp-d16
 1193              	RCC_AHB3PeriphResetCmd:
 1194              	.LFB141:
1323:../STLibs//STM32F4xx_DSP_StdPeriph_Lib_V1.0.1/Libraries/STM32F4xx_StdPeriph_Driver/src/stm32f4xx_rcc.c **** 
1324:../STLibs//STM32F4xx_DSP_StdPeriph_Lib_V1.0.1/Libraries/STM32F4xx_StdPeriph_Driver/src/stm32f4xx_rcc.c **** /**
1325:../STLibs//STM32F4xx_DSP_StdPeriph_Lib_V1.0.1/Libraries/STM32F4xx_StdPeriph_Driver/src/stm32f4xx_rcc.c ****   * @brief  Forces or releases AHB3 peripheral reset.
1326:../STLibs//STM32F4xx_DSP_StdPeriph_Lib_V1.0.1/Libraries/STM32F4xx_StdPeriph_Driver/src/stm32f4xx_rcc.c ****   * @param  RCC_AHB3Periph: specifies the AHB3 peripheral to reset.
1327:../STLibs//STM32F4xx_DSP_StdPeriph_Lib_V1.0.1/Libraries/STM32F4xx_StdPeriph_Driver/src/stm32f4xx_rcc.c ****   *          This parameter must be: RCC_AHB3Periph_FSMC
1328:../STLibs//STM32F4xx_DSP_StdPeriph_Lib_V1.0.1/Libraries/STM32F4xx_StdPeriph_Driver/src/stm32f4xx_rcc.c ****   * @param  NewState: new state of the specified peripheral reset.
1329:../STLibs//STM32F4xx_DSP_StdPeriph_Lib_V1.0.1/Libraries/STM32F4xx_StdPeriph_Driver/src/stm32f4xx_rcc.c ****   *          This parameter can be: ENABLE or DISABLE.
1330:../STLibs//STM32F4xx_DSP_StdPeriph_Lib_V1.0.1/Libraries/STM32F4xx_StdPeriph_Driver/src/stm32f4xx_rcc.c ****   * @retval None
1331:../STLibs//STM32F4xx_DSP_StdPeriph_Lib_V1.0.1/Libraries/STM32F4xx_StdPeriph_Driver/src/stm32f4xx_rcc.c ****   */
1332:../STLibs//STM32F4xx_DSP_StdPeriph_Lib_V1.0.1/Libraries/STM32F4xx_StdPeriph_Driver/src/stm32f4xx_rcc.c **** void RCC_AHB3PeriphResetCmd(uint32_t RCC_AHB3Periph, FunctionalState NewState)
1333:../STLibs//STM32F4xx_DSP_StdPeriph_Lib_V1.0.1/Libraries/STM32F4xx_StdPeriph_Driver/src/stm32f4xx_rcc.c **** {
 1195              		.loc 1 1333 0
 1196              		.cfi_startproc
 1197              		@ args = 0, pretend = 0, frame = 0
 1198              		@ frame_needed = 0, uses_anonymous_args = 0
 1199              		@ link register save eliminated.
 1200              	.LVL105:
 1201 02f4 044B     		ldr	r3, .L128
1334:../STLibs//STM32F4xx_DSP_StdPeriph_Lib_V1.0.1/Libraries/STM32F4xx_StdPeriph_Driver/src/stm32f4xx_rcc.c ****   /* Check the parameters */
1335:../STLibs//STM32F4xx_DSP_StdPeriph_Lib_V1.0.1/Libraries/STM32F4xx_StdPeriph_Driver/src/stm32f4xx_rcc.c ****   assert_param(IS_RCC_AHB3_PERIPH(RCC_AHB3Periph));
1336:../STLibs//STM32F4xx_DSP_StdPeriph_Lib_V1.0.1/Libraries/STM32F4xx_StdPeriph_Driver/src/stm32f4xx_rcc.c ****   assert_param(IS_FUNCTIONAL_STATE(NewState));
