   1              		.cpu cortex-m4
   2              		.eabi_attribute 27, 1
   3              		.eabi_attribute 20, 1
   4              		.eabi_attribute 21, 1
   5              		.eabi_attribute 23, 3
   6              		.eabi_attribute 24, 1
   7              		.eabi_attribute 25, 1
   8              		.eabi_attribute 26, 1
   9              		.eabi_attribute 30, 4
  10              		.eabi_attribute 34, 1
  11              		.eabi_attribute 18, 4
  12              		.file	"stm32f4xx_fsmc.c"
  13              		.text
  14              	.Ltext0:
  15              		.cfi_sections	.debug_frame
  16              		.align	1
  17              		.global	FSMC_NORSRAMDeInit
  18              		.syntax unified
  19              		.thumb
  20              		.thumb_func
  21              		.fpu fpv4-sp-d16
  23              	FSMC_NORSRAMDeInit:
  24              	.LFB110:
  25              		.file 1 "../STLibs//STM32F4xx_DSP_StdPeriph_Lib_V1.0.1/Libraries/STM32F4xx_StdPeriph_Driver/src/st
   1:../STLibs//STM32F4xx_DSP_StdPeriph_Lib_V1.0.1/Libraries/STM32F4xx_StdPeriph_Driver/src/stm32f4xx_fsmc.c **** /**
   2:../STLibs//STM32F4xx_DSP_StdPeriph_Lib_V1.0.1/Libraries/STM32F4xx_StdPeriph_Driver/src/stm32f4xx_fsmc.c ****   ******************************************************************************
   3:../STLibs//STM32F4xx_DSP_StdPeriph_Lib_V1.0.1/Libraries/STM32F4xx_StdPeriph_Driver/src/stm32f4xx_fsmc.c ****   * @file    stm32f4xx_fsmc.c
   4:../STLibs//STM32F4xx_DSP_StdPeriph_Lib_V1.0.1/Libraries/STM32F4xx_StdPeriph_Driver/src/stm32f4xx_fsmc.c ****   * @author  MCD Application Team
   5:../STLibs//STM32F4xx_DSP_StdPeriph_Lib_V1.0.1/Libraries/STM32F4xx_StdPeriph_Driver/src/stm32f4xx_fsmc.c ****   * @version V1.0.2
   6:../STLibs//STM32F4xx_DSP_StdPeriph_Lib_V1.0.1/Libraries/STM32F4xx_StdPeriph_Driver/src/stm32f4xx_fsmc.c ****   * @date    05-March-2012
   7:../STLibs//STM32F4xx_DSP_StdPeriph_Lib_V1.0.1/Libraries/STM32F4xx_StdPeriph_Driver/src/stm32f4xx_fsmc.c ****  * @brief    This file provides firmware functions to manage the following 
   8:../STLibs//STM32F4xx_DSP_StdPeriph_Lib_V1.0.1/Libraries/STM32F4xx_StdPeriph_Driver/src/stm32f4xx_fsmc.c ****   *          functionalities of the FSMC peripheral:           
   9:../STLibs//STM32F4xx_DSP_StdPeriph_Lib_V1.0.1/Libraries/STM32F4xx_StdPeriph_Driver/src/stm32f4xx_fsmc.c ****   *           - Interface with SRAM, PSRAM, NOR and OneNAND memories
  10:../STLibs//STM32F4xx_DSP_StdPeriph_Lib_V1.0.1/Libraries/STM32F4xx_StdPeriph_Driver/src/stm32f4xx_fsmc.c ****   *           - Interface with NAND memories
  11:../STLibs//STM32F4xx_DSP_StdPeriph_Lib_V1.0.1/Libraries/STM32F4xx_StdPeriph_Driver/src/stm32f4xx_fsmc.c ****   *           - Interface with 16-bit PC Card compatible memories  
  12:../STLibs//STM32F4xx_DSP_StdPeriph_Lib_V1.0.1/Libraries/STM32F4xx_StdPeriph_Driver/src/stm32f4xx_fsmc.c ****   *           - Interrupts and flags management   
  13:../STLibs//STM32F4xx_DSP_StdPeriph_Lib_V1.0.1/Libraries/STM32F4xx_StdPeriph_Driver/src/stm32f4xx_fsmc.c ****   *           
  14:../STLibs//STM32F4xx_DSP_StdPeriph_Lib_V1.0.1/Libraries/STM32F4xx_StdPeriph_Driver/src/stm32f4xx_fsmc.c ****   ******************************************************************************
  15:../STLibs//STM32F4xx_DSP_StdPeriph_Lib_V1.0.1/Libraries/STM32F4xx_StdPeriph_Driver/src/stm32f4xx_fsmc.c ****   * @attention
  16:../STLibs//STM32F4xx_DSP_StdPeriph_Lib_V1.0.1/Libraries/STM32F4xx_StdPeriph_Driver/src/stm32f4xx_fsmc.c ****   *
  17:../STLibs//STM32F4xx_DSP_StdPeriph_Lib_V1.0.1/Libraries/STM32F4xx_StdPeriph_Driver/src/stm32f4xx_fsmc.c ****   * <h2><center>&copy; COPYRIGHT 2012 STMicroelectronics</center></h2>
  18:../STLibs//STM32F4xx_DSP_StdPeriph_Lib_V1.0.1/Libraries/STM32F4xx_StdPeriph_Driver/src/stm32f4xx_fsmc.c ****   *
  19:../STLibs//STM32F4xx_DSP_StdPeriph_Lib_V1.0.1/Libraries/STM32F4xx_StdPeriph_Driver/src/stm32f4xx_fsmc.c ****   * Licensed under MCD-ST Liberty SW License Agreement V2, (the "License");
  20:../STLibs//STM32F4xx_DSP_StdPeriph_Lib_V1.0.1/Libraries/STM32F4xx_StdPeriph_Driver/src/stm32f4xx_fsmc.c ****   * You may not use this file except in compliance with the License.
  21:../STLibs//STM32F4xx_DSP_StdPeriph_Lib_V1.0.1/Libraries/STM32F4xx_StdPeriph_Driver/src/stm32f4xx_fsmc.c ****   * You may obtain a copy of the License at:
  22:../STLibs//STM32F4xx_DSP_StdPeriph_Lib_V1.0.1/Libraries/STM32F4xx_StdPeriph_Driver/src/stm32f4xx_fsmc.c ****   *
  23:../STLibs//STM32F4xx_DSP_StdPeriph_Lib_V1.0.1/Libraries/STM32F4xx_StdPeriph_Driver/src/stm32f4xx_fsmc.c ****   *        http://www.st.com/software_license_agreement_liberty_v2
  24:../STLibs//STM32F4xx_DSP_StdPeriph_Lib_V1.0.1/Libraries/STM32F4xx_StdPeriph_Driver/src/stm32f4xx_fsmc.c ****   *
  25:../STLibs//STM32F4xx_DSP_StdPeriph_Lib_V1.0.1/Libraries/STM32F4xx_StdPeriph_Driver/src/stm32f4xx_fsmc.c ****   * Unless required by applicable law or agreed to in writing, software 
  26:../STLibs//STM32F4xx_DSP_StdPeriph_Lib_V1.0.1/Libraries/STM32F4xx_StdPeriph_Driver/src/stm32f4xx_fsmc.c ****   * distributed under the License is distributed on an "AS IS" BASIS, 
  27:../STLibs//STM32F4xx_DSP_StdPeriph_Lib_V1.0.1/Libraries/STM32F4xx_StdPeriph_Driver/src/stm32f4xx_fsmc.c ****   * WITHOUT WARRANTIES OR CONDITIONS OF ANY KIND, either express or implied.
  28:../STLibs//STM32F4xx_DSP_StdPeriph_Lib_V1.0.1/Libraries/STM32F4xx_StdPeriph_Driver/src/stm32f4xx_fsmc.c ****   * See the License for the specific language governing permissions and
  29:../STLibs//STM32F4xx_DSP_StdPeriph_Lib_V1.0.1/Libraries/STM32F4xx_StdPeriph_Driver/src/stm32f4xx_fsmc.c ****   * limitations under the License.
  30:../STLibs//STM32F4xx_DSP_StdPeriph_Lib_V1.0.1/Libraries/STM32F4xx_StdPeriph_Driver/src/stm32f4xx_fsmc.c ****   *
  31:../STLibs//STM32F4xx_DSP_StdPeriph_Lib_V1.0.1/Libraries/STM32F4xx_StdPeriph_Driver/src/stm32f4xx_fsmc.c ****   ******************************************************************************
  32:../STLibs//STM32F4xx_DSP_StdPeriph_Lib_V1.0.1/Libraries/STM32F4xx_StdPeriph_Driver/src/stm32f4xx_fsmc.c ****   */
  33:../STLibs//STM32F4xx_DSP_StdPeriph_Lib_V1.0.1/Libraries/STM32F4xx_StdPeriph_Driver/src/stm32f4xx_fsmc.c **** 
  34:../STLibs//STM32F4xx_DSP_StdPeriph_Lib_V1.0.1/Libraries/STM32F4xx_StdPeriph_Driver/src/stm32f4xx_fsmc.c **** /* Includes ------------------------------------------------------------------*/
  35:../STLibs//STM32F4xx_DSP_StdPeriph_Lib_V1.0.1/Libraries/STM32F4xx_StdPeriph_Driver/src/stm32f4xx_fsmc.c **** #include "stm32f4xx_fsmc.h"
  36:../STLibs//STM32F4xx_DSP_StdPeriph_Lib_V1.0.1/Libraries/STM32F4xx_StdPeriph_Driver/src/stm32f4xx_fsmc.c **** #include "stm32f4xx_rcc.h"
  37:../STLibs//STM32F4xx_DSP_StdPeriph_Lib_V1.0.1/Libraries/STM32F4xx_StdPeriph_Driver/src/stm32f4xx_fsmc.c **** 
  38:../STLibs//STM32F4xx_DSP_StdPeriph_Lib_V1.0.1/Libraries/STM32F4xx_StdPeriph_Driver/src/stm32f4xx_fsmc.c **** /** @addtogroup STM32F4xx_StdPeriph_Driver
  39:../STLibs//STM32F4xx_DSP_StdPeriph_Lib_V1.0.1/Libraries/STM32F4xx_StdPeriph_Driver/src/stm32f4xx_fsmc.c ****   * @{
  40:../STLibs//STM32F4xx_DSP_StdPeriph_Lib_V1.0.1/Libraries/STM32F4xx_StdPeriph_Driver/src/stm32f4xx_fsmc.c ****   */
  41:../STLibs//STM32F4xx_DSP_StdPeriph_Lib_V1.0.1/Libraries/STM32F4xx_StdPeriph_Driver/src/stm32f4xx_fsmc.c **** 
  42:../STLibs//STM32F4xx_DSP_StdPeriph_Lib_V1.0.1/Libraries/STM32F4xx_StdPeriph_Driver/src/stm32f4xx_fsmc.c **** /** @defgroup FSMC 
  43:../STLibs//STM32F4xx_DSP_StdPeriph_Lib_V1.0.1/Libraries/STM32F4xx_StdPeriph_Driver/src/stm32f4xx_fsmc.c ****   * @brief FSMC driver modules
  44:../STLibs//STM32F4xx_DSP_StdPeriph_Lib_V1.0.1/Libraries/STM32F4xx_StdPeriph_Driver/src/stm32f4xx_fsmc.c ****   * @{
  45:../STLibs//STM32F4xx_DSP_StdPeriph_Lib_V1.0.1/Libraries/STM32F4xx_StdPeriph_Driver/src/stm32f4xx_fsmc.c ****   */ 
  46:../STLibs//STM32F4xx_DSP_StdPeriph_Lib_V1.0.1/Libraries/STM32F4xx_StdPeriph_Driver/src/stm32f4xx_fsmc.c **** 
  47:../STLibs//STM32F4xx_DSP_StdPeriph_Lib_V1.0.1/Libraries/STM32F4xx_StdPeriph_Driver/src/stm32f4xx_fsmc.c **** /* Private typedef -----------------------------------------------------------*/
  48:../STLibs//STM32F4xx_DSP_StdPeriph_Lib_V1.0.1/Libraries/STM32F4xx_StdPeriph_Driver/src/stm32f4xx_fsmc.c **** /* Private define ------------------------------------------------------------*/
  49:../STLibs//STM32F4xx_DSP_StdPeriph_Lib_V1.0.1/Libraries/STM32F4xx_StdPeriph_Driver/src/stm32f4xx_fsmc.c **** 
  50:../STLibs//STM32F4xx_DSP_StdPeriph_Lib_V1.0.1/Libraries/STM32F4xx_StdPeriph_Driver/src/stm32f4xx_fsmc.c **** /* --------------------- FSMC registers bit mask ---------------------------- */
  51:../STLibs//STM32F4xx_DSP_StdPeriph_Lib_V1.0.1/Libraries/STM32F4xx_StdPeriph_Driver/src/stm32f4xx_fsmc.c **** /* FSMC BCRx Mask */
  52:../STLibs//STM32F4xx_DSP_StdPeriph_Lib_V1.0.1/Libraries/STM32F4xx_StdPeriph_Driver/src/stm32f4xx_fsmc.c **** #define BCR_MBKEN_SET          ((uint32_t)0x00000001)
  53:../STLibs//STM32F4xx_DSP_StdPeriph_Lib_V1.0.1/Libraries/STM32F4xx_StdPeriph_Driver/src/stm32f4xx_fsmc.c **** #define BCR_MBKEN_RESET        ((uint32_t)0x000FFFFE)
  54:../STLibs//STM32F4xx_DSP_StdPeriph_Lib_V1.0.1/Libraries/STM32F4xx_StdPeriph_Driver/src/stm32f4xx_fsmc.c **** #define BCR_FACCEN_SET         ((uint32_t)0x00000040)
  55:../STLibs//STM32F4xx_DSP_StdPeriph_Lib_V1.0.1/Libraries/STM32F4xx_StdPeriph_Driver/src/stm32f4xx_fsmc.c **** 
  56:../STLibs//STM32F4xx_DSP_StdPeriph_Lib_V1.0.1/Libraries/STM32F4xx_StdPeriph_Driver/src/stm32f4xx_fsmc.c **** /* FSMC PCRx Mask */
  57:../STLibs//STM32F4xx_DSP_StdPeriph_Lib_V1.0.1/Libraries/STM32F4xx_StdPeriph_Driver/src/stm32f4xx_fsmc.c **** #define PCR_PBKEN_SET          ((uint32_t)0x00000004)
  58:../STLibs//STM32F4xx_DSP_StdPeriph_Lib_V1.0.1/Libraries/STM32F4xx_StdPeriph_Driver/src/stm32f4xx_fsmc.c **** #define PCR_PBKEN_RESET        ((uint32_t)0x000FFFFB)
  59:../STLibs//STM32F4xx_DSP_StdPeriph_Lib_V1.0.1/Libraries/STM32F4xx_StdPeriph_Driver/src/stm32f4xx_fsmc.c **** #define PCR_ECCEN_SET          ((uint32_t)0x00000040)
  60:../STLibs//STM32F4xx_DSP_StdPeriph_Lib_V1.0.1/Libraries/STM32F4xx_StdPeriph_Driver/src/stm32f4xx_fsmc.c **** #define PCR_ECCEN_RESET        ((uint32_t)0x000FFFBF)
  61:../STLibs//STM32F4xx_DSP_StdPeriph_Lib_V1.0.1/Libraries/STM32F4xx_StdPeriph_Driver/src/stm32f4xx_fsmc.c **** #define PCR_MEMORYTYPE_NAND    ((uint32_t)0x00000008)
  62:../STLibs//STM32F4xx_DSP_StdPeriph_Lib_V1.0.1/Libraries/STM32F4xx_StdPeriph_Driver/src/stm32f4xx_fsmc.c **** 
  63:../STLibs//STM32F4xx_DSP_StdPeriph_Lib_V1.0.1/Libraries/STM32F4xx_StdPeriph_Driver/src/stm32f4xx_fsmc.c **** /* Private macro -------------------------------------------------------------*/
  64:../STLibs//STM32F4xx_DSP_StdPeriph_Lib_V1.0.1/Libraries/STM32F4xx_StdPeriph_Driver/src/stm32f4xx_fsmc.c **** /* Private variables ---------------------------------------------------------*/
  65:../STLibs//STM32F4xx_DSP_StdPeriph_Lib_V1.0.1/Libraries/STM32F4xx_StdPeriph_Driver/src/stm32f4xx_fsmc.c **** /* Private function prototypes -----------------------------------------------*/
  66:../STLibs//STM32F4xx_DSP_StdPeriph_Lib_V1.0.1/Libraries/STM32F4xx_StdPeriph_Driver/src/stm32f4xx_fsmc.c **** /* Private functions ---------------------------------------------------------*/
  67:../STLibs//STM32F4xx_DSP_StdPeriph_Lib_V1.0.1/Libraries/STM32F4xx_StdPeriph_Driver/src/stm32f4xx_fsmc.c **** 
  68:../STLibs//STM32F4xx_DSP_StdPeriph_Lib_V1.0.1/Libraries/STM32F4xx_StdPeriph_Driver/src/stm32f4xx_fsmc.c **** /** @defgroup FSMC_Private_Functions
  69:../STLibs//STM32F4xx_DSP_StdPeriph_Lib_V1.0.1/Libraries/STM32F4xx_StdPeriph_Driver/src/stm32f4xx_fsmc.c ****   * @{
  70:../STLibs//STM32F4xx_DSP_StdPeriph_Lib_V1.0.1/Libraries/STM32F4xx_StdPeriph_Driver/src/stm32f4xx_fsmc.c ****   */
  71:../STLibs//STM32F4xx_DSP_StdPeriph_Lib_V1.0.1/Libraries/STM32F4xx_StdPeriph_Driver/src/stm32f4xx_fsmc.c **** 
  72:../STLibs//STM32F4xx_DSP_StdPeriph_Lib_V1.0.1/Libraries/STM32F4xx_StdPeriph_Driver/src/stm32f4xx_fsmc.c **** /** @defgroup FSMC_Group1 NOR/SRAM Controller functions
  73:../STLibs//STM32F4xx_DSP_StdPeriph_Lib_V1.0.1/Libraries/STM32F4xx_StdPeriph_Driver/src/stm32f4xx_fsmc.c ****  *  @brief   NOR/SRAM Controller functions 
  74:../STLibs//STM32F4xx_DSP_StdPeriph_Lib_V1.0.1/Libraries/STM32F4xx_StdPeriph_Driver/src/stm32f4xx_fsmc.c ****  *
  75:../STLibs//STM32F4xx_DSP_StdPeriph_Lib_V1.0.1/Libraries/STM32F4xx_StdPeriph_Driver/src/stm32f4xx_fsmc.c **** @verbatim   
  76:../STLibs//STM32F4xx_DSP_StdPeriph_Lib_V1.0.1/Libraries/STM32F4xx_StdPeriph_Driver/src/stm32f4xx_fsmc.c ****  ===============================================================================
  77:../STLibs//STM32F4xx_DSP_StdPeriph_Lib_V1.0.1/Libraries/STM32F4xx_StdPeriph_Driver/src/stm32f4xx_fsmc.c ****                     NOR/SRAM Controller functions
  78:../STLibs//STM32F4xx_DSP_StdPeriph_Lib_V1.0.1/Libraries/STM32F4xx_StdPeriph_Driver/src/stm32f4xx_fsmc.c ****  ===============================================================================  
  79:../STLibs//STM32F4xx_DSP_StdPeriph_Lib_V1.0.1/Libraries/STM32F4xx_StdPeriph_Driver/src/stm32f4xx_fsmc.c **** 
  80:../STLibs//STM32F4xx_DSP_StdPeriph_Lib_V1.0.1/Libraries/STM32F4xx_StdPeriph_Driver/src/stm32f4xx_fsmc.c ****  The following sequence should be followed to configure the FSMC to interface with
  81:../STLibs//STM32F4xx_DSP_StdPeriph_Lib_V1.0.1/Libraries/STM32F4xx_StdPeriph_Driver/src/stm32f4xx_fsmc.c ****  SRAM, PSRAM, NOR or OneNAND memory connected to the NOR/SRAM Bank:
  82:../STLibs//STM32F4xx_DSP_StdPeriph_Lib_V1.0.1/Libraries/STM32F4xx_StdPeriph_Driver/src/stm32f4xx_fsmc.c ****  
  83:../STLibs//STM32F4xx_DSP_StdPeriph_Lib_V1.0.1/Libraries/STM32F4xx_StdPeriph_Driver/src/stm32f4xx_fsmc.c ****    1. Enable the clock for the FSMC and associated GPIOs using the following functions:
  84:../STLibs//STM32F4xx_DSP_StdPeriph_Lib_V1.0.1/Libraries/STM32F4xx_StdPeriph_Driver/src/stm32f4xx_fsmc.c ****           RCC_AHB3PeriphClockCmd(RCC_AHB3Periph_FSMC, ENABLE);
  85:../STLibs//STM32F4xx_DSP_StdPeriph_Lib_V1.0.1/Libraries/STM32F4xx_StdPeriph_Driver/src/stm32f4xx_fsmc.c ****           RCC_AHB1PeriphClockCmd(RCC_AHB1Periph_GPIOx, ENABLE);
  86:../STLibs//STM32F4xx_DSP_StdPeriph_Lib_V1.0.1/Libraries/STM32F4xx_StdPeriph_Driver/src/stm32f4xx_fsmc.c **** 
  87:../STLibs//STM32F4xx_DSP_StdPeriph_Lib_V1.0.1/Libraries/STM32F4xx_StdPeriph_Driver/src/stm32f4xx_fsmc.c ****    2. FSMC pins configuration 
  88:../STLibs//STM32F4xx_DSP_StdPeriph_Lib_V1.0.1/Libraries/STM32F4xx_StdPeriph_Driver/src/stm32f4xx_fsmc.c ****        - Connect the involved FSMC pins to AF12 using the following function 
  89:../STLibs//STM32F4xx_DSP_StdPeriph_Lib_V1.0.1/Libraries/STM32F4xx_StdPeriph_Driver/src/stm32f4xx_fsmc.c ****           GPIO_PinAFConfig(GPIOx, GPIO_PinSourcex, GPIO_AF_FSMC); 
  90:../STLibs//STM32F4xx_DSP_StdPeriph_Lib_V1.0.1/Libraries/STM32F4xx_StdPeriph_Driver/src/stm32f4xx_fsmc.c ****        - Configure these FSMC pins in alternate function mode by calling the function
  91:../STLibs//STM32F4xx_DSP_StdPeriph_Lib_V1.0.1/Libraries/STM32F4xx_StdPeriph_Driver/src/stm32f4xx_fsmc.c ****           GPIO_Init();    
  92:../STLibs//STM32F4xx_DSP_StdPeriph_Lib_V1.0.1/Libraries/STM32F4xx_StdPeriph_Driver/src/stm32f4xx_fsmc.c ****        
  93:../STLibs//STM32F4xx_DSP_StdPeriph_Lib_V1.0.1/Libraries/STM32F4xx_StdPeriph_Driver/src/stm32f4xx_fsmc.c ****    3. Declare a FSMC_NORSRAMInitTypeDef structure, for example:
  94:../STLibs//STM32F4xx_DSP_StdPeriph_Lib_V1.0.1/Libraries/STM32F4xx_StdPeriph_Driver/src/stm32f4xx_fsmc.c ****           FSMC_NORSRAMInitTypeDef  FSMC_NORSRAMInitStructure;
  95:../STLibs//STM32F4xx_DSP_StdPeriph_Lib_V1.0.1/Libraries/STM32F4xx_StdPeriph_Driver/src/stm32f4xx_fsmc.c ****       and fill the FSMC_NORSRAMInitStructure variable with the allowed values of
  96:../STLibs//STM32F4xx_DSP_StdPeriph_Lib_V1.0.1/Libraries/STM32F4xx_StdPeriph_Driver/src/stm32f4xx_fsmc.c ****       the structure member.
  97:../STLibs//STM32F4xx_DSP_StdPeriph_Lib_V1.0.1/Libraries/STM32F4xx_StdPeriph_Driver/src/stm32f4xx_fsmc.c ****       
  98:../STLibs//STM32F4xx_DSP_StdPeriph_Lib_V1.0.1/Libraries/STM32F4xx_StdPeriph_Driver/src/stm32f4xx_fsmc.c ****    4. Initialize the NOR/SRAM Controller by calling the function
  99:../STLibs//STM32F4xx_DSP_StdPeriph_Lib_V1.0.1/Libraries/STM32F4xx_StdPeriph_Driver/src/stm32f4xx_fsmc.c ****           FSMC_NORSRAMInit(&FSMC_NORSRAMInitStructure); 
 100:../STLibs//STM32F4xx_DSP_StdPeriph_Lib_V1.0.1/Libraries/STM32F4xx_StdPeriph_Driver/src/stm32f4xx_fsmc.c **** 
 101:../STLibs//STM32F4xx_DSP_StdPeriph_Lib_V1.0.1/Libraries/STM32F4xx_StdPeriph_Driver/src/stm32f4xx_fsmc.c ****    5. Then enable the NOR/SRAM Bank, for example:
 102:../STLibs//STM32F4xx_DSP_StdPeriph_Lib_V1.0.1/Libraries/STM32F4xx_StdPeriph_Driver/src/stm32f4xx_fsmc.c ****           FSMC_NORSRAMCmd(FSMC_Bank1_NORSRAM2, ENABLE);  
 103:../STLibs//STM32F4xx_DSP_StdPeriph_Lib_V1.0.1/Libraries/STM32F4xx_StdPeriph_Driver/src/stm32f4xx_fsmc.c **** 
 104:../STLibs//STM32F4xx_DSP_StdPeriph_Lib_V1.0.1/Libraries/STM32F4xx_StdPeriph_Driver/src/stm32f4xx_fsmc.c ****    6. At this stage you can read/write from/to the memory connected to the NOR/SRAM Bank. 
 105:../STLibs//STM32F4xx_DSP_StdPeriph_Lib_V1.0.1/Libraries/STM32F4xx_StdPeriph_Driver/src/stm32f4xx_fsmc.c ****    
 106:../STLibs//STM32F4xx_DSP_StdPeriph_Lib_V1.0.1/Libraries/STM32F4xx_StdPeriph_Driver/src/stm32f4xx_fsmc.c **** @endverbatim
 107:../STLibs//STM32F4xx_DSP_StdPeriph_Lib_V1.0.1/Libraries/STM32F4xx_StdPeriph_Driver/src/stm32f4xx_fsmc.c ****   * @{
 108:../STLibs//STM32F4xx_DSP_StdPeriph_Lib_V1.0.1/Libraries/STM32F4xx_StdPeriph_Driver/src/stm32f4xx_fsmc.c ****   */
 109:../STLibs//STM32F4xx_DSP_StdPeriph_Lib_V1.0.1/Libraries/STM32F4xx_StdPeriph_Driver/src/stm32f4xx_fsmc.c **** 
 110:../STLibs//STM32F4xx_DSP_StdPeriph_Lib_V1.0.1/Libraries/STM32F4xx_StdPeriph_Driver/src/stm32f4xx_fsmc.c **** /**
 111:../STLibs//STM32F4xx_DSP_StdPeriph_Lib_V1.0.1/Libraries/STM32F4xx_StdPeriph_Driver/src/stm32f4xx_fsmc.c ****   * @brief  Deinitializes the FSMC NOR/SRAM Banks registers to their default 
 112:../STLibs//STM32F4xx_DSP_StdPeriph_Lib_V1.0.1/Libraries/STM32F4xx_StdPeriph_Driver/src/stm32f4xx_fsmc.c ****   *   reset values.
 113:../STLibs//STM32F4xx_DSP_StdPeriph_Lib_V1.0.1/Libraries/STM32F4xx_StdPeriph_Driver/src/stm32f4xx_fsmc.c ****   * @param  FSMC_Bank: specifies the FSMC Bank to be used
 114:../STLibs//STM32F4xx_DSP_StdPeriph_Lib_V1.0.1/Libraries/STM32F4xx_StdPeriph_Driver/src/stm32f4xx_fsmc.c ****   *          This parameter can be one of the following values:
 115:../STLibs//STM32F4xx_DSP_StdPeriph_Lib_V1.0.1/Libraries/STM32F4xx_StdPeriph_Driver/src/stm32f4xx_fsmc.c ****   *            @arg FSMC_Bank1_NORSRAM1: FSMC Bank1 NOR/SRAM1  
 116:../STLibs//STM32F4xx_DSP_StdPeriph_Lib_V1.0.1/Libraries/STM32F4xx_StdPeriph_Driver/src/stm32f4xx_fsmc.c ****   *            @arg FSMC_Bank1_NORSRAM2: FSMC Bank1 NOR/SRAM2 
 117:../STLibs//STM32F4xx_DSP_StdPeriph_Lib_V1.0.1/Libraries/STM32F4xx_StdPeriph_Driver/src/stm32f4xx_fsmc.c ****   *            @arg FSMC_Bank1_NORSRAM3: FSMC Bank1 NOR/SRAM3 
 118:../STLibs//STM32F4xx_DSP_StdPeriph_Lib_V1.0.1/Libraries/STM32F4xx_StdPeriph_Driver/src/stm32f4xx_fsmc.c ****   *            @arg FSMC_Bank1_NORSRAM4: FSMC Bank1 NOR/SRAM4 
 119:../STLibs//STM32F4xx_DSP_StdPeriph_Lib_V1.0.1/Libraries/STM32F4xx_StdPeriph_Driver/src/stm32f4xx_fsmc.c ****   * @retval None
 120:../STLibs//STM32F4xx_DSP_StdPeriph_Lib_V1.0.1/Libraries/STM32F4xx_StdPeriph_Driver/src/stm32f4xx_fsmc.c ****   */
 121:../STLibs//STM32F4xx_DSP_StdPeriph_Lib_V1.0.1/Libraries/STM32F4xx_StdPeriph_Driver/src/stm32f4xx_fsmc.c **** void FSMC_NORSRAMDeInit(uint32_t FSMC_Bank)
 122:../STLibs//STM32F4xx_DSP_StdPeriph_Lib_V1.0.1/Libraries/STM32F4xx_StdPeriph_Driver/src/stm32f4xx_fsmc.c **** {
  26              		.loc 1 122 0
  27              		.cfi_startproc
  28              		@ args = 0, pretend = 0, frame = 0
  29              		@ frame_needed = 0, uses_anonymous_args = 0
  30              		@ link register save eliminated.
  31              	.LVL0:
  32 0000 4FF02043 		mov	r3, #-1610612736
 123:../STLibs//STM32F4xx_DSP_StdPeriph_Lib_V1.0.1/Libraries/STM32F4xx_StdPeriph_Driver/src/stm32f4xx_fsmc.c ****   /* Check the parameter */
 124:../STLibs//STM32F4xx_DSP_StdPeriph_Lib_V1.0.1/Libraries/STM32F4xx_StdPeriph_Driver/src/stm32f4xx_fsmc.c ****   assert_param(IS_FSMC_NORSRAM_BANK(FSMC_Bank));
 125:../STLibs//STM32F4xx_DSP_StdPeriph_Lib_V1.0.1/Libraries/STM32F4xx_StdPeriph_Driver/src/stm32f4xx_fsmc.c ****   
 126:../STLibs//STM32F4xx_DSP_StdPeriph_Lib_V1.0.1/Libraries/STM32F4xx_StdPeriph_Driver/src/stm32f4xx_fsmc.c ****   /* FSMC_Bank1_NORSRAM1 */
 127:../STLibs//STM32F4xx_DSP_StdPeriph_Lib_V1.0.1/Libraries/STM32F4xx_StdPeriph_Driver/src/stm32f4xx_fsmc.c ****   if(FSMC_Bank == FSMC_Bank1_NORSRAM1)
  33              		.loc 1 127 0
  34 0004 58B9     		cbnz	r0, .L2
 128:../STLibs//STM32F4xx_DSP_StdPeriph_Lib_V1.0.1/Libraries/STM32F4xx_StdPeriph_Driver/src/stm32f4xx_fsmc.c ****   {
 129:../STLibs//STM32F4xx_DSP_StdPeriph_Lib_V1.0.1/Libraries/STM32F4xx_StdPeriph_Driver/src/stm32f4xx_fsmc.c ****     FSMC_Bank1->BTCR[FSMC_Bank] = 0x000030DB;    
  35              		.loc 1 129 0
  36 0006 43F2DB02 		movw	r2, #12507
  37 000a 1A60     		str	r2, [r3]
  38              	.L3:
  39 000c 8000     		lsls	r0, r0, #2
  40              	.LVL1:
  41 000e 00F12040 		add	r0, r0, #-1610612736
 130:../STLibs//STM32F4xx_DSP_StdPeriph_Lib_V1.0.1/Libraries/STM32F4xx_StdPeriph_Driver/src/stm32f4xx_fsmc.c ****   }
 131:../STLibs//STM32F4xx_DSP_StdPeriph_Lib_V1.0.1/Libraries/STM32F4xx_StdPeriph_Driver/src/stm32f4xx_fsmc.c ****   /* FSMC_Bank1_NORSRAM2,  FSMC_Bank1_NORSRAM3 or FSMC_Bank1_NORSRAM4 */
 132:../STLibs//STM32F4xx_DSP_StdPeriph_Lib_V1.0.1/Libraries/STM32F4xx_StdPeriph_Driver/src/stm32f4xx_fsmc.c ****   else
 133:../STLibs//STM32F4xx_DSP_StdPeriph_Lib_V1.0.1/Libraries/STM32F4xx_StdPeriph_Driver/src/stm32f4xx_fsmc.c ****   {   
 134:../STLibs//STM32F4xx_DSP_StdPeriph_Lib_V1.0.1/Libraries/STM32F4xx_StdPeriph_Driver/src/stm32f4xx_fsmc.c ****     FSMC_Bank1->BTCR[FSMC_Bank] = 0x000030D2; 
 135:../STLibs//STM32F4xx_DSP_StdPeriph_Lib_V1.0.1/Libraries/STM32F4xx_StdPeriph_Driver/src/stm32f4xx_fsmc.c ****   }
 136:../STLibs//STM32F4xx_DSP_StdPeriph_Lib_V1.0.1/Libraries/STM32F4xx_StdPeriph_Driver/src/stm32f4xx_fsmc.c ****   FSMC_Bank1->BTCR[FSMC_Bank + 1] = 0x0FFFFFFF;
  42              		.loc 1 136 0
  43 0012 6FF07043 		mvn	r3, #-268435456
  44 0016 4360     		str	r3, [r0, #4]
 137:../STLibs//STM32F4xx_DSP_StdPeriph_Lib_V1.0.1/Libraries/STM32F4xx_StdPeriph_Driver/src/stm32f4xx_fsmc.c ****   FSMC_Bank1E->BWTR[FSMC_Bank] = 0x0FFFFFFF;  
  45              		.loc 1 137 0
  46 0018 C0F80431 		str	r3, [r0, #260]
 138:../STLibs//STM32F4xx_DSP_StdPeriph_Lib_V1.0.1/Libraries/STM32F4xx_StdPeriph_Driver/src/stm32f4xx_fsmc.c **** }
  47              		.loc 1 138 0
  48 001c 7047     		bx	lr
  49              	.LVL2:
  50              	.L2:
 134:../STLibs//STM32F4xx_DSP_StdPeriph_Lib_V1.0.1/Libraries/STM32F4xx_StdPeriph_Driver/src/stm32f4xx_fsmc.c ****   }
  51              		.loc 1 134 0
  52 001e 43F2D202 		movw	r2, #12498
  53 0022 43F82020 		str	r2, [r3, r0, lsl #2]
  54 0026 F1E7     		b	.L3
  55              		.cfi_endproc
  56              	.LFE110:
  58              		.align	1
  59              		.global	FSMC_NORSRAMInit
  60              		.syntax unified
  61              		.thumb
  62              		.thumb_func
  63              		.fpu fpv4-sp-d16
  65              	FSMC_NORSRAMInit:
  66              	.LFB111:
 139:../STLibs//STM32F4xx_DSP_StdPeriph_Lib_V1.0.1/Libraries/STM32F4xx_StdPeriph_Driver/src/stm32f4xx_fsmc.c **** 
 140:../STLibs//STM32F4xx_DSP_StdPeriph_Lib_V1.0.1/Libraries/STM32F4xx_StdPeriph_Driver/src/stm32f4xx_fsmc.c **** /**
 141:../STLibs//STM32F4xx_DSP_StdPeriph_Lib_V1.0.1/Libraries/STM32F4xx_StdPeriph_Driver/src/stm32f4xx_fsmc.c ****   * @brief  Initializes the FSMC NOR/SRAM Banks according to the specified
 142:../STLibs//STM32F4xx_DSP_StdPeriph_Lib_V1.0.1/Libraries/STM32F4xx_StdPeriph_Driver/src/stm32f4xx_fsmc.c ****   *         parameters in the FSMC_NORSRAMInitStruct.
 143:../STLibs//STM32F4xx_DSP_StdPeriph_Lib_V1.0.1/Libraries/STM32F4xx_StdPeriph_Driver/src/stm32f4xx_fsmc.c ****   * @param  FSMC_NORSRAMInitStruct : pointer to a FSMC_NORSRAMInitTypeDef structure
 144:../STLibs//STM32F4xx_DSP_StdPeriph_Lib_V1.0.1/Libraries/STM32F4xx_StdPeriph_Driver/src/stm32f4xx_fsmc.c ****   *         that contains the configuration information for the FSMC NOR/SRAM 
 145:../STLibs//STM32F4xx_DSP_StdPeriph_Lib_V1.0.1/Libraries/STM32F4xx_StdPeriph_Driver/src/stm32f4xx_fsmc.c ****   *         specified Banks.                       
 146:../STLibs//STM32F4xx_DSP_StdPeriph_Lib_V1.0.1/Libraries/STM32F4xx_StdPeriph_Driver/src/stm32f4xx_fsmc.c ****   * @retval None
 147:../STLibs//STM32F4xx_DSP_StdPeriph_Lib_V1.0.1/Libraries/STM32F4xx_StdPeriph_Driver/src/stm32f4xx_fsmc.c ****   */
 148:../STLibs//STM32F4xx_DSP_StdPeriph_Lib_V1.0.1/Libraries/STM32F4xx_StdPeriph_Driver/src/stm32f4xx_fsmc.c **** void FSMC_NORSRAMInit(FSMC_NORSRAMInitTypeDef* FSMC_NORSRAMInitStruct)
 149:../STLibs//STM32F4xx_DSP_StdPeriph_Lib_V1.0.1/Libraries/STM32F4xx_StdPeriph_Driver/src/stm32f4xx_fsmc.c **** { 
  67              		.loc 1 149 0
  68              		.cfi_startproc
  69              		@ args = 0, pretend = 0, frame = 0
  70              		@ frame_needed = 0, uses_anonymous_args = 0
  71              	.LVL3:
 150:../STLibs//STM32F4xx_DSP_StdPeriph_Lib_V1.0.1/Libraries/STM32F4xx_StdPeriph_Driver/src/stm32f4xx_fsmc.c ****   /* Check the parameters */
 151:../STLibs//STM32F4xx_DSP_StdPeriph_Lib_V1.0.1/Libraries/STM32F4xx_StdPeriph_Driver/src/stm32f4xx_fsmc.c ****   assert_param(IS_FSMC_NORSRAM_BANK(FSMC_NORSRAMInitStruct->FSMC_Bank));
 152:../STLibs//STM32F4xx_DSP_StdPeriph_Lib_V1.0.1/Libraries/STM32F4xx_StdPeriph_Driver/src/stm32f4xx_fsmc.c ****   assert_param(IS_FSMC_MUX(FSMC_NORSRAMInitStruct->FSMC_DataAddressMux));
 153:../STLibs//STM32F4xx_DSP_StdPeriph_Lib_V1.0.1/Libraries/STM32F4xx_StdPeriph_Driver/src/stm32f4xx_fsmc.c ****   assert_param(IS_FSMC_MEMORY(FSMC_NORSRAMInitStruct->FSMC_MemoryType));
 154:../STLibs//STM32F4xx_DSP_StdPeriph_Lib_V1.0.1/Libraries/STM32F4xx_StdPeriph_Driver/src/stm32f4xx_fsmc.c ****   assert_param(IS_FSMC_MEMORY_WIDTH(FSMC_NORSRAMInitStruct->FSMC_MemoryDataWidth));
 155:../STLibs//STM32F4xx_DSP_StdPeriph_Lib_V1.0.1/Libraries/STM32F4xx_StdPeriph_Driver/src/stm32f4xx_fsmc.c ****   assert_param(IS_FSMC_BURSTMODE(FSMC_NORSRAMInitStruct->FSMC_BurstAccessMode));
 156:../STLibs//STM32F4xx_DSP_StdPeriph_Lib_V1.0.1/Libraries/STM32F4xx_StdPeriph_Driver/src/stm32f4xx_fsmc.c ****   assert_param(IS_FSMC_ASYNWAIT(FSMC_NORSRAMInitStruct->FSMC_AsynchronousWait));
 157:../STLibs//STM32F4xx_DSP_StdPeriph_Lib_V1.0.1/Libraries/STM32F4xx_StdPeriph_Driver/src/stm32f4xx_fsmc.c ****   assert_param(IS_FSMC_WAIT_POLARITY(FSMC_NORSRAMInitStruct->FSMC_WaitSignalPolarity));
 158:../STLibs//STM32F4xx_DSP_StdPeriph_Lib_V1.0.1/Libraries/STM32F4xx_StdPeriph_Driver/src/stm32f4xx_fsmc.c ****   assert_param(IS_FSMC_WRAP_MODE(FSMC_NORSRAMInitStruct->FSMC_WrapMode));
 159:../STLibs//STM32F4xx_DSP_StdPeriph_Lib_V1.0.1/Libraries/STM32F4xx_StdPeriph_Driver/src/stm32f4xx_fsmc.c ****   assert_param(IS_FSMC_WAIT_SIGNAL_ACTIVE(FSMC_NORSRAMInitStruct->FSMC_WaitSignalActive));
 160:../STLibs//STM32F4xx_DSP_StdPeriph_Lib_V1.0.1/Libraries/STM32F4xx_StdPeriph_Driver/src/stm32f4xx_fsmc.c ****   assert_param(IS_FSMC_WRITE_OPERATION(FSMC_NORSRAMInitStruct->FSMC_WriteOperation));
 161:../STLibs//STM32F4xx_DSP_StdPeriph_Lib_V1.0.1/Libraries/STM32F4xx_StdPeriph_Driver/src/stm32f4xx_fsmc.c ****   assert_param(IS_FSMC_WAITE_SIGNAL(FSMC_NORSRAMInitStruct->FSMC_WaitSignal));
 162:../STLibs//STM32F4xx_DSP_StdPeriph_Lib_V1.0.1/Libraries/STM32F4xx_StdPeriph_Driver/src/stm32f4xx_fsmc.c ****   assert_param(IS_FSMC_EXTENDED_MODE(FSMC_NORSRAMInitStruct->FSMC_ExtendedMode));
 163:../STLibs//STM32F4xx_DSP_StdPeriph_Lib_V1.0.1/Libraries/STM32F4xx_StdPeriph_Driver/src/stm32f4xx_fsmc.c ****   assert_param(IS_FSMC_WRITE_BURST(FSMC_NORSRAMInitStruct->FSMC_WriteBurst));  
 164:../STLibs//STM32F4xx_DSP_StdPeriph_Lib_V1.0.1/Libraries/STM32F4xx_StdPeriph_Driver/src/stm32f4xx_fsmc.c ****   assert_param(IS_FSMC_ADDRESS_SETUP_TIME(FSMC_NORSRAMInitStruct->FSMC_ReadWriteTimingStruct->FSMC_
 165:../STLibs//STM32F4xx_DSP_StdPeriph_Lib_V1.0.1/Libraries/STM32F4xx_StdPeriph_Driver/src/stm32f4xx_fsmc.c ****   assert_param(IS_FSMC_ADDRESS_HOLD_TIME(FSMC_NORSRAMInitStruct->FSMC_ReadWriteTimingStruct->FSMC_A
 166:../STLibs//STM32F4xx_DSP_StdPeriph_Lib_V1.0.1/Libraries/STM32F4xx_StdPeriph_Driver/src/stm32f4xx_fsmc.c ****   assert_param(IS_FSMC_DATASETUP_TIME(FSMC_NORSRAMInitStruct->FSMC_ReadWriteTimingStruct->FSMC_Data
 167:../STLibs//STM32F4xx_DSP_StdPeriph_Lib_V1.0.1/Libraries/STM32F4xx_StdPeriph_Driver/src/stm32f4xx_fsmc.c ****   assert_param(IS_FSMC_TURNAROUND_TIME(FSMC_NORSRAMInitStruct->FSMC_ReadWriteTimingStruct->FSMC_Bus
 168:../STLibs//STM32F4xx_DSP_StdPeriph_Lib_V1.0.1/Libraries/STM32F4xx_StdPeriph_Driver/src/stm32f4xx_fsmc.c ****   assert_param(IS_FSMC_CLK_DIV(FSMC_NORSRAMInitStruct->FSMC_ReadWriteTimingStruct->FSMC_CLKDivision
 169:../STLibs//STM32F4xx_DSP_StdPeriph_Lib_V1.0.1/Libraries/STM32F4xx_StdPeriph_Driver/src/stm32f4xx_fsmc.c ****   assert_param(IS_FSMC_DATA_LATENCY(FSMC_NORSRAMInitStruct->FSMC_ReadWriteTimingStruct->FSMC_DataLa
 170:../STLibs//STM32F4xx_DSP_StdPeriph_Lib_V1.0.1/Libraries/STM32F4xx_StdPeriph_Driver/src/stm32f4xx_fsmc.c ****   assert_param(IS_FSMC_ACCESS_MODE(FSMC_NORSRAMInitStruct->FSMC_ReadWriteTimingStruct->FSMC_AccessM
 171:../STLibs//STM32F4xx_DSP_StdPeriph_Lib_V1.0.1/Libraries/STM32F4xx_StdPeriph_Driver/src/stm32f4xx_fsmc.c ****   
 172:../STLibs//STM32F4xx_DSP_StdPeriph_Lib_V1.0.1/Libraries/STM32F4xx_StdPeriph_Driver/src/stm32f4xx_fsmc.c ****   /* Bank1 NOR/SRAM control register configuration */ 
 173:../STLibs//STM32F4xx_DSP_StdPeriph_Lib_V1.0.1/Libraries/STM32F4xx_StdPeriph_Driver/src/stm32f4xx_fsmc.c ****   FSMC_Bank1->BTCR[FSMC_NORSRAMInitStruct->FSMC_Bank] = 
 174:../STLibs//STM32F4xx_DSP_StdPeriph_Lib_V1.0.1/Libraries/STM32F4xx_StdPeriph_Driver/src/stm32f4xx_fsmc.c ****             (uint32_t)FSMC_NORSRAMInitStruct->FSMC_DataAddressMux |
 175:../STLibs//STM32F4xx_DSP_StdPeriph_Lib_V1.0.1/Libraries/STM32F4xx_StdPeriph_Driver/src/stm32f4xx_fsmc.c ****             FSMC_NORSRAMInitStruct->FSMC_MemoryType |
  72              		.loc 1 175 0
  73 0028 8168     		ldr	r1, [r0, #8]
 174:../STLibs//STM32F4xx_DSP_StdPeriph_Lib_V1.0.1/Libraries/STM32F4xx_StdPeriph_Driver/src/stm32f4xx_fsmc.c ****             FSMC_NORSRAMInitStruct->FSMC_MemoryType |
  74              		.loc 1 174 0
  75 002a 4368     		ldr	r3, [r0, #4]
 176:../STLibs//STM32F4xx_DSP_StdPeriph_Lib_V1.0.1/Libraries/STM32F4xx_StdPeriph_Driver/src/stm32f4xx_fsmc.c ****             FSMC_NORSRAMInitStruct->FSMC_MemoryDataWidth |
 177:../STLibs//STM32F4xx_DSP_StdPeriph_Lib_V1.0.1/Libraries/STM32F4xx_StdPeriph_Driver/src/stm32f4xx_fsmc.c ****             FSMC_NORSRAMInitStruct->FSMC_BurstAccessMode |
 178:../STLibs//STM32F4xx_DSP_StdPeriph_Lib_V1.0.1/Libraries/STM32F4xx_StdPeriph_Driver/src/stm32f4xx_fsmc.c ****             FSMC_NORSRAMInitStruct->FSMC_AsynchronousWait |
 179:../STLibs//STM32F4xx_DSP_StdPeriph_Lib_V1.0.1/Libraries/STM32F4xx_StdPeriph_Driver/src/stm32f4xx_fsmc.c ****             FSMC_NORSRAMInitStruct->FSMC_WaitSignalPolarity |
 180:../STLibs//STM32F4xx_DSP_StdPeriph_Lib_V1.0.1/Libraries/STM32F4xx_StdPeriph_Driver/src/stm32f4xx_fsmc.c ****             FSMC_NORSRAMInitStruct->FSMC_WrapMode |
 181:../STLibs//STM32F4xx_DSP_StdPeriph_Lib_V1.0.1/Libraries/STM32F4xx_StdPeriph_Driver/src/stm32f4xx_fsmc.c ****             FSMC_NORSRAMInitStruct->FSMC_WaitSignalActive |
 182:../STLibs//STM32F4xx_DSP_StdPeriph_Lib_V1.0.1/Libraries/STM32F4xx_StdPeriph_Driver/src/stm32f4xx_fsmc.c ****             FSMC_NORSRAMInitStruct->FSMC_WriteOperation |
 183:../STLibs//STM32F4xx_DSP_StdPeriph_Lib_V1.0.1/Libraries/STM32F4xx_StdPeriph_Driver/src/stm32f4xx_fsmc.c ****             FSMC_NORSRAMInitStruct->FSMC_WaitSignal |
 184:../STLibs//STM32F4xx_DSP_StdPeriph_Lib_V1.0.1/Libraries/STM32F4xx_StdPeriph_Driver/src/stm32f4xx_fsmc.c ****             FSMC_NORSRAMInitStruct->FSMC_ExtendedMode |
  76              		.loc 1 184 0
  77 002c C26A     		ldr	r2, [r0, #44]
 149:../STLibs//STM32F4xx_DSP_StdPeriph_Lib_V1.0.1/Libraries/STM32F4xx_StdPeriph_Driver/src/stm32f4xx_fsmc.c ****   /* Check the parameters */
  78              		.loc 1 149 0
  79 002e 30B5     		push	{r4, r5, lr}
  80              	.LCFI0:
  81              		.cfi_def_cfa_offset 12
  82              		.cfi_offset 4, -12
  83              		.cfi_offset 5, -8
  84              		.cfi_offset 14, -4
 175:../STLibs//STM32F4xx_DSP_StdPeriph_Lib_V1.0.1/Libraries/STM32F4xx_StdPeriph_Driver/src/stm32f4xx_fsmc.c ****             FSMC_NORSRAMInitStruct->FSMC_MemoryDataWidth |
  85              		.loc 1 175 0
  86 0030 C468     		ldr	r4, [r0, #12]
 174:../STLibs//STM32F4xx_DSP_StdPeriph_Lib_V1.0.1/Libraries/STM32F4xx_StdPeriph_Driver/src/stm32f4xx_fsmc.c ****             FSMC_NORSRAMInitStruct->FSMC_MemoryType |
  87              		.loc 1 174 0
  88 0032 0B43     		orrs	r3, r3, r1
 175:../STLibs//STM32F4xx_DSP_StdPeriph_Lib_V1.0.1/Libraries/STM32F4xx_StdPeriph_Driver/src/stm32f4xx_fsmc.c ****             FSMC_NORSRAMInitStruct->FSMC_MemoryDataWidth |
  89              		.loc 1 175 0
  90 0034 2343     		orrs	r3, r3, r4
 176:../STLibs//STM32F4xx_DSP_StdPeriph_Lib_V1.0.1/Libraries/STM32F4xx_StdPeriph_Driver/src/stm32f4xx_fsmc.c ****             FSMC_NORSRAMInitStruct->FSMC_BurstAccessMode |
  91              		.loc 1 176 0
  92 0036 0469     		ldr	r4, [r0, #16]
  93 0038 2343     		orrs	r3, r3, r4
 177:../STLibs//STM32F4xx_DSP_StdPeriph_Lib_V1.0.1/Libraries/STM32F4xx_StdPeriph_Driver/src/stm32f4xx_fsmc.c ****             FSMC_NORSRAMInitStruct->FSMC_AsynchronousWait |
  94              		.loc 1 177 0
  95 003a 4469     		ldr	r4, [r0, #20]
  96 003c 2343     		orrs	r3, r3, r4
 178:../STLibs//STM32F4xx_DSP_StdPeriph_Lib_V1.0.1/Libraries/STM32F4xx_StdPeriph_Driver/src/stm32f4xx_fsmc.c ****             FSMC_NORSRAMInitStruct->FSMC_WaitSignalPolarity |
  97              		.loc 1 178 0
  98 003e 8469     		ldr	r4, [r0, #24]
  99 0040 2343     		orrs	r3, r3, r4
 179:../STLibs//STM32F4xx_DSP_StdPeriph_Lib_V1.0.1/Libraries/STM32F4xx_StdPeriph_Driver/src/stm32f4xx_fsmc.c ****             FSMC_NORSRAMInitStruct->FSMC_WrapMode |
 100              		.loc 1 179 0
 101 0042 C469     		ldr	r4, [r0, #28]
 102 0044 2343     		orrs	r3, r3, r4
 180:../STLibs//STM32F4xx_DSP_StdPeriph_Lib_V1.0.1/Libraries/STM32F4xx_StdPeriph_Driver/src/stm32f4xx_fsmc.c ****             FSMC_NORSRAMInitStruct->FSMC_WaitSignalActive |
 103              		.loc 1 180 0
 104 0046 046A     		ldr	r4, [r0, #32]
 105 0048 2343     		orrs	r3, r3, r4
 181:../STLibs//STM32F4xx_DSP_StdPeriph_Lib_V1.0.1/Libraries/STM32F4xx_StdPeriph_Driver/src/stm32f4xx_fsmc.c ****             FSMC_NORSRAMInitStruct->FSMC_WriteOperation |
 106              		.loc 1 181 0
 107 004a 446A     		ldr	r4, [r0, #36]
 108 004c 2343     		orrs	r3, r3, r4
 182:../STLibs//STM32F4xx_DSP_StdPeriph_Lib_V1.0.1/Libraries/STM32F4xx_StdPeriph_Driver/src/stm32f4xx_fsmc.c ****             FSMC_NORSRAMInitStruct->FSMC_WaitSignal |
 109              		.loc 1 182 0
 110 004e 846A     		ldr	r4, [r0, #40]
 111 0050 2343     		orrs	r3, r3, r4
 112              		.loc 1 184 0
 113 0052 046B     		ldr	r4, [r0, #48]
 183:../STLibs//STM32F4xx_DSP_StdPeriph_Lib_V1.0.1/Libraries/STM32F4xx_StdPeriph_Driver/src/stm32f4xx_fsmc.c ****             FSMC_NORSRAMInitStruct->FSMC_ExtendedMode |
 114              		.loc 1 183 0
 115 0054 1343     		orrs	r3, r3, r2
 116              		.loc 1 184 0
 117 0056 2343     		orrs	r3, r3, r4
 118 0058 0468     		ldr	r4, [r0]
 119 005a A400     		lsls	r4, r4, #2
 120 005c 04F12044 		add	r4, r4, #-1610612736
 185:../STLibs//STM32F4xx_DSP_StdPeriph_Lib_V1.0.1/Libraries/STM32F4xx_StdPeriph_Driver/src/stm32f4xx_fsmc.c ****             FSMC_NORSRAMInitStruct->FSMC_WriteBurst;
 186:../STLibs//STM32F4xx_DSP_StdPeriph_Lib_V1.0.1/Libraries/STM32F4xx_StdPeriph_Driver/src/stm32f4xx_fsmc.c ****   if(FSMC_NORSRAMInitStruct->FSMC_MemoryType == FSMC_MemoryType_NOR)
 121              		.loc 1 186 0
 122 0060 0829     		cmp	r1, #8
 173:../STLibs//STM32F4xx_DSP_StdPeriph_Lib_V1.0.1/Libraries/STM32F4xx_StdPeriph_Driver/src/stm32f4xx_fsmc.c ****             (uint32_t)FSMC_NORSRAMInitStruct->FSMC_DataAddressMux |
 123              		.loc 1 173 0
 124 0062 2360     		str	r3, [r4]
 187:../STLibs//STM32F4xx_DSP_StdPeriph_Lib_V1.0.1/Libraries/STM32F4xx_StdPeriph_Driver/src/stm32f4xx_fsmc.c ****   {
 188:../STLibs//STM32F4xx_DSP_StdPeriph_Lib_V1.0.1/Libraries/STM32F4xx_StdPeriph_Driver/src/stm32f4xx_fsmc.c ****     FSMC_Bank1->BTCR[FSMC_NORSRAMInitStruct->FSMC_Bank] |= (uint32_t)BCR_FACCEN_SET;
 125              		.loc 1 188 0
 126 0064 08BF     		it	eq
 127 0066 2368     		ldreq	r3, [r4]
 189:../STLibs//STM32F4xx_DSP_StdPeriph_Lib_V1.0.1/Libraries/STM32F4xx_StdPeriph_Driver/src/stm32f4xx_fsmc.c ****   }
 190:../STLibs//STM32F4xx_DSP_StdPeriph_Lib_V1.0.1/Libraries/STM32F4xx_StdPeriph_Driver/src/stm32f4xx_fsmc.c ****   /* Bank1 NOR/SRAM timing register configuration */
 191:../STLibs//STM32F4xx_DSP_StdPeriph_Lib_V1.0.1/Libraries/STM32F4xx_StdPeriph_Driver/src/stm32f4xx_fsmc.c ****   FSMC_Bank1->BTCR[FSMC_NORSRAMInitStruct->FSMC_Bank+1] = 
 192:../STLibs//STM32F4xx_DSP_StdPeriph_Lib_V1.0.1/Libraries/STM32F4xx_StdPeriph_Driver/src/stm32f4xx_fsmc.c ****             (uint32_t)FSMC_NORSRAMInitStruct->FSMC_ReadWriteTimingStruct->FSMC_AddressSetupTime |
 128              		.loc 1 192 0
 129 0068 416B     		ldr	r1, [r0, #52]
 188:../STLibs//STM32F4xx_DSP_StdPeriph_Lib_V1.0.1/Libraries/STM32F4xx_StdPeriph_Driver/src/stm32f4xx_fsmc.c ****   }
 130              		.loc 1 188 0
 131 006a 08BF     		it	eq
 132 006c 43F04003 		orreq	r3, r3, #64
 193:../STLibs//STM32F4xx_DSP_StdPeriph_Lib_V1.0.1/Libraries/STM32F4xx_StdPeriph_Driver/src/stm32f4xx_fsmc.c ****             (FSMC_NORSRAMInitStruct->FSMC_ReadWriteTimingStruct->FSMC_AddressHoldTime << 4) |
 194:../STLibs//STM32F4xx_DSP_StdPeriph_Lib_V1.0.1/Libraries/STM32F4xx_StdPeriph_Driver/src/stm32f4xx_fsmc.c ****             (FSMC_NORSRAMInitStruct->FSMC_ReadWriteTimingStruct->FSMC_DataSetupTime << 8) |
 195:../STLibs//STM32F4xx_DSP_StdPeriph_Lib_V1.0.1/Libraries/STM32F4xx_StdPeriph_Driver/src/stm32f4xx_fsmc.c ****             (FSMC_NORSRAMInitStruct->FSMC_ReadWriteTimingStruct->FSMC_BusTurnAroundDuration << 16) 
 196:../STLibs//STM32F4xx_DSP_StdPeriph_Lib_V1.0.1/Libraries/STM32F4xx_StdPeriph_Driver/src/stm32f4xx_fsmc.c ****             (FSMC_NORSRAMInitStruct->FSMC_ReadWriteTimingStruct->FSMC_CLKDivision << 20) |
 197:../STLibs//STM32F4xx_DSP_StdPeriph_Lib_V1.0.1/Libraries/STM32F4xx_StdPeriph_Driver/src/stm32f4xx_fsmc.c ****             (FSMC_NORSRAMInitStruct->FSMC_ReadWriteTimingStruct->FSMC_DataLatency << 24) |
 133              		.loc 1 197 0
 134 0070 8D69     		ldr	r5, [r1, #24]
 188:../STLibs//STM32F4xx_DSP_StdPeriph_Lib_V1.0.1/Libraries/STM32F4xx_StdPeriph_Driver/src/stm32f4xx_fsmc.c ****   }
 135              		.loc 1 188 0
 136 0072 08BF     		it	eq
 137 0074 2360     		streq	r3, [r4]
 138              		.loc 1 197 0
 139 0076 0B68     		ldr	r3, [r1]
 140 0078 2B43     		orrs	r3, r3, r5
 193:../STLibs//STM32F4xx_DSP_StdPeriph_Lib_V1.0.1/Libraries/STM32F4xx_StdPeriph_Driver/src/stm32f4xx_fsmc.c ****             (FSMC_NORSRAMInitStruct->FSMC_ReadWriteTimingStruct->FSMC_AddressHoldTime << 4) |
 141              		.loc 1 193 0
 142 007a 4D68     		ldr	r5, [r1, #4]
 143              		.loc 1 197 0
 144 007c 43EA0513 		orr	r3, r3, r5, lsl #4
 194:../STLibs//STM32F4xx_DSP_StdPeriph_Lib_V1.0.1/Libraries/STM32F4xx_StdPeriph_Driver/src/stm32f4xx_fsmc.c ****             (FSMC_NORSRAMInitStruct->FSMC_ReadWriteTimingStruct->FSMC_BusTurnAroundDuration << 16) 
 145              		.loc 1 194 0
 146 0080 8D68     		ldr	r5, [r1, #8]
 147              		.loc 1 197 0
 148 0082 43EA0523 		orr	r3, r3, r5, lsl #8
 195:../STLibs//STM32F4xx_DSP_StdPeriph_Lib_V1.0.1/Libraries/STM32F4xx_StdPeriph_Driver/src/stm32f4xx_fsmc.c ****             (FSMC_NORSRAMInitStruct->FSMC_ReadWriteTimingStruct->FSMC_CLKDivision << 20) |
 149              		.loc 1 195 0
 150 0086 CD68     		ldr	r5, [r1, #12]
 151              		.loc 1 197 0
 152 0088 43EA0543 		orr	r3, r3, r5, lsl #16
 196:../STLibs//STM32F4xx_DSP_StdPeriph_Lib_V1.0.1/Libraries/STM32F4xx_StdPeriph_Driver/src/stm32f4xx_fsmc.c ****             (FSMC_NORSRAMInitStruct->FSMC_ReadWriteTimingStruct->FSMC_DataLatency << 24) |
 153              		.loc 1 196 0
 154 008c 0D69     		ldr	r5, [r1, #16]
 155              		.loc 1 197 0
 156 008e 4969     		ldr	r1, [r1, #20]
 157 0090 43EA0553 		orr	r3, r3, r5, lsl #20
 158 0094 43EA0163 		orr	r3, r3, r1, lsl #24
 198:../STLibs//STM32F4xx_DSP_StdPeriph_Lib_V1.0.1/Libraries/STM32F4xx_StdPeriph_Driver/src/stm32f4xx_fsmc.c ****              FSMC_NORSRAMInitStruct->FSMC_ReadWriteTimingStruct->FSMC_AccessMode;
 199:../STLibs//STM32F4xx_DSP_StdPeriph_Lib_V1.0.1/Libraries/STM32F4xx_StdPeriph_Driver/src/stm32f4xx_fsmc.c ****             
 200:../STLibs//STM32F4xx_DSP_StdPeriph_Lib_V1.0.1/Libraries/STM32F4xx_StdPeriph_Driver/src/stm32f4xx_fsmc.c ****     
 201:../STLibs//STM32F4xx_DSP_StdPeriph_Lib_V1.0.1/Libraries/STM32F4xx_StdPeriph_Driver/src/stm32f4xx_fsmc.c ****   /* Bank1 NOR/SRAM timing register for write configuration, if extended mode is used */
 202:../STLibs//STM32F4xx_DSP_StdPeriph_Lib_V1.0.1/Libraries/STM32F4xx_StdPeriph_Driver/src/stm32f4xx_fsmc.c ****   if(FSMC_NORSRAMInitStruct->FSMC_ExtendedMode == FSMC_ExtendedMode_Enable)
 159              		.loc 1 202 0
 160 0098 B2F5804F 		cmp	r2, #16384
 191:../STLibs//STM32F4xx_DSP_StdPeriph_Lib_V1.0.1/Libraries/STM32F4xx_StdPeriph_Driver/src/stm32f4xx_fsmc.c ****             (uint32_t)FSMC_NORSRAMInitStruct->FSMC_ReadWriteTimingStruct->FSMC_AddressSetupTime |
 161              		.loc 1 191 0
 162 009c 6360     		str	r3, [r4, #4]
 163              		.loc 1 202 0
 164 009e 12D1     		bne	.L6
 203:../STLibs//STM32F4xx_DSP_StdPeriph_Lib_V1.0.1/Libraries/STM32F4xx_StdPeriph_Driver/src/stm32f4xx_fsmc.c ****   {
 204:../STLibs//STM32F4xx_DSP_StdPeriph_Lib_V1.0.1/Libraries/STM32F4xx_StdPeriph_Driver/src/stm32f4xx_fsmc.c ****     assert_param(IS_FSMC_ADDRESS_SETUP_TIME(FSMC_NORSRAMInitStruct->FSMC_WriteTimingStruct->FSMC_Ad
 205:../STLibs//STM32F4xx_DSP_StdPeriph_Lib_V1.0.1/Libraries/STM32F4xx_StdPeriph_Driver/src/stm32f4xx_fsmc.c ****     assert_param(IS_FSMC_ADDRESS_HOLD_TIME(FSMC_NORSRAMInitStruct->FSMC_WriteTimingStruct->FSMC_Add
 206:../STLibs//STM32F4xx_DSP_StdPeriph_Lib_V1.0.1/Libraries/STM32F4xx_StdPeriph_Driver/src/stm32f4xx_fsmc.c ****     assert_param(IS_FSMC_DATASETUP_TIME(FSMC_NORSRAMInitStruct->FSMC_WriteTimingStruct->FSMC_DataSe
 207:../STLibs//STM32F4xx_DSP_StdPeriph_Lib_V1.0.1/Libraries/STM32F4xx_StdPeriph_Driver/src/stm32f4xx_fsmc.c ****     assert_param(IS_FSMC_CLK_DIV(FSMC_NORSRAMInitStruct->FSMC_WriteTimingStruct->FSMC_CLKDivision))
 208:../STLibs//STM32F4xx_DSP_StdPeriph_Lib_V1.0.1/Libraries/STM32F4xx_StdPeriph_Driver/src/stm32f4xx_fsmc.c ****     assert_param(IS_FSMC_DATA_LATENCY(FSMC_NORSRAMInitStruct->FSMC_WriteTimingStruct->FSMC_DataLate
 209:../STLibs//STM32F4xx_DSP_StdPeriph_Lib_V1.0.1/Libraries/STM32F4xx_StdPeriph_Driver/src/stm32f4xx_fsmc.c ****     assert_param(IS_FSMC_ACCESS_MODE(FSMC_NORSRAMInitStruct->FSMC_WriteTimingStruct->FSMC_AccessMod
 210:../STLibs//STM32F4xx_DSP_StdPeriph_Lib_V1.0.1/Libraries/STM32F4xx_StdPeriph_Driver/src/stm32f4xx_fsmc.c ****     FSMC_Bank1E->BWTR[FSMC_NORSRAMInitStruct->FSMC_Bank] = 
 211:../STLibs//STM32F4xx_DSP_StdPeriph_Lib_V1.0.1/Libraries/STM32F4xx_StdPeriph_Driver/src/stm32f4xx_fsmc.c ****               (uint32_t)FSMC_NORSRAMInitStruct->FSMC_WriteTimingStruct->FSMC_AddressSetupTime |
 165              		.loc 1 211 0
 166 00a0 826B     		ldr	r2, [r0, #56]
 212:../STLibs//STM32F4xx_DSP_StdPeriph_Lib_V1.0.1/Libraries/STM32F4xx_StdPeriph_Driver/src/stm32f4xx_fsmc.c ****               (FSMC_NORSRAMInitStruct->FSMC_WriteTimingStruct->FSMC_AddressHoldTime << 4 )|
 213:../STLibs//STM32F4xx_DSP_StdPeriph_Lib_V1.0.1/Libraries/STM32F4xx_StdPeriph_Driver/src/stm32f4xx_fsmc.c ****               (FSMC_NORSRAMInitStruct->FSMC_WriteTimingStruct->FSMC_DataSetupTime << 8) |
 214:../STLibs//STM32F4xx_DSP_StdPeriph_Lib_V1.0.1/Libraries/STM32F4xx_StdPeriph_Driver/src/stm32f4xx_fsmc.c ****               (FSMC_NORSRAMInitStruct->FSMC_WriteTimingStruct->FSMC_CLKDivision << 20) |
 215:../STLibs//STM32F4xx_DSP_StdPeriph_Lib_V1.0.1/Libraries/STM32F4xx_StdPeriph_Driver/src/stm32f4xx_fsmc.c ****               (FSMC_NORSRAMInitStruct->FSMC_WriteTimingStruct->FSMC_DataLatency << 24) |
 167              		.loc 1 215 0
 168 00a2 9169     		ldr	r1, [r2, #24]
 169 00a4 1368     		ldr	r3, [r2]
 170 00a6 0B43     		orrs	r3, r3, r1
 212:../STLibs//STM32F4xx_DSP_StdPeriph_Lib_V1.0.1/Libraries/STM32F4xx_StdPeriph_Driver/src/stm32f4xx_fsmc.c ****               (FSMC_NORSRAMInitStruct->FSMC_WriteTimingStruct->FSMC_AddressHoldTime << 4 )|
 171              		.loc 1 212 0
 172 00a8 5168     		ldr	r1, [r2, #4]
 173              		.loc 1 215 0
 174 00aa 43EA0113 		orr	r3, r3, r1, lsl #4
 213:../STLibs//STM32F4xx_DSP_StdPeriph_Lib_V1.0.1/Libraries/STM32F4xx_StdPeriph_Driver/src/stm32f4xx_fsmc.c ****               (FSMC_NORSRAMInitStruct->FSMC_WriteTimingStruct->FSMC_CLKDivision << 20) |
 175              		.loc 1 213 0
 176 00ae 9168     		ldr	r1, [r2, #8]
 177              		.loc 1 215 0
 178 00b0 43EA0123 		orr	r3, r3, r1, lsl #8
 214:../STLibs//STM32F4xx_DSP_StdPeriph_Lib_V1.0.1/Libraries/STM32F4xx_StdPeriph_Driver/src/stm32f4xx_fsmc.c ****               (FSMC_NORSRAMInitStruct->FSMC_WriteTimingStruct->FSMC_DataLatency << 24) |
 179              		.loc 1 214 0
 180 00b4 1169     		ldr	r1, [r2, #16]
 181              		.loc 1 215 0
 182 00b6 5269     		ldr	r2, [r2, #20]
 183 00b8 43EA0153 		orr	r3, r3, r1, lsl #20
 184 00bc 43EA0263 		orr	r3, r3, r2, lsl #24
 185              	.L8:
 216:../STLibs//STM32F4xx_DSP_StdPeriph_Lib_V1.0.1/Libraries/STM32F4xx_StdPeriph_Driver/src/stm32f4xx_fsmc.c ****                FSMC_NORSRAMInitStruct->FSMC_WriteTimingStruct->FSMC_AccessMode;
 217:../STLibs//STM32F4xx_DSP_StdPeriph_Lib_V1.0.1/Libraries/STM32F4xx_StdPeriph_Driver/src/stm32f4xx_fsmc.c ****   }
 218:../STLibs//STM32F4xx_DSP_StdPeriph_Lib_V1.0.1/Libraries/STM32F4xx_StdPeriph_Driver/src/stm32f4xx_fsmc.c ****   else
 219:../STLibs//STM32F4xx_DSP_StdPeriph_Lib_V1.0.1/Libraries/STM32F4xx_StdPeriph_Driver/src/stm32f4xx_fsmc.c ****   {
 220:../STLibs//STM32F4xx_DSP_StdPeriph_Lib_V1.0.1/Libraries/STM32F4xx_StdPeriph_Driver/src/stm32f4xx_fsmc.c ****     FSMC_Bank1E->BWTR[FSMC_NORSRAMInitStruct->FSMC_Bank] = 0x0FFFFFFF;
 186              		.loc 1 220 0
 187 00c0 C4F80431 		str	r3, [r4, #260]
 221:../STLibs//STM32F4xx_DSP_StdPeriph_Lib_V1.0.1/Libraries/STM32F4xx_StdPeriph_Driver/src/stm32f4xx_fsmc.c ****   }
 222:../STLibs//STM32F4xx_DSP_StdPeriph_Lib_V1.0.1/Libraries/STM32F4xx_StdPeriph_Driver/src/stm32f4xx_fsmc.c **** }
 188              		.loc 1 222 0
 189 00c4 30BD     		pop	{r4, r5, pc}
 190              	.L6:
 220:../STLibs//STM32F4xx_DSP_StdPeriph_Lib_V1.0.1/Libraries/STM32F4xx_StdPeriph_Driver/src/stm32f4xx_fsmc.c ****   }
 191              		.loc 1 220 0
 192 00c6 6FF07043 		mvn	r3, #-268435456
 193 00ca F9E7     		b	.L8
 194              		.cfi_endproc
 195              	.LFE111:
 197              		.align	1
 198              		.global	FSMC_NORSRAMStructInit
 199              		.syntax unified
 200              		.thumb
 201              		.thumb_func
 202              		.fpu fpv4-sp-d16
 204              	FSMC_NORSRAMStructInit:
 205              	.LFB112:
 223:../STLibs//STM32F4xx_DSP_StdPeriph_Lib_V1.0.1/Libraries/STM32F4xx_StdPeriph_Driver/src/stm32f4xx_fsmc.c **** 
 224:../STLibs//STM32F4xx_DSP_StdPeriph_Lib_V1.0.1/Libraries/STM32F4xx_StdPeriph_Driver/src/stm32f4xx_fsmc.c **** /**
 225:../STLibs//STM32F4xx_DSP_StdPeriph_Lib_V1.0.1/Libraries/STM32F4xx_StdPeriph_Driver/src/stm32f4xx_fsmc.c ****   * @brief  Fills each FSMC_NORSRAMInitStruct member with its default value.
 226:../STLibs//STM32F4xx_DSP_StdPeriph_Lib_V1.0.1/Libraries/STM32F4xx_StdPeriph_Driver/src/stm32f4xx_fsmc.c ****   * @param  FSMC_NORSRAMInitStruct: pointer to a FSMC_NORSRAMInitTypeDef structure 
 227:../STLibs//STM32F4xx_DSP_StdPeriph_Lib_V1.0.1/Libraries/STM32F4xx_StdPeriph_Driver/src/stm32f4xx_fsmc.c ****   *         which will be initialized.
 228:../STLibs//STM32F4xx_DSP_StdPeriph_Lib_V1.0.1/Libraries/STM32F4xx_StdPeriph_Driver/src/stm32f4xx_fsmc.c ****   * @retval None
 229:../STLibs//STM32F4xx_DSP_StdPeriph_Lib_V1.0.1/Libraries/STM32F4xx_StdPeriph_Driver/src/stm32f4xx_fsmc.c ****   */
 230:../STLibs//STM32F4xx_DSP_StdPeriph_Lib_V1.0.1/Libraries/STM32F4xx_StdPeriph_Driver/src/stm32f4xx_fsmc.c **** void FSMC_NORSRAMStructInit(FSMC_NORSRAMInitTypeDef* FSMC_NORSRAMInitStruct)
 231:../STLibs//STM32F4xx_DSP_StdPeriph_Lib_V1.0.1/Libraries/STM32F4xx_StdPeriph_Driver/src/stm32f4xx_fsmc.c **** {  
 206              		.loc 1 231 0
 207              		.cfi_startproc
 208              		@ args = 0, pretend = 0, frame = 0
 209              		@ frame_needed = 0, uses_anonymous_args = 0
 210              	.LVL4:
 232:../STLibs//STM32F4xx_DSP_StdPeriph_Lib_V1.0.1/Libraries/STM32F4xx_StdPeriph_Driver/src/stm32f4xx_fsmc.c ****   /* Reset NOR/SRAM Init structure parameters values */
 233:../STLibs//STM32F4xx_DSP_StdPeriph_Lib_V1.0.1/Libraries/STM32F4xx_StdPeriph_Driver/src/stm32f4xx_fsmc.c ****   FSMC_NORSRAMInitStruct->FSMC_Bank = FSMC_Bank1_NORSRAM1;
 234:../STLibs//STM32F4xx_DSP_StdPeriph_Lib_V1.0.1/Libraries/STM32F4xx_StdPeriph_Driver/src/stm32f4xx_fsmc.c ****   FSMC_NORSRAMInitStruct->FSMC_DataAddressMux = FSMC_DataAddressMux_Enable;
 211              		.loc 1 234 0
 212 00cc 0023     		movs	r3, #0
 213 00ce 0222     		movs	r2, #2
 231:../STLibs//STM32F4xx_DSP_StdPeriph_Lib_V1.0.1/Libraries/STM32F4xx_StdPeriph_Driver/src/stm32f4xx_fsmc.c ****   /* Reset NOR/SRAM Init structure parameters values */
 214              		.loc 1 231 0
 215 00d0 10B5     		push	{r4, lr}
 216              	.LCFI1:
 217              		.cfi_def_cfa_offset 8
 218              		.cfi_offset 4, -8
 219              		.cfi_offset 14, -4
 220              		.loc 1 234 0
 221 00d2 C0E90032 		strd	r3, r2, [r0]
 235:../STLibs//STM32F4xx_DSP_StdPeriph_Lib_V1.0.1/Libraries/STM32F4xx_StdPeriph_Driver/src/stm32f4xx_fsmc.c ****   FSMC_NORSRAMInitStruct->FSMC_MemoryType = FSMC_MemoryType_SRAM;
 236:../STLibs//STM32F4xx_DSP_StdPeriph_Lib_V1.0.1/Libraries/STM32F4xx_StdPeriph_Driver/src/stm32f4xx_fsmc.c ****   FSMC_NORSRAMInitStruct->FSMC_MemoryDataWidth = FSMC_MemoryDataWidth_8b;
 237:../STLibs//STM32F4xx_DSP_StdPeriph_Lib_V1.0.1/Libraries/STM32F4xx_StdPeriph_Driver/src/stm32f4xx_fsmc.c ****   FSMC_NORSRAMInitStruct->FSMC_BurstAccessMode = FSMC_BurstAccessMode_Disable;
 238:../STLibs//STM32F4xx_DSP_StdPeriph_Lib_V1.0.1/Libraries/STM32F4xx_StdPeriph_Driver/src/stm32f4xx_fsmc.c ****   FSMC_NORSRAMInitStruct->FSMC_AsynchronousWait = FSMC_AsynchronousWait_Disable;
 239:../STLibs//STM32F4xx_DSP_StdPeriph_Lib_V1.0.1/Libraries/STM32F4xx_StdPeriph_Driver/src/stm32f4xx_fsmc.c ****   FSMC_NORSRAMInitStruct->FSMC_WaitSignalPolarity = FSMC_WaitSignalPolarity_Low;
 240:../STLibs//STM32F4xx_DSP_StdPeriph_Lib_V1.0.1/Libraries/STM32F4xx_StdPeriph_Driver/src/stm32f4xx_fsmc.c ****   FSMC_NORSRAMInitStruct->FSMC_WrapMode = FSMC_WrapMode_Disable;
 241:../STLibs//STM32F4xx_DSP_StdPeriph_Lib_V1.0.1/Libraries/STM32F4xx_StdPeriph_Driver/src/stm32f4xx_fsmc.c ****   FSMC_NORSRAMInitStruct->FSMC_WaitSignalActive = FSMC_WaitSignalActive_BeforeWaitState;
 242:../STLibs//STM32F4xx_DSP_StdPeriph_Lib_V1.0.1/Libraries/STM32F4xx_StdPeriph_Driver/src/stm32f4xx_fsmc.c ****   FSMC_NORSRAMInitStruct->FSMC_WriteOperation = FSMC_WriteOperation_Enable;
 243:../STLibs//STM32F4xx_DSP_StdPeriph_Lib_V1.0.1/Libraries/STM32F4xx_StdPeriph_Driver/src/stm32f4xx_fsmc.c ****   FSMC_NORSRAMInitStruct->FSMC_WaitSignal = FSMC_WaitSignal_Enable;
 222              		.loc 1 243 0
 223 00d6 4FF48051 		mov	r1, #4096
 224 00da 4FF40052 		mov	r2, #8192
 225 00de C0E90912 		strd	r1, r2, [r0, #36]
 244:../STLibs//STM32F4xx_DSP_StdPeriph_Lib_V1.0.1/Libraries/STM32F4xx_StdPeriph_Driver/src/stm32f4xx_fsmc.c ****   FSMC_NORSRAMInitStruct->FSMC_ExtendedMode = FSMC_ExtendedMode_Disable;
 245:../STLibs//STM32F4xx_DSP_StdPeriph_Lib_V1.0.1/Libraries/STM32F4xx_StdPeriph_Driver/src/stm32f4xx_fsmc.c ****   FSMC_NORSRAMInitStruct->FSMC_WriteBurst = FSMC_WriteBurst_Disable;
 246:../STLibs//STM32F4xx_DSP_StdPeriph_Lib_V1.0.1/Libraries/STM32F4xx_StdPeriph_Driver/src/stm32f4xx_fsmc.c ****   FSMC_NORSRAMInitStruct->FSMC_ReadWriteTimingStruct->FSMC_AddressSetupTime = 0xF;
 226              		.loc 1 246 0
 227 00e2 416B     		ldr	r1, [r0, #52]
 241:../STLibs//STM32F4xx_DSP_StdPeriph_Lib_V1.0.1/Libraries/STM32F4xx_StdPeriph_Driver/src/stm32f4xx_fsmc.c ****   FSMC_NORSRAMInitStruct->FSMC_WriteOperation = FSMC_WriteOperation_Enable;
 228              		.loc 1 241 0
 229 00e4 0362     		str	r3, [r0, #32]
 230              		.loc 1 246 0
 231 00e6 0F22     		movs	r2, #15
 247:../STLibs//STM32F4xx_DSP_StdPeriph_Lib_V1.0.1/Libraries/STM32F4xx_StdPeriph_Driver/src/stm32f4xx_fsmc.c ****   FSMC_NORSRAMInitStruct->FSMC_ReadWriteTimingStruct->FSMC_AddressHoldTime = 0xF;
 248:../STLibs//STM32F4xx_DSP_StdPeriph_Lib_V1.0.1/Libraries/STM32F4xx_StdPeriph_Driver/src/stm32f4xx_fsmc.c ****   FSMC_NORSRAMInitStruct->FSMC_ReadWriteTimingStruct->FSMC_DataSetupTime = 0xFF;
 232              		.loc 1 248 0
 233 00e8 FF24     		movs	r4, #255
 236:../STLibs//STM32F4xx_DSP_StdPeriph_Lib_V1.0.1/Libraries/STM32F4xx_StdPeriph_Driver/src/stm32f4xx_fsmc.c ****   FSMC_NORSRAMInitStruct->FSMC_BurstAccessMode = FSMC_BurstAccessMode_Disable;
 234              		.loc 1 236 0
 235 00ea C0E90233 		strd	r3, r3, [r0, #8]
 238:../STLibs//STM32F4xx_DSP_StdPeriph_Lib_V1.0.1/Libraries/STM32F4xx_StdPeriph_Driver/src/stm32f4xx_fsmc.c ****   FSMC_NORSRAMInitStruct->FSMC_WaitSignalPolarity = FSMC_WaitSignalPolarity_Low;
 236              		.loc 1 238 0
 237 00ee C0E90433 		strd	r3, r3, [r0, #16]
 240:../STLibs//STM32F4xx_DSP_StdPeriph_Lib_V1.0.1/Libraries/STM32F4xx_StdPeriph_Driver/src/stm32f4xx_fsmc.c ****   FSMC_NORSRAMInitStruct->FSMC_WaitSignalActive = FSMC_WaitSignalActive_BeforeWaitState;
 238              		.loc 1 240 0
 239 00f2 C0E90633 		strd	r3, r3, [r0, #24]
 245:../STLibs//STM32F4xx_DSP_StdPeriph_Lib_V1.0.1/Libraries/STM32F4xx_StdPeriph_Driver/src/stm32f4xx_fsmc.c ****   FSMC_NORSRAMInitStruct->FSMC_ReadWriteTimingStruct->FSMC_AddressSetupTime = 0xF;
 240              		.loc 1 245 0
 241 00f6 C0E90B33 		strd	r3, r3, [r0, #44]
 247:../STLibs//STM32F4xx_DSP_StdPeriph_Lib_V1.0.1/Libraries/STM32F4xx_StdPeriph_Driver/src/stm32f4xx_fsmc.c ****   FSMC_NORSRAMInitStruct->FSMC_ReadWriteTimingStruct->FSMC_DataSetupTime = 0xFF;
 242              		.loc 1 247 0
 243 00fa C1E90022 		strd	r2, r2, [r1]
 249:../STLibs//STM32F4xx_DSP_StdPeriph_Lib_V1.0.1/Libraries/STM32F4xx_StdPeriph_Driver/src/stm32f4xx_fsmc.c ****   FSMC_NORSRAMInitStruct->FSMC_ReadWriteTimingStruct->FSMC_BusTurnAroundDuration = 0xF;
 244              		.loc 1 249 0
 245 00fe C1E90242 		strd	r4, r2, [r1, #8]
 250:../STLibs//STM32F4xx_DSP_StdPeriph_Lib_V1.0.1/Libraries/STM32F4xx_StdPeriph_Driver/src/stm32f4xx_fsmc.c ****   FSMC_NORSRAMInitStruct->FSMC_ReadWriteTimingStruct->FSMC_CLKDivision = 0xF;
 251:../STLibs//STM32F4xx_DSP_StdPeriph_Lib_V1.0.1/Libraries/STM32F4xx_StdPeriph_Driver/src/stm32f4xx_fsmc.c ****   FSMC_NORSRAMInitStruct->FSMC_ReadWriteTimingStruct->FSMC_DataLatency = 0xF;
 246              		.loc 1 251 0
 247 0102 C1E90422 		strd	r2, r2, [r1, #16]
 252:../STLibs//STM32F4xx_DSP_StdPeriph_Lib_V1.0.1/Libraries/STM32F4xx_StdPeriph_Driver/src/stm32f4xx_fsmc.c ****   FSMC_NORSRAMInitStruct->FSMC_ReadWriteTimingStruct->FSMC_AccessMode = FSMC_AccessMode_A; 
 248              		.loc 1 252 0
 249 0106 8B61     		str	r3, [r1, #24]
 253:../STLibs//STM32F4xx_DSP_StdPeriph_Lib_V1.0.1/Libraries/STM32F4xx_StdPeriph_Driver/src/stm32f4xx_fsmc.c ****   FSMC_NORSRAMInitStruct->FSMC_WriteTimingStruct->FSMC_AddressSetupTime = 0xF;
 250              		.loc 1 253 0
 251 0108 816B     		ldr	r1, [r0, #56]
 254:../STLibs//STM32F4xx_DSP_StdPeriph_Lib_V1.0.1/Libraries/STM32F4xx_StdPeriph_Driver/src/stm32f4xx_fsmc.c ****   FSMC_NORSRAMInitStruct->FSMC_WriteTimingStruct->FSMC_AddressHoldTime = 0xF;
 252              		.loc 1 254 0
 253 010a C1E90022 		strd	r2, r2, [r1]
 255:../STLibs//STM32F4xx_DSP_StdPeriph_Lib_V1.0.1/Libraries/STM32F4xx_StdPeriph_Driver/src/stm32f4xx_fsmc.c ****   FSMC_NORSRAMInitStruct->FSMC_WriteTimingStruct->FSMC_DataSetupTime = 0xFF;
 256:../STLibs//STM32F4xx_DSP_StdPeriph_Lib_V1.0.1/Libraries/STM32F4xx_StdPeriph_Driver/src/stm32f4xx_fsmc.c ****   FSMC_NORSRAMInitStruct->FSMC_WriteTimingStruct->FSMC_BusTurnAroundDuration = 0xF;
 254              		.loc 1 256 0
 255 010e C1E90242 		strd	r4, r2, [r1, #8]
 257:../STLibs//STM32F4xx_DSP_StdPeriph_Lib_V1.0.1/Libraries/STM32F4xx_StdPeriph_Driver/src/stm32f4xx_fsmc.c ****   FSMC_NORSRAMInitStruct->FSMC_WriteTimingStruct->FSMC_CLKDivision = 0xF;
 258:../STLibs//STM32F4xx_DSP_StdPeriph_Lib_V1.0.1/Libraries/STM32F4xx_StdPeriph_Driver/src/stm32f4xx_fsmc.c ****   FSMC_NORSRAMInitStruct->FSMC_WriteTimingStruct->FSMC_DataLatency = 0xF;
 256              		.loc 1 258 0
 257 0112 C1E90422 		strd	r2, r2, [r1, #16]
 259:../STLibs//STM32F4xx_DSP_StdPeriph_Lib_V1.0.1/Libraries/STM32F4xx_StdPeriph_Driver/src/stm32f4xx_fsmc.c ****   FSMC_NORSRAMInitStruct->FSMC_WriteTimingStruct->FSMC_AccessMode = FSMC_AccessMode_A;
 258              		.loc 1 259 0
 259 0116 8B61     		str	r3, [r1, #24]
 260:../STLibs//STM32F4xx_DSP_StdPeriph_Lib_V1.0.1/Libraries/STM32F4xx_StdPeriph_Driver/src/stm32f4xx_fsmc.c **** }
 260              		.loc 1 260 0
 261 0118 10BD     		pop	{r4, pc}
 262              		.cfi_endproc
 263              	.LFE112:
 265              		.align	1
 266              		.global	FSMC_NORSRAMCmd
 267              		.syntax unified
 268              		.thumb
 269              		.thumb_func
 270              		.fpu fpv4-sp-d16
 272              	FSMC_NORSRAMCmd:
 273              	.LFB113:
 261:../STLibs//STM32F4xx_DSP_StdPeriph_Lib_V1.0.1/Libraries/STM32F4xx_StdPeriph_Driver/src/stm32f4xx_fsmc.c **** 
 262:../STLibs//STM32F4xx_DSP_StdPeriph_Lib_V1.0.1/Libraries/STM32F4xx_StdPeriph_Driver/src/stm32f4xx_fsmc.c **** /**
 263:../STLibs//STM32F4xx_DSP_StdPeriph_Lib_V1.0.1/Libraries/STM32F4xx_StdPeriph_Driver/src/stm32f4xx_fsmc.c ****   * @brief  Enables or disables the specified NOR/SRAM Memory Bank.
 264:../STLibs//STM32F4xx_DSP_StdPeriph_Lib_V1.0.1/Libraries/STM32F4xx_StdPeriph_Driver/src/stm32f4xx_fsmc.c ****   * @param  FSMC_Bank: specifies the FSMC Bank to be used
 265:../STLibs//STM32F4xx_DSP_StdPeriph_Lib_V1.0.1/Libraries/STM32F4xx_StdPeriph_Driver/src/stm32f4xx_fsmc.c ****   *          This parameter can be one of the following values:
 266:../STLibs//STM32F4xx_DSP_StdPeriph_Lib_V1.0.1/Libraries/STM32F4xx_StdPeriph_Driver/src/stm32f4xx_fsmc.c ****   *            @arg FSMC_Bank1_NORSRAM1: FSMC Bank1 NOR/SRAM1  
 267:../STLibs//STM32F4xx_DSP_StdPeriph_Lib_V1.0.1/Libraries/STM32F4xx_StdPeriph_Driver/src/stm32f4xx_fsmc.c ****   *            @arg FSMC_Bank1_NORSRAM2: FSMC Bank1 NOR/SRAM2 
 268:../STLibs//STM32F4xx_DSP_StdPeriph_Lib_V1.0.1/Libraries/STM32F4xx_StdPeriph_Driver/src/stm32f4xx_fsmc.c ****   *            @arg FSMC_Bank1_NORSRAM3: FSMC Bank1 NOR/SRAM3 
 269:../STLibs//STM32F4xx_DSP_StdPeriph_Lib_V1.0.1/Libraries/STM32F4xx_StdPeriph_Driver/src/stm32f4xx_fsmc.c ****   *            @arg FSMC_Bank1_NORSRAM4: FSMC Bank1 NOR/SRAM4 
 270:../STLibs//STM32F4xx_DSP_StdPeriph_Lib_V1.0.1/Libraries/STM32F4xx_StdPeriph_Driver/src/stm32f4xx_fsmc.c ****   * @param  NewState: new state of the FSMC_Bank. This parameter can be: ENABLE or DISABLE.
 271:../STLibs//STM32F4xx_DSP_StdPeriph_Lib_V1.0.1/Libraries/STM32F4xx_StdPeriph_Driver/src/stm32f4xx_fsmc.c ****   * @retval None
 272:../STLibs//STM32F4xx_DSP_StdPeriph_Lib_V1.0.1/Libraries/STM32F4xx_StdPeriph_Driver/src/stm32f4xx_fsmc.c ****   */
 273:../STLibs//STM32F4xx_DSP_StdPeriph_Lib_V1.0.1/Libraries/STM32F4xx_StdPeriph_Driver/src/stm32f4xx_fsmc.c **** void FSMC_NORSRAMCmd(uint32_t FSMC_Bank, FunctionalState NewState)
 274:../STLibs//STM32F4xx_DSP_StdPeriph_Lib_V1.0.1/Libraries/STM32F4xx_StdPeriph_Driver/src/stm32f4xx_fsmc.c **** {
 274              		.loc 1 274 0
 275              		.cfi_startproc
 276              		@ args = 0, pretend = 0, frame = 0
 277              		@ frame_needed = 0, uses_anonymous_args = 0
 278              		@ link register save eliminated.
 279              	.LVL5:
 280 011a 8000     		lsls	r0, r0, #2
 281              	.LVL6:
 282 011c 00F12040 		add	r0, r0, #-1610612736
 275:../STLibs//STM32F4xx_DSP_StdPeriph_Lib_V1.0.1/Libraries/STM32F4xx_StdPeriph_Driver/src/stm32f4xx_fsmc.c ****   assert_param(IS_FSMC_NORSRAM_BANK(FSMC_Bank));
 276:../STLibs//STM32F4xx_DSP_StdPeriph_Lib_V1.0.1/Libraries/STM32F4xx_StdPeriph_Driver/src/stm32f4xx_fsmc.c ****   assert_param(IS_FUNCTIONAL_STATE(NewState));
 277:../STLibs//STM32F4xx_DSP_StdPeriph_Lib_V1.0.1/Libraries/STM32F4xx_StdPeriph_Driver/src/stm32f4xx_fsmc.c ****   
 278:../STLibs//STM32F4xx_DSP_StdPeriph_Lib_V1.0.1/Libraries/STM32F4xx_StdPeriph_Driver/src/stm32f4xx_fsmc.c ****   if (NewState != DISABLE)
 283              		.loc 1 278 0
 284 0120 21B1     		cbz	r1, .L11
 279:../STLibs//STM32F4xx_DSP_StdPeriph_Lib_V1.0.1/Libraries/STM32F4xx_StdPeriph_Driver/src/stm32f4xx_fsmc.c ****   {
 280:../STLibs//STM32F4xx_DSP_StdPeriph_Lib_V1.0.1/Libraries/STM32F4xx_StdPeriph_Driver/src/stm32f4xx_fsmc.c ****     /* Enable the selected NOR/SRAM Bank by setting the PBKEN bit in the BCRx register */
 281:../STLibs//STM32F4xx_DSP_StdPeriph_Lib_V1.0.1/Libraries/STM32F4xx_StdPeriph_Driver/src/stm32f4xx_fsmc.c ****     FSMC_Bank1->BTCR[FSMC_Bank] |= BCR_MBKEN_SET;
 285              		.loc 1 281 0
 286 0122 0368     		ldr	r3, [r0]
 287 0124 43F00103 		orr	r3, r3, #1
 288              	.L13:
 282:../STLibs//STM32F4xx_DSP_StdPeriph_Lib_V1.0.1/Libraries/STM32F4xx_StdPeriph_Driver/src/stm32f4xx_fsmc.c ****   }
 283:../STLibs//STM32F4xx_DSP_StdPeriph_Lib_V1.0.1/Libraries/STM32F4xx_StdPeriph_Driver/src/stm32f4xx_fsmc.c ****   else
 284:../STLibs//STM32F4xx_DSP_StdPeriph_Lib_V1.0.1/Libraries/STM32F4xx_StdPeriph_Driver/src/stm32f4xx_fsmc.c ****   {
 285:../STLibs//STM32F4xx_DSP_StdPeriph_Lib_V1.0.1/Libraries/STM32F4xx_StdPeriph_Driver/src/stm32f4xx_fsmc.c ****     /* Disable the selected NOR/SRAM Bank by clearing the PBKEN bit in the BCRx register */
 286:../STLibs//STM32F4xx_DSP_StdPeriph_Lib_V1.0.1/Libraries/STM32F4xx_StdPeriph_Driver/src/stm32f4xx_fsmc.c ****     FSMC_Bank1->BTCR[FSMC_Bank] &= BCR_MBKEN_RESET;
 289              		.loc 1 286 0
 290 0128 0360     		str	r3, [r0]
 287:../STLibs//STM32F4xx_DSP_StdPeriph_Lib_V1.0.1/Libraries/STM32F4xx_StdPeriph_Driver/src/stm32f4xx_fsmc.c ****   }
 288:../STLibs//STM32F4xx_DSP_StdPeriph_Lib_V1.0.1/Libraries/STM32F4xx_StdPeriph_Driver/src/stm32f4xx_fsmc.c **** }
 291              		.loc 1 288 0
 292 012a 7047     		bx	lr
 293              	.L11:
 286:../STLibs//STM32F4xx_DSP_StdPeriph_Lib_V1.0.1/Libraries/STM32F4xx_StdPeriph_Driver/src/stm32f4xx_fsmc.c ****   }
 294              		.loc 1 286 0
 295 012c 0268     		ldr	r2, [r0]
 296 012e 014B     		ldr	r3, .L14
 297 0130 1340     		ands	r3, r3, r2
 298 0132 F9E7     		b	.L13
 299              	.L15:
 300              		.align	2
 301              	.L14:
 302 0134 FEFF0F00 		.word	1048574
 303              		.cfi_endproc
 304              	.LFE113:
 306              		.align	1
 307              		.global	FSMC_NANDDeInit
 308              		.syntax unified
 309              		.thumb
 310              		.thumb_func
 311              		.fpu fpv4-sp-d16
 313              	FSMC_NANDDeInit:
 314              	.LFB114:
 289:../STLibs//STM32F4xx_DSP_StdPeriph_Lib_V1.0.1/Libraries/STM32F4xx_StdPeriph_Driver/src/stm32f4xx_fsmc.c **** /**
 290:../STLibs//STM32F4xx_DSP_StdPeriph_Lib_V1.0.1/Libraries/STM32F4xx_StdPeriph_Driver/src/stm32f4xx_fsmc.c ****   * @}
 291:../STLibs//STM32F4xx_DSP_StdPeriph_Lib_V1.0.1/Libraries/STM32F4xx_StdPeriph_Driver/src/stm32f4xx_fsmc.c ****   */
 292:../STLibs//STM32F4xx_DSP_StdPeriph_Lib_V1.0.1/Libraries/STM32F4xx_StdPeriph_Driver/src/stm32f4xx_fsmc.c **** 
 293:../STLibs//STM32F4xx_DSP_StdPeriph_Lib_V1.0.1/Libraries/STM32F4xx_StdPeriph_Driver/src/stm32f4xx_fsmc.c **** /** @defgroup FSMC_Group2 NAND Controller functions
 294:../STLibs//STM32F4xx_DSP_StdPeriph_Lib_V1.0.1/Libraries/STM32F4xx_StdPeriph_Driver/src/stm32f4xx_fsmc.c ****  *  @brief   NAND Controller functions 
 295:../STLibs//STM32F4xx_DSP_StdPeriph_Lib_V1.0.1/Libraries/STM32F4xx_StdPeriph_Driver/src/stm32f4xx_fsmc.c ****  *
 296:../STLibs//STM32F4xx_DSP_StdPeriph_Lib_V1.0.1/Libraries/STM32F4xx_StdPeriph_Driver/src/stm32f4xx_fsmc.c **** @verbatim   
 297:../STLibs//STM32F4xx_DSP_StdPeriph_Lib_V1.0.1/Libraries/STM32F4xx_StdPeriph_Driver/src/stm32f4xx_fsmc.c ****  ===============================================================================
 298:../STLibs//STM32F4xx_DSP_StdPeriph_Lib_V1.0.1/Libraries/STM32F4xx_StdPeriph_Driver/src/stm32f4xx_fsmc.c ****                     NAND Controller functions
 299:../STLibs//STM32F4xx_DSP_StdPeriph_Lib_V1.0.1/Libraries/STM32F4xx_StdPeriph_Driver/src/stm32f4xx_fsmc.c ****  ===============================================================================  
 300:../STLibs//STM32F4xx_DSP_StdPeriph_Lib_V1.0.1/Libraries/STM32F4xx_StdPeriph_Driver/src/stm32f4xx_fsmc.c **** 
 301:../STLibs//STM32F4xx_DSP_StdPeriph_Lib_V1.0.1/Libraries/STM32F4xx_StdPeriph_Driver/src/stm32f4xx_fsmc.c ****  The following sequence should be followed to configure the FSMC to interface with
 302:../STLibs//STM32F4xx_DSP_StdPeriph_Lib_V1.0.1/Libraries/STM32F4xx_StdPeriph_Driver/src/stm32f4xx_fsmc.c ****  8-bit or 16-bit NAND memory connected to the NAND Bank:
 303:../STLibs//STM32F4xx_DSP_StdPeriph_Lib_V1.0.1/Libraries/STM32F4xx_StdPeriph_Driver/src/stm32f4xx_fsmc.c ****  
 304:../STLibs//STM32F4xx_DSP_StdPeriph_Lib_V1.0.1/Libraries/STM32F4xx_StdPeriph_Driver/src/stm32f4xx_fsmc.c ****    1. Enable the clock for the FSMC and associated GPIOs using the following functions:
 305:../STLibs//STM32F4xx_DSP_StdPeriph_Lib_V1.0.1/Libraries/STM32F4xx_StdPeriph_Driver/src/stm32f4xx_fsmc.c ****           RCC_AHB3PeriphClockCmd(RCC_AHB3Periph_FSMC, ENABLE);
 306:../STLibs//STM32F4xx_DSP_StdPeriph_Lib_V1.0.1/Libraries/STM32F4xx_StdPeriph_Driver/src/stm32f4xx_fsmc.c ****           RCC_AHB1PeriphClockCmd(RCC_AHB1Periph_GPIOx, ENABLE);
 307:../STLibs//STM32F4xx_DSP_StdPeriph_Lib_V1.0.1/Libraries/STM32F4xx_StdPeriph_Driver/src/stm32f4xx_fsmc.c **** 
 308:../STLibs//STM32F4xx_DSP_StdPeriph_Lib_V1.0.1/Libraries/STM32F4xx_StdPeriph_Driver/src/stm32f4xx_fsmc.c ****    2. FSMC pins configuration 
 309:../STLibs//STM32F4xx_DSP_StdPeriph_Lib_V1.0.1/Libraries/STM32F4xx_StdPeriph_Driver/src/stm32f4xx_fsmc.c ****        - Connect the involved FSMC pins to AF12 using the following function 
 310:../STLibs//STM32F4xx_DSP_StdPeriph_Lib_V1.0.1/Libraries/STM32F4xx_StdPeriph_Driver/src/stm32f4xx_fsmc.c ****           GPIO_PinAFConfig(GPIOx, GPIO_PinSourcex, GPIO_AF_FSMC); 
 311:../STLibs//STM32F4xx_DSP_StdPeriph_Lib_V1.0.1/Libraries/STM32F4xx_StdPeriph_Driver/src/stm32f4xx_fsmc.c ****        - Configure these FSMC pins in alternate function mode by calling the function
 312:../STLibs//STM32F4xx_DSP_StdPeriph_Lib_V1.0.1/Libraries/STM32F4xx_StdPeriph_Driver/src/stm32f4xx_fsmc.c ****           GPIO_Init();    
 313:../STLibs//STM32F4xx_DSP_StdPeriph_Lib_V1.0.1/Libraries/STM32F4xx_StdPeriph_Driver/src/stm32f4xx_fsmc.c ****        
 314:../STLibs//STM32F4xx_DSP_StdPeriph_Lib_V1.0.1/Libraries/STM32F4xx_StdPeriph_Driver/src/stm32f4xx_fsmc.c ****    3. Declare a FSMC_NANDInitTypeDef structure, for example:
 315:../STLibs//STM32F4xx_DSP_StdPeriph_Lib_V1.0.1/Libraries/STM32F4xx_StdPeriph_Driver/src/stm32f4xx_fsmc.c ****           FSMC_NANDInitTypeDef  FSMC_NANDInitStructure;
 316:../STLibs//STM32F4xx_DSP_StdPeriph_Lib_V1.0.1/Libraries/STM32F4xx_StdPeriph_Driver/src/stm32f4xx_fsmc.c ****       and fill the FSMC_NANDInitStructure variable with the allowed values of
 317:../STLibs//STM32F4xx_DSP_StdPeriph_Lib_V1.0.1/Libraries/STM32F4xx_StdPeriph_Driver/src/stm32f4xx_fsmc.c ****       the structure member.
 318:../STLibs//STM32F4xx_DSP_StdPeriph_Lib_V1.0.1/Libraries/STM32F4xx_StdPeriph_Driver/src/stm32f4xx_fsmc.c ****       
 319:../STLibs//STM32F4xx_DSP_StdPeriph_Lib_V1.0.1/Libraries/STM32F4xx_StdPeriph_Driver/src/stm32f4xx_fsmc.c ****    4. Initialize the NAND Controller by calling the function
 320:../STLibs//STM32F4xx_DSP_StdPeriph_Lib_V1.0.1/Libraries/STM32F4xx_StdPeriph_Driver/src/stm32f4xx_fsmc.c ****           FSMC_NANDInit(&FSMC_NANDInitStructure); 
 321:../STLibs//STM32F4xx_DSP_StdPeriph_Lib_V1.0.1/Libraries/STM32F4xx_StdPeriph_Driver/src/stm32f4xx_fsmc.c **** 
 322:../STLibs//STM32F4xx_DSP_StdPeriph_Lib_V1.0.1/Libraries/STM32F4xx_StdPeriph_Driver/src/stm32f4xx_fsmc.c ****    5. Then enable the NAND Bank, for example:
 323:../STLibs//STM32F4xx_DSP_StdPeriph_Lib_V1.0.1/Libraries/STM32F4xx_StdPeriph_Driver/src/stm32f4xx_fsmc.c ****           FSMC_NANDCmd(FSMC_Bank3_NAND, ENABLE);  
 324:../STLibs//STM32F4xx_DSP_StdPeriph_Lib_V1.0.1/Libraries/STM32F4xx_StdPeriph_Driver/src/stm32f4xx_fsmc.c **** 
 325:../STLibs//STM32F4xx_DSP_StdPeriph_Lib_V1.0.1/Libraries/STM32F4xx_StdPeriph_Driver/src/stm32f4xx_fsmc.c ****    6. At this stage you can read/write from/to the memory connected to the NAND Bank. 
 326:../STLibs//STM32F4xx_DSP_StdPeriph_Lib_V1.0.1/Libraries/STM32F4xx_StdPeriph_Driver/src/stm32f4xx_fsmc.c ****    
 327:../STLibs//STM32F4xx_DSP_StdPeriph_Lib_V1.0.1/Libraries/STM32F4xx_StdPeriph_Driver/src/stm32f4xx_fsmc.c **** @note To enable the Error Correction Code (ECC), you have to use the function
 328:../STLibs//STM32F4xx_DSP_StdPeriph_Lib_V1.0.1/Libraries/STM32F4xx_StdPeriph_Driver/src/stm32f4xx_fsmc.c ****           FSMC_NANDECCCmd(FSMC_Bank3_NAND, ENABLE);  
 329:../STLibs//STM32F4xx_DSP_StdPeriph_Lib_V1.0.1/Libraries/STM32F4xx_StdPeriph_Driver/src/stm32f4xx_fsmc.c ****       and to get the current ECC value you have to use the function
 330:../STLibs//STM32F4xx_DSP_StdPeriph_Lib_V1.0.1/Libraries/STM32F4xx_StdPeriph_Driver/src/stm32f4xx_fsmc.c ****           ECCval = FSMC_GetECC(FSMC_Bank3_NAND); 
 331:../STLibs//STM32F4xx_DSP_StdPeriph_Lib_V1.0.1/Libraries/STM32F4xx_StdPeriph_Driver/src/stm32f4xx_fsmc.c **** 
 332:../STLibs//STM32F4xx_DSP_StdPeriph_Lib_V1.0.1/Libraries/STM32F4xx_StdPeriph_Driver/src/stm32f4xx_fsmc.c **** @endverbatim
 333:../STLibs//STM32F4xx_DSP_StdPeriph_Lib_V1.0.1/Libraries/STM32F4xx_StdPeriph_Driver/src/stm32f4xx_fsmc.c ****   * @{
 334:../STLibs//STM32F4xx_DSP_StdPeriph_Lib_V1.0.1/Libraries/STM32F4xx_StdPeriph_Driver/src/stm32f4xx_fsmc.c ****   */
 335:../STLibs//STM32F4xx_DSP_StdPeriph_Lib_V1.0.1/Libraries/STM32F4xx_StdPeriph_Driver/src/stm32f4xx_fsmc.c ****   
 336:../STLibs//STM32F4xx_DSP_StdPeriph_Lib_V1.0.1/Libraries/STM32F4xx_StdPeriph_Driver/src/stm32f4xx_fsmc.c **** /**
 337:../STLibs//STM32F4xx_DSP_StdPeriph_Lib_V1.0.1/Libraries/STM32F4xx_StdPeriph_Driver/src/stm32f4xx_fsmc.c ****   * @brief  Deinitializes the FSMC NAND Banks registers to their default reset values.
 338:../STLibs//STM32F4xx_DSP_StdPeriph_Lib_V1.0.1/Libraries/STM32F4xx_StdPeriph_Driver/src/stm32f4xx_fsmc.c ****   * @param  FSMC_Bank: specifies the FSMC Bank to be used
 339:../STLibs//STM32F4xx_DSP_StdPeriph_Lib_V1.0.1/Libraries/STM32F4xx_StdPeriph_Driver/src/stm32f4xx_fsmc.c ****   *          This parameter can be one of the following values:
 340:../STLibs//STM32F4xx_DSP_StdPeriph_Lib_V1.0.1/Libraries/STM32F4xx_StdPeriph_Driver/src/stm32f4xx_fsmc.c ****   *            @arg FSMC_Bank2_NAND: FSMC Bank2 NAND 
 341:../STLibs//STM32F4xx_DSP_StdPeriph_Lib_V1.0.1/Libraries/STM32F4xx_StdPeriph_Driver/src/stm32f4xx_fsmc.c ****   *            @arg FSMC_Bank3_NAND: FSMC Bank3 NAND 
 342:../STLibs//STM32F4xx_DSP_StdPeriph_Lib_V1.0.1/Libraries/STM32F4xx_StdPeriph_Driver/src/stm32f4xx_fsmc.c ****   * @retval None
 343:../STLibs//STM32F4xx_DSP_StdPeriph_Lib_V1.0.1/Libraries/STM32F4xx_StdPeriph_Driver/src/stm32f4xx_fsmc.c ****   */
 344:../STLibs//STM32F4xx_DSP_StdPeriph_Lib_V1.0.1/Libraries/STM32F4xx_StdPeriph_Driver/src/stm32f4xx_fsmc.c **** void FSMC_NANDDeInit(uint32_t FSMC_Bank)
 345:../STLibs//STM32F4xx_DSP_StdPeriph_Lib_V1.0.1/Libraries/STM32F4xx_StdPeriph_Driver/src/stm32f4xx_fsmc.c **** {
 315              		.loc 1 345 0
 316              		.cfi_startproc
 317              		@ args = 0, pretend = 0, frame = 0
 318              		@ frame_needed = 0, uses_anonymous_args = 0
 319              		@ link register save eliminated.
 320              	.LVL7:
 346:../STLibs//STM32F4xx_DSP_StdPeriph_Lib_V1.0.1/Libraries/STM32F4xx_StdPeriph_Driver/src/stm32f4xx_fsmc.c ****   /* Check the parameter */
 347:../STLibs//STM32F4xx_DSP_StdPeriph_Lib_V1.0.1/Libraries/STM32F4xx_StdPeriph_Driver/src/stm32f4xx_fsmc.c ****   assert_param(IS_FSMC_NAND_BANK(FSMC_Bank));
 348:../STLibs//STM32F4xx_DSP_StdPeriph_Lib_V1.0.1/Libraries/STM32F4xx_StdPeriph_Driver/src/stm32f4xx_fsmc.c ****   
 349:../STLibs//STM32F4xx_DSP_StdPeriph_Lib_V1.0.1/Libraries/STM32F4xx_StdPeriph_Driver/src/stm32f4xx_fsmc.c ****   if(FSMC_Bank == FSMC_Bank2_NAND)
 321              		.loc 1 349 0
 322 0138 1028     		cmp	r0, #16
 350:../STLibs//STM32F4xx_DSP_StdPeriph_Lib_V1.0.1/Libraries/STM32F4xx_StdPeriph_Driver/src/stm32f4xx_fsmc.c ****   {
 351:../STLibs//STM32F4xx_DSP_StdPeriph_Lib_V1.0.1/Libraries/STM32F4xx_StdPeriph_Driver/src/stm32f4xx_fsmc.c ****     /* Set the FSMC_Bank2 registers to their reset values */
 352:../STLibs//STM32F4xx_DSP_StdPeriph_Lib_V1.0.1/Libraries/STM32F4xx_StdPeriph_Driver/src/stm32f4xx_fsmc.c ****     FSMC_Bank2->PCR2 = 0x00000018;
 323              		.loc 1 352 0
 324 013a 0CBF     		ite	eq
 325 013c 054B     		ldreq	r3, .L20
 353:../STLibs//STM32F4xx_DSP_StdPeriph_Lib_V1.0.1/Libraries/STM32F4xx_StdPeriph_Driver/src/stm32f4xx_fsmc.c ****     FSMC_Bank2->SR2 = 0x00000040;
 354:../STLibs//STM32F4xx_DSP_StdPeriph_Lib_V1.0.1/Libraries/STM32F4xx_StdPeriph_Driver/src/stm32f4xx_fsmc.c ****     FSMC_Bank2->PMEM2 = 0xFCFCFCFC;
 355:../STLibs//STM32F4xx_DSP_StdPeriph_Lib_V1.0.1/Libraries/STM32F4xx_StdPeriph_Driver/src/stm32f4xx_fsmc.c ****     FSMC_Bank2->PATT2 = 0xFCFCFCFC;  
 356:../STLibs//STM32F4xx_DSP_StdPeriph_Lib_V1.0.1/Libraries/STM32F4xx_StdPeriph_Driver/src/stm32f4xx_fsmc.c ****   }
 357:../STLibs//STM32F4xx_DSP_StdPeriph_Lib_V1.0.1/Libraries/STM32F4xx_StdPeriph_Driver/src/stm32f4xx_fsmc.c ****   /* FSMC_Bank3_NAND */  
 358:../STLibs//STM32F4xx_DSP_StdPeriph_Lib_V1.0.1/Libraries/STM32F4xx_StdPeriph_Driver/src/stm32f4xx_fsmc.c ****   else
 359:../STLibs//STM32F4xx_DSP_StdPeriph_Lib_V1.0.1/Libraries/STM32F4xx_StdPeriph_Driver/src/stm32f4xx_fsmc.c ****   {
 360:../STLibs//STM32F4xx_DSP_StdPeriph_Lib_V1.0.1/Libraries/STM32F4xx_StdPeriph_Driver/src/stm32f4xx_fsmc.c ****     /* Set the FSMC_Bank3 registers to their reset values */
 361:../STLibs//STM32F4xx_DSP_StdPeriph_Lib_V1.0.1/Libraries/STM32F4xx_StdPeriph_Driver/src/stm32f4xx_fsmc.c ****     FSMC_Bank3->PCR3 = 0x00000018;
 326              		.loc 1 361 0
 327 013e 064B     		ldrne	r3, .L20+4
 328 0140 4022     		movs	r2, #64
 329 0142 1821     		movs	r1, #24
 330 0144 1960     		str	r1, [r3]
 362:../STLibs//STM32F4xx_DSP_StdPeriph_Lib_V1.0.1/Libraries/STM32F4xx_StdPeriph_Driver/src/stm32f4xx_fsmc.c ****     FSMC_Bank3->SR3 = 0x00000040;
 331              		.loc 1 362 0
 332 0146 5A60     		str	r2, [r3, #4]
 363:../STLibs//STM32F4xx_DSP_StdPeriph_Lib_V1.0.1/Libraries/STM32F4xx_StdPeriph_Driver/src/stm32f4xx_fsmc.c ****     FSMC_Bank3->PMEM3 = 0xFCFCFCFC;
 333              		.loc 1 363 0
 334 0148 4FF0FC32 		mov	r2, #-50529028
 335 014c 9A60     		str	r2, [r3, #8]
 364:../STLibs//STM32F4xx_DSP_StdPeriph_Lib_V1.0.1/Libraries/STM32F4xx_StdPeriph_Driver/src/stm32f4xx_fsmc.c ****     FSMC_Bank3->PATT3 = 0xFCFCFCFC; 
 336              		.loc 1 364 0
 337 014e DA60     		str	r2, [r3, #12]
 365:../STLibs//STM32F4xx_DSP_StdPeriph_Lib_V1.0.1/Libraries/STM32F4xx_StdPeriph_Driver/src/stm32f4xx_fsmc.c ****   }  
 366:../STLibs//STM32F4xx_DSP_StdPeriph_Lib_V1.0.1/Libraries/STM32F4xx_StdPeriph_Driver/src/stm32f4xx_fsmc.c **** }
 338              		.loc 1 366 0
 339 0150 7047     		bx	lr
 340              	.L21:
 341 0152 00BF     		.align	2
 342              	.L20:
 343 0154 600000A0 		.word	-1610612640
 344 0158 800000A0 		.word	-1610612608
 345              		.cfi_endproc
 346              	.LFE114:
 348              		.align	1
 349              		.global	FSMC_NANDInit
 350              		.syntax unified
 351              		.thumb
 352              		.thumb_func
 353              		.fpu fpv4-sp-d16
 355              	FSMC_NANDInit:
 356              	.LFB115:
 367:../STLibs//STM32F4xx_DSP_StdPeriph_Lib_V1.0.1/Libraries/STM32F4xx_StdPeriph_Driver/src/stm32f4xx_fsmc.c **** 
 368:../STLibs//STM32F4xx_DSP_StdPeriph_Lib_V1.0.1/Libraries/STM32F4xx_StdPeriph_Driver/src/stm32f4xx_fsmc.c **** /**
 369:../STLibs//STM32F4xx_DSP_StdPeriph_Lib_V1.0.1/Libraries/STM32F4xx_StdPeriph_Driver/src/stm32f4xx_fsmc.c ****   * @brief  Initializes the FSMC NAND Banks according to the specified parameters
 370:../STLibs//STM32F4xx_DSP_StdPeriph_Lib_V1.0.1/Libraries/STM32F4xx_StdPeriph_Driver/src/stm32f4xx_fsmc.c ****   *         in the FSMC_NANDInitStruct.
 371:../STLibs//STM32F4xx_DSP_StdPeriph_Lib_V1.0.1/Libraries/STM32F4xx_StdPeriph_Driver/src/stm32f4xx_fsmc.c ****   * @param  FSMC_NANDInitStruct : pointer to a FSMC_NANDInitTypeDef structure that
 372:../STLibs//STM32F4xx_DSP_StdPeriph_Lib_V1.0.1/Libraries/STM32F4xx_StdPeriph_Driver/src/stm32f4xx_fsmc.c ****   *         contains the configuration information for the FSMC NAND specified Banks.              
 373:../STLibs//STM32F4xx_DSP_StdPeriph_Lib_V1.0.1/Libraries/STM32F4xx_StdPeriph_Driver/src/stm32f4xx_fsmc.c ****   * @retval None
 374:../STLibs//STM32F4xx_DSP_StdPeriph_Lib_V1.0.1/Libraries/STM32F4xx_StdPeriph_Driver/src/stm32f4xx_fsmc.c ****   */
 375:../STLibs//STM32F4xx_DSP_StdPeriph_Lib_V1.0.1/Libraries/STM32F4xx_StdPeriph_Driver/src/stm32f4xx_fsmc.c **** void FSMC_NANDInit(FSMC_NANDInitTypeDef* FSMC_NANDInitStruct)
 376:../STLibs//STM32F4xx_DSP_StdPeriph_Lib_V1.0.1/Libraries/STM32F4xx_StdPeriph_Driver/src/stm32f4xx_fsmc.c **** {
 357              		.loc 1 376 0
 358              		.cfi_startproc
 359              		@ args = 0, pretend = 0, frame = 0
 360              		@ frame_needed = 0, uses_anonymous_args = 0
 361              	.LVL8:
 377:../STLibs//STM32F4xx_DSP_StdPeriph_Lib_V1.0.1/Libraries/STM32F4xx_StdPeriph_Driver/src/stm32f4xx_fsmc.c ****   uint32_t tmppcr = 0x00000000, tmppmem = 0x00000000, tmppatt = 0x00000000; 
 378:../STLibs//STM32F4xx_DSP_StdPeriph_Lib_V1.0.1/Libraries/STM32F4xx_StdPeriph_Driver/src/stm32f4xx_fsmc.c ****     
 379:../STLibs//STM32F4xx_DSP_StdPeriph_Lib_V1.0.1/Libraries/STM32F4xx_StdPeriph_Driver/src/stm32f4xx_fsmc.c ****   /* Check the parameters */
 380:../STLibs//STM32F4xx_DSP_StdPeriph_Lib_V1.0.1/Libraries/STM32F4xx_StdPeriph_Driver/src/stm32f4xx_fsmc.c ****   assert_param( IS_FSMC_NAND_BANK(FSMC_NANDInitStruct->FSMC_Bank));
 381:../STLibs//STM32F4xx_DSP_StdPeriph_Lib_V1.0.1/Libraries/STM32F4xx_StdPeriph_Driver/src/stm32f4xx_fsmc.c ****   assert_param( IS_FSMC_WAIT_FEATURE(FSMC_NANDInitStruct->FSMC_Waitfeature));
 382:../STLibs//STM32F4xx_DSP_StdPeriph_Lib_V1.0.1/Libraries/STM32F4xx_StdPeriph_Driver/src/stm32f4xx_fsmc.c ****   assert_param( IS_FSMC_MEMORY_WIDTH(FSMC_NANDInitStruct->FSMC_MemoryDataWidth));
 383:../STLibs//STM32F4xx_DSP_StdPeriph_Lib_V1.0.1/Libraries/STM32F4xx_StdPeriph_Driver/src/stm32f4xx_fsmc.c ****   assert_param( IS_FSMC_ECC_STATE(FSMC_NANDInitStruct->FSMC_ECC));
 384:../STLibs//STM32F4xx_DSP_StdPeriph_Lib_V1.0.1/Libraries/STM32F4xx_StdPeriph_Driver/src/stm32f4xx_fsmc.c ****   assert_param( IS_FSMC_ECCPAGE_SIZE(FSMC_NANDInitStruct->FSMC_ECCPageSize));
 385:../STLibs//STM32F4xx_DSP_StdPeriph_Lib_V1.0.1/Libraries/STM32F4xx_StdPeriph_Driver/src/stm32f4xx_fsmc.c ****   assert_param( IS_FSMC_TCLR_TIME(FSMC_NANDInitStruct->FSMC_TCLRSetupTime));
 386:../STLibs//STM32F4xx_DSP_StdPeriph_Lib_V1.0.1/Libraries/STM32F4xx_StdPeriph_Driver/src/stm32f4xx_fsmc.c ****   assert_param( IS_FSMC_TAR_TIME(FSMC_NANDInitStruct->FSMC_TARSetupTime));
 387:../STLibs//STM32F4xx_DSP_StdPeriph_Lib_V1.0.1/Libraries/STM32F4xx_StdPeriph_Driver/src/stm32f4xx_fsmc.c ****   assert_param(IS_FSMC_SETUP_TIME(FSMC_NANDInitStruct->FSMC_CommonSpaceTimingStruct->FSMC_SetupTime
 388:../STLibs//STM32F4xx_DSP_StdPeriph_Lib_V1.0.1/Libraries/STM32F4xx_StdPeriph_Driver/src/stm32f4xx_fsmc.c ****   assert_param(IS_FSMC_WAIT_TIME(FSMC_NANDInitStruct->FSMC_CommonSpaceTimingStruct->FSMC_WaitSetupT
 389:../STLibs//STM32F4xx_DSP_StdPeriph_Lib_V1.0.1/Libraries/STM32F4xx_StdPeriph_Driver/src/stm32f4xx_fsmc.c ****   assert_param(IS_FSMC_HOLD_TIME(FSMC_NANDInitStruct->FSMC_CommonSpaceTimingStruct->FSMC_HoldSetupT
 390:../STLibs//STM32F4xx_DSP_StdPeriph_Lib_V1.0.1/Libraries/STM32F4xx_StdPeriph_Driver/src/stm32f4xx_fsmc.c ****   assert_param(IS_FSMC_HIZ_TIME(FSMC_NANDInitStruct->FSMC_CommonSpaceTimingStruct->FSMC_HiZSetupTim
 391:../STLibs//STM32F4xx_DSP_StdPeriph_Lib_V1.0.1/Libraries/STM32F4xx_StdPeriph_Driver/src/stm32f4xx_fsmc.c ****   assert_param(IS_FSMC_SETUP_TIME(FSMC_NANDInitStruct->FSMC_AttributeSpaceTimingStruct->FSMC_SetupT
 392:../STLibs//STM32F4xx_DSP_StdPeriph_Lib_V1.0.1/Libraries/STM32F4xx_StdPeriph_Driver/src/stm32f4xx_fsmc.c ****   assert_param(IS_FSMC_WAIT_TIME(FSMC_NANDInitStruct->FSMC_AttributeSpaceTimingStruct->FSMC_WaitSet
 393:../STLibs//STM32F4xx_DSP_StdPeriph_Lib_V1.0.1/Libraries/STM32F4xx_StdPeriph_Driver/src/stm32f4xx_fsmc.c ****   assert_param(IS_FSMC_HOLD_TIME(FSMC_NANDInitStruct->FSMC_AttributeSpaceTimingStruct->FSMC_HoldSet
 394:../STLibs//STM32F4xx_DSP_StdPeriph_Lib_V1.0.1/Libraries/STM32F4xx_StdPeriph_Driver/src/stm32f4xx_fsmc.c ****   assert_param(IS_FSMC_HIZ_TIME(FSMC_NANDInitStruct->FSMC_AttributeSpaceTimingStruct->FSMC_HiZSetup
 395:../STLibs//STM32F4xx_DSP_StdPeriph_Lib_V1.0.1/Libraries/STM32F4xx_StdPeriph_Driver/src/stm32f4xx_fsmc.c ****   
 396:../STLibs//STM32F4xx_DSP_StdPeriph_Lib_V1.0.1/Libraries/STM32F4xx_StdPeriph_Driver/src/stm32f4xx_fsmc.c ****   /* Set the tmppcr value according to FSMC_NANDInitStruct parameters */
 397:../STLibs//STM32F4xx_DSP_StdPeriph_Lib_V1.0.1/Libraries/STM32F4xx_StdPeriph_Driver/src/stm32f4xx_fsmc.c ****   tmppcr = (uint32_t)FSMC_NANDInitStruct->FSMC_Waitfeature |
 398:../STLibs//STM32F4xx_DSP_StdPeriph_Lib_V1.0.1/Libraries/STM32F4xx_StdPeriph_Driver/src/stm32f4xx_fsmc.c ****             PCR_MEMORYTYPE_NAND |
 362              		.loc 1 398 0
 363 015c D0E90132 		ldrd	r3, r2, [r0, #4]
 364 0160 1343     		orrs	r3, r3, r2
 397:../STLibs//STM32F4xx_DSP_StdPeriph_Lib_V1.0.1/Libraries/STM32F4xx_StdPeriph_Driver/src/stm32f4xx_fsmc.c ****             PCR_MEMORYTYPE_NAND |
 365              		.loc 1 397 0
 366 0162 C268     		ldr	r2, [r0, #12]
 367 0164 43F00803 		orr	r3, r3, #8
 368 0168 1343     		orrs	r3, r3, r2
 369 016a 0269     		ldr	r2, [r0, #16]
 370 016c 1343     		orrs	r3, r3, r2
 399:../STLibs//STM32F4xx_DSP_StdPeriph_Lib_V1.0.1/Libraries/STM32F4xx_StdPeriph_Driver/src/stm32f4xx_fsmc.c ****             FSMC_NANDInitStruct->FSMC_MemoryDataWidth |
 400:../STLibs//STM32F4xx_DSP_StdPeriph_Lib_V1.0.1/Libraries/STM32F4xx_StdPeriph_Driver/src/stm32f4xx_fsmc.c ****             FSMC_NANDInitStruct->FSMC_ECC |
 401:../STLibs//STM32F4xx_DSP_StdPeriph_Lib_V1.0.1/Libraries/STM32F4xx_StdPeriph_Driver/src/stm32f4xx_fsmc.c ****             FSMC_NANDInitStruct->FSMC_ECCPageSize |
 402:../STLibs//STM32F4xx_DSP_StdPeriph_Lib_V1.0.1/Libraries/STM32F4xx_StdPeriph_Driver/src/stm32f4xx_fsmc.c ****             (FSMC_NANDInitStruct->FSMC_TCLRSetupTime << 9 )|
 371              		.loc 1 402 0
 372 016e 4269     		ldr	r2, [r0, #20]
 376:../STLibs//STM32F4xx_DSP_StdPeriph_Lib_V1.0.1/Libraries/STM32F4xx_StdPeriph_Driver/src/stm32f4xx_fsmc.c ****   uint32_t tmppcr = 0x00000000, tmppmem = 0x00000000, tmppatt = 0x00000000; 
 373              		.loc 1 376 0
 374 0170 30B5     		push	{r4, r5, lr}
 375              	.LCFI2:
 376              		.cfi_def_cfa_offset 12
 377              		.cfi_offset 4, -12
 378              		.cfi_offset 5, -8
 379              		.cfi_offset 14, -4
 397:../STLibs//STM32F4xx_DSP_StdPeriph_Lib_V1.0.1/Libraries/STM32F4xx_StdPeriph_Driver/src/stm32f4xx_fsmc.c ****             PCR_MEMORYTYPE_NAND |
 380              		.loc 1 397 0
 381 0172 43EA4223 		orr	r3, r3, r2, lsl #9
 403:../STLibs//STM32F4xx_DSP_StdPeriph_Lib_V1.0.1/Libraries/STM32F4xx_StdPeriph_Driver/src/stm32f4xx_fsmc.c ****             (FSMC_NANDInitStruct->FSMC_TARSetupTime << 13);
 404:../STLibs//STM32F4xx_DSP_StdPeriph_Lib_V1.0.1/Libraries/STM32F4xx_StdPeriph_Driver/src/stm32f4xx_fsmc.c ****             
 405:../STLibs//STM32F4xx_DSP_StdPeriph_Lib_V1.0.1/Libraries/STM32F4xx_StdPeriph_Driver/src/stm32f4xx_fsmc.c ****   /* Set tmppmem value according to FSMC_CommonSpaceTimingStructure parameters */
 406:../STLibs//STM32F4xx_DSP_StdPeriph_Lib_V1.0.1/Libraries/STM32F4xx_StdPeriph_Driver/src/stm32f4xx_fsmc.c ****   tmppmem = (uint32_t)FSMC_NANDInitStruct->FSMC_CommonSpaceTimingStruct->FSMC_SetupTime |
 382              		.loc 1 406 0
 383 0176 C469     		ldr	r4, [r0, #28]
 403:../STLibs//STM32F4xx_DSP_StdPeriph_Lib_V1.0.1/Libraries/STM32F4xx_StdPeriph_Driver/src/stm32f4xx_fsmc.c ****             (FSMC_NANDInitStruct->FSMC_TARSetupTime << 13);
 384              		.loc 1 403 0
 385 0178 8269     		ldr	r2, [r0, #24]
 397:../STLibs//STM32F4xx_DSP_StdPeriph_Lib_V1.0.1/Libraries/STM32F4xx_StdPeriph_Driver/src/stm32f4xx_fsmc.c ****             PCR_MEMORYTYPE_NAND |
 386              		.loc 1 397 0
 387 017a 43EA4233 		orr	r3, r3, r2, lsl #13
 388              	.LVL9:
 407:../STLibs//STM32F4xx_DSP_StdPeriph_Lib_V1.0.1/Libraries/STM32F4xx_StdPeriph_Driver/src/stm32f4xx_fsmc.c ****             (FSMC_NANDInitStruct->FSMC_CommonSpaceTimingStruct->FSMC_WaitSetupTime << 8) |
 408:../STLibs//STM32F4xx_DSP_StdPeriph_Lib_V1.0.1/Libraries/STM32F4xx_StdPeriph_Driver/src/stm32f4xx_fsmc.c ****             (FSMC_NANDInitStruct->FSMC_CommonSpaceTimingStruct->FSMC_HoldSetupTime << 16)|
 389              		.loc 1 408 0
 390 017e D4E90152 		ldrd	r5, r2, [r4, #4]
 391 0182 1104     		lsls	r1, r2, #16
 407:../STLibs//STM32F4xx_DSP_StdPeriph_Lib_V1.0.1/Libraries/STM32F4xx_StdPeriph_Driver/src/stm32f4xx_fsmc.c ****             (FSMC_NANDInitStruct->FSMC_CommonSpaceTimingStruct->FSMC_WaitSetupTime << 8) |
 392              		.loc 1 407 0
 393 0184 2268     		ldr	r2, [r4]
 394 0186 41EA0521 		orr	r1, r1, r5, lsl #8
 395 018a 1143     		orrs	r1, r1, r2
 409:../STLibs//STM32F4xx_DSP_StdPeriph_Lib_V1.0.1/Libraries/STM32F4xx_StdPeriph_Driver/src/stm32f4xx_fsmc.c ****             (FSMC_NANDInitStruct->FSMC_CommonSpaceTimingStruct->FSMC_HiZSetupTime << 24); 
 396              		.loc 1 409 0
 397 018c E268     		ldr	r2, [r4, #12]
 410:../STLibs//STM32F4xx_DSP_StdPeriph_Lib_V1.0.1/Libraries/STM32F4xx_StdPeriph_Driver/src/stm32f4xx_fsmc.c ****             
 411:../STLibs//STM32F4xx_DSP_StdPeriph_Lib_V1.0.1/Libraries/STM32F4xx_StdPeriph_Driver/src/stm32f4xx_fsmc.c ****   /* Set tmppatt value according to FSMC_AttributeSpaceTimingStructure parameters */
 412:../STLibs//STM32F4xx_DSP_StdPeriph_Lib_V1.0.1/Libraries/STM32F4xx_StdPeriph_Driver/src/stm32f4xx_fsmc.c ****   tmppatt = (uint32_t)FSMC_NANDInitStruct->FSMC_AttributeSpaceTimingStruct->FSMC_SetupTime |
 398              		.loc 1 412 0
 399 018e 046A     		ldr	r4, [r0, #32]
 413:../STLibs//STM32F4xx_DSP_StdPeriph_Lib_V1.0.1/Libraries/STM32F4xx_StdPeriph_Driver/src/stm32f4xx_fsmc.c ****             (FSMC_NANDInitStruct->FSMC_AttributeSpaceTimingStruct->FSMC_WaitSetupTime << 8) |
 414:../STLibs//STM32F4xx_DSP_StdPeriph_Lib_V1.0.1/Libraries/STM32F4xx_StdPeriph_Driver/src/stm32f4xx_fsmc.c ****             (FSMC_NANDInitStruct->FSMC_AttributeSpaceTimingStruct->FSMC_HoldSetupTime << 16)|
 415:../STLibs//STM32F4xx_DSP_StdPeriph_Lib_V1.0.1/Libraries/STM32F4xx_StdPeriph_Driver/src/stm32f4xx_fsmc.c ****             (FSMC_NANDInitStruct->FSMC_AttributeSpaceTimingStruct->FSMC_HiZSetupTime << 24);
 416:../STLibs//STM32F4xx_DSP_StdPeriph_Lib_V1.0.1/Libraries/STM32F4xx_StdPeriph_Driver/src/stm32f4xx_fsmc.c ****   
 417:../STLibs//STM32F4xx_DSP_StdPeriph_Lib_V1.0.1/Libraries/STM32F4xx_StdPeriph_Driver/src/stm32f4xx_fsmc.c ****   if(FSMC_NANDInitStruct->FSMC_Bank == FSMC_Bank2_NAND)
 400              		.loc 1 417 0
 401 0190 0068     		ldr	r0, [r0]
 402              	.LVL10:
 406:../STLibs//STM32F4xx_DSP_StdPeriph_Lib_V1.0.1/Libraries/STM32F4xx_StdPeriph_Driver/src/stm32f4xx_fsmc.c ****             (FSMC_NANDInitStruct->FSMC_CommonSpaceTimingStruct->FSMC_WaitSetupTime << 8) |
 403              		.loc 1 406 0
 404 0192 41EA0261 		orr	r1, r1, r2, lsl #24
 405              	.LVL11:
 414:../STLibs//STM32F4xx_DSP_StdPeriph_Lib_V1.0.1/Libraries/STM32F4xx_StdPeriph_Driver/src/stm32f4xx_fsmc.c ****             (FSMC_NANDInitStruct->FSMC_AttributeSpaceTimingStruct->FSMC_HiZSetupTime << 24);
 406              		.loc 1 414 0
 407 0196 D4E90152 		ldrd	r5, r2, [r4, #4]
 408 019a 1204     		lsls	r2, r2, #16
 413:../STLibs//STM32F4xx_DSP_StdPeriph_Lib_V1.0.1/Libraries/STM32F4xx_StdPeriph_Driver/src/stm32f4xx_fsmc.c ****             (FSMC_NANDInitStruct->FSMC_AttributeSpaceTimingStruct->FSMC_WaitSetupTime << 8) |
 409              		.loc 1 413 0
 410 019c 42EA0522 		orr	r2, r2, r5, lsl #8
 411 01a0 2568     		ldr	r5, [r4]
 415:../STLibs//STM32F4xx_DSP_StdPeriph_Lib_V1.0.1/Libraries/STM32F4xx_StdPeriph_Driver/src/stm32f4xx_fsmc.c ****   
 412              		.loc 1 415 0
 413 01a2 E468     		ldr	r4, [r4, #12]
 414              		.loc 1 417 0
 415 01a4 1028     		cmp	r0, #16
 418:../STLibs//STM32F4xx_DSP_StdPeriph_Lib_V1.0.1/Libraries/STM32F4xx_StdPeriph_Driver/src/stm32f4xx_fsmc.c ****   {
 419:../STLibs//STM32F4xx_DSP_StdPeriph_Lib_V1.0.1/Libraries/STM32F4xx_StdPeriph_Driver/src/stm32f4xx_fsmc.c ****     /* FSMC_Bank2_NAND registers configuration */
 420:../STLibs//STM32F4xx_DSP_StdPeriph_Lib_V1.0.1/Libraries/STM32F4xx_StdPeriph_Driver/src/stm32f4xx_fsmc.c ****     FSMC_Bank2->PCR2 = tmppcr;
 416              		.loc 1 420 0
 417 01a6 0CBF     		ite	eq
 418 01a8 0448     		ldreq	r0, .L26
 421:../STLibs//STM32F4xx_DSP_StdPeriph_Lib_V1.0.1/Libraries/STM32F4xx_StdPeriph_Driver/src/stm32f4xx_fsmc.c ****     FSMC_Bank2->PMEM2 = tmppmem;
 422:../STLibs//STM32F4xx_DSP_StdPeriph_Lib_V1.0.1/Libraries/STM32F4xx_StdPeriph_Driver/src/stm32f4xx_fsmc.c ****     FSMC_Bank2->PATT2 = tmppatt;
 423:../STLibs//STM32F4xx_DSP_StdPeriph_Lib_V1.0.1/Libraries/STM32F4xx_StdPeriph_Driver/src/stm32f4xx_fsmc.c ****   }
 424:../STLibs//STM32F4xx_DSP_StdPeriph_Lib_V1.0.1/Libraries/STM32F4xx_StdPeriph_Driver/src/stm32f4xx_fsmc.c ****   else
 425:../STLibs//STM32F4xx_DSP_StdPeriph_Lib_V1.0.1/Libraries/STM32F4xx_StdPeriph_Driver/src/stm32f4xx_fsmc.c ****   {
 426:../STLibs//STM32F4xx_DSP_StdPeriph_Lib_V1.0.1/Libraries/STM32F4xx_StdPeriph_Driver/src/stm32f4xx_fsmc.c ****     /* FSMC_Bank3_NAND registers configuration */
 427:../STLibs//STM32F4xx_DSP_StdPeriph_Lib_V1.0.1/Libraries/STM32F4xx_StdPeriph_Driver/src/stm32f4xx_fsmc.c ****     FSMC_Bank3->PCR3 = tmppcr;
 419              		.loc 1 427 0
 420 01aa 0548     		ldrne	r0, .L26+4
 413:../STLibs//STM32F4xx_DSP_StdPeriph_Lib_V1.0.1/Libraries/STM32F4xx_StdPeriph_Driver/src/stm32f4xx_fsmc.c ****             (FSMC_NANDInitStruct->FSMC_AttributeSpaceTimingStruct->FSMC_HoldSetupTime << 16)|
 421              		.loc 1 413 0
 422 01ac 2A43     		orrs	r2, r2, r5
 412:../STLibs//STM32F4xx_DSP_StdPeriph_Lib_V1.0.1/Libraries/STM32F4xx_StdPeriph_Driver/src/stm32f4xx_fsmc.c ****             (FSMC_NANDInitStruct->FSMC_AttributeSpaceTimingStruct->FSMC_WaitSetupTime << 8) |
 423              		.loc 1 412 0
 424 01ae 42EA0462 		orr	r2, r2, r4, lsl #24
 425              	.LVL12:
 426              		.loc 1 427 0
 427 01b2 0360     		str	r3, [r0]
 428:../STLibs//STM32F4xx_DSP_StdPeriph_Lib_V1.0.1/Libraries/STM32F4xx_StdPeriph_Driver/src/stm32f4xx_fsmc.c ****     FSMC_Bank3->PMEM3 = tmppmem;
 428              		.loc 1 428 0
 429 01b4 8160     		str	r1, [r0, #8]
 429:../STLibs//STM32F4xx_DSP_StdPeriph_Lib_V1.0.1/Libraries/STM32F4xx_StdPeriph_Driver/src/stm32f4xx_fsmc.c ****     FSMC_Bank3->PATT3 = tmppatt;
 430              		.loc 1 429 0
 431 01b6 C260     		str	r2, [r0, #12]
 430:../STLibs//STM32F4xx_DSP_StdPeriph_Lib_V1.0.1/Libraries/STM32F4xx_StdPeriph_Driver/src/stm32f4xx_fsmc.c ****   }
 431:../STLibs//STM32F4xx_DSP_StdPeriph_Lib_V1.0.1/Libraries/STM32F4xx_StdPeriph_Driver/src/stm32f4xx_fsmc.c **** }
 432              		.loc 1 431 0
 433 01b8 30BD     		pop	{r4, r5, pc}
 434              	.L27:
 435 01ba 00BF     		.align	2
 436              	.L26:
 437 01bc 600000A0 		.word	-1610612640
 438 01c0 800000A0 		.word	-1610612608
 439              		.cfi_endproc
 440              	.LFE115:
 442              		.align	1
 443              		.global	FSMC_NANDStructInit
 444              		.syntax unified
 445              		.thumb
 446              		.thumb_func
 447              		.fpu fpv4-sp-d16
 449              	FSMC_NANDStructInit:
 450              	.LFB116:
 432:../STLibs//STM32F4xx_DSP_StdPeriph_Lib_V1.0.1/Libraries/STM32F4xx_StdPeriph_Driver/src/stm32f4xx_fsmc.c **** 
 433:../STLibs//STM32F4xx_DSP_StdPeriph_Lib_V1.0.1/Libraries/STM32F4xx_StdPeriph_Driver/src/stm32f4xx_fsmc.c **** 
 434:../STLibs//STM32F4xx_DSP_StdPeriph_Lib_V1.0.1/Libraries/STM32F4xx_StdPeriph_Driver/src/stm32f4xx_fsmc.c **** /**
 435:../STLibs//STM32F4xx_DSP_StdPeriph_Lib_V1.0.1/Libraries/STM32F4xx_StdPeriph_Driver/src/stm32f4xx_fsmc.c ****   * @brief  Fills each FSMC_NANDInitStruct member with its default value.
 436:../STLibs//STM32F4xx_DSP_StdPeriph_Lib_V1.0.1/Libraries/STM32F4xx_StdPeriph_Driver/src/stm32f4xx_fsmc.c ****   * @param  FSMC_NANDInitStruct: pointer to a FSMC_NANDInitTypeDef structure which
 437:../STLibs//STM32F4xx_DSP_StdPeriph_Lib_V1.0.1/Libraries/STM32F4xx_StdPeriph_Driver/src/stm32f4xx_fsmc.c ****   *         will be initialized.
 438:../STLibs//STM32F4xx_DSP_StdPeriph_Lib_V1.0.1/Libraries/STM32F4xx_StdPeriph_Driver/src/stm32f4xx_fsmc.c ****   * @retval None
 439:../STLibs//STM32F4xx_DSP_StdPeriph_Lib_V1.0.1/Libraries/STM32F4xx_StdPeriph_Driver/src/stm32f4xx_fsmc.c ****   */
 440:../STLibs//STM32F4xx_DSP_StdPeriph_Lib_V1.0.1/Libraries/STM32F4xx_StdPeriph_Driver/src/stm32f4xx_fsmc.c **** void FSMC_NANDStructInit(FSMC_NANDInitTypeDef* FSMC_NANDInitStruct)
 441:../STLibs//STM32F4xx_DSP_StdPeriph_Lib_V1.0.1/Libraries/STM32F4xx_StdPeriph_Driver/src/stm32f4xx_fsmc.c **** { 
 451              		.loc 1 441 0
 452              		.cfi_startproc
 453              		@ args = 0, pretend = 0, frame = 0
 454              		@ frame_needed = 0, uses_anonymous_args = 0
 455              		@ link register save eliminated.
 456              	.LVL13:
 442:../STLibs//STM32F4xx_DSP_StdPeriph_Lib_V1.0.1/Libraries/STM32F4xx_StdPeriph_Driver/src/stm32f4xx_fsmc.c ****   /* Reset NAND Init structure parameters values */
 443:../STLibs//STM32F4xx_DSP_StdPeriph_Lib_V1.0.1/Libraries/STM32F4xx_StdPeriph_Driver/src/stm32f4xx_fsmc.c ****   FSMC_NANDInitStruct->FSMC_Bank = FSMC_Bank2_NAND;
 444:../STLibs//STM32F4xx_DSP_StdPeriph_Lib_V1.0.1/Libraries/STM32F4xx_StdPeriph_Driver/src/stm32f4xx_fsmc.c ****   FSMC_NANDInitStruct->FSMC_Waitfeature = FSMC_Waitfeature_Disable;
 457              		.loc 1 444 0
 458 01c4 0023     		movs	r3, #0
 459 01c6 1022     		movs	r2, #16
 460 01c8 C0E90023 		strd	r2, r3, [r0]
 445:../STLibs//STM32F4xx_DSP_StdPeriph_Lib_V1.0.1/Libraries/STM32F4xx_StdPeriph_Driver/src/stm32f4xx_fsmc.c ****   FSMC_NANDInitStruct->FSMC_MemoryDataWidth = FSMC_MemoryDataWidth_8b;
 446:../STLibs//STM32F4xx_DSP_StdPeriph_Lib_V1.0.1/Libraries/STM32F4xx_StdPeriph_Driver/src/stm32f4xx_fsmc.c ****   FSMC_NANDInitStruct->FSMC_ECC = FSMC_ECC_Disable;
 447:../STLibs//STM32F4xx_DSP_StdPeriph_Lib_V1.0.1/Libraries/STM32F4xx_StdPeriph_Driver/src/stm32f4xx_fsmc.c ****   FSMC_NANDInitStruct->FSMC_ECCPageSize = FSMC_ECCPageSize_256Bytes;
 448:../STLibs//STM32F4xx_DSP_StdPeriph_Lib_V1.0.1/Libraries/STM32F4xx_StdPeriph_Driver/src/stm32f4xx_fsmc.c ****   FSMC_NANDInitStruct->FSMC_TCLRSetupTime = 0x0;
 449:../STLibs//STM32F4xx_DSP_StdPeriph_Lib_V1.0.1/Libraries/STM32F4xx_StdPeriph_Driver/src/stm32f4xx_fsmc.c ****   FSMC_NANDInitStruct->FSMC_TARSetupTime = 0x0;
 450:../STLibs//STM32F4xx_DSP_StdPeriph_Lib_V1.0.1/Libraries/STM32F4xx_StdPeriph_Driver/src/stm32f4xx_fsmc.c ****   FSMC_NANDInitStruct->FSMC_CommonSpaceTimingStruct->FSMC_SetupTime = 0xFC;
 461              		.loc 1 450 0
 462 01cc C269     		ldr	r2, [r0, #28]
 449:../STLibs//STM32F4xx_DSP_StdPeriph_Lib_V1.0.1/Libraries/STM32F4xx_StdPeriph_Driver/src/stm32f4xx_fsmc.c ****   FSMC_NANDInitStruct->FSMC_CommonSpaceTimingStruct->FSMC_SetupTime = 0xFC;
 463              		.loc 1 449 0
 464 01ce 8361     		str	r3, [r0, #24]
 446:../STLibs//STM32F4xx_DSP_StdPeriph_Lib_V1.0.1/Libraries/STM32F4xx_StdPeriph_Driver/src/stm32f4xx_fsmc.c ****   FSMC_NANDInitStruct->FSMC_ECCPageSize = FSMC_ECCPageSize_256Bytes;
 465              		.loc 1 446 0
 466 01d0 C0E90233 		strd	r3, r3, [r0, #8]
 448:../STLibs//STM32F4xx_DSP_StdPeriph_Lib_V1.0.1/Libraries/STM32F4xx_StdPeriph_Driver/src/stm32f4xx_fsmc.c ****   FSMC_NANDInitStruct->FSMC_TARSetupTime = 0x0;
 467              		.loc 1 448 0
 468 01d4 C0E90433 		strd	r3, r3, [r0, #16]
 469              		.loc 1 450 0
 470 01d8 FC23     		movs	r3, #252
 451:../STLibs//STM32F4xx_DSP_StdPeriph_Lib_V1.0.1/Libraries/STM32F4xx_StdPeriph_Driver/src/stm32f4xx_fsmc.c ****   FSMC_NANDInitStruct->FSMC_CommonSpaceTimingStruct->FSMC_WaitSetupTime = 0xFC;
 471              		.loc 1 451 0
 472 01da C2E90033 		strd	r3, r3, [r2]
 452:../STLibs//STM32F4xx_DSP_StdPeriph_Lib_V1.0.1/Libraries/STM32F4xx_StdPeriph_Driver/src/stm32f4xx_fsmc.c ****   FSMC_NANDInitStruct->FSMC_CommonSpaceTimingStruct->FSMC_HoldSetupTime = 0xFC;
 453:../STLibs//STM32F4xx_DSP_StdPeriph_Lib_V1.0.1/Libraries/STM32F4xx_StdPeriph_Driver/src/stm32f4xx_fsmc.c ****   FSMC_NANDInitStruct->FSMC_CommonSpaceTimingStruct->FSMC_HiZSetupTime = 0xFC;
 473              		.loc 1 453 0
 474 01de C2E90233 		strd	r3, r3, [r2, #8]
 454:../STLibs//STM32F4xx_DSP_StdPeriph_Lib_V1.0.1/Libraries/STM32F4xx_StdPeriph_Driver/src/stm32f4xx_fsmc.c ****   FSMC_NANDInitStruct->FSMC_AttributeSpaceTimingStruct->FSMC_SetupTime = 0xFC;
 475              		.loc 1 454 0
 476 01e2 026A     		ldr	r2, [r0, #32]
 455:../STLibs//STM32F4xx_DSP_StdPeriph_Lib_V1.0.1/Libraries/STM32F4xx_StdPeriph_Driver/src/stm32f4xx_fsmc.c ****   FSMC_NANDInitStruct->FSMC_AttributeSpaceTimingStruct->FSMC_WaitSetupTime = 0xFC;
 477              		.loc 1 455 0
 478 01e4 C2E90033 		strd	r3, r3, [r2]
 456:../STLibs//STM32F4xx_DSP_StdPeriph_Lib_V1.0.1/Libraries/STM32F4xx_StdPeriph_Driver/src/stm32f4xx_fsmc.c ****   FSMC_NANDInitStruct->FSMC_AttributeSpaceTimingStruct->FSMC_HoldSetupTime = 0xFC;
 457:../STLibs//STM32F4xx_DSP_StdPeriph_Lib_V1.0.1/Libraries/STM32F4xx_StdPeriph_Driver/src/stm32f4xx_fsmc.c ****   FSMC_NANDInitStruct->FSMC_AttributeSpaceTimingStruct->FSMC_HiZSetupTime = 0xFC;	  
 479              		.loc 1 457 0
 480 01e8 C2E90233 		strd	r3, r3, [r2, #8]
 458:../STLibs//STM32F4xx_DSP_StdPeriph_Lib_V1.0.1/Libraries/STM32F4xx_StdPeriph_Driver/src/stm32f4xx_fsmc.c **** }
 481              		.loc 1 458 0
 482 01ec 7047     		bx	lr
 483              		.cfi_endproc
 484              	.LFE116:
 486              		.align	1
 487              		.global	FSMC_NANDCmd
 488              		.syntax unified
 489              		.thumb
 490              		.thumb_func
 491              		.fpu fpv4-sp-d16
 493              	FSMC_NANDCmd:
 494              	.LFB117:
 459:../STLibs//STM32F4xx_DSP_StdPeriph_Lib_V1.0.1/Libraries/STM32F4xx_StdPeriph_Driver/src/stm32f4xx_fsmc.c **** 
 460:../STLibs//STM32F4xx_DSP_StdPeriph_Lib_V1.0.1/Libraries/STM32F4xx_StdPeriph_Driver/src/stm32f4xx_fsmc.c **** /**
 461:../STLibs//STM32F4xx_DSP_StdPeriph_Lib_V1.0.1/Libraries/STM32F4xx_StdPeriph_Driver/src/stm32f4xx_fsmc.c ****   * @brief  Enables or disables the specified NAND Memory Bank.
 462:../STLibs//STM32F4xx_DSP_StdPeriph_Lib_V1.0.1/Libraries/STM32F4xx_StdPeriph_Driver/src/stm32f4xx_fsmc.c ****   * @param  FSMC_Bank: specifies the FSMC Bank to be used
 463:../STLibs//STM32F4xx_DSP_StdPeriph_Lib_V1.0.1/Libraries/STM32F4xx_StdPeriph_Driver/src/stm32f4xx_fsmc.c ****   *          This parameter can be one of the following values:
 464:../STLibs//STM32F4xx_DSP_StdPeriph_Lib_V1.0.1/Libraries/STM32F4xx_StdPeriph_Driver/src/stm32f4xx_fsmc.c ****   *            @arg FSMC_Bank2_NAND: FSMC Bank2 NAND 
 465:../STLibs//STM32F4xx_DSP_StdPeriph_Lib_V1.0.1/Libraries/STM32F4xx_StdPeriph_Driver/src/stm32f4xx_fsmc.c ****   *            @arg FSMC_Bank3_NAND: FSMC Bank3 NAND
 466:../STLibs//STM32F4xx_DSP_StdPeriph_Lib_V1.0.1/Libraries/STM32F4xx_StdPeriph_Driver/src/stm32f4xx_fsmc.c ****   * @param  NewState: new state of the FSMC_Bank. This parameter can be: ENABLE or DISABLE.
 467:../STLibs//STM32F4xx_DSP_StdPeriph_Lib_V1.0.1/Libraries/STM32F4xx_StdPeriph_Driver/src/stm32f4xx_fsmc.c ****   * @retval None
 468:../STLibs//STM32F4xx_DSP_StdPeriph_Lib_V1.0.1/Libraries/STM32F4xx_StdPeriph_Driver/src/stm32f4xx_fsmc.c ****   */
 469:../STLibs//STM32F4xx_DSP_StdPeriph_Lib_V1.0.1/Libraries/STM32F4xx_StdPeriph_Driver/src/stm32f4xx_fsmc.c **** void FSMC_NANDCmd(uint32_t FSMC_Bank, FunctionalState NewState)
 470:../STLibs//STM32F4xx_DSP_StdPeriph_Lib_V1.0.1/Libraries/STM32F4xx_StdPeriph_Driver/src/stm32f4xx_fsmc.c **** {
 495              		.loc 1 470 0
 496              		.cfi_startproc
 497              		@ args = 0, pretend = 0, frame = 0
 498              		@ frame_needed = 0, uses_anonymous_args = 0
 499              		@ link register save eliminated.
 500              	.LVL14:
 471:../STLibs//STM32F4xx_DSP_StdPeriph_Lib_V1.0.1/Libraries/STM32F4xx_StdPeriph_Driver/src/stm32f4xx_fsmc.c ****   assert_param(IS_FSMC_NAND_BANK(FSMC_Bank));
 472:../STLibs//STM32F4xx_DSP_StdPeriph_Lib_V1.0.1/Libraries/STM32F4xx_StdPeriph_Driver/src/stm32f4xx_fsmc.c ****   assert_param(IS_FUNCTIONAL_STATE(NewState));
 473:../STLibs//STM32F4xx_DSP_StdPeriph_Lib_V1.0.1/Libraries/STM32F4xx_StdPeriph_Driver/src/stm32f4xx_fsmc.c ****   
 474:../STLibs//STM32F4xx_DSP_StdPeriph_Lib_V1.0.1/Libraries/STM32F4xx_StdPeriph_Driver/src/stm32f4xx_fsmc.c ****   if (NewState != DISABLE)
 501              		.loc 1 474 0
 502 01ee 41B1     		cbz	r1, .L30
 475:../STLibs//STM32F4xx_DSP_StdPeriph_Lib_V1.0.1/Libraries/STM32F4xx_StdPeriph_Driver/src/stm32f4xx_fsmc.c ****   {
 476:../STLibs//STM32F4xx_DSP_StdPeriph_Lib_V1.0.1/Libraries/STM32F4xx_StdPeriph_Driver/src/stm32f4xx_fsmc.c ****     /* Enable the selected NAND Bank by setting the PBKEN bit in the PCRx register */
 477:../STLibs//STM32F4xx_DSP_StdPeriph_Lib_V1.0.1/Libraries/STM32F4xx_StdPeriph_Driver/src/stm32f4xx_fsmc.c ****     if(FSMC_Bank == FSMC_Bank2_NAND)
 503              		.loc 1 477 0
 504 01f0 1028     		cmp	r0, #16
 478:../STLibs//STM32F4xx_DSP_StdPeriph_Lib_V1.0.1/Libraries/STM32F4xx_StdPeriph_Driver/src/stm32f4xx_fsmc.c ****     {
 479:../STLibs//STM32F4xx_DSP_StdPeriph_Lib_V1.0.1/Libraries/STM32F4xx_StdPeriph_Driver/src/stm32f4xx_fsmc.c ****       FSMC_Bank2->PCR2 |= PCR_PBKEN_SET;
 505              		.loc 1 479 0
 506 01f2 0CBF     		ite	eq
 507 01f4 074A     		ldreq	r2, .L37
 480:../STLibs//STM32F4xx_DSP_StdPeriph_Lib_V1.0.1/Libraries/STM32F4xx_StdPeriph_Driver/src/stm32f4xx_fsmc.c ****     }
 481:../STLibs//STM32F4xx_DSP_StdPeriph_Lib_V1.0.1/Libraries/STM32F4xx_StdPeriph_Driver/src/stm32f4xx_fsmc.c ****     else
 482:../STLibs//STM32F4xx_DSP_StdPeriph_Lib_V1.0.1/Libraries/STM32F4xx_StdPeriph_Driver/src/stm32f4xx_fsmc.c ****     {
 483:../STLibs//STM32F4xx_DSP_StdPeriph_Lib_V1.0.1/Libraries/STM32F4xx_StdPeriph_Driver/src/stm32f4xx_fsmc.c ****       FSMC_Bank3->PCR3 |= PCR_PBKEN_SET;
 508              		.loc 1 483 0
 509 01f6 084A     		ldrne	r2, .L37+4
 510 01f8 1368     		ldr	r3, [r2]
 511 01fa 43F00403 		orr	r3, r3, #4
 512              	.LVL15:
 513              	.L34:
 484:../STLibs//STM32F4xx_DSP_StdPeriph_Lib_V1.0.1/Libraries/STM32F4xx_StdPeriph_Driver/src/stm32f4xx_fsmc.c ****     }
 485:../STLibs//STM32F4xx_DSP_StdPeriph_Lib_V1.0.1/Libraries/STM32F4xx_StdPeriph_Driver/src/stm32f4xx_fsmc.c ****   }
 486:../STLibs//STM32F4xx_DSP_StdPeriph_Lib_V1.0.1/Libraries/STM32F4xx_StdPeriph_Driver/src/stm32f4xx_fsmc.c ****   else
 487:../STLibs//STM32F4xx_DSP_StdPeriph_Lib_V1.0.1/Libraries/STM32F4xx_StdPeriph_Driver/src/stm32f4xx_fsmc.c ****   {
 488:../STLibs//STM32F4xx_DSP_StdPeriph_Lib_V1.0.1/Libraries/STM32F4xx_StdPeriph_Driver/src/stm32f4xx_fsmc.c ****     /* Disable the selected NAND Bank by clearing the PBKEN bit in the PCRx register */
 489:../STLibs//STM32F4xx_DSP_StdPeriph_Lib_V1.0.1/Libraries/STM32F4xx_StdPeriph_Driver/src/stm32f4xx_fsmc.c ****     if(FSMC_Bank == FSMC_Bank2_NAND)
 490:../STLibs//STM32F4xx_DSP_StdPeriph_Lib_V1.0.1/Libraries/STM32F4xx_StdPeriph_Driver/src/stm32f4xx_fsmc.c ****     {
 491:../STLibs//STM32F4xx_DSP_StdPeriph_Lib_V1.0.1/Libraries/STM32F4xx_StdPeriph_Driver/src/stm32f4xx_fsmc.c ****       FSMC_Bank2->PCR2 &= PCR_PBKEN_RESET;
 492:../STLibs//STM32F4xx_DSP_StdPeriph_Lib_V1.0.1/Libraries/STM32F4xx_StdPeriph_Driver/src/stm32f4xx_fsmc.c ****     }
 493:../STLibs//STM32F4xx_DSP_StdPeriph_Lib_V1.0.1/Libraries/STM32F4xx_StdPeriph_Driver/src/stm32f4xx_fsmc.c ****     else
 494:../STLibs//STM32F4xx_DSP_StdPeriph_Lib_V1.0.1/Libraries/STM32F4xx_StdPeriph_Driver/src/stm32f4xx_fsmc.c ****     {
 495:../STLibs//STM32F4xx_DSP_StdPeriph_Lib_V1.0.1/Libraries/STM32F4xx_StdPeriph_Driver/src/stm32f4xx_fsmc.c ****       FSMC_Bank3->PCR3 &= PCR_PBKEN_RESET;
 514              		.loc 1 495 0
 515 01fe 1360     		str	r3, [r2]
 496:../STLibs//STM32F4xx_DSP_StdPeriph_Lib_V1.0.1/Libraries/STM32F4xx_StdPeriph_Driver/src/stm32f4xx_fsmc.c ****     }
 497:../STLibs//STM32F4xx_DSP_StdPeriph_Lib_V1.0.1/Libraries/STM32F4xx_StdPeriph_Driver/src/stm32f4xx_fsmc.c ****   }
 498:../STLibs//STM32F4xx_DSP_StdPeriph_Lib_V1.0.1/Libraries/STM32F4xx_StdPeriph_Driver/src/stm32f4xx_fsmc.c **** }
 516              		.loc 1 498 0
 517 0200 7047     		bx	lr
 518              	.LVL16:
 519              	.L30:
 489:../STLibs//STM32F4xx_DSP_StdPeriph_Lib_V1.0.1/Libraries/STM32F4xx_StdPeriph_Driver/src/stm32f4xx_fsmc.c ****     {
 520              		.loc 1 489 0
 521 0202 1028     		cmp	r0, #16
 491:../STLibs//STM32F4xx_DSP_StdPeriph_Lib_V1.0.1/Libraries/STM32F4xx_StdPeriph_Driver/src/stm32f4xx_fsmc.c ****     }
 522              		.loc 1 491 0
 523 0204 0CBF     		ite	eq
 524 0206 034A     		ldreq	r2, .L37
 495:../STLibs//STM32F4xx_DSP_StdPeriph_Lib_V1.0.1/Libraries/STM32F4xx_StdPeriph_Driver/src/stm32f4xx_fsmc.c ****     }
 525              		.loc 1 495 0
 526 0208 034A     		ldrne	r2, .L37+4
 527 020a 0449     		ldr	r1, .L37+8
 528              	.LVL17:
 529 020c 1368     		ldr	r3, [r2]
 530 020e 0B40     		ands	r3, r3, r1
 531 0210 F5E7     		b	.L34
 532              	.L38:
 533 0212 00BF     		.align	2
 534              	.L37:
 535 0214 600000A0 		.word	-1610612640
 536 0218 800000A0 		.word	-1610612608
 537 021c FBFF0F00 		.word	1048571
 538              		.cfi_endproc
 539              	.LFE117:
 541              		.align	1
 542              		.global	FSMC_NANDECCCmd
 543              		.syntax unified
 544              		.thumb
 545              		.thumb_func
 546              		.fpu fpv4-sp-d16
 548              	FSMC_NANDECCCmd:
 549              	.LFB118:
 499:../STLibs//STM32F4xx_DSP_StdPeriph_Lib_V1.0.1/Libraries/STM32F4xx_StdPeriph_Driver/src/stm32f4xx_fsmc.c **** /**
 500:../STLibs//STM32F4xx_DSP_StdPeriph_Lib_V1.0.1/Libraries/STM32F4xx_StdPeriph_Driver/src/stm32f4xx_fsmc.c ****   * @brief  Enables or disables the FSMC NAND ECC feature.
 501:../STLibs//STM32F4xx_DSP_StdPeriph_Lib_V1.0.1/Libraries/STM32F4xx_StdPeriph_Driver/src/stm32f4xx_fsmc.c ****   * @param  FSMC_Bank: specifies the FSMC Bank to be used
 502:../STLibs//STM32F4xx_DSP_StdPeriph_Lib_V1.0.1/Libraries/STM32F4xx_StdPeriph_Driver/src/stm32f4xx_fsmc.c ****   *          This parameter can be one of the following values:
 503:../STLibs//STM32F4xx_DSP_StdPeriph_Lib_V1.0.1/Libraries/STM32F4xx_StdPeriph_Driver/src/stm32f4xx_fsmc.c ****   *            @arg FSMC_Bank2_NAND: FSMC Bank2 NAND 
 504:../STLibs//STM32F4xx_DSP_StdPeriph_Lib_V1.0.1/Libraries/STM32F4xx_StdPeriph_Driver/src/stm32f4xx_fsmc.c ****   *            @arg FSMC_Bank3_NAND: FSMC Bank3 NAND
 505:../STLibs//STM32F4xx_DSP_StdPeriph_Lib_V1.0.1/Libraries/STM32F4xx_StdPeriph_Driver/src/stm32f4xx_fsmc.c ****   * @param  NewState: new state of the FSMC NAND ECC feature.  
 506:../STLibs//STM32F4xx_DSP_StdPeriph_Lib_V1.0.1/Libraries/STM32F4xx_StdPeriph_Driver/src/stm32f4xx_fsmc.c ****   *          This parameter can be: ENABLE or DISABLE.
 507:../STLibs//STM32F4xx_DSP_StdPeriph_Lib_V1.0.1/Libraries/STM32F4xx_StdPeriph_Driver/src/stm32f4xx_fsmc.c ****   * @retval None
 508:../STLibs//STM32F4xx_DSP_StdPeriph_Lib_V1.0.1/Libraries/STM32F4xx_StdPeriph_Driver/src/stm32f4xx_fsmc.c ****   */
 509:../STLibs//STM32F4xx_DSP_StdPeriph_Lib_V1.0.1/Libraries/STM32F4xx_StdPeriph_Driver/src/stm32f4xx_fsmc.c **** void FSMC_NANDECCCmd(uint32_t FSMC_Bank, FunctionalState NewState)
 510:../STLibs//STM32F4xx_DSP_StdPeriph_Lib_V1.0.1/Libraries/STM32F4xx_StdPeriph_Driver/src/stm32f4xx_fsmc.c **** {
 550              		.loc 1 510 0
 551              		.cfi_startproc
 552              		@ args = 0, pretend = 0, frame = 0
 553              		@ frame_needed = 0, uses_anonymous_args = 0
 554              		@ link register save eliminated.
 555              	.LVL18:
 511:../STLibs//STM32F4xx_DSP_StdPeriph_Lib_V1.0.1/Libraries/STM32F4xx_StdPeriph_Driver/src/stm32f4xx_fsmc.c ****   assert_param(IS_FSMC_NAND_BANK(FSMC_Bank));
 512:../STLibs//STM32F4xx_DSP_StdPeriph_Lib_V1.0.1/Libraries/STM32F4xx_StdPeriph_Driver/src/stm32f4xx_fsmc.c ****   assert_param(IS_FUNCTIONAL_STATE(NewState));
 513:../STLibs//STM32F4xx_DSP_StdPeriph_Lib_V1.0.1/Libraries/STM32F4xx_StdPeriph_Driver/src/stm32f4xx_fsmc.c ****   
 514:../STLibs//STM32F4xx_DSP_StdPeriph_Lib_V1.0.1/Libraries/STM32F4xx_StdPeriph_Driver/src/stm32f4xx_fsmc.c ****   if (NewState != DISABLE)
 556              		.loc 1 514 0
 557 0220 41B1     		cbz	r1, .L40
 515:../STLibs//STM32F4xx_DSP_StdPeriph_Lib_V1.0.1/Libraries/STM32F4xx_StdPeriph_Driver/src/stm32f4xx_fsmc.c ****   {
 516:../STLibs//STM32F4xx_DSP_StdPeriph_Lib_V1.0.1/Libraries/STM32F4xx_StdPeriph_Driver/src/stm32f4xx_fsmc.c ****     /* Enable the selected NAND Bank ECC function by setting the ECCEN bit in the PCRx register */
 517:../STLibs//STM32F4xx_DSP_StdPeriph_Lib_V1.0.1/Libraries/STM32F4xx_StdPeriph_Driver/src/stm32f4xx_fsmc.c ****     if(FSMC_Bank == FSMC_Bank2_NAND)
 558              		.loc 1 517 0
 559 0222 1028     		cmp	r0, #16
 518:../STLibs//STM32F4xx_DSP_StdPeriph_Lib_V1.0.1/Libraries/STM32F4xx_StdPeriph_Driver/src/stm32f4xx_fsmc.c ****     {
 519:../STLibs//STM32F4xx_DSP_StdPeriph_Lib_V1.0.1/Libraries/STM32F4xx_StdPeriph_Driver/src/stm32f4xx_fsmc.c ****       FSMC_Bank2->PCR2 |= PCR_ECCEN_SET;
 560              		.loc 1 519 0
 561 0224 0CBF     		ite	eq
 562 0226 074A     		ldreq	r2, .L47
 520:../STLibs//STM32F4xx_DSP_StdPeriph_Lib_V1.0.1/Libraries/STM32F4xx_StdPeriph_Driver/src/stm32f4xx_fsmc.c ****     }
 521:../STLibs//STM32F4xx_DSP_StdPeriph_Lib_V1.0.1/Libraries/STM32F4xx_StdPeriph_Driver/src/stm32f4xx_fsmc.c ****     else
 522:../STLibs//STM32F4xx_DSP_StdPeriph_Lib_V1.0.1/Libraries/STM32F4xx_StdPeriph_Driver/src/stm32f4xx_fsmc.c ****     {
 523:../STLibs//STM32F4xx_DSP_StdPeriph_Lib_V1.0.1/Libraries/STM32F4xx_StdPeriph_Driver/src/stm32f4xx_fsmc.c ****       FSMC_Bank3->PCR3 |= PCR_ECCEN_SET;
 563              		.loc 1 523 0
 564 0228 074A     		ldrne	r2, .L47+4
 565 022a 1368     		ldr	r3, [r2]
 566 022c 43F04003 		orr	r3, r3, #64
 567              	.LVL19:
 568              	.L44:
 524:../STLibs//STM32F4xx_DSP_StdPeriph_Lib_V1.0.1/Libraries/STM32F4xx_StdPeriph_Driver/src/stm32f4xx_fsmc.c ****     }
 525:../STLibs//STM32F4xx_DSP_StdPeriph_Lib_V1.0.1/Libraries/STM32F4xx_StdPeriph_Driver/src/stm32f4xx_fsmc.c ****   }
 526:../STLibs//STM32F4xx_DSP_StdPeriph_Lib_V1.0.1/Libraries/STM32F4xx_StdPeriph_Driver/src/stm32f4xx_fsmc.c ****   else
 527:../STLibs//STM32F4xx_DSP_StdPeriph_Lib_V1.0.1/Libraries/STM32F4xx_StdPeriph_Driver/src/stm32f4xx_fsmc.c ****   {
 528:../STLibs//STM32F4xx_DSP_StdPeriph_Lib_V1.0.1/Libraries/STM32F4xx_StdPeriph_Driver/src/stm32f4xx_fsmc.c ****     /* Disable the selected NAND Bank ECC function by clearing the ECCEN bit in the PCRx register *
 529:../STLibs//STM32F4xx_DSP_StdPeriph_Lib_V1.0.1/Libraries/STM32F4xx_StdPeriph_Driver/src/stm32f4xx_fsmc.c ****     if(FSMC_Bank == FSMC_Bank2_NAND)
 530:../STLibs//STM32F4xx_DSP_StdPeriph_Lib_V1.0.1/Libraries/STM32F4xx_StdPeriph_Driver/src/stm32f4xx_fsmc.c ****     {
 531:../STLibs//STM32F4xx_DSP_StdPeriph_Lib_V1.0.1/Libraries/STM32F4xx_StdPeriph_Driver/src/stm32f4xx_fsmc.c ****       FSMC_Bank2->PCR2 &= PCR_ECCEN_RESET;
 532:../STLibs//STM32F4xx_DSP_StdPeriph_Lib_V1.0.1/Libraries/STM32F4xx_StdPeriph_Driver/src/stm32f4xx_fsmc.c ****     }
 533:../STLibs//STM32F4xx_DSP_StdPeriph_Lib_V1.0.1/Libraries/STM32F4xx_StdPeriph_Driver/src/stm32f4xx_fsmc.c ****     else
 534:../STLibs//STM32F4xx_DSP_StdPeriph_Lib_V1.0.1/Libraries/STM32F4xx_StdPeriph_Driver/src/stm32f4xx_fsmc.c ****     {
 535:../STLibs//STM32F4xx_DSP_StdPeriph_Lib_V1.0.1/Libraries/STM32F4xx_StdPeriph_Driver/src/stm32f4xx_fsmc.c ****       FSMC_Bank3->PCR3 &= PCR_ECCEN_RESET;
 569              		.loc 1 535 0
 570 0230 1360     		str	r3, [r2]
 536:../STLibs//STM32F4xx_DSP_StdPeriph_Lib_V1.0.1/Libraries/STM32F4xx_StdPeriph_Driver/src/stm32f4xx_fsmc.c ****     }
 537:../STLibs//STM32F4xx_DSP_StdPeriph_Lib_V1.0.1/Libraries/STM32F4xx_StdPeriph_Driver/src/stm32f4xx_fsmc.c ****   }
 538:../STLibs//STM32F4xx_DSP_StdPeriph_Lib_V1.0.1/Libraries/STM32F4xx_StdPeriph_Driver/src/stm32f4xx_fsmc.c **** }
 571              		.loc 1 538 0
 572 0232 7047     		bx	lr
 573              	.LVL20:
 574              	.L40:
 529:../STLibs//STM32F4xx_DSP_StdPeriph_Lib_V1.0.1/Libraries/STM32F4xx_StdPeriph_Driver/src/stm32f4xx_fsmc.c ****     {
 575              		.loc 1 529 0
 576 0234 1028     		cmp	r0, #16
 531:../STLibs//STM32F4xx_DSP_StdPeriph_Lib_V1.0.1/Libraries/STM32F4xx_StdPeriph_Driver/src/stm32f4xx_fsmc.c ****     }
 577              		.loc 1 531 0
 578 0236 0CBF     		ite	eq
 579 0238 024A     		ldreq	r2, .L47
 535:../STLibs//STM32F4xx_DSP_StdPeriph_Lib_V1.0.1/Libraries/STM32F4xx_StdPeriph_Driver/src/stm32f4xx_fsmc.c ****     }
 580              		.loc 1 535 0
 581 023a 034A     		ldrne	r2, .L47+4
 582 023c 0349     		ldr	r1, .L47+8
 583              	.LVL21:
 584 023e 1368     		ldr	r3, [r2]
 585 0240 0B40     		ands	r3, r3, r1
 586 0242 F5E7     		b	.L44
 587              	.L48:
 588              		.align	2
 589              	.L47:
 590 0244 600000A0 		.word	-1610612640
 591 0248 800000A0 		.word	-1610612608
 592 024c BFFF0F00 		.word	1048511
 593              		.cfi_endproc
 594              	.LFE118:
 596              		.align	1
 597              		.global	FSMC_GetECC
 598              		.syntax unified
 599              		.thumb
 600              		.thumb_func
 601              		.fpu fpv4-sp-d16
 603              	FSMC_GetECC:
 604              	.LFB119:
 539:../STLibs//STM32F4xx_DSP_StdPeriph_Lib_V1.0.1/Libraries/STM32F4xx_StdPeriph_Driver/src/stm32f4xx_fsmc.c **** 
 540:../STLibs//STM32F4xx_DSP_StdPeriph_Lib_V1.0.1/Libraries/STM32F4xx_StdPeriph_Driver/src/stm32f4xx_fsmc.c **** /**
 541:../STLibs//STM32F4xx_DSP_StdPeriph_Lib_V1.0.1/Libraries/STM32F4xx_StdPeriph_Driver/src/stm32f4xx_fsmc.c ****   * @brief  Returns the error correction code register value.
 542:../STLibs//STM32F4xx_DSP_StdPeriph_Lib_V1.0.1/Libraries/STM32F4xx_StdPeriph_Driver/src/stm32f4xx_fsmc.c ****   * @param  FSMC_Bank: specifies the FSMC Bank to be used
 543:../STLibs//STM32F4xx_DSP_StdPeriph_Lib_V1.0.1/Libraries/STM32F4xx_StdPeriph_Driver/src/stm32f4xx_fsmc.c ****   *          This parameter can be one of the following values:
 544:../STLibs//STM32F4xx_DSP_StdPeriph_Lib_V1.0.1/Libraries/STM32F4xx_StdPeriph_Driver/src/stm32f4xx_fsmc.c ****   *            @arg FSMC_Bank2_NAND: FSMC Bank2 NAND 
 545:../STLibs//STM32F4xx_DSP_StdPeriph_Lib_V1.0.1/Libraries/STM32F4xx_StdPeriph_Driver/src/stm32f4xx_fsmc.c ****   *            @arg FSMC_Bank3_NAND: FSMC Bank3 NAND
 546:../STLibs//STM32F4xx_DSP_StdPeriph_Lib_V1.0.1/Libraries/STM32F4xx_StdPeriph_Driver/src/stm32f4xx_fsmc.c ****   * @retval The Error Correction Code (ECC) value.
 547:../STLibs//STM32F4xx_DSP_StdPeriph_Lib_V1.0.1/Libraries/STM32F4xx_StdPeriph_Driver/src/stm32f4xx_fsmc.c ****   */
 548:../STLibs//STM32F4xx_DSP_StdPeriph_Lib_V1.0.1/Libraries/STM32F4xx_StdPeriph_Driver/src/stm32f4xx_fsmc.c **** uint32_t FSMC_GetECC(uint32_t FSMC_Bank)
 549:../STLibs//STM32F4xx_DSP_StdPeriph_Lib_V1.0.1/Libraries/STM32F4xx_StdPeriph_Driver/src/stm32f4xx_fsmc.c **** {
 605              		.loc 1 549 0
 606              		.cfi_startproc
 607              		@ args = 0, pretend = 0, frame = 0
 608              		@ frame_needed = 0, uses_anonymous_args = 0
 609              		@ link register save eliminated.
 610              	.LVL22:
 550:../STLibs//STM32F4xx_DSP_StdPeriph_Lib_V1.0.1/Libraries/STM32F4xx_StdPeriph_Driver/src/stm32f4xx_fsmc.c ****   uint32_t eccval = 0x00000000;
 551:../STLibs//STM32F4xx_DSP_StdPeriph_Lib_V1.0.1/Libraries/STM32F4xx_StdPeriph_Driver/src/stm32f4xx_fsmc.c ****   
 552:../STLibs//STM32F4xx_DSP_StdPeriph_Lib_V1.0.1/Libraries/STM32F4xx_StdPeriph_Driver/src/stm32f4xx_fsmc.c ****   if(FSMC_Bank == FSMC_Bank2_NAND)
 611              		.loc 1 552 0
 612 0250 1028     		cmp	r0, #16
 553:../STLibs//STM32F4xx_DSP_StdPeriph_Lib_V1.0.1/Libraries/STM32F4xx_StdPeriph_Driver/src/stm32f4xx_fsmc.c ****   {
 554:../STLibs//STM32F4xx_DSP_StdPeriph_Lib_V1.0.1/Libraries/STM32F4xx_StdPeriph_Driver/src/stm32f4xx_fsmc.c ****     /* Get the ECCR2 register value */
 555:../STLibs//STM32F4xx_DSP_StdPeriph_Lib_V1.0.1/Libraries/STM32F4xx_StdPeriph_Driver/src/stm32f4xx_fsmc.c ****     eccval = FSMC_Bank2->ECCR2;
 613              		.loc 1 555 0
 614 0252 0CBF     		ite	eq
 615 0254 014B     		ldreq	r3, .L53
 556:../STLibs//STM32F4xx_DSP_StdPeriph_Lib_V1.0.1/Libraries/STM32F4xx_StdPeriph_Driver/src/stm32f4xx_fsmc.c ****   }
 557:../STLibs//STM32F4xx_DSP_StdPeriph_Lib_V1.0.1/Libraries/STM32F4xx_StdPeriph_Driver/src/stm32f4xx_fsmc.c ****   else
 558:../STLibs//STM32F4xx_DSP_StdPeriph_Lib_V1.0.1/Libraries/STM32F4xx_StdPeriph_Driver/src/stm32f4xx_fsmc.c ****   {
 559:../STLibs//STM32F4xx_DSP_StdPeriph_Lib_V1.0.1/Libraries/STM32F4xx_StdPeriph_Driver/src/stm32f4xx_fsmc.c ****     /* Get the ECCR3 register value */
 560:../STLibs//STM32F4xx_DSP_StdPeriph_Lib_V1.0.1/Libraries/STM32F4xx_StdPeriph_Driver/src/stm32f4xx_fsmc.c ****     eccval = FSMC_Bank3->ECCR3;
 616              		.loc 1 560 0
 617 0256 024B     		ldrne	r3, .L53+4
 618 0258 5869     		ldr	r0, [r3, #20]
 619              	.LVL23:
 561:../STLibs//STM32F4xx_DSP_StdPeriph_Lib_V1.0.1/Libraries/STM32F4xx_StdPeriph_Driver/src/stm32f4xx_fsmc.c ****   }
 562:../STLibs//STM32F4xx_DSP_StdPeriph_Lib_V1.0.1/Libraries/STM32F4xx_StdPeriph_Driver/src/stm32f4xx_fsmc.c ****   /* Return the error correction code value */
 563:../STLibs//STM32F4xx_DSP_StdPeriph_Lib_V1.0.1/Libraries/STM32F4xx_StdPeriph_Driver/src/stm32f4xx_fsmc.c ****   return(eccval);
 564:../STLibs//STM32F4xx_DSP_StdPeriph_Lib_V1.0.1/Libraries/STM32F4xx_StdPeriph_Driver/src/stm32f4xx_fsmc.c **** }
 620              		.loc 1 564 0
 621 025a 7047     		bx	lr
 622              	.L54:
 623              		.align	2
 624              	.L53:
 625 025c 600000A0 		.word	-1610612640
 626 0260 800000A0 		.word	-1610612608
 627              		.cfi_endproc
 628              	.LFE119:
 630              		.align	1
 631              		.global	FSMC_PCCARDDeInit
 632              		.syntax unified
 633              		.thumb
 634              		.thumb_func
 635              		.fpu fpv4-sp-d16
 637              	FSMC_PCCARDDeInit:
 638              	.LFB120:
 565:../STLibs//STM32F4xx_DSP_StdPeriph_Lib_V1.0.1/Libraries/STM32F4xx_StdPeriph_Driver/src/stm32f4xx_fsmc.c **** /**
 566:../STLibs//STM32F4xx_DSP_StdPeriph_Lib_V1.0.1/Libraries/STM32F4xx_StdPeriph_Driver/src/stm32f4xx_fsmc.c ****   * @}
 567:../STLibs//STM32F4xx_DSP_StdPeriph_Lib_V1.0.1/Libraries/STM32F4xx_StdPeriph_Driver/src/stm32f4xx_fsmc.c ****   */
 568:../STLibs//STM32F4xx_DSP_StdPeriph_Lib_V1.0.1/Libraries/STM32F4xx_StdPeriph_Driver/src/stm32f4xx_fsmc.c **** 
 569:../STLibs//STM32F4xx_DSP_StdPeriph_Lib_V1.0.1/Libraries/STM32F4xx_StdPeriph_Driver/src/stm32f4xx_fsmc.c **** /** @defgroup FSMC_Group3 PCCARD Controller functions
 570:../STLibs//STM32F4xx_DSP_StdPeriph_Lib_V1.0.1/Libraries/STM32F4xx_StdPeriph_Driver/src/stm32f4xx_fsmc.c ****  *  @brief   PCCARD Controller functions 
 571:../STLibs//STM32F4xx_DSP_StdPeriph_Lib_V1.0.1/Libraries/STM32F4xx_StdPeriph_Driver/src/stm32f4xx_fsmc.c ****  *
 572:../STLibs//STM32F4xx_DSP_StdPeriph_Lib_V1.0.1/Libraries/STM32F4xx_StdPeriph_Driver/src/stm32f4xx_fsmc.c **** @verbatim   
 573:../STLibs//STM32F4xx_DSP_StdPeriph_Lib_V1.0.1/Libraries/STM32F4xx_StdPeriph_Driver/src/stm32f4xx_fsmc.c ****  ===============================================================================
 574:../STLibs//STM32F4xx_DSP_StdPeriph_Lib_V1.0.1/Libraries/STM32F4xx_StdPeriph_Driver/src/stm32f4xx_fsmc.c ****                     PCCARD Controller functions
 575:../STLibs//STM32F4xx_DSP_StdPeriph_Lib_V1.0.1/Libraries/STM32F4xx_StdPeriph_Driver/src/stm32f4xx_fsmc.c ****  ===============================================================================  
 576:../STLibs//STM32F4xx_DSP_StdPeriph_Lib_V1.0.1/Libraries/STM32F4xx_StdPeriph_Driver/src/stm32f4xx_fsmc.c **** 
 577:../STLibs//STM32F4xx_DSP_StdPeriph_Lib_V1.0.1/Libraries/STM32F4xx_StdPeriph_Driver/src/stm32f4xx_fsmc.c ****  The following sequence should be followed to configure the FSMC to interface with
 578:../STLibs//STM32F4xx_DSP_StdPeriph_Lib_V1.0.1/Libraries/STM32F4xx_StdPeriph_Driver/src/stm32f4xx_fsmc.c ****  16-bit PC Card compatible memory connected to the PCCARD Bank:
 579:../STLibs//STM32F4xx_DSP_StdPeriph_Lib_V1.0.1/Libraries/STM32F4xx_StdPeriph_Driver/src/stm32f4xx_fsmc.c ****  
 580:../STLibs//STM32F4xx_DSP_StdPeriph_Lib_V1.0.1/Libraries/STM32F4xx_StdPeriph_Driver/src/stm32f4xx_fsmc.c ****    1. Enable the clock for the FSMC and associated GPIOs using the following functions:
 581:../STLibs//STM32F4xx_DSP_StdPeriph_Lib_V1.0.1/Libraries/STM32F4xx_StdPeriph_Driver/src/stm32f4xx_fsmc.c ****           RCC_AHB3PeriphClockCmd(RCC_AHB3Periph_FSMC, ENABLE);
 582:../STLibs//STM32F4xx_DSP_StdPeriph_Lib_V1.0.1/Libraries/STM32F4xx_StdPeriph_Driver/src/stm32f4xx_fsmc.c ****           RCC_AHB1PeriphClockCmd(RCC_AHB1Periph_GPIOx, ENABLE);
 583:../STLibs//STM32F4xx_DSP_StdPeriph_Lib_V1.0.1/Libraries/STM32F4xx_StdPeriph_Driver/src/stm32f4xx_fsmc.c **** 
 584:../STLibs//STM32F4xx_DSP_StdPeriph_Lib_V1.0.1/Libraries/STM32F4xx_StdPeriph_Driver/src/stm32f4xx_fsmc.c ****    2. FSMC pins configuration 
 585:../STLibs//STM32F4xx_DSP_StdPeriph_Lib_V1.0.1/Libraries/STM32F4xx_StdPeriph_Driver/src/stm32f4xx_fsmc.c ****        - Connect the involved FSMC pins to AF12 using the following function 
 586:../STLibs//STM32F4xx_DSP_StdPeriph_Lib_V1.0.1/Libraries/STM32F4xx_StdPeriph_Driver/src/stm32f4xx_fsmc.c ****           GPIO_PinAFConfig(GPIOx, GPIO_PinSourcex, GPIO_AF_FSMC); 
 587:../STLibs//STM32F4xx_DSP_StdPeriph_Lib_V1.0.1/Libraries/STM32F4xx_StdPeriph_Driver/src/stm32f4xx_fsmc.c ****        - Configure these FSMC pins in alternate function mode by calling the function
 588:../STLibs//STM32F4xx_DSP_StdPeriph_Lib_V1.0.1/Libraries/STM32F4xx_StdPeriph_Driver/src/stm32f4xx_fsmc.c ****           GPIO_Init();    
 589:../STLibs//STM32F4xx_DSP_StdPeriph_Lib_V1.0.1/Libraries/STM32F4xx_StdPeriph_Driver/src/stm32f4xx_fsmc.c ****        
 590:../STLibs//STM32F4xx_DSP_StdPeriph_Lib_V1.0.1/Libraries/STM32F4xx_StdPeriph_Driver/src/stm32f4xx_fsmc.c ****    3. Declare a FSMC_PCCARDInitTypeDef structure, for example:
 591:../STLibs//STM32F4xx_DSP_StdPeriph_Lib_V1.0.1/Libraries/STM32F4xx_StdPeriph_Driver/src/stm32f4xx_fsmc.c ****           FSMC_PCCARDInitTypeDef  FSMC_PCCARDInitStructure;
 592:../STLibs//STM32F4xx_DSP_StdPeriph_Lib_V1.0.1/Libraries/STM32F4xx_StdPeriph_Driver/src/stm32f4xx_fsmc.c ****       and fill the FSMC_PCCARDInitStructure variable with the allowed values of
 593:../STLibs//STM32F4xx_DSP_StdPeriph_Lib_V1.0.1/Libraries/STM32F4xx_StdPeriph_Driver/src/stm32f4xx_fsmc.c ****       the structure member.
 594:../STLibs//STM32F4xx_DSP_StdPeriph_Lib_V1.0.1/Libraries/STM32F4xx_StdPeriph_Driver/src/stm32f4xx_fsmc.c ****       
 595:../STLibs//STM32F4xx_DSP_StdPeriph_Lib_V1.0.1/Libraries/STM32F4xx_StdPeriph_Driver/src/stm32f4xx_fsmc.c ****    4. Initialize the PCCARD Controller by calling the function
 596:../STLibs//STM32F4xx_DSP_StdPeriph_Lib_V1.0.1/Libraries/STM32F4xx_StdPeriph_Driver/src/stm32f4xx_fsmc.c ****           FSMC_PCCARDInit(&FSMC_PCCARDInitStructure); 
 597:../STLibs//STM32F4xx_DSP_StdPeriph_Lib_V1.0.1/Libraries/STM32F4xx_StdPeriph_Driver/src/stm32f4xx_fsmc.c **** 
 598:../STLibs//STM32F4xx_DSP_StdPeriph_Lib_V1.0.1/Libraries/STM32F4xx_StdPeriph_Driver/src/stm32f4xx_fsmc.c ****    5. Then enable the PCCARD Bank:
 599:../STLibs//STM32F4xx_DSP_StdPeriph_Lib_V1.0.1/Libraries/STM32F4xx_StdPeriph_Driver/src/stm32f4xx_fsmc.c ****           FSMC_PCCARDCmd(ENABLE);  
 600:../STLibs//STM32F4xx_DSP_StdPeriph_Lib_V1.0.1/Libraries/STM32F4xx_StdPeriph_Driver/src/stm32f4xx_fsmc.c **** 
 601:../STLibs//STM32F4xx_DSP_StdPeriph_Lib_V1.0.1/Libraries/STM32F4xx_StdPeriph_Driver/src/stm32f4xx_fsmc.c ****    6. At this stage you can read/write from/to the memory connected to the PCCARD Bank. 
 602:../STLibs//STM32F4xx_DSP_StdPeriph_Lib_V1.0.1/Libraries/STM32F4xx_StdPeriph_Driver/src/stm32f4xx_fsmc.c ****  
 603:../STLibs//STM32F4xx_DSP_StdPeriph_Lib_V1.0.1/Libraries/STM32F4xx_StdPeriph_Driver/src/stm32f4xx_fsmc.c **** @endverbatim
 604:../STLibs//STM32F4xx_DSP_StdPeriph_Lib_V1.0.1/Libraries/STM32F4xx_StdPeriph_Driver/src/stm32f4xx_fsmc.c ****   * @{
 605:../STLibs//STM32F4xx_DSP_StdPeriph_Lib_V1.0.1/Libraries/STM32F4xx_StdPeriph_Driver/src/stm32f4xx_fsmc.c ****   */
 606:../STLibs//STM32F4xx_DSP_StdPeriph_Lib_V1.0.1/Libraries/STM32F4xx_StdPeriph_Driver/src/stm32f4xx_fsmc.c **** 
 607:../STLibs//STM32F4xx_DSP_StdPeriph_Lib_V1.0.1/Libraries/STM32F4xx_StdPeriph_Driver/src/stm32f4xx_fsmc.c **** /**
 608:../STLibs//STM32F4xx_DSP_StdPeriph_Lib_V1.0.1/Libraries/STM32F4xx_StdPeriph_Driver/src/stm32f4xx_fsmc.c ****   * @brief  Deinitializes the FSMC PCCARD Bank registers to their default reset values.
 609:../STLibs//STM32F4xx_DSP_StdPeriph_Lib_V1.0.1/Libraries/STM32F4xx_StdPeriph_Driver/src/stm32f4xx_fsmc.c ****   * @param  None                       
 610:../STLibs//STM32F4xx_DSP_StdPeriph_Lib_V1.0.1/Libraries/STM32F4xx_StdPeriph_Driver/src/stm32f4xx_fsmc.c ****   * @retval None
 611:../STLibs//STM32F4xx_DSP_StdPeriph_Lib_V1.0.1/Libraries/STM32F4xx_StdPeriph_Driver/src/stm32f4xx_fsmc.c ****   */
 612:../STLibs//STM32F4xx_DSP_StdPeriph_Lib_V1.0.1/Libraries/STM32F4xx_StdPeriph_Driver/src/stm32f4xx_fsmc.c **** void FSMC_PCCARDDeInit(void)
 613:../STLibs//STM32F4xx_DSP_StdPeriph_Lib_V1.0.1/Libraries/STM32F4xx_StdPeriph_Driver/src/stm32f4xx_fsmc.c **** {
 639              		.loc 1 613 0
 640              		.cfi_startproc
 641              		@ args = 0, pretend = 0, frame = 0
 642              		@ frame_needed = 0, uses_anonymous_args = 0
 643              		@ link register save eliminated.
 614:../STLibs//STM32F4xx_DSP_StdPeriph_Lib_V1.0.1/Libraries/STM32F4xx_StdPeriph_Driver/src/stm32f4xx_fsmc.c ****   /* Set the FSMC_Bank4 registers to their reset values */
 615:../STLibs//STM32F4xx_DSP_StdPeriph_Lib_V1.0.1/Libraries/STM32F4xx_StdPeriph_Driver/src/stm32f4xx_fsmc.c ****   FSMC_Bank4->PCR4 = 0x00000018; 
 644              		.loc 1 615 0
 645 0264 054B     		ldr	r3, .L56
 646 0266 1822     		movs	r2, #24
 647 0268 1A60     		str	r2, [r3]
 616:../STLibs//STM32F4xx_DSP_StdPeriph_Lib_V1.0.1/Libraries/STM32F4xx_StdPeriph_Driver/src/stm32f4xx_fsmc.c ****   FSMC_Bank4->SR4 = 0x00000000;	
 648              		.loc 1 616 0
 649 026a 0022     		movs	r2, #0
 650 026c 5A60     		str	r2, [r3, #4]
 617:../STLibs//STM32F4xx_DSP_StdPeriph_Lib_V1.0.1/Libraries/STM32F4xx_StdPeriph_Driver/src/stm32f4xx_fsmc.c ****   FSMC_Bank4->PMEM4 = 0xFCFCFCFC;
 651              		.loc 1 617 0
 652 026e 4FF0FC32 		mov	r2, #-50529028
 653 0272 9A60     		str	r2, [r3, #8]
 618:../STLibs//STM32F4xx_DSP_StdPeriph_Lib_V1.0.1/Libraries/STM32F4xx_StdPeriph_Driver/src/stm32f4xx_fsmc.c ****   FSMC_Bank4->PATT4 = 0xFCFCFCFC;
 654              		.loc 1 618 0
 655 0274 DA60     		str	r2, [r3, #12]
 619:../STLibs//STM32F4xx_DSP_StdPeriph_Lib_V1.0.1/Libraries/STM32F4xx_StdPeriph_Driver/src/stm32f4xx_fsmc.c ****   FSMC_Bank4->PIO4 = 0xFCFCFCFC;
 656              		.loc 1 619 0
 657 0276 1A61     		str	r2, [r3, #16]
 620:../STLibs//STM32F4xx_DSP_StdPeriph_Lib_V1.0.1/Libraries/STM32F4xx_StdPeriph_Driver/src/stm32f4xx_fsmc.c **** }
 658              		.loc 1 620 0
 659 0278 7047     		bx	lr
 660              	.L57:
 661 027a 00BF     		.align	2
 662              	.L56:
 663 027c A00000A0 		.word	-1610612576
 664              		.cfi_endproc
 665              	.LFE120:
 667              		.align	1
 668              		.global	FSMC_PCCARDInit
 669              		.syntax unified
 670              		.thumb
 671              		.thumb_func
 672              		.fpu fpv4-sp-d16
 674              	FSMC_PCCARDInit:
 675              	.LFB121:
 621:../STLibs//STM32F4xx_DSP_StdPeriph_Lib_V1.0.1/Libraries/STM32F4xx_StdPeriph_Driver/src/stm32f4xx_fsmc.c **** 
 622:../STLibs//STM32F4xx_DSP_StdPeriph_Lib_V1.0.1/Libraries/STM32F4xx_StdPeriph_Driver/src/stm32f4xx_fsmc.c **** /**
 623:../STLibs//STM32F4xx_DSP_StdPeriph_Lib_V1.0.1/Libraries/STM32F4xx_StdPeriph_Driver/src/stm32f4xx_fsmc.c ****   * @brief  Initializes the FSMC PCCARD Bank according to the specified parameters
 624:../STLibs//STM32F4xx_DSP_StdPeriph_Lib_V1.0.1/Libraries/STM32F4xx_StdPeriph_Driver/src/stm32f4xx_fsmc.c ****   *         in the FSMC_PCCARDInitStruct.
 625:../STLibs//STM32F4xx_DSP_StdPeriph_Lib_V1.0.1/Libraries/STM32F4xx_StdPeriph_Driver/src/stm32f4xx_fsmc.c ****   * @param  FSMC_PCCARDInitStruct : pointer to a FSMC_PCCARDInitTypeDef structure
 626:../STLibs//STM32F4xx_DSP_StdPeriph_Lib_V1.0.1/Libraries/STM32F4xx_StdPeriph_Driver/src/stm32f4xx_fsmc.c ****   *         that contains the configuration information for the FSMC PCCARD Bank.                  
 627:../STLibs//STM32F4xx_DSP_StdPeriph_Lib_V1.0.1/Libraries/STM32F4xx_StdPeriph_Driver/src/stm32f4xx_fsmc.c ****   * @retval None
 628:../STLibs//STM32F4xx_DSP_StdPeriph_Lib_V1.0.1/Libraries/STM32F4xx_StdPeriph_Driver/src/stm32f4xx_fsmc.c ****   */
 629:../STLibs//STM32F4xx_DSP_StdPeriph_Lib_V1.0.1/Libraries/STM32F4xx_StdPeriph_Driver/src/stm32f4xx_fsmc.c **** void FSMC_PCCARDInit(FSMC_PCCARDInitTypeDef* FSMC_PCCARDInitStruct)
 630:../STLibs//STM32F4xx_DSP_StdPeriph_Lib_V1.0.1/Libraries/STM32F4xx_StdPeriph_Driver/src/stm32f4xx_fsmc.c **** {
 676              		.loc 1 630 0
 677              		.cfi_startproc
 678              		@ args = 0, pretend = 0, frame = 0
 679              		@ frame_needed = 0, uses_anonymous_args = 0
 680              	.LVL24:
 631:../STLibs//STM32F4xx_DSP_StdPeriph_Lib_V1.0.1/Libraries/STM32F4xx_StdPeriph_Driver/src/stm32f4xx_fsmc.c ****   /* Check the parameters */
 632:../STLibs//STM32F4xx_DSP_StdPeriph_Lib_V1.0.1/Libraries/STM32F4xx_StdPeriph_Driver/src/stm32f4xx_fsmc.c ****   assert_param(IS_FSMC_WAIT_FEATURE(FSMC_PCCARDInitStruct->FSMC_Waitfeature));
 633:../STLibs//STM32F4xx_DSP_StdPeriph_Lib_V1.0.1/Libraries/STM32F4xx_StdPeriph_Driver/src/stm32f4xx_fsmc.c ****   assert_param(IS_FSMC_TCLR_TIME(FSMC_PCCARDInitStruct->FSMC_TCLRSetupTime));
 634:../STLibs//STM32F4xx_DSP_StdPeriph_Lib_V1.0.1/Libraries/STM32F4xx_StdPeriph_Driver/src/stm32f4xx_fsmc.c ****   assert_param(IS_FSMC_TAR_TIME(FSMC_PCCARDInitStruct->FSMC_TARSetupTime));
 635:../STLibs//STM32F4xx_DSP_StdPeriph_Lib_V1.0.1/Libraries/STM32F4xx_StdPeriph_Driver/src/stm32f4xx_fsmc.c ****  
 636:../STLibs//STM32F4xx_DSP_StdPeriph_Lib_V1.0.1/Libraries/STM32F4xx_StdPeriph_Driver/src/stm32f4xx_fsmc.c ****   assert_param(IS_FSMC_SETUP_TIME(FSMC_PCCARDInitStruct->FSMC_CommonSpaceTimingStruct->FSMC_SetupTi
 637:../STLibs//STM32F4xx_DSP_StdPeriph_Lib_V1.0.1/Libraries/STM32F4xx_StdPeriph_Driver/src/stm32f4xx_fsmc.c ****   assert_param(IS_FSMC_WAIT_TIME(FSMC_PCCARDInitStruct->FSMC_CommonSpaceTimingStruct->FSMC_WaitSetu
 638:../STLibs//STM32F4xx_DSP_StdPeriph_Lib_V1.0.1/Libraries/STM32F4xx_StdPeriph_Driver/src/stm32f4xx_fsmc.c ****   assert_param(IS_FSMC_HOLD_TIME(FSMC_PCCARDInitStruct->FSMC_CommonSpaceTimingStruct->FSMC_HoldSetu
 639:../STLibs//STM32F4xx_DSP_StdPeriph_Lib_V1.0.1/Libraries/STM32F4xx_StdPeriph_Driver/src/stm32f4xx_fsmc.c ****   assert_param(IS_FSMC_HIZ_TIME(FSMC_PCCARDInitStruct->FSMC_CommonSpaceTimingStruct->FSMC_HiZSetupT
 640:../STLibs//STM32F4xx_DSP_StdPeriph_Lib_V1.0.1/Libraries/STM32F4xx_StdPeriph_Driver/src/stm32f4xx_fsmc.c ****   
 641:../STLibs//STM32F4xx_DSP_StdPeriph_Lib_V1.0.1/Libraries/STM32F4xx_StdPeriph_Driver/src/stm32f4xx_fsmc.c ****   assert_param(IS_FSMC_SETUP_TIME(FSMC_PCCARDInitStruct->FSMC_AttributeSpaceTimingStruct->FSMC_Setu
 642:../STLibs//STM32F4xx_DSP_StdPeriph_Lib_V1.0.1/Libraries/STM32F4xx_StdPeriph_Driver/src/stm32f4xx_fsmc.c ****   assert_param(IS_FSMC_WAIT_TIME(FSMC_PCCARDInitStruct->FSMC_AttributeSpaceTimingStruct->FSMC_WaitS
 643:../STLibs//STM32F4xx_DSP_StdPeriph_Lib_V1.0.1/Libraries/STM32F4xx_StdPeriph_Driver/src/stm32f4xx_fsmc.c ****   assert_param(IS_FSMC_HOLD_TIME(FSMC_PCCARDInitStruct->FSMC_AttributeSpaceTimingStruct->FSMC_HoldS
 644:../STLibs//STM32F4xx_DSP_StdPeriph_Lib_V1.0.1/Libraries/STM32F4xx_StdPeriph_Driver/src/stm32f4xx_fsmc.c ****   assert_param(IS_FSMC_HIZ_TIME(FSMC_PCCARDInitStruct->FSMC_AttributeSpaceTimingStruct->FSMC_HiZSet
 645:../STLibs//STM32F4xx_DSP_StdPeriph_Lib_V1.0.1/Libraries/STM32F4xx_StdPeriph_Driver/src/stm32f4xx_fsmc.c ****   assert_param(IS_FSMC_SETUP_TIME(FSMC_PCCARDInitStruct->FSMC_IOSpaceTimingStruct->FSMC_SetupTime))
 646:../STLibs//STM32F4xx_DSP_StdPeriph_Lib_V1.0.1/Libraries/STM32F4xx_StdPeriph_Driver/src/stm32f4xx_fsmc.c ****   assert_param(IS_FSMC_WAIT_TIME(FSMC_PCCARDInitStruct->FSMC_IOSpaceTimingStruct->FSMC_WaitSetupTim
 647:../STLibs//STM32F4xx_DSP_StdPeriph_Lib_V1.0.1/Libraries/STM32F4xx_StdPeriph_Driver/src/stm32f4xx_fsmc.c ****   assert_param(IS_FSMC_HOLD_TIME(FSMC_PCCARDInitStruct->FSMC_IOSpaceTimingStruct->FSMC_HoldSetupTim
 648:../STLibs//STM32F4xx_DSP_StdPeriph_Lib_V1.0.1/Libraries/STM32F4xx_StdPeriph_Driver/src/stm32f4xx_fsmc.c ****   assert_param(IS_FSMC_HIZ_TIME(FSMC_PCCARDInitStruct->FSMC_IOSpaceTimingStruct->FSMC_HiZSetupTime)
 649:../STLibs//STM32F4xx_DSP_StdPeriph_Lib_V1.0.1/Libraries/STM32F4xx_StdPeriph_Driver/src/stm32f4xx_fsmc.c ****   
 650:../STLibs//STM32F4xx_DSP_StdPeriph_Lib_V1.0.1/Libraries/STM32F4xx_StdPeriph_Driver/src/stm32f4xx_fsmc.c ****   /* Set the PCR4 register value according to FSMC_PCCARDInitStruct parameters */
 651:../STLibs//STM32F4xx_DSP_StdPeriph_Lib_V1.0.1/Libraries/STM32F4xx_StdPeriph_Driver/src/stm32f4xx_fsmc.c ****   FSMC_Bank4->PCR4 = (uint32_t)FSMC_PCCARDInitStruct->FSMC_Waitfeature |
 652:../STLibs//STM32F4xx_DSP_StdPeriph_Lib_V1.0.1/Libraries/STM32F4xx_StdPeriph_Driver/src/stm32f4xx_fsmc.c ****                      FSMC_MemoryDataWidth_16b |  
 653:../STLibs//STM32F4xx_DSP_StdPeriph_Lib_V1.0.1/Libraries/STM32F4xx_StdPeriph_Driver/src/stm32f4xx_fsmc.c ****                      (FSMC_PCCARDInitStruct->FSMC_TCLRSetupTime << 9) |
 681              		.loc 1 653 0
 682 0280 D0E90032 		ldrd	r3, r2, [r0]
 683 0284 43F01003 		orr	r3, r3, #16
 684 0288 43EA4223 		orr	r3, r3, r2, lsl #9
 654:../STLibs//STM32F4xx_DSP_StdPeriph_Lib_V1.0.1/Libraries/STM32F4xx_StdPeriph_Driver/src/stm32f4xx_fsmc.c ****                      (FSMC_PCCARDInitStruct->FSMC_TARSetupTime << 13);
 685              		.loc 1 654 0
 686 028c 8268     		ldr	r2, [r0, #8]
 655:../STLibs//STM32F4xx_DSP_StdPeriph_Lib_V1.0.1/Libraries/STM32F4xx_StdPeriph_Driver/src/stm32f4xx_fsmc.c ****             
 656:../STLibs//STM32F4xx_DSP_StdPeriph_Lib_V1.0.1/Libraries/STM32F4xx_StdPeriph_Driver/src/stm32f4xx_fsmc.c ****   /* Set PMEM4 register value according to FSMC_CommonSpaceTimingStructure parameters */
 657:../STLibs//STM32F4xx_DSP_StdPeriph_Lib_V1.0.1/Libraries/STM32F4xx_StdPeriph_Driver/src/stm32f4xx_fsmc.c ****   FSMC_Bank4->PMEM4 = (uint32_t)FSMC_PCCARDInitStruct->FSMC_CommonSpaceTimingStruct->FSMC_SetupTime
 687              		.loc 1 657 0
 688 028e C168     		ldr	r1, [r0, #12]
 653:../STLibs//STM32F4xx_DSP_StdPeriph_Lib_V1.0.1/Libraries/STM32F4xx_StdPeriph_Driver/src/stm32f4xx_fsmc.c ****                      (FSMC_PCCARDInitStruct->FSMC_TARSetupTime << 13);
 689              		.loc 1 653 0
 690 0290 43EA4233 		orr	r3, r3, r2, lsl #13
 651:../STLibs//STM32F4xx_DSP_StdPeriph_Lib_V1.0.1/Libraries/STM32F4xx_StdPeriph_Driver/src/stm32f4xx_fsmc.c ****                      FSMC_MemoryDataWidth_16b |  
 691              		.loc 1 651 0
 692 0294 134A     		ldr	r2, .L59
 630:../STLibs//STM32F4xx_DSP_StdPeriph_Lib_V1.0.1/Libraries/STM32F4xx_StdPeriph_Driver/src/stm32f4xx_fsmc.c ****   /* Check the parameters */
 693              		.loc 1 630 0
 694 0296 10B5     		push	{r4, lr}
 695              	.LCFI3:
 696              		.cfi_def_cfa_offset 8
 697              		.cfi_offset 4, -8
 698              		.cfi_offset 14, -4
 651:../STLibs//STM32F4xx_DSP_StdPeriph_Lib_V1.0.1/Libraries/STM32F4xx_StdPeriph_Driver/src/stm32f4xx_fsmc.c ****                      FSMC_MemoryDataWidth_16b |  
 699              		.loc 1 651 0
 700 0298 1360     		str	r3, [r2]
 658:../STLibs//STM32F4xx_DSP_StdPeriph_Lib_V1.0.1/Libraries/STM32F4xx_StdPeriph_Driver/src/stm32f4xx_fsmc.c ****                       (FSMC_PCCARDInitStruct->FSMC_CommonSpaceTimingStruct->FSMC_WaitSetupTime << 8
 659:../STLibs//STM32F4xx_DSP_StdPeriph_Lib_V1.0.1/Libraries/STM32F4xx_StdPeriph_Driver/src/stm32f4xx_fsmc.c ****                       (FSMC_PCCARDInitStruct->FSMC_CommonSpaceTimingStruct->FSMC_HoldSetupTime << 1
 701              		.loc 1 659 0
 702 029a D1E90143 		ldrd	r4, r3, [r1, #4]
 703 029e 1B04     		lsls	r3, r3, #16
 658:../STLibs//STM32F4xx_DSP_StdPeriph_Lib_V1.0.1/Libraries/STM32F4xx_StdPeriph_Driver/src/stm32f4xx_fsmc.c ****                       (FSMC_PCCARDInitStruct->FSMC_CommonSpaceTimingStruct->FSMC_WaitSetupTime << 8
 704              		.loc 1 658 0
 705 02a0 43EA0423 		orr	r3, r3, r4, lsl #8
 706 02a4 0C68     		ldr	r4, [r1]
 660:../STLibs//STM32F4xx_DSP_StdPeriph_Lib_V1.0.1/Libraries/STM32F4xx_StdPeriph_Driver/src/stm32f4xx_fsmc.c ****                       (FSMC_PCCARDInitStruct->FSMC_CommonSpaceTimingStruct->FSMC_HiZSetupTime << 24
 707              		.loc 1 660 0
 708 02a6 C968     		ldr	r1, [r1, #12]
 658:../STLibs//STM32F4xx_DSP_StdPeriph_Lib_V1.0.1/Libraries/STM32F4xx_StdPeriph_Driver/src/stm32f4xx_fsmc.c ****                       (FSMC_PCCARDInitStruct->FSMC_CommonSpaceTimingStruct->FSMC_WaitSetupTime << 8
 709              		.loc 1 658 0
 710 02a8 2343     		orrs	r3, r3, r4
 659:../STLibs//STM32F4xx_DSP_StdPeriph_Lib_V1.0.1/Libraries/STM32F4xx_StdPeriph_Driver/src/stm32f4xx_fsmc.c ****                       (FSMC_PCCARDInitStruct->FSMC_CommonSpaceTimingStruct->FSMC_HiZSetupTime << 24
 711              		.loc 1 659 0
 712 02aa 43EA0163 		orr	r3, r3, r1, lsl #24
 661:../STLibs//STM32F4xx_DSP_StdPeriph_Lib_V1.0.1/Libraries/STM32F4xx_StdPeriph_Driver/src/stm32f4xx_fsmc.c ****             
 662:../STLibs//STM32F4xx_DSP_StdPeriph_Lib_V1.0.1/Libraries/STM32F4xx_StdPeriph_Driver/src/stm32f4xx_fsmc.c ****   /* Set PATT4 register value according to FSMC_AttributeSpaceTimingStructure parameters */
 663:../STLibs//STM32F4xx_DSP_StdPeriph_Lib_V1.0.1/Libraries/STM32F4xx_StdPeriph_Driver/src/stm32f4xx_fsmc.c ****   FSMC_Bank4->PATT4 = (uint32_t)FSMC_PCCARDInitStruct->FSMC_AttributeSpaceTimingStruct->FSMC_SetupT
 713              		.loc 1 663 0
 714 02ae 0169     		ldr	r1, [r0, #16]
 657:../STLibs//STM32F4xx_DSP_StdPeriph_Lib_V1.0.1/Libraries/STM32F4xx_StdPeriph_Driver/src/stm32f4xx_fsmc.c ****                       (FSMC_PCCARDInitStruct->FSMC_CommonSpaceTimingStruct->FSMC_WaitSetupTime << 8
 715              		.loc 1 657 0
 716 02b0 9360     		str	r3, [r2, #8]
 664:../STLibs//STM32F4xx_DSP_StdPeriph_Lib_V1.0.1/Libraries/STM32F4xx_StdPeriph_Driver/src/stm32f4xx_fsmc.c ****                       (FSMC_PCCARDInitStruct->FSMC_AttributeSpaceTimingStruct->FSMC_WaitSetupTime <
 665:../STLibs//STM32F4xx_DSP_StdPeriph_Lib_V1.0.1/Libraries/STM32F4xx_StdPeriph_Driver/src/stm32f4xx_fsmc.c ****                       (FSMC_PCCARDInitStruct->FSMC_AttributeSpaceTimingStruct->FSMC_HoldSetupTime <
 717              		.loc 1 665 0
 718 02b2 D1E90143 		ldrd	r4, r3, [r1, #4]
 719 02b6 1B04     		lsls	r3, r3, #16
 664:../STLibs//STM32F4xx_DSP_StdPeriph_Lib_V1.0.1/Libraries/STM32F4xx_StdPeriph_Driver/src/stm32f4xx_fsmc.c ****                       (FSMC_PCCARDInitStruct->FSMC_AttributeSpaceTimingStruct->FSMC_WaitSetupTime <
 720              		.loc 1 664 0
 721 02b8 43EA0423 		orr	r3, r3, r4, lsl #8
 722 02bc 0C68     		ldr	r4, [r1]
 666:../STLibs//STM32F4xx_DSP_StdPeriph_Lib_V1.0.1/Libraries/STM32F4xx_StdPeriph_Driver/src/stm32f4xx_fsmc.c ****                       (FSMC_PCCARDInitStruct->FSMC_AttributeSpaceTimingStruct->FSMC_HiZSetupTime <<
 723              		.loc 1 666 0
 724 02be C968     		ldr	r1, [r1, #12]
 664:../STLibs//STM32F4xx_DSP_StdPeriph_Lib_V1.0.1/Libraries/STM32F4xx_StdPeriph_Driver/src/stm32f4xx_fsmc.c ****                       (FSMC_PCCARDInitStruct->FSMC_AttributeSpaceTimingStruct->FSMC_WaitSetupTime <
 725              		.loc 1 664 0
 726 02c0 2343     		orrs	r3, r3, r4
 665:../STLibs//STM32F4xx_DSP_StdPeriph_Lib_V1.0.1/Libraries/STM32F4xx_StdPeriph_Driver/src/stm32f4xx_fsmc.c ****                       (FSMC_PCCARDInitStruct->FSMC_AttributeSpaceTimingStruct->FSMC_HiZSetupTime <<
 727              		.loc 1 665 0
 728 02c2 43EA0163 		orr	r3, r3, r1, lsl #24
 667:../STLibs//STM32F4xx_DSP_StdPeriph_Lib_V1.0.1/Libraries/STM32F4xx_StdPeriph_Driver/src/stm32f4xx_fsmc.c ****             
 668:../STLibs//STM32F4xx_DSP_StdPeriph_Lib_V1.0.1/Libraries/STM32F4xx_StdPeriph_Driver/src/stm32f4xx_fsmc.c ****   /* Set PIO4 register value according to FSMC_IOSpaceTimingStructure parameters */
 669:../STLibs//STM32F4xx_DSP_StdPeriph_Lib_V1.0.1/Libraries/STM32F4xx_StdPeriph_Driver/src/stm32f4xx_fsmc.c ****   FSMC_Bank4->PIO4 = (uint32_t)FSMC_PCCARDInitStruct->FSMC_IOSpaceTimingStruct->FSMC_SetupTime |
 729              		.loc 1 669 0
 730 02c6 4169     		ldr	r1, [r0, #20]
 663:../STLibs//STM32F4xx_DSP_StdPeriph_Lib_V1.0.1/Libraries/STM32F4xx_StdPeriph_Driver/src/stm32f4xx_fsmc.c ****                       (FSMC_PCCARDInitStruct->FSMC_AttributeSpaceTimingStruct->FSMC_WaitSetupTime <
 731              		.loc 1 663 0
 732 02c8 D360     		str	r3, [r2, #12]
 670:../STLibs//STM32F4xx_DSP_StdPeriph_Lib_V1.0.1/Libraries/STM32F4xx_StdPeriph_Driver/src/stm32f4xx_fsmc.c ****                      (FSMC_PCCARDInitStruct->FSMC_IOSpaceTimingStruct->FSMC_WaitSetupTime << 8) |
 671:../STLibs//STM32F4xx_DSP_StdPeriph_Lib_V1.0.1/Libraries/STM32F4xx_StdPeriph_Driver/src/stm32f4xx_fsmc.c ****                      (FSMC_PCCARDInitStruct->FSMC_IOSpaceTimingStruct->FSMC_HoldSetupTime << 16)|
 733              		.loc 1 671 0
 734 02ca D1E90103 		ldrd	r0, r3, [r1, #4]
 735              	.LVL25:
 736 02ce 1B04     		lsls	r3, r3, #16
 670:../STLibs//STM32F4xx_DSP_StdPeriph_Lib_V1.0.1/Libraries/STM32F4xx_StdPeriph_Driver/src/stm32f4xx_fsmc.c ****                      (FSMC_PCCARDInitStruct->FSMC_IOSpaceTimingStruct->FSMC_WaitSetupTime << 8) |
 737              		.loc 1 670 0
 738 02d0 43EA0023 		orr	r3, r3, r0, lsl #8
 739 02d4 0868     		ldr	r0, [r1]
 672:../STLibs//STM32F4xx_DSP_StdPeriph_Lib_V1.0.1/Libraries/STM32F4xx_StdPeriph_Driver/src/stm32f4xx_fsmc.c ****                      (FSMC_PCCARDInitStruct->FSMC_IOSpaceTimingStruct->FSMC_HiZSetupTime << 24);   
 740              		.loc 1 672 0
 741 02d6 C968     		ldr	r1, [r1, #12]
 670:../STLibs//STM32F4xx_DSP_StdPeriph_Lib_V1.0.1/Libraries/STM32F4xx_StdPeriph_Driver/src/stm32f4xx_fsmc.c ****                      (FSMC_PCCARDInitStruct->FSMC_IOSpaceTimingStruct->FSMC_WaitSetupTime << 8) |
 742              		.loc 1 670 0
 743 02d8 0343     		orrs	r3, r3, r0
 671:../STLibs//STM32F4xx_DSP_StdPeriph_Lib_V1.0.1/Libraries/STM32F4xx_StdPeriph_Driver/src/stm32f4xx_fsmc.c ****                      (FSMC_PCCARDInitStruct->FSMC_IOSpaceTimingStruct->FSMC_HiZSetupTime << 24);   
 744              		.loc 1 671 0
 745 02da 43EA0163 		orr	r3, r3, r1, lsl #24
 669:../STLibs//STM32F4xx_DSP_StdPeriph_Lib_V1.0.1/Libraries/STM32F4xx_StdPeriph_Driver/src/stm32f4xx_fsmc.c ****                      (FSMC_PCCARDInitStruct->FSMC_IOSpaceTimingStruct->FSMC_WaitSetupTime << 8) |
 746              		.loc 1 669 0
 747 02de 1361     		str	r3, [r2, #16]
 673:../STLibs//STM32F4xx_DSP_StdPeriph_Lib_V1.0.1/Libraries/STM32F4xx_StdPeriph_Driver/src/stm32f4xx_fsmc.c **** }
 748              		.loc 1 673 0
 749 02e0 10BD     		pop	{r4, pc}
 750              	.L60:
 751 02e2 00BF     		.align	2
 752              	.L59:
 753 02e4 A00000A0 		.word	-1610612576
 754              		.cfi_endproc
 755              	.LFE121:
 757              		.align	1
 758              		.global	FSMC_PCCARDStructInit
 759              		.syntax unified
 760              		.thumb
 761              		.thumb_func
 762              		.fpu fpv4-sp-d16
 764              	FSMC_PCCARDStructInit:
 765              	.LFB122:
 674:../STLibs//STM32F4xx_DSP_StdPeriph_Lib_V1.0.1/Libraries/STM32F4xx_StdPeriph_Driver/src/stm32f4xx_fsmc.c **** 
 675:../STLibs//STM32F4xx_DSP_StdPeriph_Lib_V1.0.1/Libraries/STM32F4xx_StdPeriph_Driver/src/stm32f4xx_fsmc.c **** /**
 676:../STLibs//STM32F4xx_DSP_StdPeriph_Lib_V1.0.1/Libraries/STM32F4xx_StdPeriph_Driver/src/stm32f4xx_fsmc.c ****   * @brief  Fills each FSMC_PCCARDInitStruct member with its default value.
 677:../STLibs//STM32F4xx_DSP_StdPeriph_Lib_V1.0.1/Libraries/STM32F4xx_StdPeriph_Driver/src/stm32f4xx_fsmc.c ****   * @param  FSMC_PCCARDInitStruct: pointer to a FSMC_PCCARDInitTypeDef structure
 678:../STLibs//STM32F4xx_DSP_StdPeriph_Lib_V1.0.1/Libraries/STM32F4xx_StdPeriph_Driver/src/stm32f4xx_fsmc.c ****   *         which will be initialized.
 679:../STLibs//STM32F4xx_DSP_StdPeriph_Lib_V1.0.1/Libraries/STM32F4xx_StdPeriph_Driver/src/stm32f4xx_fsmc.c ****   * @retval None
 680:../STLibs//STM32F4xx_DSP_StdPeriph_Lib_V1.0.1/Libraries/STM32F4xx_StdPeriph_Driver/src/stm32f4xx_fsmc.c ****   */
 681:../STLibs//STM32F4xx_DSP_StdPeriph_Lib_V1.0.1/Libraries/STM32F4xx_StdPeriph_Driver/src/stm32f4xx_fsmc.c **** void FSMC_PCCARDStructInit(FSMC_PCCARDInitTypeDef* FSMC_PCCARDInitStruct)
 682:../STLibs//STM32F4xx_DSP_StdPeriph_Lib_V1.0.1/Libraries/STM32F4xx_StdPeriph_Driver/src/stm32f4xx_fsmc.c **** {
 766              		.loc 1 682 0
 767              		.cfi_startproc
 768              		@ args = 0, pretend = 0, frame = 0
 769              		@ frame_needed = 0, uses_anonymous_args = 0
 770              		@ link register save eliminated.
 771              	.LVL26:
 683:../STLibs//STM32F4xx_DSP_StdPeriph_Lib_V1.0.1/Libraries/STM32F4xx_StdPeriph_Driver/src/stm32f4xx_fsmc.c ****   /* Reset PCCARD Init structure parameters values */
 684:../STLibs//STM32F4xx_DSP_StdPeriph_Lib_V1.0.1/Libraries/STM32F4xx_StdPeriph_Driver/src/stm32f4xx_fsmc.c ****   FSMC_PCCARDInitStruct->FSMC_Waitfeature = FSMC_Waitfeature_Disable;
 685:../STLibs//STM32F4xx_DSP_StdPeriph_Lib_V1.0.1/Libraries/STM32F4xx_StdPeriph_Driver/src/stm32f4xx_fsmc.c ****   FSMC_PCCARDInitStruct->FSMC_TCLRSetupTime = 0x0;
 686:../STLibs//STM32F4xx_DSP_StdPeriph_Lib_V1.0.1/Libraries/STM32F4xx_StdPeriph_Driver/src/stm32f4xx_fsmc.c ****   FSMC_PCCARDInitStruct->FSMC_TARSetupTime = 0x0;
 687:../STLibs//STM32F4xx_DSP_StdPeriph_Lib_V1.0.1/Libraries/STM32F4xx_StdPeriph_Driver/src/stm32f4xx_fsmc.c ****   FSMC_PCCARDInitStruct->FSMC_CommonSpaceTimingStruct->FSMC_SetupTime = 0xFC;
 772              		.loc 1 687 0
 773 02e8 C268     		ldr	r2, [r0, #12]
 684:../STLibs//STM32F4xx_DSP_StdPeriph_Lib_V1.0.1/Libraries/STM32F4xx_StdPeriph_Driver/src/stm32f4xx_fsmc.c ****   FSMC_PCCARDInitStruct->FSMC_TCLRSetupTime = 0x0;
 774              		.loc 1 684 0
 775 02ea 0023     		movs	r3, #0
 685:../STLibs//STM32F4xx_DSP_StdPeriph_Lib_V1.0.1/Libraries/STM32F4xx_StdPeriph_Driver/src/stm32f4xx_fsmc.c ****   FSMC_PCCARDInitStruct->FSMC_TARSetupTime = 0x0;
 776              		.loc 1 685 0
 777 02ec C0E90033 		strd	r3, r3, [r0]
 686:../STLibs//STM32F4xx_DSP_StdPeriph_Lib_V1.0.1/Libraries/STM32F4xx_StdPeriph_Driver/src/stm32f4xx_fsmc.c ****   FSMC_PCCARDInitStruct->FSMC_CommonSpaceTimingStruct->FSMC_SetupTime = 0xFC;
 778              		.loc 1 686 0
 779 02f0 8360     		str	r3, [r0, #8]
 780              		.loc 1 687 0
 781 02f2 FC23     		movs	r3, #252
 688:../STLibs//STM32F4xx_DSP_StdPeriph_Lib_V1.0.1/Libraries/STM32F4xx_StdPeriph_Driver/src/stm32f4xx_fsmc.c ****   FSMC_PCCARDInitStruct->FSMC_CommonSpaceTimingStruct->FSMC_WaitSetupTime = 0xFC;
 782              		.loc 1 688 0
 783 02f4 C2E90033 		strd	r3, r3, [r2]
 689:../STLibs//STM32F4xx_DSP_StdPeriph_Lib_V1.0.1/Libraries/STM32F4xx_StdPeriph_Driver/src/stm32f4xx_fsmc.c ****   FSMC_PCCARDInitStruct->FSMC_CommonSpaceTimingStruct->FSMC_HoldSetupTime = 0xFC;
 690:../STLibs//STM32F4xx_DSP_StdPeriph_Lib_V1.0.1/Libraries/STM32F4xx_StdPeriph_Driver/src/stm32f4xx_fsmc.c ****   FSMC_PCCARDInitStruct->FSMC_CommonSpaceTimingStruct->FSMC_HiZSetupTime = 0xFC;
 784              		.loc 1 690 0
 785 02f8 C2E90233 		strd	r3, r3, [r2, #8]
 691:../STLibs//STM32F4xx_DSP_StdPeriph_Lib_V1.0.1/Libraries/STM32F4xx_StdPeriph_Driver/src/stm32f4xx_fsmc.c ****   FSMC_PCCARDInitStruct->FSMC_AttributeSpaceTimingStruct->FSMC_SetupTime = 0xFC;
 786              		.loc 1 691 0
 787 02fc 0269     		ldr	r2, [r0, #16]
 692:../STLibs//STM32F4xx_DSP_StdPeriph_Lib_V1.0.1/Libraries/STM32F4xx_StdPeriph_Driver/src/stm32f4xx_fsmc.c ****   FSMC_PCCARDInitStruct->FSMC_AttributeSpaceTimingStruct->FSMC_WaitSetupTime = 0xFC;
 788              		.loc 1 692 0
 789 02fe C2E90033 		strd	r3, r3, [r2]
 693:../STLibs//STM32F4xx_DSP_StdPeriph_Lib_V1.0.1/Libraries/STM32F4xx_StdPeriph_Driver/src/stm32f4xx_fsmc.c ****   FSMC_PCCARDInitStruct->FSMC_AttributeSpaceTimingStruct->FSMC_HoldSetupTime = 0xFC;
 694:../STLibs//STM32F4xx_DSP_StdPeriph_Lib_V1.0.1/Libraries/STM32F4xx_StdPeriph_Driver/src/stm32f4xx_fsmc.c ****   FSMC_PCCARDInitStruct->FSMC_AttributeSpaceTimingStruct->FSMC_HiZSetupTime = 0xFC;	
 790              		.loc 1 694 0
 791 0302 C2E90233 		strd	r3, r3, [r2, #8]
 695:../STLibs//STM32F4xx_DSP_StdPeriph_Lib_V1.0.1/Libraries/STM32F4xx_StdPeriph_Driver/src/stm32f4xx_fsmc.c ****   FSMC_PCCARDInitStruct->FSMC_IOSpaceTimingStruct->FSMC_SetupTime = 0xFC;
 792              		.loc 1 695 0
 793 0306 4269     		ldr	r2, [r0, #20]
 696:../STLibs//STM32F4xx_DSP_StdPeriph_Lib_V1.0.1/Libraries/STM32F4xx_StdPeriph_Driver/src/stm32f4xx_fsmc.c ****   FSMC_PCCARDInitStruct->FSMC_IOSpaceTimingStruct->FSMC_WaitSetupTime = 0xFC;
 794              		.loc 1 696 0
 795 0308 C2E90033 		strd	r3, r3, [r2]
 697:../STLibs//STM32F4xx_DSP_StdPeriph_Lib_V1.0.1/Libraries/STM32F4xx_StdPeriph_Driver/src/stm32f4xx_fsmc.c ****   FSMC_PCCARDInitStruct->FSMC_IOSpaceTimingStruct->FSMC_HoldSetupTime = 0xFC;
 698:../STLibs//STM32F4xx_DSP_StdPeriph_Lib_V1.0.1/Libraries/STM32F4xx_StdPeriph_Driver/src/stm32f4xx_fsmc.c ****   FSMC_PCCARDInitStruct->FSMC_IOSpaceTimingStruct->FSMC_HiZSetupTime = 0xFC;
 796              		.loc 1 698 0
 797 030c C2E90233 		strd	r3, r3, [r2, #8]
 699:../STLibs//STM32F4xx_DSP_StdPeriph_Lib_V1.0.1/Libraries/STM32F4xx_StdPeriph_Driver/src/stm32f4xx_fsmc.c **** }
 798              		.loc 1 699 0
 799 0310 7047     		bx	lr
 800              		.cfi_endproc
 801              	.LFE122:
 803              		.align	1
 804              		.global	FSMC_PCCARDCmd
 805              		.syntax unified
 806              		.thumb
 807              		.thumb_func
 808              		.fpu fpv4-sp-d16
 810              	FSMC_PCCARDCmd:
 811              	.LFB123:
 700:../STLibs//STM32F4xx_DSP_StdPeriph_Lib_V1.0.1/Libraries/STM32F4xx_StdPeriph_Driver/src/stm32f4xx_fsmc.c **** 
 701:../STLibs//STM32F4xx_DSP_StdPeriph_Lib_V1.0.1/Libraries/STM32F4xx_StdPeriph_Driver/src/stm32f4xx_fsmc.c **** /**
 702:../STLibs//STM32F4xx_DSP_StdPeriph_Lib_V1.0.1/Libraries/STM32F4xx_StdPeriph_Driver/src/stm32f4xx_fsmc.c ****   * @brief  Enables or disables the PCCARD Memory Bank.
 703:../STLibs//STM32F4xx_DSP_StdPeriph_Lib_V1.0.1/Libraries/STM32F4xx_StdPeriph_Driver/src/stm32f4xx_fsmc.c ****   * @param  NewState: new state of the PCCARD Memory Bank.  
 704:../STLibs//STM32F4xx_DSP_StdPeriph_Lib_V1.0.1/Libraries/STM32F4xx_StdPeriph_Driver/src/stm32f4xx_fsmc.c ****   *          This parameter can be: ENABLE or DISABLE.
 705:../STLibs//STM32F4xx_DSP_StdPeriph_Lib_V1.0.1/Libraries/STM32F4xx_StdPeriph_Driver/src/stm32f4xx_fsmc.c ****   * @retval None
 706:../STLibs//STM32F4xx_DSP_StdPeriph_Lib_V1.0.1/Libraries/STM32F4xx_StdPeriph_Driver/src/stm32f4xx_fsmc.c ****   */
 707:../STLibs//STM32F4xx_DSP_StdPeriph_Lib_V1.0.1/Libraries/STM32F4xx_StdPeriph_Driver/src/stm32f4xx_fsmc.c **** void FSMC_PCCARDCmd(FunctionalState NewState)
 708:../STLibs//STM32F4xx_DSP_StdPeriph_Lib_V1.0.1/Libraries/STM32F4xx_StdPeriph_Driver/src/stm32f4xx_fsmc.c **** {
 812              		.loc 1 708 0
 813              		.cfi_startproc
 814              		@ args = 0, pretend = 0, frame = 0
 815              		@ frame_needed = 0, uses_anonymous_args = 0
 816              		@ link register save eliminated.
 817              	.LVL27:
 818 0312 054B     		ldr	r3, .L66
 709:../STLibs//STM32F4xx_DSP_StdPeriph_Lib_V1.0.1/Libraries/STM32F4xx_StdPeriph_Driver/src/stm32f4xx_fsmc.c ****   assert_param(IS_FUNCTIONAL_STATE(NewState));
 710:../STLibs//STM32F4xx_DSP_StdPeriph_Lib_V1.0.1/Libraries/STM32F4xx_StdPeriph_Driver/src/stm32f4xx_fsmc.c ****   
 711:../STLibs//STM32F4xx_DSP_StdPeriph_Lib_V1.0.1/Libraries/STM32F4xx_StdPeriph_Driver/src/stm32f4xx_fsmc.c ****   if (NewState != DISABLE)
 819              		.loc 1 711 0
 820 0314 20B1     		cbz	r0, .L63
 712:../STLibs//STM32F4xx_DSP_StdPeriph_Lib_V1.0.1/Libraries/STM32F4xx_StdPeriph_Driver/src/stm32f4xx_fsmc.c ****   {
 713:../STLibs//STM32F4xx_DSP_StdPeriph_Lib_V1.0.1/Libraries/STM32F4xx_StdPeriph_Driver/src/stm32f4xx_fsmc.c ****     /* Enable the PCCARD Bank by setting the PBKEN bit in the PCR4 register */
 714:../STLibs//STM32F4xx_DSP_StdPeriph_Lib_V1.0.1/Libraries/STM32F4xx_StdPeriph_Driver/src/stm32f4xx_fsmc.c ****     FSMC_Bank4->PCR4 |= PCR_PBKEN_SET;
 821              		.loc 1 714 0
 822 0316 1A68     		ldr	r2, [r3]
 823 0318 42F00402 		orr	r2, r2, #4
 824              	.L65:
 715:../STLibs//STM32F4xx_DSP_StdPeriph_Lib_V1.0.1/Libraries/STM32F4xx_StdPeriph_Driver/src/stm32f4xx_fsmc.c ****   }
 716:../STLibs//STM32F4xx_DSP_StdPeriph_Lib_V1.0.1/Libraries/STM32F4xx_StdPeriph_Driver/src/stm32f4xx_fsmc.c ****   else
 717:../STLibs//STM32F4xx_DSP_StdPeriph_Lib_V1.0.1/Libraries/STM32F4xx_StdPeriph_Driver/src/stm32f4xx_fsmc.c ****   {
 718:../STLibs//STM32F4xx_DSP_StdPeriph_Lib_V1.0.1/Libraries/STM32F4xx_StdPeriph_Driver/src/stm32f4xx_fsmc.c ****     /* Disable the PCCARD Bank by clearing the PBKEN bit in the PCR4 register */
 719:../STLibs//STM32F4xx_DSP_StdPeriph_Lib_V1.0.1/Libraries/STM32F4xx_StdPeriph_Driver/src/stm32f4xx_fsmc.c ****     FSMC_Bank4->PCR4 &= PCR_PBKEN_RESET;
 825              		.loc 1 719 0
 826 031c 1A60     		str	r2, [r3]
 720:../STLibs//STM32F4xx_DSP_StdPeriph_Lib_V1.0.1/Libraries/STM32F4xx_StdPeriph_Driver/src/stm32f4xx_fsmc.c ****   }
 721:../STLibs//STM32F4xx_DSP_StdPeriph_Lib_V1.0.1/Libraries/STM32F4xx_StdPeriph_Driver/src/stm32f4xx_fsmc.c **** }
 827              		.loc 1 721 0
 828 031e 7047     		bx	lr
 829              	.L63:
 719:../STLibs//STM32F4xx_DSP_StdPeriph_Lib_V1.0.1/Libraries/STM32F4xx_StdPeriph_Driver/src/stm32f4xx_fsmc.c ****   }
 830              		.loc 1 719 0
 831 0320 1968     		ldr	r1, [r3]
 832 0322 024A     		ldr	r2, .L66+4
 833 0324 0A40     		ands	r2, r2, r1
 834 0326 F9E7     		b	.L65
 835              	.L67:
 836              		.align	2
 837              	.L66:
 838 0328 A00000A0 		.word	-1610612576
 839 032c FBFF0F00 		.word	1048571
 840              		.cfi_endproc
 841              	.LFE123:
 843              		.align	1
 844              		.global	FSMC_ITConfig
 845              		.syntax unified
 846              		.thumb
 847              		.thumb_func
 848              		.fpu fpv4-sp-d16
 850              	FSMC_ITConfig:
 851              	.LFB124:
 722:../STLibs//STM32F4xx_DSP_StdPeriph_Lib_V1.0.1/Libraries/STM32F4xx_StdPeriph_Driver/src/stm32f4xx_fsmc.c **** /**
 723:../STLibs//STM32F4xx_DSP_StdPeriph_Lib_V1.0.1/Libraries/STM32F4xx_StdPeriph_Driver/src/stm32f4xx_fsmc.c ****   * @}
 724:../STLibs//STM32F4xx_DSP_StdPeriph_Lib_V1.0.1/Libraries/STM32F4xx_StdPeriph_Driver/src/stm32f4xx_fsmc.c ****   */
 725:../STLibs//STM32F4xx_DSP_StdPeriph_Lib_V1.0.1/Libraries/STM32F4xx_StdPeriph_Driver/src/stm32f4xx_fsmc.c **** 
 726:../STLibs//STM32F4xx_DSP_StdPeriph_Lib_V1.0.1/Libraries/STM32F4xx_StdPeriph_Driver/src/stm32f4xx_fsmc.c **** /** @defgroup FSMC_Group4  Interrupts and flags management functions
 727:../STLibs//STM32F4xx_DSP_StdPeriph_Lib_V1.0.1/Libraries/STM32F4xx_StdPeriph_Driver/src/stm32f4xx_fsmc.c ****  *  @brief    Interrupts and flags management functions
 728:../STLibs//STM32F4xx_DSP_StdPeriph_Lib_V1.0.1/Libraries/STM32F4xx_StdPeriph_Driver/src/stm32f4xx_fsmc.c ****  *
 729:../STLibs//STM32F4xx_DSP_StdPeriph_Lib_V1.0.1/Libraries/STM32F4xx_StdPeriph_Driver/src/stm32f4xx_fsmc.c **** @verbatim   
 730:../STLibs//STM32F4xx_DSP_StdPeriph_Lib_V1.0.1/Libraries/STM32F4xx_StdPeriph_Driver/src/stm32f4xx_fsmc.c ****  ===============================================================================
 731:../STLibs//STM32F4xx_DSP_StdPeriph_Lib_V1.0.1/Libraries/STM32F4xx_StdPeriph_Driver/src/stm32f4xx_fsmc.c ****                      Interrupts and flags management functions
 732:../STLibs//STM32F4xx_DSP_StdPeriph_Lib_V1.0.1/Libraries/STM32F4xx_StdPeriph_Driver/src/stm32f4xx_fsmc.c ****  ===============================================================================  
 733:../STLibs//STM32F4xx_DSP_StdPeriph_Lib_V1.0.1/Libraries/STM32F4xx_StdPeriph_Driver/src/stm32f4xx_fsmc.c **** 
 734:../STLibs//STM32F4xx_DSP_StdPeriph_Lib_V1.0.1/Libraries/STM32F4xx_StdPeriph_Driver/src/stm32f4xx_fsmc.c **** @endverbatim
 735:../STLibs//STM32F4xx_DSP_StdPeriph_Lib_V1.0.1/Libraries/STM32F4xx_StdPeriph_Driver/src/stm32f4xx_fsmc.c ****   * @{
 736:../STLibs//STM32F4xx_DSP_StdPeriph_Lib_V1.0.1/Libraries/STM32F4xx_StdPeriph_Driver/src/stm32f4xx_fsmc.c ****   */
 737:../STLibs//STM32F4xx_DSP_StdPeriph_Lib_V1.0.1/Libraries/STM32F4xx_StdPeriph_Driver/src/stm32f4xx_fsmc.c **** 
 738:../STLibs//STM32F4xx_DSP_StdPeriph_Lib_V1.0.1/Libraries/STM32F4xx_StdPeriph_Driver/src/stm32f4xx_fsmc.c **** /**
 739:../STLibs//STM32F4xx_DSP_StdPeriph_Lib_V1.0.1/Libraries/STM32F4xx_StdPeriph_Driver/src/stm32f4xx_fsmc.c ****   * @brief  Enables or disables the specified FSMC interrupts.
 740:../STLibs//STM32F4xx_DSP_StdPeriph_Lib_V1.0.1/Libraries/STM32F4xx_StdPeriph_Driver/src/stm32f4xx_fsmc.c ****   * @param  FSMC_Bank: specifies the FSMC Bank to be used
 741:../STLibs//STM32F4xx_DSP_StdPeriph_Lib_V1.0.1/Libraries/STM32F4xx_StdPeriph_Driver/src/stm32f4xx_fsmc.c ****   *          This parameter can be one of the following values:
 742:../STLibs//STM32F4xx_DSP_StdPeriph_Lib_V1.0.1/Libraries/STM32F4xx_StdPeriph_Driver/src/stm32f4xx_fsmc.c ****   *            @arg FSMC_Bank2_NAND: FSMC Bank2 NAND 
 743:../STLibs//STM32F4xx_DSP_StdPeriph_Lib_V1.0.1/Libraries/STM32F4xx_StdPeriph_Driver/src/stm32f4xx_fsmc.c ****   *            @arg FSMC_Bank3_NAND: FSMC Bank3 NAND
 744:../STLibs//STM32F4xx_DSP_StdPeriph_Lib_V1.0.1/Libraries/STM32F4xx_StdPeriph_Driver/src/stm32f4xx_fsmc.c ****   *            @arg FSMC_Bank4_PCCARD: FSMC Bank4 PCCARD
 745:../STLibs//STM32F4xx_DSP_StdPeriph_Lib_V1.0.1/Libraries/STM32F4xx_StdPeriph_Driver/src/stm32f4xx_fsmc.c ****   * @param  FSMC_IT: specifies the FSMC interrupt sources to be enabled or disabled.
 746:../STLibs//STM32F4xx_DSP_StdPeriph_Lib_V1.0.1/Libraries/STM32F4xx_StdPeriph_Driver/src/stm32f4xx_fsmc.c ****   *          This parameter can be any combination of the following values:
 747:../STLibs//STM32F4xx_DSP_StdPeriph_Lib_V1.0.1/Libraries/STM32F4xx_StdPeriph_Driver/src/stm32f4xx_fsmc.c ****   *            @arg FSMC_IT_RisingEdge: Rising edge detection interrupt. 
 748:../STLibs//STM32F4xx_DSP_StdPeriph_Lib_V1.0.1/Libraries/STM32F4xx_StdPeriph_Driver/src/stm32f4xx_fsmc.c ****   *            @arg FSMC_IT_Level: Level edge detection interrupt.
 749:../STLibs//STM32F4xx_DSP_StdPeriph_Lib_V1.0.1/Libraries/STM32F4xx_StdPeriph_Driver/src/stm32f4xx_fsmc.c ****   *            @arg FSMC_IT_FallingEdge: Falling edge detection interrupt.
 750:../STLibs//STM32F4xx_DSP_StdPeriph_Lib_V1.0.1/Libraries/STM32F4xx_StdPeriph_Driver/src/stm32f4xx_fsmc.c ****   * @param  NewState: new state of the specified FSMC interrupts.
 751:../STLibs//STM32F4xx_DSP_StdPeriph_Lib_V1.0.1/Libraries/STM32F4xx_StdPeriph_Driver/src/stm32f4xx_fsmc.c ****   *          This parameter can be: ENABLE or DISABLE.
 752:../STLibs//STM32F4xx_DSP_StdPeriph_Lib_V1.0.1/Libraries/STM32F4xx_StdPeriph_Driver/src/stm32f4xx_fsmc.c ****   * @retval None
 753:../STLibs//STM32F4xx_DSP_StdPeriph_Lib_V1.0.1/Libraries/STM32F4xx_StdPeriph_Driver/src/stm32f4xx_fsmc.c ****   */
 754:../STLibs//STM32F4xx_DSP_StdPeriph_Lib_V1.0.1/Libraries/STM32F4xx_StdPeriph_Driver/src/stm32f4xx_fsmc.c **** void FSMC_ITConfig(uint32_t FSMC_Bank, uint32_t FSMC_IT, FunctionalState NewState)
 755:../STLibs//STM32F4xx_DSP_StdPeriph_Lib_V1.0.1/Libraries/STM32F4xx_StdPeriph_Driver/src/stm32f4xx_fsmc.c **** {
 852              		.loc 1 755 0
 853              		.cfi_startproc
 854              		@ args = 0, pretend = 0, frame = 0
 855              		@ frame_needed = 0, uses_anonymous_args = 0
 856              		@ link register save eliminated.
 857              	.LVL28:
 756:../STLibs//STM32F4xx_DSP_StdPeriph_Lib_V1.0.1/Libraries/STM32F4xx_StdPeriph_Driver/src/stm32f4xx_fsmc.c ****   assert_param(IS_FSMC_IT_BANK(FSMC_Bank));
 757:../STLibs//STM32F4xx_DSP_StdPeriph_Lib_V1.0.1/Libraries/STM32F4xx_StdPeriph_Driver/src/stm32f4xx_fsmc.c ****   assert_param(IS_FSMC_IT(FSMC_IT));	
 758:../STLibs//STM32F4xx_DSP_StdPeriph_Lib_V1.0.1/Libraries/STM32F4xx_StdPeriph_Driver/src/stm32f4xx_fsmc.c ****   assert_param(IS_FUNCTIONAL_STATE(NewState));
 759:../STLibs//STM32F4xx_DSP_StdPeriph_Lib_V1.0.1/Libraries/STM32F4xx_StdPeriph_Driver/src/stm32f4xx_fsmc.c ****   
 760:../STLibs//STM32F4xx_DSP_StdPeriph_Lib_V1.0.1/Libraries/STM32F4xx_StdPeriph_Driver/src/stm32f4xx_fsmc.c ****   if (NewState != DISABLE)
 858              		.loc 1 760 0
 859 0330 62B1     		cbz	r2, .L69
 761:../STLibs//STM32F4xx_DSP_StdPeriph_Lib_V1.0.1/Libraries/STM32F4xx_StdPeriph_Driver/src/stm32f4xx_fsmc.c ****   {
 762:../STLibs//STM32F4xx_DSP_StdPeriph_Lib_V1.0.1/Libraries/STM32F4xx_StdPeriph_Driver/src/stm32f4xx_fsmc.c ****     /* Enable the selected FSMC_Bank2 interrupts */
 763:../STLibs//STM32F4xx_DSP_StdPeriph_Lib_V1.0.1/Libraries/STM32F4xx_StdPeriph_Driver/src/stm32f4xx_fsmc.c ****     if(FSMC_Bank == FSMC_Bank2_NAND)
 860              		.loc 1 763 0
 861 0332 1028     		cmp	r0, #16
 862 0334 04D1     		bne	.L70
 764:../STLibs//STM32F4xx_DSP_StdPeriph_Lib_V1.0.1/Libraries/STM32F4xx_StdPeriph_Driver/src/stm32f4xx_fsmc.c ****     {
 765:../STLibs//STM32F4xx_DSP_StdPeriph_Lib_V1.0.1/Libraries/STM32F4xx_StdPeriph_Driver/src/stm32f4xx_fsmc.c ****       FSMC_Bank2->SR2 |= FSMC_IT;
 863              		.loc 1 765 0
 864 0336 0C4A     		ldr	r2, .L78
 865              	.LVL29:
 866              	.L77:
 766:../STLibs//STM32F4xx_DSP_StdPeriph_Lib_V1.0.1/Libraries/STM32F4xx_StdPeriph_Driver/src/stm32f4xx_fsmc.c ****     }
 767:../STLibs//STM32F4xx_DSP_StdPeriph_Lib_V1.0.1/Libraries/STM32F4xx_StdPeriph_Driver/src/stm32f4xx_fsmc.c ****     /* Enable the selected FSMC_Bank3 interrupts */
 768:../STLibs//STM32F4xx_DSP_StdPeriph_Lib_V1.0.1/Libraries/STM32F4xx_StdPeriph_Driver/src/stm32f4xx_fsmc.c ****     else if (FSMC_Bank == FSMC_Bank3_NAND)
 769:../STLibs//STM32F4xx_DSP_StdPeriph_Lib_V1.0.1/Libraries/STM32F4xx_StdPeriph_Driver/src/stm32f4xx_fsmc.c ****     {
 770:../STLibs//STM32F4xx_DSP_StdPeriph_Lib_V1.0.1/Libraries/STM32F4xx_StdPeriph_Driver/src/stm32f4xx_fsmc.c ****       FSMC_Bank3->SR3 |= FSMC_IT;
 771:../STLibs//STM32F4xx_DSP_StdPeriph_Lib_V1.0.1/Libraries/STM32F4xx_StdPeriph_Driver/src/stm32f4xx_fsmc.c ****     }
 772:../STLibs//STM32F4xx_DSP_StdPeriph_Lib_V1.0.1/Libraries/STM32F4xx_StdPeriph_Driver/src/stm32f4xx_fsmc.c ****     /* Enable the selected FSMC_Bank4 interrupts */
 773:../STLibs//STM32F4xx_DSP_StdPeriph_Lib_V1.0.1/Libraries/STM32F4xx_StdPeriph_Driver/src/stm32f4xx_fsmc.c ****     else
 774:../STLibs//STM32F4xx_DSP_StdPeriph_Lib_V1.0.1/Libraries/STM32F4xx_StdPeriph_Driver/src/stm32f4xx_fsmc.c ****     {
 775:../STLibs//STM32F4xx_DSP_StdPeriph_Lib_V1.0.1/Libraries/STM32F4xx_StdPeriph_Driver/src/stm32f4xx_fsmc.c ****       FSMC_Bank4->SR4 |= FSMC_IT;    
 867              		.loc 1 775 0
 868 0338 5368     		ldr	r3, [r2, #4]
 869 033a 1943     		orrs	r1, r1, r3
 870              	.LVL30:
 871              	.L75:
 776:../STLibs//STM32F4xx_DSP_StdPeriph_Lib_V1.0.1/Libraries/STM32F4xx_StdPeriph_Driver/src/stm32f4xx_fsmc.c ****     }
 777:../STLibs//STM32F4xx_DSP_StdPeriph_Lib_V1.0.1/Libraries/STM32F4xx_StdPeriph_Driver/src/stm32f4xx_fsmc.c ****   }
 778:../STLibs//STM32F4xx_DSP_StdPeriph_Lib_V1.0.1/Libraries/STM32F4xx_StdPeriph_Driver/src/stm32f4xx_fsmc.c ****   else
 779:../STLibs//STM32F4xx_DSP_StdPeriph_Lib_V1.0.1/Libraries/STM32F4xx_StdPeriph_Driver/src/stm32f4xx_fsmc.c ****   {
 780:../STLibs//STM32F4xx_DSP_StdPeriph_Lib_V1.0.1/Libraries/STM32F4xx_StdPeriph_Driver/src/stm32f4xx_fsmc.c ****     /* Disable the selected FSMC_Bank2 interrupts */
 781:../STLibs//STM32F4xx_DSP_StdPeriph_Lib_V1.0.1/Libraries/STM32F4xx_StdPeriph_Driver/src/stm32f4xx_fsmc.c ****     if(FSMC_Bank == FSMC_Bank2_NAND)
 782:../STLibs//STM32F4xx_DSP_StdPeriph_Lib_V1.0.1/Libraries/STM32F4xx_StdPeriph_Driver/src/stm32f4xx_fsmc.c ****     {
 783:../STLibs//STM32F4xx_DSP_StdPeriph_Lib_V1.0.1/Libraries/STM32F4xx_StdPeriph_Driver/src/stm32f4xx_fsmc.c ****       
 784:../STLibs//STM32F4xx_DSP_StdPeriph_Lib_V1.0.1/Libraries/STM32F4xx_StdPeriph_Driver/src/stm32f4xx_fsmc.c ****       FSMC_Bank2->SR2 &= (uint32_t)~FSMC_IT;
 785:../STLibs//STM32F4xx_DSP_StdPeriph_Lib_V1.0.1/Libraries/STM32F4xx_StdPeriph_Driver/src/stm32f4xx_fsmc.c ****     }
 786:../STLibs//STM32F4xx_DSP_StdPeriph_Lib_V1.0.1/Libraries/STM32F4xx_StdPeriph_Driver/src/stm32f4xx_fsmc.c ****     /* Disable the selected FSMC_Bank3 interrupts */
 787:../STLibs//STM32F4xx_DSP_StdPeriph_Lib_V1.0.1/Libraries/STM32F4xx_StdPeriph_Driver/src/stm32f4xx_fsmc.c ****     else if (FSMC_Bank == FSMC_Bank3_NAND)
 788:../STLibs//STM32F4xx_DSP_StdPeriph_Lib_V1.0.1/Libraries/STM32F4xx_StdPeriph_Driver/src/stm32f4xx_fsmc.c ****     {
 789:../STLibs//STM32F4xx_DSP_StdPeriph_Lib_V1.0.1/Libraries/STM32F4xx_StdPeriph_Driver/src/stm32f4xx_fsmc.c ****       FSMC_Bank3->SR3 &= (uint32_t)~FSMC_IT;
 790:../STLibs//STM32F4xx_DSP_StdPeriph_Lib_V1.0.1/Libraries/STM32F4xx_StdPeriph_Driver/src/stm32f4xx_fsmc.c ****     }
 791:../STLibs//STM32F4xx_DSP_StdPeriph_Lib_V1.0.1/Libraries/STM32F4xx_StdPeriph_Driver/src/stm32f4xx_fsmc.c ****     /* Disable the selected FSMC_Bank4 interrupts */
 792:../STLibs//STM32F4xx_DSP_StdPeriph_Lib_V1.0.1/Libraries/STM32F4xx_StdPeriph_Driver/src/stm32f4xx_fsmc.c ****     else
 793:../STLibs//STM32F4xx_DSP_StdPeriph_Lib_V1.0.1/Libraries/STM32F4xx_StdPeriph_Driver/src/stm32f4xx_fsmc.c ****     {
 794:../STLibs//STM32F4xx_DSP_StdPeriph_Lib_V1.0.1/Libraries/STM32F4xx_StdPeriph_Driver/src/stm32f4xx_fsmc.c ****       FSMC_Bank4->SR4 &= (uint32_t)~FSMC_IT;    
 872              		.loc 1 794 0
 873 033c 5160     		str	r1, [r2, #4]
 795:../STLibs//STM32F4xx_DSP_StdPeriph_Lib_V1.0.1/Libraries/STM32F4xx_StdPeriph_Driver/src/stm32f4xx_fsmc.c ****     }
 796:../STLibs//STM32F4xx_DSP_StdPeriph_Lib_V1.0.1/Libraries/STM32F4xx_StdPeriph_Driver/src/stm32f4xx_fsmc.c ****   }
 797:../STLibs//STM32F4xx_DSP_StdPeriph_Lib_V1.0.1/Libraries/STM32F4xx_StdPeriph_Driver/src/stm32f4xx_fsmc.c **** }
 874              		.loc 1 797 0
 875 033e 7047     		bx	lr
 876              	.LVL31:
 877              	.L70:
 768:../STLibs//STM32F4xx_DSP_StdPeriph_Lib_V1.0.1/Libraries/STM32F4xx_StdPeriph_Driver/src/stm32f4xx_fsmc.c ****     {
 878              		.loc 1 768 0
 879 0340 B0F5807F 		cmp	r0, #256
 770:../STLibs//STM32F4xx_DSP_StdPeriph_Lib_V1.0.1/Libraries/STM32F4xx_StdPeriph_Driver/src/stm32f4xx_fsmc.c ****     }
 880              		.loc 1 770 0
 881 0344 0CBF     		ite	eq
 882 0346 094A     		ldreq	r2, .L78+4
 883              	.LVL32:
 775:../STLibs//STM32F4xx_DSP_StdPeriph_Lib_V1.0.1/Libraries/STM32F4xx_StdPeriph_Driver/src/stm32f4xx_fsmc.c ****     }
 884              		.loc 1 775 0
 885 0348 094A     		ldrne	r2, .L78+8
 886 034a F5E7     		b	.L77
 887              	.LVL33:
 888              	.L69:
 781:../STLibs//STM32F4xx_DSP_StdPeriph_Lib_V1.0.1/Libraries/STM32F4xx_StdPeriph_Driver/src/stm32f4xx_fsmc.c ****     {
 889              		.loc 1 781 0
 890 034c 1028     		cmp	r0, #16
 891 034e 6FEA0101 		mvn	r1, r1
 892              	.LVL34:
 893 0352 03D1     		bne	.L73
 784:../STLibs//STM32F4xx_DSP_StdPeriph_Lib_V1.0.1/Libraries/STM32F4xx_StdPeriph_Driver/src/stm32f4xx_fsmc.c ****     }
 894              		.loc 1 784 0
 895 0354 044A     		ldr	r2, .L78
 896              	.LVL35:
 897              	.L76:
 794:../STLibs//STM32F4xx_DSP_StdPeriph_Lib_V1.0.1/Libraries/STM32F4xx_StdPeriph_Driver/src/stm32f4xx_fsmc.c ****     }
 898              		.loc 1 794 0
 899 0356 5368     		ldr	r3, [r2, #4]
 900 0358 1940     		ands	r1, r1, r3
 901              	.LVL36:
 902 035a EFE7     		b	.L75
 903              	.LVL37:
 904              	.L73:
 787:../STLibs//STM32F4xx_DSP_StdPeriph_Lib_V1.0.1/Libraries/STM32F4xx_StdPeriph_Driver/src/stm32f4xx_fsmc.c ****     {
 905              		.loc 1 787 0
 906 035c B0F5807F 		cmp	r0, #256
 789:../STLibs//STM32F4xx_DSP_StdPeriph_Lib_V1.0.1/Libraries/STM32F4xx_StdPeriph_Driver/src/stm32f4xx_fsmc.c ****     }
 907              		.loc 1 789 0
 908 0360 0CBF     		ite	eq
 909 0362 024A     		ldreq	r2, .L78+4
 910              	.LVL38:
 794:../STLibs//STM32F4xx_DSP_StdPeriph_Lib_V1.0.1/Libraries/STM32F4xx_StdPeriph_Driver/src/stm32f4xx_fsmc.c ****     }
 911              		.loc 1 794 0
 912 0364 024A     		ldrne	r2, .L78+8
 913 0366 F6E7     		b	.L76
 914              	.L79:
 915              		.align	2
 916              	.L78:
 917 0368 600000A0 		.word	-1610612640
 918 036c 800000A0 		.word	-1610612608
 919 0370 A00000A0 		.word	-1610612576
 920              		.cfi_endproc
 921              	.LFE124:
 923              		.align	1
 924              		.global	FSMC_GetFlagStatus
 925              		.syntax unified
 926              		.thumb
 927              		.thumb_func
 928              		.fpu fpv4-sp-d16
 930              	FSMC_GetFlagStatus:
 931              	.LFB125:
 798:../STLibs//STM32F4xx_DSP_StdPeriph_Lib_V1.0.1/Libraries/STM32F4xx_StdPeriph_Driver/src/stm32f4xx_fsmc.c **** 
 799:../STLibs//STM32F4xx_DSP_StdPeriph_Lib_V1.0.1/Libraries/STM32F4xx_StdPeriph_Driver/src/stm32f4xx_fsmc.c **** /**
 800:../STLibs//STM32F4xx_DSP_StdPeriph_Lib_V1.0.1/Libraries/STM32F4xx_StdPeriph_Driver/src/stm32f4xx_fsmc.c ****   * @brief  Checks whether the specified FSMC flag is set or not.
 801:../STLibs//STM32F4xx_DSP_StdPeriph_Lib_V1.0.1/Libraries/STM32F4xx_StdPeriph_Driver/src/stm32f4xx_fsmc.c ****   * @param  FSMC_Bank: specifies the FSMC Bank to be used
 802:../STLibs//STM32F4xx_DSP_StdPeriph_Lib_V1.0.1/Libraries/STM32F4xx_StdPeriph_Driver/src/stm32f4xx_fsmc.c ****   *          This parameter can be one of the following values:
 803:../STLibs//STM32F4xx_DSP_StdPeriph_Lib_V1.0.1/Libraries/STM32F4xx_StdPeriph_Driver/src/stm32f4xx_fsmc.c ****   *            @arg FSMC_Bank2_NAND: FSMC Bank2 NAND 
 804:../STLibs//STM32F4xx_DSP_StdPeriph_Lib_V1.0.1/Libraries/STM32F4xx_StdPeriph_Driver/src/stm32f4xx_fsmc.c ****   *            @arg FSMC_Bank3_NAND: FSMC Bank3 NAND
 805:../STLibs//STM32F4xx_DSP_StdPeriph_Lib_V1.0.1/Libraries/STM32F4xx_StdPeriph_Driver/src/stm32f4xx_fsmc.c ****   *            @arg FSMC_Bank4_PCCARD: FSMC Bank4 PCCARD
 806:../STLibs//STM32F4xx_DSP_StdPeriph_Lib_V1.0.1/Libraries/STM32F4xx_StdPeriph_Driver/src/stm32f4xx_fsmc.c ****   * @param  FSMC_FLAG: specifies the flag to check.
 807:../STLibs//STM32F4xx_DSP_StdPeriph_Lib_V1.0.1/Libraries/STM32F4xx_StdPeriph_Driver/src/stm32f4xx_fsmc.c ****   *          This parameter can be one of the following values:
 808:../STLibs//STM32F4xx_DSP_StdPeriph_Lib_V1.0.1/Libraries/STM32F4xx_StdPeriph_Driver/src/stm32f4xx_fsmc.c ****   *            @arg FSMC_FLAG_RisingEdge: Rising edge detection Flag.
 809:../STLibs//STM32F4xx_DSP_StdPeriph_Lib_V1.0.1/Libraries/STM32F4xx_StdPeriph_Driver/src/stm32f4xx_fsmc.c ****   *            @arg FSMC_FLAG_Level: Level detection Flag.
 810:../STLibs//STM32F4xx_DSP_StdPeriph_Lib_V1.0.1/Libraries/STM32F4xx_StdPeriph_Driver/src/stm32f4xx_fsmc.c ****   *            @arg FSMC_FLAG_FallingEdge: Falling edge detection Flag.
 811:../STLibs//STM32F4xx_DSP_StdPeriph_Lib_V1.0.1/Libraries/STM32F4xx_StdPeriph_Driver/src/stm32f4xx_fsmc.c ****   *            @arg FSMC_FLAG_FEMPT: Fifo empty Flag. 
 812:../STLibs//STM32F4xx_DSP_StdPeriph_Lib_V1.0.1/Libraries/STM32F4xx_StdPeriph_Driver/src/stm32f4xx_fsmc.c ****   * @retval The new state of FSMC_FLAG (SET or RESET).
 813:../STLibs//STM32F4xx_DSP_StdPeriph_Lib_V1.0.1/Libraries/STM32F4xx_StdPeriph_Driver/src/stm32f4xx_fsmc.c ****   */
 814:../STLibs//STM32F4xx_DSP_StdPeriph_Lib_V1.0.1/Libraries/STM32F4xx_StdPeriph_Driver/src/stm32f4xx_fsmc.c **** FlagStatus FSMC_GetFlagStatus(uint32_t FSMC_Bank, uint32_t FSMC_FLAG)
 815:../STLibs//STM32F4xx_DSP_StdPeriph_Lib_V1.0.1/Libraries/STM32F4xx_StdPeriph_Driver/src/stm32f4xx_fsmc.c **** {
 932              		.loc 1 815 0
 933              		.cfi_startproc
 934              		@ args = 0, pretend = 0, frame = 0
 935              		@ frame_needed = 0, uses_anonymous_args = 0
 936              		@ link register save eliminated.
 937              	.LVL39:
 816:../STLibs//STM32F4xx_DSP_StdPeriph_Lib_V1.0.1/Libraries/STM32F4xx_StdPeriph_Driver/src/stm32f4xx_fsmc.c ****   FlagStatus bitstatus = RESET;
 817:../STLibs//STM32F4xx_DSP_StdPeriph_Lib_V1.0.1/Libraries/STM32F4xx_StdPeriph_Driver/src/stm32f4xx_fsmc.c ****   uint32_t tmpsr = 0x00000000;
 818:../STLibs//STM32F4xx_DSP_StdPeriph_Lib_V1.0.1/Libraries/STM32F4xx_StdPeriph_Driver/src/stm32f4xx_fsmc.c ****   
 819:../STLibs//STM32F4xx_DSP_StdPeriph_Lib_V1.0.1/Libraries/STM32F4xx_StdPeriph_Driver/src/stm32f4xx_fsmc.c ****   /* Check the parameters */
 820:../STLibs//STM32F4xx_DSP_StdPeriph_Lib_V1.0.1/Libraries/STM32F4xx_StdPeriph_Driver/src/stm32f4xx_fsmc.c ****   assert_param(IS_FSMC_GETFLAG_BANK(FSMC_Bank));
 821:../STLibs//STM32F4xx_DSP_StdPeriph_Lib_V1.0.1/Libraries/STM32F4xx_StdPeriph_Driver/src/stm32f4xx_fsmc.c ****   assert_param(IS_FSMC_GET_FLAG(FSMC_FLAG));
 822:../STLibs//STM32F4xx_DSP_StdPeriph_Lib_V1.0.1/Libraries/STM32F4xx_StdPeriph_Driver/src/stm32f4xx_fsmc.c ****   
 823:../STLibs//STM32F4xx_DSP_StdPeriph_Lib_V1.0.1/Libraries/STM32F4xx_StdPeriph_Driver/src/stm32f4xx_fsmc.c ****   if(FSMC_Bank == FSMC_Bank2_NAND)
 938              		.loc 1 823 0
 939 0374 1028     		cmp	r0, #16
 940 0376 06D1     		bne	.L81
 824:../STLibs//STM32F4xx_DSP_StdPeriph_Lib_V1.0.1/Libraries/STM32F4xx_StdPeriph_Driver/src/stm32f4xx_fsmc.c ****   {
 825:../STLibs//STM32F4xx_DSP_StdPeriph_Lib_V1.0.1/Libraries/STM32F4xx_StdPeriph_Driver/src/stm32f4xx_fsmc.c ****     tmpsr = FSMC_Bank2->SR2;
 941              		.loc 1 825 0
 942 0378 064B     		ldr	r3, .L85
 943              	.L84:
 826:../STLibs//STM32F4xx_DSP_StdPeriph_Lib_V1.0.1/Libraries/STM32F4xx_StdPeriph_Driver/src/stm32f4xx_fsmc.c ****   }  
 827:../STLibs//STM32F4xx_DSP_StdPeriph_Lib_V1.0.1/Libraries/STM32F4xx_StdPeriph_Driver/src/stm32f4xx_fsmc.c ****   else if(FSMC_Bank == FSMC_Bank3_NAND)
 828:../STLibs//STM32F4xx_DSP_StdPeriph_Lib_V1.0.1/Libraries/STM32F4xx_StdPeriph_Driver/src/stm32f4xx_fsmc.c ****   {
 829:../STLibs//STM32F4xx_DSP_StdPeriph_Lib_V1.0.1/Libraries/STM32F4xx_StdPeriph_Driver/src/stm32f4xx_fsmc.c ****     tmpsr = FSMC_Bank3->SR3;
 830:../STLibs//STM32F4xx_DSP_StdPeriph_Lib_V1.0.1/Libraries/STM32F4xx_StdPeriph_Driver/src/stm32f4xx_fsmc.c ****   }
 831:../STLibs//STM32F4xx_DSP_StdPeriph_Lib_V1.0.1/Libraries/STM32F4xx_StdPeriph_Driver/src/stm32f4xx_fsmc.c ****   /* FSMC_Bank4_PCCARD*/
 832:../STLibs//STM32F4xx_DSP_StdPeriph_Lib_V1.0.1/Libraries/STM32F4xx_StdPeriph_Driver/src/stm32f4xx_fsmc.c ****   else
 833:../STLibs//STM32F4xx_DSP_StdPeriph_Lib_V1.0.1/Libraries/STM32F4xx_StdPeriph_Driver/src/stm32f4xx_fsmc.c ****   {
 834:../STLibs//STM32F4xx_DSP_StdPeriph_Lib_V1.0.1/Libraries/STM32F4xx_StdPeriph_Driver/src/stm32f4xx_fsmc.c ****     tmpsr = FSMC_Bank4->SR4;
 944              		.loc 1 834 0
 945 037a 5B68     		ldr	r3, [r3, #4]
 946              	.LVL40:
 835:../STLibs//STM32F4xx_DSP_StdPeriph_Lib_V1.0.1/Libraries/STM32F4xx_StdPeriph_Driver/src/stm32f4xx_fsmc.c ****   } 
 836:../STLibs//STM32F4xx_DSP_StdPeriph_Lib_V1.0.1/Libraries/STM32F4xx_StdPeriph_Driver/src/stm32f4xx_fsmc.c ****   
 837:../STLibs//STM32F4xx_DSP_StdPeriph_Lib_V1.0.1/Libraries/STM32F4xx_StdPeriph_Driver/src/stm32f4xx_fsmc.c ****   /* Get the flag status */
 838:../STLibs//STM32F4xx_DSP_StdPeriph_Lib_V1.0.1/Libraries/STM32F4xx_StdPeriph_Driver/src/stm32f4xx_fsmc.c ****   if ((tmpsr & FSMC_FLAG) != (uint16_t)RESET )
 947              		.loc 1 838 0
 948 037c 0B42     		tst	r3, r1
 839:../STLibs//STM32F4xx_DSP_StdPeriph_Lib_V1.0.1/Libraries/STM32F4xx_StdPeriph_Driver/src/stm32f4xx_fsmc.c ****   {
 840:../STLibs//STM32F4xx_DSP_StdPeriph_Lib_V1.0.1/Libraries/STM32F4xx_StdPeriph_Driver/src/stm32f4xx_fsmc.c ****     bitstatus = SET;
 841:../STLibs//STM32F4xx_DSP_StdPeriph_Lib_V1.0.1/Libraries/STM32F4xx_StdPeriph_Driver/src/stm32f4xx_fsmc.c ****   }
 842:../STLibs//STM32F4xx_DSP_StdPeriph_Lib_V1.0.1/Libraries/STM32F4xx_StdPeriph_Driver/src/stm32f4xx_fsmc.c ****   else
 843:../STLibs//STM32F4xx_DSP_StdPeriph_Lib_V1.0.1/Libraries/STM32F4xx_StdPeriph_Driver/src/stm32f4xx_fsmc.c ****   {
 844:../STLibs//STM32F4xx_DSP_StdPeriph_Lib_V1.0.1/Libraries/STM32F4xx_StdPeriph_Driver/src/stm32f4xx_fsmc.c ****     bitstatus = RESET;
 845:../STLibs//STM32F4xx_DSP_StdPeriph_Lib_V1.0.1/Libraries/STM32F4xx_StdPeriph_Driver/src/stm32f4xx_fsmc.c ****   }
 846:../STLibs//STM32F4xx_DSP_StdPeriph_Lib_V1.0.1/Libraries/STM32F4xx_StdPeriph_Driver/src/stm32f4xx_fsmc.c ****   /* Return the flag status */
 847:../STLibs//STM32F4xx_DSP_StdPeriph_Lib_V1.0.1/Libraries/STM32F4xx_StdPeriph_Driver/src/stm32f4xx_fsmc.c ****   return bitstatus;
 848:../STLibs//STM32F4xx_DSP_StdPeriph_Lib_V1.0.1/Libraries/STM32F4xx_StdPeriph_Driver/src/stm32f4xx_fsmc.c **** }
 949              		.loc 1 848 0
 950 037e 14BF     		ite	ne
 951 0380 0120     		movne	r0, #1
 952              	.LVL41:
 953 0382 0020     		moveq	r0, #0
 954 0384 7047     		bx	lr
 955              	.LVL42:
 956              	.L81:
 827:../STLibs//STM32F4xx_DSP_StdPeriph_Lib_V1.0.1/Libraries/STM32F4xx_StdPeriph_Driver/src/stm32f4xx_fsmc.c ****   {
 957              		.loc 1 827 0
 958 0386 B0F5807F 		cmp	r0, #256
 829:../STLibs//STM32F4xx_DSP_StdPeriph_Lib_V1.0.1/Libraries/STM32F4xx_StdPeriph_Driver/src/stm32f4xx_fsmc.c ****   }
 959              		.loc 1 829 0
 960 038a 0CBF     		ite	eq
 961 038c 024B     		ldreq	r3, .L85+4
 834:../STLibs//STM32F4xx_DSP_StdPeriph_Lib_V1.0.1/Libraries/STM32F4xx_StdPeriph_Driver/src/stm32f4xx_fsmc.c ****   } 
 962              		.loc 1 834 0
 963 038e 034B     		ldrne	r3, .L85+8
 964 0390 F3E7     		b	.L84
 965              	.L86:
 966 0392 00BF     		.align	2
 967              	.L85:
 968 0394 600000A0 		.word	-1610612640
 969 0398 800000A0 		.word	-1610612608
 970 039c A00000A0 		.word	-1610612576
 971              		.cfi_endproc
 972              	.LFE125:
 974              		.align	1
 975              		.global	FSMC_ClearFlag
 976              		.syntax unified
 977              		.thumb
 978              		.thumb_func
 979              		.fpu fpv4-sp-d16
 981              	FSMC_ClearFlag:
 982              	.LFB126:
 849:../STLibs//STM32F4xx_DSP_StdPeriph_Lib_V1.0.1/Libraries/STM32F4xx_StdPeriph_Driver/src/stm32f4xx_fsmc.c **** 
 850:../STLibs//STM32F4xx_DSP_StdPeriph_Lib_V1.0.1/Libraries/STM32F4xx_StdPeriph_Driver/src/stm32f4xx_fsmc.c **** /**
 851:../STLibs//STM32F4xx_DSP_StdPeriph_Lib_V1.0.1/Libraries/STM32F4xx_StdPeriph_Driver/src/stm32f4xx_fsmc.c ****   * @brief  Clears the FSMC's pending flags.
 852:../STLibs//STM32F4xx_DSP_StdPeriph_Lib_V1.0.1/Libraries/STM32F4xx_StdPeriph_Driver/src/stm32f4xx_fsmc.c ****   * @param  FSMC_Bank: specifies the FSMC Bank to be used
 853:../STLibs//STM32F4xx_DSP_StdPeriph_Lib_V1.0.1/Libraries/STM32F4xx_StdPeriph_Driver/src/stm32f4xx_fsmc.c ****   *          This parameter can be one of the following values:
 854:../STLibs//STM32F4xx_DSP_StdPeriph_Lib_V1.0.1/Libraries/STM32F4xx_StdPeriph_Driver/src/stm32f4xx_fsmc.c ****   *            @arg FSMC_Bank2_NAND: FSMC Bank2 NAND 
 855:../STLibs//STM32F4xx_DSP_StdPeriph_Lib_V1.0.1/Libraries/STM32F4xx_StdPeriph_Driver/src/stm32f4xx_fsmc.c ****   *            @arg FSMC_Bank3_NAND: FSMC Bank3 NAND
 856:../STLibs//STM32F4xx_DSP_StdPeriph_Lib_V1.0.1/Libraries/STM32F4xx_StdPeriph_Driver/src/stm32f4xx_fsmc.c ****   *            @arg FSMC_Bank4_PCCARD: FSMC Bank4 PCCARD
 857:../STLibs//STM32F4xx_DSP_StdPeriph_Lib_V1.0.1/Libraries/STM32F4xx_StdPeriph_Driver/src/stm32f4xx_fsmc.c ****   * @param  FSMC_FLAG: specifies the flag to clear.
 858:../STLibs//STM32F4xx_DSP_StdPeriph_Lib_V1.0.1/Libraries/STM32F4xx_StdPeriph_Driver/src/stm32f4xx_fsmc.c ****   *          This parameter can be any combination of the following values:
 859:../STLibs//STM32F4xx_DSP_StdPeriph_Lib_V1.0.1/Libraries/STM32F4xx_StdPeriph_Driver/src/stm32f4xx_fsmc.c ****   *            @arg FSMC_FLAG_RisingEdge: Rising edge detection Flag.
 860:../STLibs//STM32F4xx_DSP_StdPeriph_Lib_V1.0.1/Libraries/STM32F4xx_StdPeriph_Driver/src/stm32f4xx_fsmc.c ****   *            @arg FSMC_FLAG_Level: Level detection Flag.
 861:../STLibs//STM32F4xx_DSP_StdPeriph_Lib_V1.0.1/Libraries/STM32F4xx_StdPeriph_Driver/src/stm32f4xx_fsmc.c ****   *            @arg FSMC_FLAG_FallingEdge: Falling edge detection Flag.
 862:../STLibs//STM32F4xx_DSP_StdPeriph_Lib_V1.0.1/Libraries/STM32F4xx_StdPeriph_Driver/src/stm32f4xx_fsmc.c ****   * @retval None
 863:../STLibs//STM32F4xx_DSP_StdPeriph_Lib_V1.0.1/Libraries/STM32F4xx_StdPeriph_Driver/src/stm32f4xx_fsmc.c ****   */
 864:../STLibs//STM32F4xx_DSP_StdPeriph_Lib_V1.0.1/Libraries/STM32F4xx_StdPeriph_Driver/src/stm32f4xx_fsmc.c **** void FSMC_ClearFlag(uint32_t FSMC_Bank, uint32_t FSMC_FLAG)
 865:../STLibs//STM32F4xx_DSP_StdPeriph_Lib_V1.0.1/Libraries/STM32F4xx_StdPeriph_Driver/src/stm32f4xx_fsmc.c **** {
 983              		.loc 1 865 0
 984              		.cfi_startproc
 985              		@ args = 0, pretend = 0, frame = 0
 986              		@ frame_needed = 0, uses_anonymous_args = 0
 987              		@ link register save eliminated.
 988              	.LVL43:
 866:../STLibs//STM32F4xx_DSP_StdPeriph_Lib_V1.0.1/Libraries/STM32F4xx_StdPeriph_Driver/src/stm32f4xx_fsmc.c ****  /* Check the parameters */
 867:../STLibs//STM32F4xx_DSP_StdPeriph_Lib_V1.0.1/Libraries/STM32F4xx_StdPeriph_Driver/src/stm32f4xx_fsmc.c ****   assert_param(IS_FSMC_GETFLAG_BANK(FSMC_Bank));
 868:../STLibs//STM32F4xx_DSP_StdPeriph_Lib_V1.0.1/Libraries/STM32F4xx_StdPeriph_Driver/src/stm32f4xx_fsmc.c ****   assert_param(IS_FSMC_CLEAR_FLAG(FSMC_FLAG)) ;
 869:../STLibs//STM32F4xx_DSP_StdPeriph_Lib_V1.0.1/Libraries/STM32F4xx_StdPeriph_Driver/src/stm32f4xx_fsmc.c ****     
 870:../STLibs//STM32F4xx_DSP_StdPeriph_Lib_V1.0.1/Libraries/STM32F4xx_StdPeriph_Driver/src/stm32f4xx_fsmc.c ****   if(FSMC_Bank == FSMC_Bank2_NAND)
 989              		.loc 1 870 0
 990 03a0 1028     		cmp	r0, #16
 991 03a2 6FEA0101 		mvn	r1, r1
 992              	.LVL44:
 993 03a6 04D1     		bne	.L88
 871:../STLibs//STM32F4xx_DSP_StdPeriph_Lib_V1.0.1/Libraries/STM32F4xx_StdPeriph_Driver/src/stm32f4xx_fsmc.c ****   {
 872:../STLibs//STM32F4xx_DSP_StdPeriph_Lib_V1.0.1/Libraries/STM32F4xx_StdPeriph_Driver/src/stm32f4xx_fsmc.c ****     FSMC_Bank2->SR2 &= ~FSMC_FLAG; 
 994              		.loc 1 872 0
 995 03a8 054A     		ldr	r2, .L92
 996              	.L91:
 873:../STLibs//STM32F4xx_DSP_StdPeriph_Lib_V1.0.1/Libraries/STM32F4xx_StdPeriph_Driver/src/stm32f4xx_fsmc.c ****   }  
 874:../STLibs//STM32F4xx_DSP_StdPeriph_Lib_V1.0.1/Libraries/STM32F4xx_StdPeriph_Driver/src/stm32f4xx_fsmc.c ****   else if(FSMC_Bank == FSMC_Bank3_NAND)
 875:../STLibs//STM32F4xx_DSP_StdPeriph_Lib_V1.0.1/Libraries/STM32F4xx_StdPeriph_Driver/src/stm32f4xx_fsmc.c ****   {
 876:../STLibs//STM32F4xx_DSP_StdPeriph_Lib_V1.0.1/Libraries/STM32F4xx_StdPeriph_Driver/src/stm32f4xx_fsmc.c ****     FSMC_Bank3->SR3 &= ~FSMC_FLAG;
 877:../STLibs//STM32F4xx_DSP_StdPeriph_Lib_V1.0.1/Libraries/STM32F4xx_StdPeriph_Driver/src/stm32f4xx_fsmc.c ****   }
 878:../STLibs//STM32F4xx_DSP_StdPeriph_Lib_V1.0.1/Libraries/STM32F4xx_StdPeriph_Driver/src/stm32f4xx_fsmc.c ****   /* FSMC_Bank4_PCCARD*/
 879:../STLibs//STM32F4xx_DSP_StdPeriph_Lib_V1.0.1/Libraries/STM32F4xx_StdPeriph_Driver/src/stm32f4xx_fsmc.c ****   else
 880:../STLibs//STM32F4xx_DSP_StdPeriph_Lib_V1.0.1/Libraries/STM32F4xx_StdPeriph_Driver/src/stm32f4xx_fsmc.c ****   {
 881:../STLibs//STM32F4xx_DSP_StdPeriph_Lib_V1.0.1/Libraries/STM32F4xx_StdPeriph_Driver/src/stm32f4xx_fsmc.c ****     FSMC_Bank4->SR4 &= ~FSMC_FLAG;
 997              		.loc 1 881 0
 998 03aa 5368     		ldr	r3, [r2, #4]
 999 03ac 1940     		ands	r1, r1, r3
 1000              	.LVL45:
 1001 03ae 5160     		str	r1, [r2, #4]
 882:../STLibs//STM32F4xx_DSP_StdPeriph_Lib_V1.0.1/Libraries/STM32F4xx_StdPeriph_Driver/src/stm32f4xx_fsmc.c ****   }
 883:../STLibs//STM32F4xx_DSP_StdPeriph_Lib_V1.0.1/Libraries/STM32F4xx_StdPeriph_Driver/src/stm32f4xx_fsmc.c **** }
 1002              		.loc 1 883 0
 1003 03b0 7047     		bx	lr
 1004              	.L88:
 874:../STLibs//STM32F4xx_DSP_StdPeriph_Lib_V1.0.1/Libraries/STM32F4xx_StdPeriph_Driver/src/stm32f4xx_fsmc.c ****   {
 1005              		.loc 1 874 0
 1006 03b2 B0F5807F 		cmp	r0, #256
 876:../STLibs//STM32F4xx_DSP_StdPeriph_Lib_V1.0.1/Libraries/STM32F4xx_StdPeriph_Driver/src/stm32f4xx_fsmc.c ****   }
 1007              		.loc 1 876 0
 1008 03b6 0CBF     		ite	eq
 1009 03b8 024A     		ldreq	r2, .L92+4
 881:../STLibs//STM32F4xx_DSP_StdPeriph_Lib_V1.0.1/Libraries/STM32F4xx_StdPeriph_Driver/src/stm32f4xx_fsmc.c ****   }
 1010              		.loc 1 881 0
 1011 03ba 034A     		ldrne	r2, .L92+8
 1012 03bc F5E7     		b	.L91
 1013              	.L93:
 1014 03be 00BF     		.align	2
 1015              	.L92:
 1016 03c0 600000A0 		.word	-1610612640
 1017 03c4 800000A0 		.word	-1610612608
 1018 03c8 A00000A0 		.word	-1610612576
 1019              		.cfi_endproc
 1020              	.LFE126:
 1022              		.align	1
 1023              		.global	FSMC_GetITStatus
 1024              		.syntax unified
 1025              		.thumb
 1026              		.thumb_func
 1027              		.fpu fpv4-sp-d16
 1029              	FSMC_GetITStatus:
 1030              	.LFB127:
 884:../STLibs//STM32F4xx_DSP_StdPeriph_Lib_V1.0.1/Libraries/STM32F4xx_StdPeriph_Driver/src/stm32f4xx_fsmc.c **** 
 885:../STLibs//STM32F4xx_DSP_StdPeriph_Lib_V1.0.1/Libraries/STM32F4xx_StdPeriph_Driver/src/stm32f4xx_fsmc.c **** /**
 886:../STLibs//STM32F4xx_DSP_StdPeriph_Lib_V1.0.1/Libraries/STM32F4xx_StdPeriph_Driver/src/stm32f4xx_fsmc.c ****   * @brief  Checks whether the specified FSMC interrupt has occurred or not.
 887:../STLibs//STM32F4xx_DSP_StdPeriph_Lib_V1.0.1/Libraries/STM32F4xx_StdPeriph_Driver/src/stm32f4xx_fsmc.c ****   * @param  FSMC_Bank: specifies the FSMC Bank to be used
 888:../STLibs//STM32F4xx_DSP_StdPeriph_Lib_V1.0.1/Libraries/STM32F4xx_StdPeriph_Driver/src/stm32f4xx_fsmc.c ****   *          This parameter can be one of the following values:
 889:../STLibs//STM32F4xx_DSP_StdPeriph_Lib_V1.0.1/Libraries/STM32F4xx_StdPeriph_Driver/src/stm32f4xx_fsmc.c ****   *            @arg FSMC_Bank2_NAND: FSMC Bank2 NAND 
 890:../STLibs//STM32F4xx_DSP_StdPeriph_Lib_V1.0.1/Libraries/STM32F4xx_StdPeriph_Driver/src/stm32f4xx_fsmc.c ****   *            @arg FSMC_Bank3_NAND: FSMC Bank3 NAND
 891:../STLibs//STM32F4xx_DSP_StdPeriph_Lib_V1.0.1/Libraries/STM32F4xx_StdPeriph_Driver/src/stm32f4xx_fsmc.c ****   *            @arg FSMC_Bank4_PCCARD: FSMC Bank4 PCCARD
 892:../STLibs//STM32F4xx_DSP_StdPeriph_Lib_V1.0.1/Libraries/STM32F4xx_StdPeriph_Driver/src/stm32f4xx_fsmc.c ****   * @param  FSMC_IT: specifies the FSMC interrupt source to check.
 893:../STLibs//STM32F4xx_DSP_StdPeriph_Lib_V1.0.1/Libraries/STM32F4xx_StdPeriph_Driver/src/stm32f4xx_fsmc.c ****   *          This parameter can be one of the following values:
 894:../STLibs//STM32F4xx_DSP_StdPeriph_Lib_V1.0.1/Libraries/STM32F4xx_StdPeriph_Driver/src/stm32f4xx_fsmc.c ****   *            @arg FSMC_IT_RisingEdge: Rising edge detection interrupt. 
 895:../STLibs//STM32F4xx_DSP_StdPeriph_Lib_V1.0.1/Libraries/STM32F4xx_StdPeriph_Driver/src/stm32f4xx_fsmc.c ****   *            @arg FSMC_IT_Level: Level edge detection interrupt.
 896:../STLibs//STM32F4xx_DSP_StdPeriph_Lib_V1.0.1/Libraries/STM32F4xx_StdPeriph_Driver/src/stm32f4xx_fsmc.c ****   *            @arg FSMC_IT_FallingEdge: Falling edge detection interrupt. 
 897:../STLibs//STM32F4xx_DSP_StdPeriph_Lib_V1.0.1/Libraries/STM32F4xx_StdPeriph_Driver/src/stm32f4xx_fsmc.c ****   * @retval The new state of FSMC_IT (SET or RESET).
 898:../STLibs//STM32F4xx_DSP_StdPeriph_Lib_V1.0.1/Libraries/STM32F4xx_StdPeriph_Driver/src/stm32f4xx_fsmc.c ****   */
 899:../STLibs//STM32F4xx_DSP_StdPeriph_Lib_V1.0.1/Libraries/STM32F4xx_StdPeriph_Driver/src/stm32f4xx_fsmc.c **** ITStatus FSMC_GetITStatus(uint32_t FSMC_Bank, uint32_t FSMC_IT)
 900:../STLibs//STM32F4xx_DSP_StdPeriph_Lib_V1.0.1/Libraries/STM32F4xx_StdPeriph_Driver/src/stm32f4xx_fsmc.c **** {
 1031              		.loc 1 900 0
 1032              		.cfi_startproc
 1033              		@ args = 0, pretend = 0, frame = 0
 1034              		@ frame_needed = 0, uses_anonymous_args = 0
 1035              		@ link register save eliminated.
 1036              	.LVL46:
 901:../STLibs//STM32F4xx_DSP_StdPeriph_Lib_V1.0.1/Libraries/STM32F4xx_StdPeriph_Driver/src/stm32f4xx_fsmc.c ****   ITStatus bitstatus = RESET;
 902:../STLibs//STM32F4xx_DSP_StdPeriph_Lib_V1.0.1/Libraries/STM32F4xx_StdPeriph_Driver/src/stm32f4xx_fsmc.c ****   uint32_t tmpsr = 0x0, itstatus = 0x0, itenable = 0x0; 
 903:../STLibs//STM32F4xx_DSP_StdPeriph_Lib_V1.0.1/Libraries/STM32F4xx_StdPeriph_Driver/src/stm32f4xx_fsmc.c ****   
 904:../STLibs//STM32F4xx_DSP_StdPeriph_Lib_V1.0.1/Libraries/STM32F4xx_StdPeriph_Driver/src/stm32f4xx_fsmc.c ****   /* Check the parameters */
 905:../STLibs//STM32F4xx_DSP_StdPeriph_Lib_V1.0.1/Libraries/STM32F4xx_StdPeriph_Driver/src/stm32f4xx_fsmc.c ****   assert_param(IS_FSMC_IT_BANK(FSMC_Bank));
 906:../STLibs//STM32F4xx_DSP_StdPeriph_Lib_V1.0.1/Libraries/STM32F4xx_StdPeriph_Driver/src/stm32f4xx_fsmc.c ****   assert_param(IS_FSMC_GET_IT(FSMC_IT));
 907:../STLibs//STM32F4xx_DSP_StdPeriph_Lib_V1.0.1/Libraries/STM32F4xx_StdPeriph_Driver/src/stm32f4xx_fsmc.c ****   
 908:../STLibs//STM32F4xx_DSP_StdPeriph_Lib_V1.0.1/Libraries/STM32F4xx_StdPeriph_Driver/src/stm32f4xx_fsmc.c ****   if(FSMC_Bank == FSMC_Bank2_NAND)
 1037              		.loc 1 908 0
 1038 03cc 1028     		cmp	r0, #16
 1039 03ce 0AD1     		bne	.L95
 909:../STLibs//STM32F4xx_DSP_StdPeriph_Lib_V1.0.1/Libraries/STM32F4xx_StdPeriph_Driver/src/stm32f4xx_fsmc.c ****   {
 910:../STLibs//STM32F4xx_DSP_StdPeriph_Lib_V1.0.1/Libraries/STM32F4xx_StdPeriph_Driver/src/stm32f4xx_fsmc.c ****     tmpsr = FSMC_Bank2->SR2;
 1040              		.loc 1 910 0
 1041 03d0 084B     		ldr	r3, .L101
 1042              	.L100:
 911:../STLibs//STM32F4xx_DSP_StdPeriph_Lib_V1.0.1/Libraries/STM32F4xx_StdPeriph_Driver/src/stm32f4xx_fsmc.c ****   }  
 912:../STLibs//STM32F4xx_DSP_StdPeriph_Lib_V1.0.1/Libraries/STM32F4xx_StdPeriph_Driver/src/stm32f4xx_fsmc.c ****   else if(FSMC_Bank == FSMC_Bank3_NAND)
 913:../STLibs//STM32F4xx_DSP_StdPeriph_Lib_V1.0.1/Libraries/STM32F4xx_StdPeriph_Driver/src/stm32f4xx_fsmc.c ****   {
 914:../STLibs//STM32F4xx_DSP_StdPeriph_Lib_V1.0.1/Libraries/STM32F4xx_StdPeriph_Driver/src/stm32f4xx_fsmc.c ****     tmpsr = FSMC_Bank3->SR3;
 915:../STLibs//STM32F4xx_DSP_StdPeriph_Lib_V1.0.1/Libraries/STM32F4xx_StdPeriph_Driver/src/stm32f4xx_fsmc.c ****   }
 916:../STLibs//STM32F4xx_DSP_StdPeriph_Lib_V1.0.1/Libraries/STM32F4xx_StdPeriph_Driver/src/stm32f4xx_fsmc.c ****   /* FSMC_Bank4_PCCARD*/
 917:../STLibs//STM32F4xx_DSP_StdPeriph_Lib_V1.0.1/Libraries/STM32F4xx_StdPeriph_Driver/src/stm32f4xx_fsmc.c ****   else
 918:../STLibs//STM32F4xx_DSP_StdPeriph_Lib_V1.0.1/Libraries/STM32F4xx_StdPeriph_Driver/src/stm32f4xx_fsmc.c ****   {
 919:../STLibs//STM32F4xx_DSP_StdPeriph_Lib_V1.0.1/Libraries/STM32F4xx_StdPeriph_Driver/src/stm32f4xx_fsmc.c ****     tmpsr = FSMC_Bank4->SR4;
 1043              		.loc 1 919 0
 1044 03d2 5B68     		ldr	r3, [r3, #4]
 1045              	.LVL47:
 920:../STLibs//STM32F4xx_DSP_StdPeriph_Lib_V1.0.1/Libraries/STM32F4xx_StdPeriph_Driver/src/stm32f4xx_fsmc.c ****   } 
 921:../STLibs//STM32F4xx_DSP_StdPeriph_Lib_V1.0.1/Libraries/STM32F4xx_StdPeriph_Driver/src/stm32f4xx_fsmc.c ****   
 922:../STLibs//STM32F4xx_DSP_StdPeriph_Lib_V1.0.1/Libraries/STM32F4xx_StdPeriph_Driver/src/stm32f4xx_fsmc.c ****   itstatus = tmpsr & FSMC_IT;
 923:../STLibs//STM32F4xx_DSP_StdPeriph_Lib_V1.0.1/Libraries/STM32F4xx_StdPeriph_Driver/src/stm32f4xx_fsmc.c ****   
 924:../STLibs//STM32F4xx_DSP_StdPeriph_Lib_V1.0.1/Libraries/STM32F4xx_StdPeriph_Driver/src/stm32f4xx_fsmc.c ****   itenable = tmpsr & (FSMC_IT >> 3);
 925:../STLibs//STM32F4xx_DSP_StdPeriph_Lib_V1.0.1/Libraries/STM32F4xx_StdPeriph_Driver/src/stm32f4xx_fsmc.c ****   if ((itstatus != (uint32_t)RESET)  && (itenable != (uint32_t)RESET))
 1046              		.loc 1 925 0
 1047 03d4 13EA0100 		ands	r0, r3, r1
 1048              	.LVL48:
 1049 03d8 04D0     		beq	.L98
 1050              		.loc 1 925 0 is_stmt 0 discriminator 1
 1051 03da 13EAD103 		ands	r3, r3, r1, lsr #3
 1052              	.LVL49:
 926:../STLibs//STM32F4xx_DSP_StdPeriph_Lib_V1.0.1/Libraries/STM32F4xx_StdPeriph_Driver/src/stm32f4xx_fsmc.c ****   {
 927:../STLibs//STM32F4xx_DSP_StdPeriph_Lib_V1.0.1/Libraries/STM32F4xx_StdPeriph_Driver/src/stm32f4xx_fsmc.c ****     bitstatus = SET;
 1053              		.loc 1 927 0 is_stmt 1 discriminator 1
 1054 03de 14BF     		ite	ne
 1055 03e0 0120     		movne	r0, #1
 1056              	.LVL50:
 1057 03e2 0020     		moveq	r0, #0
 1058              	.L98:
 1059              	.LVL51:
 928:../STLibs//STM32F4xx_DSP_StdPeriph_Lib_V1.0.1/Libraries/STM32F4xx_StdPeriph_Driver/src/stm32f4xx_fsmc.c ****   }
 929:../STLibs//STM32F4xx_DSP_StdPeriph_Lib_V1.0.1/Libraries/STM32F4xx_StdPeriph_Driver/src/stm32f4xx_fsmc.c ****   else
 930:../STLibs//STM32F4xx_DSP_StdPeriph_Lib_V1.0.1/Libraries/STM32F4xx_StdPeriph_Driver/src/stm32f4xx_fsmc.c ****   {
 931:../STLibs//STM32F4xx_DSP_StdPeriph_Lib_V1.0.1/Libraries/STM32F4xx_StdPeriph_Driver/src/stm32f4xx_fsmc.c ****     bitstatus = RESET;
 932:../STLibs//STM32F4xx_DSP_StdPeriph_Lib_V1.0.1/Libraries/STM32F4xx_StdPeriph_Driver/src/stm32f4xx_fsmc.c ****   }
 933:../STLibs//STM32F4xx_DSP_StdPeriph_Lib_V1.0.1/Libraries/STM32F4xx_StdPeriph_Driver/src/stm32f4xx_fsmc.c ****   return bitstatus; 
 934:../STLibs//STM32F4xx_DSP_StdPeriph_Lib_V1.0.1/Libraries/STM32F4xx_StdPeriph_Driver/src/stm32f4xx_fsmc.c **** }
 1060              		.loc 1 934 0
 1061 03e4 7047     		bx	lr
 1062              	.LVL52:
 1063              	.L95:
 912:../STLibs//STM32F4xx_DSP_StdPeriph_Lib_V1.0.1/Libraries/STM32F4xx_StdPeriph_Driver/src/stm32f4xx_fsmc.c ****   {
 1064              		.loc 1 912 0
 1065 03e6 B0F5807F 		cmp	r0, #256
 914:../STLibs//STM32F4xx_DSP_StdPeriph_Lib_V1.0.1/Libraries/STM32F4xx_StdPeriph_Driver/src/stm32f4xx_fsmc.c ****   }
 1066              		.loc 1 914 0
 1067 03ea 0CBF     		ite	eq
 1068 03ec 024B     		ldreq	r3, .L101+4
 919:../STLibs//STM32F4xx_DSP_StdPeriph_Lib_V1.0.1/Libraries/STM32F4xx_StdPeriph_Driver/src/stm32f4xx_fsmc.c ****   } 
 1069              		.loc 1 919 0
 1070 03ee 034B     		ldrne	r3, .L101+8
 1071 03f0 EFE7     		b	.L100
 1072              	.L102:
 1073 03f2 00BF     		.align	2
 1074              	.L101:
 1075 03f4 600000A0 		.word	-1610612640
 1076 03f8 800000A0 		.word	-1610612608
 1077 03fc A00000A0 		.word	-1610612576
 1078              		.cfi_endproc
 1079              	.LFE127:
 1081              		.align	1
 1082              		.global	FSMC_ClearITPendingBit
 1083              		.syntax unified
 1084              		.thumb
 1085              		.thumb_func
 1086              		.fpu fpv4-sp-d16
 1088              	FSMC_ClearITPendingBit:
 1089              	.LFB128:
 935:../STLibs//STM32F4xx_DSP_StdPeriph_Lib_V1.0.1/Libraries/STM32F4xx_StdPeriph_Driver/src/stm32f4xx_fsmc.c **** 
 936:../STLibs//STM32F4xx_DSP_StdPeriph_Lib_V1.0.1/Libraries/STM32F4xx_StdPeriph_Driver/src/stm32f4xx_fsmc.c **** /**
 937:../STLibs//STM32F4xx_DSP_StdPeriph_Lib_V1.0.1/Libraries/STM32F4xx_StdPeriph_Driver/src/stm32f4xx_fsmc.c ****   * @brief  Clears the FSMC's interrupt pending bits.
 938:../STLibs//STM32F4xx_DSP_StdPeriph_Lib_V1.0.1/Libraries/STM32F4xx_StdPeriph_Driver/src/stm32f4xx_fsmc.c ****   * @param  FSMC_Bank: specifies the FSMC Bank to be used
 939:../STLibs//STM32F4xx_DSP_StdPeriph_Lib_V1.0.1/Libraries/STM32F4xx_StdPeriph_Driver/src/stm32f4xx_fsmc.c ****   *          This parameter can be one of the following values:
 940:../STLibs//STM32F4xx_DSP_StdPeriph_Lib_V1.0.1/Libraries/STM32F4xx_StdPeriph_Driver/src/stm32f4xx_fsmc.c ****   *            @arg FSMC_Bank2_NAND: FSMC Bank2 NAND 
 941:../STLibs//STM32F4xx_DSP_StdPeriph_Lib_V1.0.1/Libraries/STM32F4xx_StdPeriph_Driver/src/stm32f4xx_fsmc.c ****   *            @arg FSMC_Bank3_NAND: FSMC Bank3 NAND
 942:../STLibs//STM32F4xx_DSP_StdPeriph_Lib_V1.0.1/Libraries/STM32F4xx_StdPeriph_Driver/src/stm32f4xx_fsmc.c ****   *            @arg FSMC_Bank4_PCCARD: FSMC Bank4 PCCARD
 943:../STLibs//STM32F4xx_DSP_StdPeriph_Lib_V1.0.1/Libraries/STM32F4xx_StdPeriph_Driver/src/stm32f4xx_fsmc.c ****   * @param  FSMC_IT: specifies the interrupt pending bit to clear.
 944:../STLibs//STM32F4xx_DSP_StdPeriph_Lib_V1.0.1/Libraries/STM32F4xx_StdPeriph_Driver/src/stm32f4xx_fsmc.c ****   *          This parameter can be any combination of the following values:
 945:../STLibs//STM32F4xx_DSP_StdPeriph_Lib_V1.0.1/Libraries/STM32F4xx_StdPeriph_Driver/src/stm32f4xx_fsmc.c ****   *            @arg FSMC_IT_RisingEdge: Rising edge detection interrupt. 
 946:../STLibs//STM32F4xx_DSP_StdPeriph_Lib_V1.0.1/Libraries/STM32F4xx_StdPeriph_Driver/src/stm32f4xx_fsmc.c ****   *            @arg FSMC_IT_Level: Level edge detection interrupt.
 947:../STLibs//STM32F4xx_DSP_StdPeriph_Lib_V1.0.1/Libraries/STM32F4xx_StdPeriph_Driver/src/stm32f4xx_fsmc.c ****   *            @arg FSMC_IT_FallingEdge: Falling edge detection interrupt.
 948:../STLibs//STM32F4xx_DSP_StdPeriph_Lib_V1.0.1/Libraries/STM32F4xx_StdPeriph_Driver/src/stm32f4xx_fsmc.c ****   * @retval None
 949:../STLibs//STM32F4xx_DSP_StdPeriph_Lib_V1.0.1/Libraries/STM32F4xx_StdPeriph_Driver/src/stm32f4xx_fsmc.c ****   */
 950:../STLibs//STM32F4xx_DSP_StdPeriph_Lib_V1.0.1/Libraries/STM32F4xx_StdPeriph_Driver/src/stm32f4xx_fsmc.c **** void FSMC_ClearITPendingBit(uint32_t FSMC_Bank, uint32_t FSMC_IT)
 951:../STLibs//STM32F4xx_DSP_StdPeriph_Lib_V1.0.1/Libraries/STM32F4xx_StdPeriph_Driver/src/stm32f4xx_fsmc.c **** {
 1090              		.loc 1 951 0
 1091              		.cfi_startproc
 1092              		@ args = 0, pretend = 0, frame = 0
 1093              		@ frame_needed = 0, uses_anonymous_args = 0
 1094              		@ link register save eliminated.
 1095              	.LVL53:
 952:../STLibs//STM32F4xx_DSP_StdPeriph_Lib_V1.0.1/Libraries/STM32F4xx_StdPeriph_Driver/src/stm32f4xx_fsmc.c ****   /* Check the parameters */
 953:../STLibs//STM32F4xx_DSP_StdPeriph_Lib_V1.0.1/Libraries/STM32F4xx_StdPeriph_Driver/src/stm32f4xx_fsmc.c ****   assert_param(IS_FSMC_IT_BANK(FSMC_Bank));
 954:../STLibs//STM32F4xx_DSP_StdPeriph_Lib_V1.0.1/Libraries/STM32F4xx_StdPeriph_Driver/src/stm32f4xx_fsmc.c ****   assert_param(IS_FSMC_IT(FSMC_IT));
 955:../STLibs//STM32F4xx_DSP_StdPeriph_Lib_V1.0.1/Libraries/STM32F4xx_StdPeriph_Driver/src/stm32f4xx_fsmc.c ****     
 956:../STLibs//STM32F4xx_DSP_StdPeriph_Lib_V1.0.1/Libraries/STM32F4xx_StdPeriph_Driver/src/stm32f4xx_fsmc.c ****   if(FSMC_Bank == FSMC_Bank2_NAND)
 1096              		.loc 1 956 0
 1097 0400 1028     		cmp	r0, #16
 1098 0402 6FEAD101 		mvn	r1, r1, lsr #3
 1099              	.LVL54:
 1100 0406 04D1     		bne	.L104
 957:../STLibs//STM32F4xx_DSP_StdPeriph_Lib_V1.0.1/Libraries/STM32F4xx_StdPeriph_Driver/src/stm32f4xx_fsmc.c ****   {
 958:../STLibs//STM32F4xx_DSP_StdPeriph_Lib_V1.0.1/Libraries/STM32F4xx_StdPeriph_Driver/src/stm32f4xx_fsmc.c ****     FSMC_Bank2->SR2 &= ~(FSMC_IT >> 3); 
 1101              		.loc 1 958 0
 1102 0408 054A     		ldr	r2, .L108
 1103              	.L107:
 959:../STLibs//STM32F4xx_DSP_StdPeriph_Lib_V1.0.1/Libraries/STM32F4xx_StdPeriph_Driver/src/stm32f4xx_fsmc.c ****   }  
 960:../STLibs//STM32F4xx_DSP_StdPeriph_Lib_V1.0.1/Libraries/STM32F4xx_StdPeriph_Driver/src/stm32f4xx_fsmc.c ****   else if(FSMC_Bank == FSMC_Bank3_NAND)
 961:../STLibs//STM32F4xx_DSP_StdPeriph_Lib_V1.0.1/Libraries/STM32F4xx_StdPeriph_Driver/src/stm32f4xx_fsmc.c ****   {
 962:../STLibs//STM32F4xx_DSP_StdPeriph_Lib_V1.0.1/Libraries/STM32F4xx_StdPeriph_Driver/src/stm32f4xx_fsmc.c ****     FSMC_Bank3->SR3 &= ~(FSMC_IT >> 3);
 963:../STLibs//STM32F4xx_DSP_StdPeriph_Lib_V1.0.1/Libraries/STM32F4xx_StdPeriph_Driver/src/stm32f4xx_fsmc.c ****   }
 964:../STLibs//STM32F4xx_DSP_StdPeriph_Lib_V1.0.1/Libraries/STM32F4xx_StdPeriph_Driver/src/stm32f4xx_fsmc.c ****   /* FSMC_Bank4_PCCARD*/
 965:../STLibs//STM32F4xx_DSP_StdPeriph_Lib_V1.0.1/Libraries/STM32F4xx_StdPeriph_Driver/src/stm32f4xx_fsmc.c ****   else
 966:../STLibs//STM32F4xx_DSP_StdPeriph_Lib_V1.0.1/Libraries/STM32F4xx_StdPeriph_Driver/src/stm32f4xx_fsmc.c ****   {
 967:../STLibs//STM32F4xx_DSP_StdPeriph_Lib_V1.0.1/Libraries/STM32F4xx_StdPeriph_Driver/src/stm32f4xx_fsmc.c ****     FSMC_Bank4->SR4 &= ~(FSMC_IT >> 3);
 1104              		.loc 1 967 0
 1105 040a 5368     		ldr	r3, [r2, #4]
 1106 040c 1940     		ands	r1, r1, r3
 1107 040e 5160     		str	r1, [r2, #4]
 968:../STLibs//STM32F4xx_DSP_StdPeriph_Lib_V1.0.1/Libraries/STM32F4xx_StdPeriph_Driver/src/stm32f4xx_fsmc.c ****   }
 969:../STLibs//STM32F4xx_DSP_StdPeriph_Lib_V1.0.1/Libraries/STM32F4xx_StdPeriph_Driver/src/stm32f4xx_fsmc.c **** }
 1108              		.loc 1 969 0
 1109 0410 7047     		bx	lr
 1110              	.L104:
 960:../STLibs//STM32F4xx_DSP_StdPeriph_Lib_V1.0.1/Libraries/STM32F4xx_StdPeriph_Driver/src/stm32f4xx_fsmc.c ****   {
 1111              		.loc 1 960 0
 1112 0412 B0F5807F 		cmp	r0, #256
 962:../STLibs//STM32F4xx_DSP_StdPeriph_Lib_V1.0.1/Libraries/STM32F4xx_StdPeriph_Driver/src/stm32f4xx_fsmc.c ****   }
 1113              		.loc 1 962 0
 1114 0416 0CBF     		ite	eq
 1115 0418 024A     		ldreq	r2, .L108+4
 967:../STLibs//STM32F4xx_DSP_StdPeriph_Lib_V1.0.1/Libraries/STM32F4xx_StdPeriph_Driver/src/stm32f4xx_fsmc.c ****   }
 1116              		.loc 1 967 0
 1117 041a 034A     		ldrne	r2, .L108+8
 1118 041c F5E7     		b	.L107
 1119              	.L109:
 1120 041e 00BF     		.align	2
 1121              	.L108:
 1122 0420 600000A0 		.word	-1610612640
 1123 0424 800000A0 		.word	-1610612608
 1124 0428 A00000A0 		.word	-1610612576
 1125              		.cfi_endproc
 1126              	.LFE128:
 1128              	.Letext0:
 1129              		.file 2 "/opt/gcc-arm-none-eabi-7-2017-q4-major/arm-none-eabi/include/machine/_default_types.h"
 1130              		.file 3 "/opt/gcc-arm-none-eabi-7-2017-q4-major/arm-none-eabi/include/sys/_stdint.h"
 1131              		.file 4 "../STLibs//STM32F4xx_DSP_StdPeriph_Lib_V1.0.1/Libraries/CMSIS/Include/core_cm4.h"
 1132              		.file 5 "../STLibs//STM32F4xx_DSP_StdPeriph_Lib_V1.0.1/Libraries/CMSIS/Device/ST/STM32F4xx/Include
 1133              		.file 6 "../STLibs//STM32F4xx_DSP_StdPeriph_Lib_V1.0.1/Libraries/CMSIS/Device/ST/STM32F4xx/Include
 1134              		.file 7 "../STLibs//STM32F4xx_DSP_StdPeriph_Lib_V1.0.1/Libraries/STM32F4xx_StdPeriph_Driver/inc/st