   1              		.cpu cortex-m4
   2              		.eabi_attribute 27, 1
   3              		.eabi_attribute 20, 1
   4              		.eabi_attribute 21, 1
   5              		.eabi_attribute 23, 3
   6              		.eabi_attribute 24, 1
   7              		.eabi_attribute 25, 1
   8              		.eabi_attribute 26, 1
   9              		.eabi_attribute 30, 4
  10              		.eabi_attribute 34, 1
  11              		.eabi_attribute 18, 4
  12              		.file	"stm32f4xx_usart.c"
  13              		.text
  14              	.Ltext0:
  15              		.cfi_sections	.debug_frame
  16              		.align	1
  17              		.global	USART_DeInit
  18              		.syntax unified
  19              		.thumb
  20              		.thumb_func
  21              		.fpu fpv4-sp-d16
  23              	USART_DeInit:
  24              	.LFB110:
  25              		.file 1 "../STLibs//STM32F4xx_DSP_StdPeriph_Lib_V1.0.1/Libraries/STM32F4xx_StdPeriph_Driver/src/st
   1:../STLibs//STM32F4xx_DSP_StdPeriph_Lib_V1.0.1/Libraries/STM32F4xx_StdPeriph_Driver/src/stm32f4xx_usart.c **** /**
   2:../STLibs//STM32F4xx_DSP_StdPeriph_Lib_V1.0.1/Libraries/STM32F4xx_StdPeriph_Driver/src/stm32f4xx_usart.c ****   ******************************************************************************
   3:../STLibs//STM32F4xx_DSP_StdPeriph_Lib_V1.0.1/Libraries/STM32F4xx_StdPeriph_Driver/src/stm32f4xx_usart.c ****   * @file    stm32f4xx_usart.c
   4:../STLibs//STM32F4xx_DSP_StdPeriph_Lib_V1.0.1/Libraries/STM32F4xx_StdPeriph_Driver/src/stm32f4xx_usart.c ****   * @author  MCD Application Team
   5:../STLibs//STM32F4xx_DSP_StdPeriph_Lib_V1.0.1/Libraries/STM32F4xx_StdPeriph_Driver/src/stm32f4xx_usart.c ****   * @version V1.0.2
   6:../STLibs//STM32F4xx_DSP_StdPeriph_Lib_V1.0.1/Libraries/STM32F4xx_StdPeriph_Driver/src/stm32f4xx_usart.c ****   * @date    05-March-2012
   7:../STLibs//STM32F4xx_DSP_StdPeriph_Lib_V1.0.1/Libraries/STM32F4xx_StdPeriph_Driver/src/stm32f4xx_usart.c ****   * @brief   This file provides firmware functions to manage the following 
   8:../STLibs//STM32F4xx_DSP_StdPeriph_Lib_V1.0.1/Libraries/STM32F4xx_StdPeriph_Driver/src/stm32f4xx_usart.c ****   *          functionalities of the Universal synchronous asynchronous receiver
   9:../STLibs//STM32F4xx_DSP_StdPeriph_Lib_V1.0.1/Libraries/STM32F4xx_StdPeriph_Driver/src/stm32f4xx_usart.c ****   *          transmitter (USART):           
  10:../STLibs//STM32F4xx_DSP_StdPeriph_Lib_V1.0.1/Libraries/STM32F4xx_StdPeriph_Driver/src/stm32f4xx_usart.c ****   *           - Initialization and Configuration
  11:../STLibs//STM32F4xx_DSP_StdPeriph_Lib_V1.0.1/Libraries/STM32F4xx_StdPeriph_Driver/src/stm32f4xx_usart.c ****   *           - Data transfers
  12:../STLibs//STM32F4xx_DSP_StdPeriph_Lib_V1.0.1/Libraries/STM32F4xx_StdPeriph_Driver/src/stm32f4xx_usart.c ****   *           - Multi-Processor Communication
  13:../STLibs//STM32F4xx_DSP_StdPeriph_Lib_V1.0.1/Libraries/STM32F4xx_StdPeriph_Driver/src/stm32f4xx_usart.c ****   *           - LIN mode
  14:../STLibs//STM32F4xx_DSP_StdPeriph_Lib_V1.0.1/Libraries/STM32F4xx_StdPeriph_Driver/src/stm32f4xx_usart.c ****   *           - Half-duplex mode
  15:../STLibs//STM32F4xx_DSP_StdPeriph_Lib_V1.0.1/Libraries/STM32F4xx_StdPeriph_Driver/src/stm32f4xx_usart.c ****   *           - Smartcard mode
  16:../STLibs//STM32F4xx_DSP_StdPeriph_Lib_V1.0.1/Libraries/STM32F4xx_StdPeriph_Driver/src/stm32f4xx_usart.c ****   *           - IrDA mode
  17:../STLibs//STM32F4xx_DSP_StdPeriph_Lib_V1.0.1/Libraries/STM32F4xx_StdPeriph_Driver/src/stm32f4xx_usart.c ****   *           - DMA transfers management
  18:../STLibs//STM32F4xx_DSP_StdPeriph_Lib_V1.0.1/Libraries/STM32F4xx_StdPeriph_Driver/src/stm32f4xx_usart.c ****   *           - Interrupts and flags management 
  19:../STLibs//STM32F4xx_DSP_StdPeriph_Lib_V1.0.1/Libraries/STM32F4xx_StdPeriph_Driver/src/stm32f4xx_usart.c ****   *           
  20:../STLibs//STM32F4xx_DSP_StdPeriph_Lib_V1.0.1/Libraries/STM32F4xx_StdPeriph_Driver/src/stm32f4xx_usart.c ****   *  @verbatim
  21:../STLibs//STM32F4xx_DSP_StdPeriph_Lib_V1.0.1/Libraries/STM32F4xx_StdPeriph_Driver/src/stm32f4xx_usart.c ****   *      
  22:../STLibs//STM32F4xx_DSP_StdPeriph_Lib_V1.0.1/Libraries/STM32F4xx_StdPeriph_Driver/src/stm32f4xx_usart.c ****   *          ===================================================================
  23:../STLibs//STM32F4xx_DSP_StdPeriph_Lib_V1.0.1/Libraries/STM32F4xx_StdPeriph_Driver/src/stm32f4xx_usart.c ****   *                                 How to use this driver
  24:../STLibs//STM32F4xx_DSP_StdPeriph_Lib_V1.0.1/Libraries/STM32F4xx_StdPeriph_Driver/src/stm32f4xx_usart.c ****   *          ===================================================================
  25:../STLibs//STM32F4xx_DSP_StdPeriph_Lib_V1.0.1/Libraries/STM32F4xx_StdPeriph_Driver/src/stm32f4xx_usart.c ****   *          1. Enable peripheral clock using the follwoing functions
  26:../STLibs//STM32F4xx_DSP_StdPeriph_Lib_V1.0.1/Libraries/STM32F4xx_StdPeriph_Driver/src/stm32f4xx_usart.c ****   *             RCC_APB2PeriphClockCmd(RCC_APB2Periph_USARTx, ENABLE) for USART1 and USART6 
  27:../STLibs//STM32F4xx_DSP_StdPeriph_Lib_V1.0.1/Libraries/STM32F4xx_StdPeriph_Driver/src/stm32f4xx_usart.c ****   *             RCC_APB1PeriphClockCmd(RCC_APB1Periph_USARTx, ENABLE) for USART2, USART3, UART4 or 
  28:../STLibs//STM32F4xx_DSP_StdPeriph_Lib_V1.0.1/Libraries/STM32F4xx_StdPeriph_Driver/src/stm32f4xx_usart.c ****   *
  29:../STLibs//STM32F4xx_DSP_StdPeriph_Lib_V1.0.1/Libraries/STM32F4xx_StdPeriph_Driver/src/stm32f4xx_usart.c ****   *          2.  According to the USART mode, enable the GPIO clocks using 
  30:../STLibs//STM32F4xx_DSP_StdPeriph_Lib_V1.0.1/Libraries/STM32F4xx_StdPeriph_Driver/src/stm32f4xx_usart.c ****   *              RCC_AHB1PeriphClockCmd() function. (The I/O can be TX, RX, CTS, 
  31:../STLibs//STM32F4xx_DSP_StdPeriph_Lib_V1.0.1/Libraries/STM32F4xx_StdPeriph_Driver/src/stm32f4xx_usart.c ****   *              or/and SCLK). 
  32:../STLibs//STM32F4xx_DSP_StdPeriph_Lib_V1.0.1/Libraries/STM32F4xx_StdPeriph_Driver/src/stm32f4xx_usart.c ****   *
  33:../STLibs//STM32F4xx_DSP_StdPeriph_Lib_V1.0.1/Libraries/STM32F4xx_StdPeriph_Driver/src/stm32f4xx_usart.c ****   *          3. Peripheral's alternate function: 
  34:../STLibs//STM32F4xx_DSP_StdPeriph_Lib_V1.0.1/Libraries/STM32F4xx_StdPeriph_Driver/src/stm32f4xx_usart.c ****   *                 - Connect the pin to the desired peripherals' Alternate 
  35:../STLibs//STM32F4xx_DSP_StdPeriph_Lib_V1.0.1/Libraries/STM32F4xx_StdPeriph_Driver/src/stm32f4xx_usart.c ****   *                   Function (AF) using GPIO_PinAFConfig() function
  36:../STLibs//STM32F4xx_DSP_StdPeriph_Lib_V1.0.1/Libraries/STM32F4xx_StdPeriph_Driver/src/stm32f4xx_usart.c ****   *                 - Configure the desired pin in alternate function by:
  37:../STLibs//STM32F4xx_DSP_StdPeriph_Lib_V1.0.1/Libraries/STM32F4xx_StdPeriph_Driver/src/stm32f4xx_usart.c ****   *                   GPIO_InitStruct->GPIO_Mode = GPIO_Mode_AF
  38:../STLibs//STM32F4xx_DSP_StdPeriph_Lib_V1.0.1/Libraries/STM32F4xx_StdPeriph_Driver/src/stm32f4xx_usart.c ****   *                 - Select the type, pull-up/pull-down and output speed via 
  39:../STLibs//STM32F4xx_DSP_StdPeriph_Lib_V1.0.1/Libraries/STM32F4xx_StdPeriph_Driver/src/stm32f4xx_usart.c ****   *                   GPIO_PuPd, GPIO_OType and GPIO_Speed members
  40:../STLibs//STM32F4xx_DSP_StdPeriph_Lib_V1.0.1/Libraries/STM32F4xx_StdPeriph_Driver/src/stm32f4xx_usart.c ****   *                 - Call GPIO_Init() function
  41:../STLibs//STM32F4xx_DSP_StdPeriph_Lib_V1.0.1/Libraries/STM32F4xx_StdPeriph_Driver/src/stm32f4xx_usart.c ****   *        
  42:../STLibs//STM32F4xx_DSP_StdPeriph_Lib_V1.0.1/Libraries/STM32F4xx_StdPeriph_Driver/src/stm32f4xx_usart.c ****   *          4. Program the Baud Rate, Word Length , Stop Bit, Parity, Hardware 
  43:../STLibs//STM32F4xx_DSP_StdPeriph_Lib_V1.0.1/Libraries/STM32F4xx_StdPeriph_Driver/src/stm32f4xx_usart.c ****   *             flow control and Mode(Receiver/Transmitter) using the USART_Init()
  44:../STLibs//STM32F4xx_DSP_StdPeriph_Lib_V1.0.1/Libraries/STM32F4xx_StdPeriph_Driver/src/stm32f4xx_usart.c ****   *             function.
  45:../STLibs//STM32F4xx_DSP_StdPeriph_Lib_V1.0.1/Libraries/STM32F4xx_StdPeriph_Driver/src/stm32f4xx_usart.c ****   *
  46:../STLibs//STM32F4xx_DSP_StdPeriph_Lib_V1.0.1/Libraries/STM32F4xx_StdPeriph_Driver/src/stm32f4xx_usart.c ****   *          5. For synchronous mode, enable the clock and program the polarity,
  47:../STLibs//STM32F4xx_DSP_StdPeriph_Lib_V1.0.1/Libraries/STM32F4xx_StdPeriph_Driver/src/stm32f4xx_usart.c ****   *             phase and last bit using the USART_ClockInit() function.
  48:../STLibs//STM32F4xx_DSP_StdPeriph_Lib_V1.0.1/Libraries/STM32F4xx_StdPeriph_Driver/src/stm32f4xx_usart.c ****   *
  49:../STLibs//STM32F4xx_DSP_StdPeriph_Lib_V1.0.1/Libraries/STM32F4xx_StdPeriph_Driver/src/stm32f4xx_usart.c ****   *          5. Enable the NVIC and the corresponding interrupt using the function 
  50:../STLibs//STM32F4xx_DSP_StdPeriph_Lib_V1.0.1/Libraries/STM32F4xx_StdPeriph_Driver/src/stm32f4xx_usart.c ****   *             USART_ITConfig() if you need to use interrupt mode. 
  51:../STLibs//STM32F4xx_DSP_StdPeriph_Lib_V1.0.1/Libraries/STM32F4xx_StdPeriph_Driver/src/stm32f4xx_usart.c ****   *
  52:../STLibs//STM32F4xx_DSP_StdPeriph_Lib_V1.0.1/Libraries/STM32F4xx_StdPeriph_Driver/src/stm32f4xx_usart.c ****   *          6. When using the DMA mode 
  53:../STLibs//STM32F4xx_DSP_StdPeriph_Lib_V1.0.1/Libraries/STM32F4xx_StdPeriph_Driver/src/stm32f4xx_usart.c ****   *                   - Configure the DMA using DMA_Init() function
  54:../STLibs//STM32F4xx_DSP_StdPeriph_Lib_V1.0.1/Libraries/STM32F4xx_StdPeriph_Driver/src/stm32f4xx_usart.c ****   *                   - Active the needed channel Request using USART_DMACmd() function
  55:../STLibs//STM32F4xx_DSP_StdPeriph_Lib_V1.0.1/Libraries/STM32F4xx_StdPeriph_Driver/src/stm32f4xx_usart.c ****   * 
  56:../STLibs//STM32F4xx_DSP_StdPeriph_Lib_V1.0.1/Libraries/STM32F4xx_StdPeriph_Driver/src/stm32f4xx_usart.c ****   *          7. Enable the USART using the USART_Cmd() function.
  57:../STLibs//STM32F4xx_DSP_StdPeriph_Lib_V1.0.1/Libraries/STM32F4xx_StdPeriph_Driver/src/stm32f4xx_usart.c ****   * 
  58:../STLibs//STM32F4xx_DSP_StdPeriph_Lib_V1.0.1/Libraries/STM32F4xx_StdPeriph_Driver/src/stm32f4xx_usart.c ****   *          8. Enable the DMA using the DMA_Cmd() function, when using DMA mode. 
  59:../STLibs//STM32F4xx_DSP_StdPeriph_Lib_V1.0.1/Libraries/STM32F4xx_StdPeriph_Driver/src/stm32f4xx_usart.c ****   *
  60:../STLibs//STM32F4xx_DSP_StdPeriph_Lib_V1.0.1/Libraries/STM32F4xx_StdPeriph_Driver/src/stm32f4xx_usart.c ****   *          Refer to Multi-Processor, LIN, half-duplex, Smartcard, IrDA sub-sections
  61:../STLibs//STM32F4xx_DSP_StdPeriph_Lib_V1.0.1/Libraries/STM32F4xx_StdPeriph_Driver/src/stm32f4xx_usart.c ****   *          for more details
  62:../STLibs//STM32F4xx_DSP_StdPeriph_Lib_V1.0.1/Libraries/STM32F4xx_StdPeriph_Driver/src/stm32f4xx_usart.c ****   *          
  63:../STLibs//STM32F4xx_DSP_StdPeriph_Lib_V1.0.1/Libraries/STM32F4xx_StdPeriph_Driver/src/stm32f4xx_usart.c ****   *          In order to reach higher communication baudrates, it is possible to
  64:../STLibs//STM32F4xx_DSP_StdPeriph_Lib_V1.0.1/Libraries/STM32F4xx_StdPeriph_Driver/src/stm32f4xx_usart.c ****   *          enable the oversampling by 8 mode using the function USART_OverSampling8Cmd().
  65:../STLibs//STM32F4xx_DSP_StdPeriph_Lib_V1.0.1/Libraries/STM32F4xx_StdPeriph_Driver/src/stm32f4xx_usart.c ****   *          This function should be called after enabling the USART clock (RCC_APBxPeriphClockCmd(
  66:../STLibs//STM32F4xx_DSP_StdPeriph_Lib_V1.0.1/Libraries/STM32F4xx_StdPeriph_Driver/src/stm32f4xx_usart.c ****   *          and before calling the function USART_Init().
  67:../STLibs//STM32F4xx_DSP_StdPeriph_Lib_V1.0.1/Libraries/STM32F4xx_StdPeriph_Driver/src/stm32f4xx_usart.c ****   *          
  68:../STLibs//STM32F4xx_DSP_StdPeriph_Lib_V1.0.1/Libraries/STM32F4xx_StdPeriph_Driver/src/stm32f4xx_usart.c ****   *  @endverbatim
  69:../STLibs//STM32F4xx_DSP_StdPeriph_Lib_V1.0.1/Libraries/STM32F4xx_StdPeriph_Driver/src/stm32f4xx_usart.c ****   *        
  70:../STLibs//STM32F4xx_DSP_StdPeriph_Lib_V1.0.1/Libraries/STM32F4xx_StdPeriph_Driver/src/stm32f4xx_usart.c ****   ******************************************************************************
  71:../STLibs//STM32F4xx_DSP_StdPeriph_Lib_V1.0.1/Libraries/STM32F4xx_StdPeriph_Driver/src/stm32f4xx_usart.c ****   * @attention
  72:../STLibs//STM32F4xx_DSP_StdPeriph_Lib_V1.0.1/Libraries/STM32F4xx_StdPeriph_Driver/src/stm32f4xx_usart.c ****   *
  73:../STLibs//STM32F4xx_DSP_StdPeriph_Lib_V1.0.1/Libraries/STM32F4xx_StdPeriph_Driver/src/stm32f4xx_usart.c ****   * <h2><center>&copy; COPYRIGHT 2012 STMicroelectronics</center></h2>
  74:../STLibs//STM32F4xx_DSP_StdPeriph_Lib_V1.0.1/Libraries/STM32F4xx_StdPeriph_Driver/src/stm32f4xx_usart.c ****   *
  75:../STLibs//STM32F4xx_DSP_StdPeriph_Lib_V1.0.1/Libraries/STM32F4xx_StdPeriph_Driver/src/stm32f4xx_usart.c ****   * Licensed under MCD-ST Liberty SW License Agreement V2, (the "License");
  76:../STLibs//STM32F4xx_DSP_StdPeriph_Lib_V1.0.1/Libraries/STM32F4xx_StdPeriph_Driver/src/stm32f4xx_usart.c ****   * You may not use this file except in compliance with the License.
  77:../STLibs//STM32F4xx_DSP_StdPeriph_Lib_V1.0.1/Libraries/STM32F4xx_StdPeriph_Driver/src/stm32f4xx_usart.c ****   * You may obtain a copy of the License at:
  78:../STLibs//STM32F4xx_DSP_StdPeriph_Lib_V1.0.1/Libraries/STM32F4xx_StdPeriph_Driver/src/stm32f4xx_usart.c ****   *
  79:../STLibs//STM32F4xx_DSP_StdPeriph_Lib_V1.0.1/Libraries/STM32F4xx_StdPeriph_Driver/src/stm32f4xx_usart.c ****   *        http://www.st.com/software_license_agreement_liberty_v2
  80:../STLibs//STM32F4xx_DSP_StdPeriph_Lib_V1.0.1/Libraries/STM32F4xx_StdPeriph_Driver/src/stm32f4xx_usart.c ****   *
  81:../STLibs//STM32F4xx_DSP_StdPeriph_Lib_V1.0.1/Libraries/STM32F4xx_StdPeriph_Driver/src/stm32f4xx_usart.c ****   * Unless required by applicable law or agreed to in writing, software 
  82:../STLibs//STM32F4xx_DSP_StdPeriph_Lib_V1.0.1/Libraries/STM32F4xx_StdPeriph_Driver/src/stm32f4xx_usart.c ****   * distributed under the License is distributed on an "AS IS" BASIS, 
  83:../STLibs//STM32F4xx_DSP_StdPeriph_Lib_V1.0.1/Libraries/STM32F4xx_StdPeriph_Driver/src/stm32f4xx_usart.c ****   * WITHOUT WARRANTIES OR CONDITIONS OF ANY KIND, either express or implied.
  84:../STLibs//STM32F4xx_DSP_StdPeriph_Lib_V1.0.1/Libraries/STM32F4xx_StdPeriph_Driver/src/stm32f4xx_usart.c ****   * See the License for the specific language governing permissions and
  85:../STLibs//STM32F4xx_DSP_StdPeriph_Lib_V1.0.1/Libraries/STM32F4xx_StdPeriph_Driver/src/stm32f4xx_usart.c ****   * limitations under the License.
  86:../STLibs//STM32F4xx_DSP_StdPeriph_Lib_V1.0.1/Libraries/STM32F4xx_StdPeriph_Driver/src/stm32f4xx_usart.c ****   *
  87:../STLibs//STM32F4xx_DSP_StdPeriph_Lib_V1.0.1/Libraries/STM32F4xx_StdPeriph_Driver/src/stm32f4xx_usart.c ****   ******************************************************************************
  88:../STLibs//STM32F4xx_DSP_StdPeriph_Lib_V1.0.1/Libraries/STM32F4xx_StdPeriph_Driver/src/stm32f4xx_usart.c ****   */ 
  89:../STLibs//STM32F4xx_DSP_StdPeriph_Lib_V1.0.1/Libraries/STM32F4xx_StdPeriph_Driver/src/stm32f4xx_usart.c **** 
  90:../STLibs//STM32F4xx_DSP_StdPeriph_Lib_V1.0.1/Libraries/STM32F4xx_StdPeriph_Driver/src/stm32f4xx_usart.c **** /* Includes ------------------------------------------------------------------*/
  91:../STLibs//STM32F4xx_DSP_StdPeriph_Lib_V1.0.1/Libraries/STM32F4xx_StdPeriph_Driver/src/stm32f4xx_usart.c **** #include "stm32f4xx_usart.h"
  92:../STLibs//STM32F4xx_DSP_StdPeriph_Lib_V1.0.1/Libraries/STM32F4xx_StdPeriph_Driver/src/stm32f4xx_usart.c **** #include "stm32f4xx_rcc.h"
  93:../STLibs//STM32F4xx_DSP_StdPeriph_Lib_V1.0.1/Libraries/STM32F4xx_StdPeriph_Driver/src/stm32f4xx_usart.c **** 
  94:../STLibs//STM32F4xx_DSP_StdPeriph_Lib_V1.0.1/Libraries/STM32F4xx_StdPeriph_Driver/src/stm32f4xx_usart.c **** /** @addtogroup STM32F4xx_StdPeriph_Driver
  95:../STLibs//STM32F4xx_DSP_StdPeriph_Lib_V1.0.1/Libraries/STM32F4xx_StdPeriph_Driver/src/stm32f4xx_usart.c ****   * @{
  96:../STLibs//STM32F4xx_DSP_StdPeriph_Lib_V1.0.1/Libraries/STM32F4xx_StdPeriph_Driver/src/stm32f4xx_usart.c ****   */
  97:../STLibs//STM32F4xx_DSP_StdPeriph_Lib_V1.0.1/Libraries/STM32F4xx_StdPeriph_Driver/src/stm32f4xx_usart.c **** 
  98:../STLibs//STM32F4xx_DSP_StdPeriph_Lib_V1.0.1/Libraries/STM32F4xx_StdPeriph_Driver/src/stm32f4xx_usart.c **** /** @defgroup USART 
  99:../STLibs//STM32F4xx_DSP_StdPeriph_Lib_V1.0.1/Libraries/STM32F4xx_StdPeriph_Driver/src/stm32f4xx_usart.c ****   * @brief USART driver modules
 100:../STLibs//STM32F4xx_DSP_StdPeriph_Lib_V1.0.1/Libraries/STM32F4xx_StdPeriph_Driver/src/stm32f4xx_usart.c ****   * @{
 101:../STLibs//STM32F4xx_DSP_StdPeriph_Lib_V1.0.1/Libraries/STM32F4xx_StdPeriph_Driver/src/stm32f4xx_usart.c ****   */
 102:../STLibs//STM32F4xx_DSP_StdPeriph_Lib_V1.0.1/Libraries/STM32F4xx_StdPeriph_Driver/src/stm32f4xx_usart.c **** 
 103:../STLibs//STM32F4xx_DSP_StdPeriph_Lib_V1.0.1/Libraries/STM32F4xx_StdPeriph_Driver/src/stm32f4xx_usart.c **** /* Private typedef -----------------------------------------------------------*/
 104:../STLibs//STM32F4xx_DSP_StdPeriph_Lib_V1.0.1/Libraries/STM32F4xx_StdPeriph_Driver/src/stm32f4xx_usart.c **** /* Private define ------------------------------------------------------------*/
 105:../STLibs//STM32F4xx_DSP_StdPeriph_Lib_V1.0.1/Libraries/STM32F4xx_StdPeriph_Driver/src/stm32f4xx_usart.c **** 
 106:../STLibs//STM32F4xx_DSP_StdPeriph_Lib_V1.0.1/Libraries/STM32F4xx_StdPeriph_Driver/src/stm32f4xx_usart.c **** /*!< USART CR1 register clear Mask ((~(uint16_t)0xE9F3)) */
 107:../STLibs//STM32F4xx_DSP_StdPeriph_Lib_V1.0.1/Libraries/STM32F4xx_StdPeriph_Driver/src/stm32f4xx_usart.c **** #define CR1_CLEAR_MASK            ((uint16_t)(USART_CR1_M | USART_CR1_PCE | \
 108:../STLibs//STM32F4xx_DSP_StdPeriph_Lib_V1.0.1/Libraries/STM32F4xx_StdPeriph_Driver/src/stm32f4xx_usart.c ****                                               USART_CR1_PS | USART_CR1_TE | \
 109:../STLibs//STM32F4xx_DSP_StdPeriph_Lib_V1.0.1/Libraries/STM32F4xx_StdPeriph_Driver/src/stm32f4xx_usart.c ****                                               USART_CR1_RE))
 110:../STLibs//STM32F4xx_DSP_StdPeriph_Lib_V1.0.1/Libraries/STM32F4xx_StdPeriph_Driver/src/stm32f4xx_usart.c **** 
 111:../STLibs//STM32F4xx_DSP_StdPeriph_Lib_V1.0.1/Libraries/STM32F4xx_StdPeriph_Driver/src/stm32f4xx_usart.c **** /*!< USART CR2 register clock bits clear Mask ((~(uint16_t)0xF0FF)) */
 112:../STLibs//STM32F4xx_DSP_StdPeriph_Lib_V1.0.1/Libraries/STM32F4xx_StdPeriph_Driver/src/stm32f4xx_usart.c **** #define CR2_CLOCK_CLEAR_MASK      ((uint16_t)(USART_CR2_CLKEN | USART_CR2_CPOL | \
 113:../STLibs//STM32F4xx_DSP_StdPeriph_Lib_V1.0.1/Libraries/STM32F4xx_StdPeriph_Driver/src/stm32f4xx_usart.c ****                                               USART_CR2_CPHA | USART_CR2_LBCL))
 114:../STLibs//STM32F4xx_DSP_StdPeriph_Lib_V1.0.1/Libraries/STM32F4xx_StdPeriph_Driver/src/stm32f4xx_usart.c **** 
 115:../STLibs//STM32F4xx_DSP_StdPeriph_Lib_V1.0.1/Libraries/STM32F4xx_StdPeriph_Driver/src/stm32f4xx_usart.c **** /*!< USART CR3 register clear Mask ((~(uint16_t)0xFCFF)) */
 116:../STLibs//STM32F4xx_DSP_StdPeriph_Lib_V1.0.1/Libraries/STM32F4xx_StdPeriph_Driver/src/stm32f4xx_usart.c **** #define CR3_CLEAR_MASK            ((uint16_t)(USART_CR3_RTSE | USART_CR3_CTSE))
 117:../STLibs//STM32F4xx_DSP_StdPeriph_Lib_V1.0.1/Libraries/STM32F4xx_StdPeriph_Driver/src/stm32f4xx_usart.c **** 
 118:../STLibs//STM32F4xx_DSP_StdPeriph_Lib_V1.0.1/Libraries/STM32F4xx_StdPeriph_Driver/src/stm32f4xx_usart.c **** /*!< USART Interrupts mask */
 119:../STLibs//STM32F4xx_DSP_StdPeriph_Lib_V1.0.1/Libraries/STM32F4xx_StdPeriph_Driver/src/stm32f4xx_usart.c **** #define IT_MASK                   ((uint16_t)0x001F)
 120:../STLibs//STM32F4xx_DSP_StdPeriph_Lib_V1.0.1/Libraries/STM32F4xx_StdPeriph_Driver/src/stm32f4xx_usart.c **** 
 121:../STLibs//STM32F4xx_DSP_StdPeriph_Lib_V1.0.1/Libraries/STM32F4xx_StdPeriph_Driver/src/stm32f4xx_usart.c **** /* Private macro -------------------------------------------------------------*/
 122:../STLibs//STM32F4xx_DSP_StdPeriph_Lib_V1.0.1/Libraries/STM32F4xx_StdPeriph_Driver/src/stm32f4xx_usart.c **** /* Private variables ---------------------------------------------------------*/
 123:../STLibs//STM32F4xx_DSP_StdPeriph_Lib_V1.0.1/Libraries/STM32F4xx_StdPeriph_Driver/src/stm32f4xx_usart.c **** /* Private function prototypes -----------------------------------------------*/
 124:../STLibs//STM32F4xx_DSP_StdPeriph_Lib_V1.0.1/Libraries/STM32F4xx_StdPeriph_Driver/src/stm32f4xx_usart.c **** /* Private functions ---------------------------------------------------------*/
 125:../STLibs//STM32F4xx_DSP_StdPeriph_Lib_V1.0.1/Libraries/STM32F4xx_StdPeriph_Driver/src/stm32f4xx_usart.c **** 
 126:../STLibs//STM32F4xx_DSP_StdPeriph_Lib_V1.0.1/Libraries/STM32F4xx_StdPeriph_Driver/src/stm32f4xx_usart.c **** /** @defgroup USART_Private_Functions
 127:../STLibs//STM32F4xx_DSP_StdPeriph_Lib_V1.0.1/Libraries/STM32F4xx_StdPeriph_Driver/src/stm32f4xx_usart.c ****   * @{
 128:../STLibs//STM32F4xx_DSP_StdPeriph_Lib_V1.0.1/Libraries/STM32F4xx_StdPeriph_Driver/src/stm32f4xx_usart.c ****   */
 129:../STLibs//STM32F4xx_DSP_StdPeriph_Lib_V1.0.1/Libraries/STM32F4xx_StdPeriph_Driver/src/stm32f4xx_usart.c **** 
 130:../STLibs//STM32F4xx_DSP_StdPeriph_Lib_V1.0.1/Libraries/STM32F4xx_StdPeriph_Driver/src/stm32f4xx_usart.c **** /** @defgroup USART_Group1 Initialization and Configuration functions
 131:../STLibs//STM32F4xx_DSP_StdPeriph_Lib_V1.0.1/Libraries/STM32F4xx_StdPeriph_Driver/src/stm32f4xx_usart.c ****  *  @brief   Initialization and Configuration functions 
 132:../STLibs//STM32F4xx_DSP_StdPeriph_Lib_V1.0.1/Libraries/STM32F4xx_StdPeriph_Driver/src/stm32f4xx_usart.c ****  *
 133:../STLibs//STM32F4xx_DSP_StdPeriph_Lib_V1.0.1/Libraries/STM32F4xx_StdPeriph_Driver/src/stm32f4xx_usart.c **** @verbatim   
 134:../STLibs//STM32F4xx_DSP_StdPeriph_Lib_V1.0.1/Libraries/STM32F4xx_StdPeriph_Driver/src/stm32f4xx_usart.c ****  ===============================================================================
 135:../STLibs//STM32F4xx_DSP_StdPeriph_Lib_V1.0.1/Libraries/STM32F4xx_StdPeriph_Driver/src/stm32f4xx_usart.c ****                   Initialization and Configuration functions
 136:../STLibs//STM32F4xx_DSP_StdPeriph_Lib_V1.0.1/Libraries/STM32F4xx_StdPeriph_Driver/src/stm32f4xx_usart.c ****  ===============================================================================  
 137:../STLibs//STM32F4xx_DSP_StdPeriph_Lib_V1.0.1/Libraries/STM32F4xx_StdPeriph_Driver/src/stm32f4xx_usart.c **** 
 138:../STLibs//STM32F4xx_DSP_StdPeriph_Lib_V1.0.1/Libraries/STM32F4xx_StdPeriph_Driver/src/stm32f4xx_usart.c ****   This subsection provides a set of functions allowing to initialize the USART 
 139:../STLibs//STM32F4xx_DSP_StdPeriph_Lib_V1.0.1/Libraries/STM32F4xx_StdPeriph_Driver/src/stm32f4xx_usart.c ****   in asynchronous and in synchronous modes.
 140:../STLibs//STM32F4xx_DSP_StdPeriph_Lib_V1.0.1/Libraries/STM32F4xx_StdPeriph_Driver/src/stm32f4xx_usart.c ****    - For the asynchronous mode only these parameters can be configured: 
 141:../STLibs//STM32F4xx_DSP_StdPeriph_Lib_V1.0.1/Libraries/STM32F4xx_StdPeriph_Driver/src/stm32f4xx_usart.c ****         - Baud Rate
 142:../STLibs//STM32F4xx_DSP_StdPeriph_Lib_V1.0.1/Libraries/STM32F4xx_StdPeriph_Driver/src/stm32f4xx_usart.c ****         - Word Length 
 143:../STLibs//STM32F4xx_DSP_StdPeriph_Lib_V1.0.1/Libraries/STM32F4xx_StdPeriph_Driver/src/stm32f4xx_usart.c ****         - Stop Bit
 144:../STLibs//STM32F4xx_DSP_StdPeriph_Lib_V1.0.1/Libraries/STM32F4xx_StdPeriph_Driver/src/stm32f4xx_usart.c ****         - Parity: If the parity is enabled, then the MSB bit of the data written
 145:../STLibs//STM32F4xx_DSP_StdPeriph_Lib_V1.0.1/Libraries/STM32F4xx_StdPeriph_Driver/src/stm32f4xx_usart.c ****           in the data register is transmitted but is changed by the parity bit.
 146:../STLibs//STM32F4xx_DSP_StdPeriph_Lib_V1.0.1/Libraries/STM32F4xx_StdPeriph_Driver/src/stm32f4xx_usart.c ****           Depending on the frame length defined by the M bit (8-bits or 9-bits),
 147:../STLibs//STM32F4xx_DSP_StdPeriph_Lib_V1.0.1/Libraries/STM32F4xx_StdPeriph_Driver/src/stm32f4xx_usart.c ****           the possible USART frame formats are as listed in the following table:
 148:../STLibs//STM32F4xx_DSP_StdPeriph_Lib_V1.0.1/Libraries/STM32F4xx_StdPeriph_Driver/src/stm32f4xx_usart.c ****    +-------------------------------------------------------------+     
 149:../STLibs//STM32F4xx_DSP_StdPeriph_Lib_V1.0.1/Libraries/STM32F4xx_StdPeriph_Driver/src/stm32f4xx_usart.c ****    |   M bit |  PCE bit  |            USART frame                |
 150:../STLibs//STM32F4xx_DSP_StdPeriph_Lib_V1.0.1/Libraries/STM32F4xx_StdPeriph_Driver/src/stm32f4xx_usart.c ****    |---------------------|---------------------------------------|             
 151:../STLibs//STM32F4xx_DSP_StdPeriph_Lib_V1.0.1/Libraries/STM32F4xx_StdPeriph_Driver/src/stm32f4xx_usart.c ****    |    0    |    0      |    | SB | 8 bit data | STB |          |
 152:../STLibs//STM32F4xx_DSP_StdPeriph_Lib_V1.0.1/Libraries/STM32F4xx_StdPeriph_Driver/src/stm32f4xx_usart.c ****    |---------|-----------|---------------------------------------|  
 153:../STLibs//STM32F4xx_DSP_StdPeriph_Lib_V1.0.1/Libraries/STM32F4xx_StdPeriph_Driver/src/stm32f4xx_usart.c ****    |    0    |    1      |    | SB | 7 bit data | PB | STB |     |
 154:../STLibs//STM32F4xx_DSP_StdPeriph_Lib_V1.0.1/Libraries/STM32F4xx_StdPeriph_Driver/src/stm32f4xx_usart.c ****    |---------|-----------|---------------------------------------|  
 155:../STLibs//STM32F4xx_DSP_StdPeriph_Lib_V1.0.1/Libraries/STM32F4xx_StdPeriph_Driver/src/stm32f4xx_usart.c ****    |    1    |    0      |    | SB | 9 bit data | STB |          |
 156:../STLibs//STM32F4xx_DSP_StdPeriph_Lib_V1.0.1/Libraries/STM32F4xx_StdPeriph_Driver/src/stm32f4xx_usart.c ****    |---------|-----------|---------------------------------------|  
 157:../STLibs//STM32F4xx_DSP_StdPeriph_Lib_V1.0.1/Libraries/STM32F4xx_StdPeriph_Driver/src/stm32f4xx_usart.c ****    |    1    |    1      |    | SB | 8 bit data | PB | STB |     |
 158:../STLibs//STM32F4xx_DSP_StdPeriph_Lib_V1.0.1/Libraries/STM32F4xx_StdPeriph_Driver/src/stm32f4xx_usart.c ****    +-------------------------------------------------------------+            
 159:../STLibs//STM32F4xx_DSP_StdPeriph_Lib_V1.0.1/Libraries/STM32F4xx_StdPeriph_Driver/src/stm32f4xx_usart.c ****         - Hardware flow control
 160:../STLibs//STM32F4xx_DSP_StdPeriph_Lib_V1.0.1/Libraries/STM32F4xx_StdPeriph_Driver/src/stm32f4xx_usart.c ****         - Receiver/transmitter modes
 161:../STLibs//STM32F4xx_DSP_StdPeriph_Lib_V1.0.1/Libraries/STM32F4xx_StdPeriph_Driver/src/stm32f4xx_usart.c **** 
 162:../STLibs//STM32F4xx_DSP_StdPeriph_Lib_V1.0.1/Libraries/STM32F4xx_StdPeriph_Driver/src/stm32f4xx_usart.c ****   The USART_Init() function follows the USART  asynchronous configuration procedure
 163:../STLibs//STM32F4xx_DSP_StdPeriph_Lib_V1.0.1/Libraries/STM32F4xx_StdPeriph_Driver/src/stm32f4xx_usart.c ****   (details for the procedure are available in reference manual (RM0090)).
 164:../STLibs//STM32F4xx_DSP_StdPeriph_Lib_V1.0.1/Libraries/STM32F4xx_StdPeriph_Driver/src/stm32f4xx_usart.c **** 
 165:../STLibs//STM32F4xx_DSP_StdPeriph_Lib_V1.0.1/Libraries/STM32F4xx_StdPeriph_Driver/src/stm32f4xx_usart.c ****   - For the synchronous mode in addition to the asynchronous mode parameters these 
 166:../STLibs//STM32F4xx_DSP_StdPeriph_Lib_V1.0.1/Libraries/STM32F4xx_StdPeriph_Driver/src/stm32f4xx_usart.c ****     parameters should be also configured:
 167:../STLibs//STM32F4xx_DSP_StdPeriph_Lib_V1.0.1/Libraries/STM32F4xx_StdPeriph_Driver/src/stm32f4xx_usart.c ****         - USART Clock Enabled
 168:../STLibs//STM32F4xx_DSP_StdPeriph_Lib_V1.0.1/Libraries/STM32F4xx_StdPeriph_Driver/src/stm32f4xx_usart.c ****         - USART polarity
 169:../STLibs//STM32F4xx_DSP_StdPeriph_Lib_V1.0.1/Libraries/STM32F4xx_StdPeriph_Driver/src/stm32f4xx_usart.c ****         - USART phase
 170:../STLibs//STM32F4xx_DSP_StdPeriph_Lib_V1.0.1/Libraries/STM32F4xx_StdPeriph_Driver/src/stm32f4xx_usart.c ****         - USART LastBit
 171:../STLibs//STM32F4xx_DSP_StdPeriph_Lib_V1.0.1/Libraries/STM32F4xx_StdPeriph_Driver/src/stm32f4xx_usart.c ****   
 172:../STLibs//STM32F4xx_DSP_StdPeriph_Lib_V1.0.1/Libraries/STM32F4xx_StdPeriph_Driver/src/stm32f4xx_usart.c ****   These parameters can be configured using the USART_ClockInit() function.
 173:../STLibs//STM32F4xx_DSP_StdPeriph_Lib_V1.0.1/Libraries/STM32F4xx_StdPeriph_Driver/src/stm32f4xx_usart.c **** 
 174:../STLibs//STM32F4xx_DSP_StdPeriph_Lib_V1.0.1/Libraries/STM32F4xx_StdPeriph_Driver/src/stm32f4xx_usart.c **** @endverbatim
 175:../STLibs//STM32F4xx_DSP_StdPeriph_Lib_V1.0.1/Libraries/STM32F4xx_StdPeriph_Driver/src/stm32f4xx_usart.c ****   * @{
 176:../STLibs//STM32F4xx_DSP_StdPeriph_Lib_V1.0.1/Libraries/STM32F4xx_StdPeriph_Driver/src/stm32f4xx_usart.c ****   */
 177:../STLibs//STM32F4xx_DSP_StdPeriph_Lib_V1.0.1/Libraries/STM32F4xx_StdPeriph_Driver/src/stm32f4xx_usart.c ****   
 178:../STLibs//STM32F4xx_DSP_StdPeriph_Lib_V1.0.1/Libraries/STM32F4xx_StdPeriph_Driver/src/stm32f4xx_usart.c **** /**
 179:../STLibs//STM32F4xx_DSP_StdPeriph_Lib_V1.0.1/Libraries/STM32F4xx_StdPeriph_Driver/src/stm32f4xx_usart.c ****   * @brief  Deinitializes the USARTx peripheral registers to their default reset values.
 180:../STLibs//STM32F4xx_DSP_StdPeriph_Lib_V1.0.1/Libraries/STM32F4xx_StdPeriph_Driver/src/stm32f4xx_usart.c ****   * @param  USARTx: where x can be 1, 2, 3, 4, 5 or 6 to select the USART or 
 181:../STLibs//STM32F4xx_DSP_StdPeriph_Lib_V1.0.1/Libraries/STM32F4xx_StdPeriph_Driver/src/stm32f4xx_usart.c ****   *         UART peripheral.
 182:../STLibs//STM32F4xx_DSP_StdPeriph_Lib_V1.0.1/Libraries/STM32F4xx_StdPeriph_Driver/src/stm32f4xx_usart.c ****   * @retval None
 183:../STLibs//STM32F4xx_DSP_StdPeriph_Lib_V1.0.1/Libraries/STM32F4xx_StdPeriph_Driver/src/stm32f4xx_usart.c ****   */
 184:../STLibs//STM32F4xx_DSP_StdPeriph_Lib_V1.0.1/Libraries/STM32F4xx_StdPeriph_Driver/src/stm32f4xx_usart.c **** void USART_DeInit(USART_TypeDef* USARTx)
 185:../STLibs//STM32F4xx_DSP_StdPeriph_Lib_V1.0.1/Libraries/STM32F4xx_StdPeriph_Driver/src/stm32f4xx_usart.c **** {
  26              		.loc 1 185 0
  27              		.cfi_startproc
  28              		@ args = 0, pretend = 0, frame = 0
  29              		@ frame_needed = 0, uses_anonymous_args = 0
  30              	.LVL0:
  31 0000 08B5     		push	{r3, lr}
  32              	.LCFI0:
  33              		.cfi_def_cfa_offset 8
  34              		.cfi_offset 3, -8
  35              		.cfi_offset 14, -4
 186:../STLibs//STM32F4xx_DSP_StdPeriph_Lib_V1.0.1/Libraries/STM32F4xx_StdPeriph_Driver/src/stm32f4xx_usart.c ****   /* Check the parameters */
 187:../STLibs//STM32F4xx_DSP_StdPeriph_Lib_V1.0.1/Libraries/STM32F4xx_StdPeriph_Driver/src/stm32f4xx_usart.c ****   assert_param(IS_USART_ALL_PERIPH(USARTx));
 188:../STLibs//STM32F4xx_DSP_StdPeriph_Lib_V1.0.1/Libraries/STM32F4xx_StdPeriph_Driver/src/stm32f4xx_usart.c **** 
 189:../STLibs//STM32F4xx_DSP_StdPeriph_Lib_V1.0.1/Libraries/STM32F4xx_StdPeriph_Driver/src/stm32f4xx_usart.c ****   if (USARTx == USART1)
  36              		.loc 1 189 0
  37 0002 254B     		ldr	r3, .L10
  38 0004 9842     		cmp	r0, r3
  39 0006 09D1     		bne	.L2
 190:../STLibs//STM32F4xx_DSP_StdPeriph_Lib_V1.0.1/Libraries/STM32F4xx_StdPeriph_Driver/src/stm32f4xx_usart.c ****   {
 191:../STLibs//STM32F4xx_DSP_StdPeriph_Lib_V1.0.1/Libraries/STM32F4xx_StdPeriph_Driver/src/stm32f4xx_usart.c ****     RCC_APB2PeriphResetCmd(RCC_APB2Periph_USART1, ENABLE);
  40              		.loc 1 191 0
  41 0008 0121     		movs	r1, #1
  42 000a 1020     		movs	r0, #16
  43              	.LVL1:
  44 000c FFF7FEFF 		bl	RCC_APB2PeriphResetCmd
  45              	.LVL2:
 192:../STLibs//STM32F4xx_DSP_StdPeriph_Lib_V1.0.1/Libraries/STM32F4xx_StdPeriph_Driver/src/stm32f4xx_usart.c ****     RCC_APB2PeriphResetCmd(RCC_APB2Periph_USART1, DISABLE);
  46              		.loc 1 192 0
  47 0010 0021     		movs	r1, #0
  48 0012 1020     		movs	r0, #16
  49              	.L8:
 193:../STLibs//STM32F4xx_DSP_StdPeriph_Lib_V1.0.1/Libraries/STM32F4xx_StdPeriph_Driver/src/stm32f4xx_usart.c ****   }
 194:../STLibs//STM32F4xx_DSP_StdPeriph_Lib_V1.0.1/Libraries/STM32F4xx_StdPeriph_Driver/src/stm32f4xx_usart.c ****   else if (USARTx == USART2)
 195:../STLibs//STM32F4xx_DSP_StdPeriph_Lib_V1.0.1/Libraries/STM32F4xx_StdPeriph_Driver/src/stm32f4xx_usart.c ****   {
 196:../STLibs//STM32F4xx_DSP_StdPeriph_Lib_V1.0.1/Libraries/STM32F4xx_StdPeriph_Driver/src/stm32f4xx_usart.c ****     RCC_APB1PeriphResetCmd(RCC_APB1Periph_USART2, ENABLE);
 197:../STLibs//STM32F4xx_DSP_StdPeriph_Lib_V1.0.1/Libraries/STM32F4xx_StdPeriph_Driver/src/stm32f4xx_usart.c ****     RCC_APB1PeriphResetCmd(RCC_APB1Periph_USART2, DISABLE);
 198:../STLibs//STM32F4xx_DSP_StdPeriph_Lib_V1.0.1/Libraries/STM32F4xx_StdPeriph_Driver/src/stm32f4xx_usart.c ****   }
 199:../STLibs//STM32F4xx_DSP_StdPeriph_Lib_V1.0.1/Libraries/STM32F4xx_StdPeriph_Driver/src/stm32f4xx_usart.c ****   else if (USARTx == USART3)
 200:../STLibs//STM32F4xx_DSP_StdPeriph_Lib_V1.0.1/Libraries/STM32F4xx_StdPeriph_Driver/src/stm32f4xx_usart.c ****   {
 201:../STLibs//STM32F4xx_DSP_StdPeriph_Lib_V1.0.1/Libraries/STM32F4xx_StdPeriph_Driver/src/stm32f4xx_usart.c ****     RCC_APB1PeriphResetCmd(RCC_APB1Periph_USART3, ENABLE);
 202:../STLibs//STM32F4xx_DSP_StdPeriph_Lib_V1.0.1/Libraries/STM32F4xx_StdPeriph_Driver/src/stm32f4xx_usart.c ****     RCC_APB1PeriphResetCmd(RCC_APB1Periph_USART3, DISABLE);
 203:../STLibs//STM32F4xx_DSP_StdPeriph_Lib_V1.0.1/Libraries/STM32F4xx_StdPeriph_Driver/src/stm32f4xx_usart.c ****   }    
 204:../STLibs//STM32F4xx_DSP_StdPeriph_Lib_V1.0.1/Libraries/STM32F4xx_StdPeriph_Driver/src/stm32f4xx_usart.c ****   else if (USARTx == UART4)
 205:../STLibs//STM32F4xx_DSP_StdPeriph_Lib_V1.0.1/Libraries/STM32F4xx_StdPeriph_Driver/src/stm32f4xx_usart.c ****   {
 206:../STLibs//STM32F4xx_DSP_StdPeriph_Lib_V1.0.1/Libraries/STM32F4xx_StdPeriph_Driver/src/stm32f4xx_usart.c ****     RCC_APB1PeriphResetCmd(RCC_APB1Periph_UART4, ENABLE);
 207:../STLibs//STM32F4xx_DSP_StdPeriph_Lib_V1.0.1/Libraries/STM32F4xx_StdPeriph_Driver/src/stm32f4xx_usart.c ****     RCC_APB1PeriphResetCmd(RCC_APB1Periph_UART4, DISABLE);
 208:../STLibs//STM32F4xx_DSP_StdPeriph_Lib_V1.0.1/Libraries/STM32F4xx_StdPeriph_Driver/src/stm32f4xx_usart.c ****   }
 209:../STLibs//STM32F4xx_DSP_StdPeriph_Lib_V1.0.1/Libraries/STM32F4xx_StdPeriph_Driver/src/stm32f4xx_usart.c ****   else if (USARTx == UART5)
 210:../STLibs//STM32F4xx_DSP_StdPeriph_Lib_V1.0.1/Libraries/STM32F4xx_StdPeriph_Driver/src/stm32f4xx_usart.c ****   {
 211:../STLibs//STM32F4xx_DSP_StdPeriph_Lib_V1.0.1/Libraries/STM32F4xx_StdPeriph_Driver/src/stm32f4xx_usart.c ****     RCC_APB1PeriphResetCmd(RCC_APB1Periph_UART5, ENABLE);
 212:../STLibs//STM32F4xx_DSP_StdPeriph_Lib_V1.0.1/Libraries/STM32F4xx_StdPeriph_Driver/src/stm32f4xx_usart.c ****     RCC_APB1PeriphResetCmd(RCC_APB1Periph_UART5, DISABLE);
 213:../STLibs//STM32F4xx_DSP_StdPeriph_Lib_V1.0.1/Libraries/STM32F4xx_StdPeriph_Driver/src/stm32f4xx_usart.c ****   }     
 214:../STLibs//STM32F4xx_DSP_StdPeriph_Lib_V1.0.1/Libraries/STM32F4xx_StdPeriph_Driver/src/stm32f4xx_usart.c ****   else
 215:../STLibs//STM32F4xx_DSP_StdPeriph_Lib_V1.0.1/Libraries/STM32F4xx_StdPeriph_Driver/src/stm32f4xx_usart.c ****   {
 216:../STLibs//STM32F4xx_DSP_StdPeriph_Lib_V1.0.1/Libraries/STM32F4xx_StdPeriph_Driver/src/stm32f4xx_usart.c ****     if (USARTx == USART6)
 217:../STLibs//STM32F4xx_DSP_StdPeriph_Lib_V1.0.1/Libraries/STM32F4xx_StdPeriph_Driver/src/stm32f4xx_usart.c ****     { 
 218:../STLibs//STM32F4xx_DSP_StdPeriph_Lib_V1.0.1/Libraries/STM32F4xx_StdPeriph_Driver/src/stm32f4xx_usart.c ****       RCC_APB2PeriphResetCmd(RCC_APB2Periph_USART6, ENABLE);
 219:../STLibs//STM32F4xx_DSP_StdPeriph_Lib_V1.0.1/Libraries/STM32F4xx_StdPeriph_Driver/src/stm32f4xx_usart.c ****       RCC_APB2PeriphResetCmd(RCC_APB2Periph_USART6, DISABLE);
 220:../STLibs//STM32F4xx_DSP_StdPeriph_Lib_V1.0.1/Libraries/STM32F4xx_StdPeriph_Driver/src/stm32f4xx_usart.c ****     }
 221:../STLibs//STM32F4xx_DSP_StdPeriph_Lib_V1.0.1/Libraries/STM32F4xx_StdPeriph_Driver/src/stm32f4xx_usart.c ****   }
 222:../STLibs//STM32F4xx_DSP_StdPeriph_Lib_V1.0.1/Libraries/STM32F4xx_StdPeriph_Driver/src/stm32f4xx_usart.c **** }
  50              		.loc 1 222 0
  51 0014 BDE80840 		pop	{r3, lr}
  52              	.LCFI1:
  53              		.cfi_remember_state
  54              		.cfi_restore 14
  55              		.cfi_restore 3
  56              		.cfi_def_cfa_offset 0
 219:../STLibs//STM32F4xx_DSP_StdPeriph_Lib_V1.0.1/Libraries/STM32F4xx_StdPeriph_Driver/src/stm32f4xx_usart.c ****     }
  57              		.loc 1 219 0
  58 0018 FFF7FEBF 		b	RCC_APB2PeriphResetCmd
  59              	.LVL3:
  60              	.L2:
  61              	.LCFI2:
  62              		.cfi_restore_state
 194:../STLibs//STM32F4xx_DSP_StdPeriph_Lib_V1.0.1/Libraries/STM32F4xx_StdPeriph_Driver/src/stm32f4xx_usart.c ****   {
  63              		.loc 1 194 0
  64 001c 1F4B     		ldr	r3, .L10+4
  65 001e 9842     		cmp	r0, r3
  66 0020 0BD1     		bne	.L3
 196:../STLibs//STM32F4xx_DSP_StdPeriph_Lib_V1.0.1/Libraries/STM32F4xx_StdPeriph_Driver/src/stm32f4xx_usart.c ****     RCC_APB1PeriphResetCmd(RCC_APB1Periph_USART2, DISABLE);
  67              		.loc 1 196 0
  68 0022 0121     		movs	r1, #1
  69 0024 4FF40030 		mov	r0, #131072
  70              	.LVL4:
  71 0028 FFF7FEFF 		bl	RCC_APB1PeriphResetCmd
  72              	.LVL5:
 197:../STLibs//STM32F4xx_DSP_StdPeriph_Lib_V1.0.1/Libraries/STM32F4xx_StdPeriph_Driver/src/stm32f4xx_usart.c ****   }
  73              		.loc 1 197 0
  74 002c 0021     		movs	r1, #0
  75 002e 4FF40030 		mov	r0, #131072
  76              	.L9:
  77              		.loc 1 222 0
  78 0032 BDE80840 		pop	{r3, lr}
  79              	.LCFI3:
  80              		.cfi_remember_state
  81              		.cfi_restore 14
  82              		.cfi_restore 3
  83              		.cfi_def_cfa_offset 0
 202:../STLibs//STM32F4xx_DSP_StdPeriph_Lib_V1.0.1/Libraries/STM32F4xx_StdPeriph_Driver/src/stm32f4xx_usart.c ****   }    
  84              		.loc 1 202 0
  85 0036 FFF7FEBF 		b	RCC_APB1PeriphResetCmd
  86              	.LVL6:
  87              	.L3:
  88              	.LCFI4:
  89              		.cfi_restore_state
 199:../STLibs//STM32F4xx_DSP_StdPeriph_Lib_V1.0.1/Libraries/STM32F4xx_StdPeriph_Driver/src/stm32f4xx_usart.c ****   {
  90              		.loc 1 199 0
  91 003a 194B     		ldr	r3, .L10+8
  92 003c 9842     		cmp	r0, r3
  93 003e 08D1     		bne	.L4
 201:../STLibs//STM32F4xx_DSP_StdPeriph_Lib_V1.0.1/Libraries/STM32F4xx_StdPeriph_Driver/src/stm32f4xx_usart.c ****     RCC_APB1PeriphResetCmd(RCC_APB1Periph_USART3, DISABLE);
  94              		.loc 1 201 0
  95 0040 0121     		movs	r1, #1
  96 0042 4FF48020 		mov	r0, #262144
  97              	.LVL7:
  98 0046 FFF7FEFF 		bl	RCC_APB1PeriphResetCmd
  99              	.LVL8:
 202:../STLibs//STM32F4xx_DSP_StdPeriph_Lib_V1.0.1/Libraries/STM32F4xx_StdPeriph_Driver/src/stm32f4xx_usart.c ****   }    
 100              		.loc 1 202 0
 101 004a 0021     		movs	r1, #0
 102 004c 4FF48020 		mov	r0, #262144
 103 0050 EFE7     		b	.L9
 104              	.LVL9:
 105              	.L4:
 204:../STLibs//STM32F4xx_DSP_StdPeriph_Lib_V1.0.1/Libraries/STM32F4xx_StdPeriph_Driver/src/stm32f4xx_usart.c ****   {
 106              		.loc 1 204 0
 107 0052 144B     		ldr	r3, .L10+12
 108 0054 9842     		cmp	r0, r3
 109 0056 08D1     		bne	.L5
 206:../STLibs//STM32F4xx_DSP_StdPeriph_Lib_V1.0.1/Libraries/STM32F4xx_StdPeriph_Driver/src/stm32f4xx_usart.c ****     RCC_APB1PeriphResetCmd(RCC_APB1Periph_UART4, DISABLE);
 110              		.loc 1 206 0
 111 0058 0121     		movs	r1, #1
 112 005a 4FF40020 		mov	r0, #524288
 113              	.LVL10:
 114 005e FFF7FEFF 		bl	RCC_APB1PeriphResetCmd
 115              	.LVL11:
 207:../STLibs//STM32F4xx_DSP_StdPeriph_Lib_V1.0.1/Libraries/STM32F4xx_StdPeriph_Driver/src/stm32f4xx_usart.c ****   }
 116              		.loc 1 207 0
 117 0062 0021     		movs	r1, #0
 118 0064 4FF40020 		mov	r0, #524288
 119 0068 E3E7     		b	.L9
 120              	.LVL12:
 121              	.L5:
 209:../STLibs//STM32F4xx_DSP_StdPeriph_Lib_V1.0.1/Libraries/STM32F4xx_StdPeriph_Driver/src/stm32f4xx_usart.c ****   {
 122              		.loc 1 209 0
 123 006a 0F4B     		ldr	r3, .L10+16
 124 006c 9842     		cmp	r0, r3
 125 006e 08D1     		bne	.L6
 211:../STLibs//STM32F4xx_DSP_StdPeriph_Lib_V1.0.1/Libraries/STM32F4xx_StdPeriph_Driver/src/stm32f4xx_usart.c ****     RCC_APB1PeriphResetCmd(RCC_APB1Periph_UART5, DISABLE);
 126              		.loc 1 211 0
 127 0070 0121     		movs	r1, #1
 128 0072 4FF48010 		mov	r0, #1048576
 129              	.LVL13:
 130 0076 FFF7FEFF 		bl	RCC_APB1PeriphResetCmd
 131              	.LVL14:
 212:../STLibs//STM32F4xx_DSP_StdPeriph_Lib_V1.0.1/Libraries/STM32F4xx_StdPeriph_Driver/src/stm32f4xx_usart.c ****   }     
 132              		.loc 1 212 0
 133 007a 0021     		movs	r1, #0
 134 007c 4FF48010 		mov	r0, #1048576
 135 0080 D7E7     		b	.L9
 136              	.LVL15:
 137              	.L6:
 216:../STLibs//STM32F4xx_DSP_StdPeriph_Lib_V1.0.1/Libraries/STM32F4xx_StdPeriph_Driver/src/stm32f4xx_usart.c ****     { 
 138              		.loc 1 216 0
 139 0082 0A4B     		ldr	r3, .L10+20
 140 0084 9842     		cmp	r0, r3
 141 0086 06D1     		bne	.L1
 218:../STLibs//STM32F4xx_DSP_StdPeriph_Lib_V1.0.1/Libraries/STM32F4xx_StdPeriph_Driver/src/stm32f4xx_usart.c ****       RCC_APB2PeriphResetCmd(RCC_APB2Periph_USART6, DISABLE);
 142              		.loc 1 218 0
 143 0088 0121     		movs	r1, #1
 144 008a 2020     		movs	r0, #32
 145              	.LVL16:
 146 008c FFF7FEFF 		bl	RCC_APB2PeriphResetCmd
 147              	.LVL17:
 219:../STLibs//STM32F4xx_DSP_StdPeriph_Lib_V1.0.1/Libraries/STM32F4xx_StdPeriph_Driver/src/stm32f4xx_usart.c ****     }
 148              		.loc 1 219 0
 149 0090 0021     		movs	r1, #0
 150 0092 2020     		movs	r0, #32
 151 0094 BEE7     		b	.L8
 152              	.LVL18:
 153              	.L1:
 154              		.loc 1 222 0
 155 0096 08BD     		pop	{r3, pc}
 156              	.L11:
 157              		.align	2
 158              	.L10:
 159 0098 00100140 		.word	1073811456
 160 009c 00440040 		.word	1073759232
 161 00a0 00480040 		.word	1073760256
 162 00a4 004C0040 		.word	1073761280
 163 00a8 00500040 		.word	1073762304
 164 00ac 00140140 		.word	1073812480
 165              		.cfi_endproc
 166              	.LFE110:
 168              		.align	1
 169              		.global	USART_Init
 170              		.syntax unified
 171              		.thumb
 172              		.thumb_func
 173              		.fpu fpv4-sp-d16
 175              	USART_Init:
 176              	.LFB111:
 223:../STLibs//STM32F4xx_DSP_StdPeriph_Lib_V1.0.1/Libraries/STM32F4xx_StdPeriph_Driver/src/stm32f4xx_usart.c **** 
 224:../STLibs//STM32F4xx_DSP_StdPeriph_Lib_V1.0.1/Libraries/STM32F4xx_StdPeriph_Driver/src/stm32f4xx_usart.c **** /**
 225:../STLibs//STM32F4xx_DSP_StdPeriph_Lib_V1.0.1/Libraries/STM32F4xx_StdPeriph_Driver/src/stm32f4xx_usart.c ****   * @brief  Initializes the USARTx peripheral according to the specified
 226:../STLibs//STM32F4xx_DSP_StdPeriph_Lib_V1.0.1/Libraries/STM32F4xx_StdPeriph_Driver/src/stm32f4xx_usart.c ****   *         parameters in the USART_InitStruct .
 227:../STLibs//STM32F4xx_DSP_StdPeriph_Lib_V1.0.1/Libraries/STM32F4xx_StdPeriph_Driver/src/stm32f4xx_usart.c ****   * @param  USARTx: where x can be 1, 2, 3, 4, 5 or 6 to select the USART or 
 228:../STLibs//STM32F4xx_DSP_StdPeriph_Lib_V1.0.1/Libraries/STM32F4xx_StdPeriph_Driver/src/stm32f4xx_usart.c ****   *         UART peripheral.
 229:../STLibs//STM32F4xx_DSP_StdPeriph_Lib_V1.0.1/Libraries/STM32F4xx_StdPeriph_Driver/src/stm32f4xx_usart.c ****   * @param  USART_InitStruct: pointer to a USART_InitTypeDef structure that contains
 230:../STLibs//STM32F4xx_DSP_StdPeriph_Lib_V1.0.1/Libraries/STM32F4xx_StdPeriph_Driver/src/stm32f4xx_usart.c ****   *         the configuration information for the specified USART peripheral.
 231:../STLibs//STM32F4xx_DSP_StdPeriph_Lib_V1.0.1/Libraries/STM32F4xx_StdPeriph_Driver/src/stm32f4xx_usart.c ****   * @retval None
 232:../STLibs//STM32F4xx_DSP_StdPeriph_Lib_V1.0.1/Libraries/STM32F4xx_StdPeriph_Driver/src/stm32f4xx_usart.c ****   */
 233:../STLibs//STM32F4xx_DSP_StdPeriph_Lib_V1.0.1/Libraries/STM32F4xx_StdPeriph_Driver/src/stm32f4xx_usart.c **** void USART_Init(USART_TypeDef* USARTx, USART_InitTypeDef* USART_InitStruct)
 234:../STLibs//STM32F4xx_DSP_StdPeriph_Lib_V1.0.1/Libraries/STM32F4xx_StdPeriph_Driver/src/stm32f4xx_usart.c **** {
 177              		.loc 1 234 0
 178              		.cfi_startproc
 179              		@ args = 0, pretend = 0, frame = 16
 180              		@ frame_needed = 0, uses_anonymous_args = 0
 181              	.LVL19:
 235:../STLibs//STM32F4xx_DSP_StdPeriph_Lib_V1.0.1/Libraries/STM32F4xx_StdPeriph_Driver/src/stm32f4xx_usart.c ****   uint32_t tmpreg = 0x00, apbclock = 0x00;
 236:../STLibs//STM32F4xx_DSP_StdPeriph_Lib_V1.0.1/Libraries/STM32F4xx_StdPeriph_Driver/src/stm32f4xx_usart.c ****   uint32_t integerdivider = 0x00;
 237:../STLibs//STM32F4xx_DSP_StdPeriph_Lib_V1.0.1/Libraries/STM32F4xx_StdPeriph_Driver/src/stm32f4xx_usart.c ****   uint32_t fractionaldivider = 0x00;
 238:../STLibs//STM32F4xx_DSP_StdPeriph_Lib_V1.0.1/Libraries/STM32F4xx_StdPeriph_Driver/src/stm32f4xx_usart.c ****   RCC_ClocksTypeDef RCC_ClocksStatus;
 239:../STLibs//STM32F4xx_DSP_StdPeriph_Lib_V1.0.1/Libraries/STM32F4xx_StdPeriph_Driver/src/stm32f4xx_usart.c **** 
 240:../STLibs//STM32F4xx_DSP_StdPeriph_Lib_V1.0.1/Libraries/STM32F4xx_StdPeriph_Driver/src/stm32f4xx_usart.c ****   /* Check the parameters */
 241:../STLibs//STM32F4xx_DSP_StdPeriph_Lib_V1.0.1/Libraries/STM32F4xx_StdPeriph_Driver/src/stm32f4xx_usart.c ****   assert_param(IS_USART_ALL_PERIPH(USARTx));
 242:../STLibs//STM32F4xx_DSP_StdPeriph_Lib_V1.0.1/Libraries/STM32F4xx_StdPeriph_Driver/src/stm32f4xx_usart.c ****   assert_param(IS_USART_BAUDRATE(USART_InitStruct->USART_BaudRate));  
 243:../STLibs//STM32F4xx_DSP_StdPeriph_Lib_V1.0.1/Libraries/STM32F4xx_StdPeriph_Driver/src/stm32f4xx_usart.c ****   assert_param(IS_USART_WORD_LENGTH(USART_InitStruct->USART_WordLength));
 244:../STLibs//STM32F4xx_DSP_StdPeriph_Lib_V1.0.1/Libraries/STM32F4xx_StdPeriph_Driver/src/stm32f4xx_usart.c ****   assert_param(IS_USART_STOPBITS(USART_InitStruct->USART_StopBits));
 245:../STLibs//STM32F4xx_DSP_StdPeriph_Lib_V1.0.1/Libraries/STM32F4xx_StdPeriph_Driver/src/stm32f4xx_usart.c ****   assert_param(IS_USART_PARITY(USART_InitStruct->USART_Parity));
 246:../STLibs//STM32F4xx_DSP_StdPeriph_Lib_V1.0.1/Libraries/STM32F4xx_StdPeriph_Driver/src/stm32f4xx_usart.c ****   assert_param(IS_USART_MODE(USART_InitStruct->USART_Mode));
 247:../STLibs//STM32F4xx_DSP_StdPeriph_Lib_V1.0.1/Libraries/STM32F4xx_StdPeriph_Driver/src/stm32f4xx_usart.c ****   assert_param(IS_USART_HARDWARE_FLOW_CONTROL(USART_InitStruct->USART_HardwareFlowControl));
 248:../STLibs//STM32F4xx_DSP_StdPeriph_Lib_V1.0.1/Libraries/STM32F4xx_StdPeriph_Driver/src/stm32f4xx_usart.c **** 
 249:../STLibs//STM32F4xx_DSP_StdPeriph_Lib_V1.0.1/Libraries/STM32F4xx_StdPeriph_Driver/src/stm32f4xx_usart.c ****   /* The hardware flow control is available only for USART1, USART2, USART3 and USART6 */
 250:../STLibs//STM32F4xx_DSP_StdPeriph_Lib_V1.0.1/Libraries/STM32F4xx_StdPeriph_Driver/src/stm32f4xx_usart.c ****   if (USART_InitStruct->USART_HardwareFlowControl != USART_HardwareFlowControl_None)
 251:../STLibs//STM32F4xx_DSP_StdPeriph_Lib_V1.0.1/Libraries/STM32F4xx_StdPeriph_Driver/src/stm32f4xx_usart.c ****   {
 252:../STLibs//STM32F4xx_DSP_StdPeriph_Lib_V1.0.1/Libraries/STM32F4xx_StdPeriph_Driver/src/stm32f4xx_usart.c ****     assert_param(IS_USART_1236_PERIPH(USARTx));
 253:../STLibs//STM32F4xx_DSP_StdPeriph_Lib_V1.0.1/Libraries/STM32F4xx_StdPeriph_Driver/src/stm32f4xx_usart.c ****   }
 254:../STLibs//STM32F4xx_DSP_StdPeriph_Lib_V1.0.1/Libraries/STM32F4xx_StdPeriph_Driver/src/stm32f4xx_usart.c **** 
 255:../STLibs//STM32F4xx_DSP_StdPeriph_Lib_V1.0.1/Libraries/STM32F4xx_StdPeriph_Driver/src/stm32f4xx_usart.c **** /*---------------------------- USART CR2 Configuration -----------------------*/
 256:../STLibs//STM32F4xx_DSP_StdPeriph_Lib_V1.0.1/Libraries/STM32F4xx_StdPeriph_Driver/src/stm32f4xx_usart.c ****   tmpreg = USARTx->CR2;
 182              		.loc 1 256 0
 183 00b0 028A     		ldrh	r2, [r0, #16]
 234:../STLibs//STM32F4xx_DSP_StdPeriph_Lib_V1.0.1/Libraries/STM32F4xx_StdPeriph_Driver/src/stm32f4xx_usart.c ****   uint32_t tmpreg = 0x00, apbclock = 0x00;
 184              		.loc 1 234 0
 185 00b2 30B5     		push	{r4, r5, lr}
 186              	.LCFI5:
 187              		.cfi_def_cfa_offset 12
 188              		.cfi_offset 4, -12
 189              		.cfi_offset 5, -8
 190              		.cfi_offset 14, -4
 191 00b4 0D46     		mov	r5, r1
 192              		.loc 1 256 0
 193 00b6 92B2     		uxth	r2, r2
 194              	.LVL20:
 257:../STLibs//STM32F4xx_DSP_StdPeriph_Lib_V1.0.1/Libraries/STM32F4xx_StdPeriph_Driver/src/stm32f4xx_usart.c **** 
 258:../STLibs//STM32F4xx_DSP_StdPeriph_Lib_V1.0.1/Libraries/STM32F4xx_StdPeriph_Driver/src/stm32f4xx_usart.c ****   /* Clear STOP[13:12] bits */
 259:../STLibs//STM32F4xx_DSP_StdPeriph_Lib_V1.0.1/Libraries/STM32F4xx_StdPeriph_Driver/src/stm32f4xx_usart.c ****   tmpreg &= (uint32_t)~((uint32_t)USART_CR2_STOP);
 260:../STLibs//STM32F4xx_DSP_StdPeriph_Lib_V1.0.1/Libraries/STM32F4xx_StdPeriph_Driver/src/stm32f4xx_usart.c **** 
 261:../STLibs//STM32F4xx_DSP_StdPeriph_Lib_V1.0.1/Libraries/STM32F4xx_StdPeriph_Driver/src/stm32f4xx_usart.c ****   /* Configure the USART Stop Bits, Clock, CPOL, CPHA and LastBit :
 262:../STLibs//STM32F4xx_DSP_StdPeriph_Lib_V1.0.1/Libraries/STM32F4xx_StdPeriph_Driver/src/stm32f4xx_usart.c ****       Set STOP[13:12] bits according to USART_StopBits value */
 263:../STLibs//STM32F4xx_DSP_StdPeriph_Lib_V1.0.1/Libraries/STM32F4xx_StdPeriph_Driver/src/stm32f4xx_usart.c ****   tmpreg |= (uint32_t)USART_InitStruct->USART_StopBits;
 195              		.loc 1 263 0
 196 00b8 EB88     		ldrh	r3, [r5, #6]
 250:../STLibs//STM32F4xx_DSP_StdPeriph_Lib_V1.0.1/Libraries/STM32F4xx_StdPeriph_Driver/src/stm32f4xx_usart.c ****   {
 197              		.loc 1 250 0
 198 00ba 8989     		ldrh	r1, [r1, #12]
 199              	.LVL21:
 259:../STLibs//STM32F4xx_DSP_StdPeriph_Lib_V1.0.1/Libraries/STM32F4xx_StdPeriph_Driver/src/stm32f4xx_usart.c **** 
 200              		.loc 1 259 0
 201 00bc 22F44052 		bic	r2, r2, #12288
 202              	.LVL22:
 264:../STLibs//STM32F4xx_DSP_StdPeriph_Lib_V1.0.1/Libraries/STM32F4xx_StdPeriph_Driver/src/stm32f4xx_usart.c ****   
 265:../STLibs//STM32F4xx_DSP_StdPeriph_Lib_V1.0.1/Libraries/STM32F4xx_StdPeriph_Driver/src/stm32f4xx_usart.c ****   /* Write to USART CR2 */
 266:../STLibs//STM32F4xx_DSP_StdPeriph_Lib_V1.0.1/Libraries/STM32F4xx_StdPeriph_Driver/src/stm32f4xx_usart.c ****   USARTx->CR2 = (uint16_t)tmpreg;
 203              		.loc 1 266 0
 204 00c0 1A43     		orrs	r2, r2, r3
 205              	.LVL23:
 206 00c2 0282     		strh	r2, [r0, #16]	@ movhi
 267:../STLibs//STM32F4xx_DSP_StdPeriph_Lib_V1.0.1/Libraries/STM32F4xx_StdPeriph_Driver/src/stm32f4xx_usart.c **** 
 268:../STLibs//STM32F4xx_DSP_StdPeriph_Lib_V1.0.1/Libraries/STM32F4xx_StdPeriph_Driver/src/stm32f4xx_usart.c **** /*---------------------------- USART CR1 Configuration -----------------------*/
 269:../STLibs//STM32F4xx_DSP_StdPeriph_Lib_V1.0.1/Libraries/STM32F4xx_StdPeriph_Driver/src/stm32f4xx_usart.c ****   tmpreg = USARTx->CR1;
 207              		.loc 1 269 0
 208 00c4 8389     		ldrh	r3, [r0, #12]
 209              	.LVL24:
 234:../STLibs//STM32F4xx_DSP_StdPeriph_Lib_V1.0.1/Libraries/STM32F4xx_StdPeriph_Driver/src/stm32f4xx_usart.c ****   uint32_t tmpreg = 0x00, apbclock = 0x00;
 210              		.loc 1 234 0
 211 00c6 0446     		mov	r4, r0
 270:../STLibs//STM32F4xx_DSP_StdPeriph_Lib_V1.0.1/Libraries/STM32F4xx_StdPeriph_Driver/src/stm32f4xx_usart.c **** 
 271:../STLibs//STM32F4xx_DSP_StdPeriph_Lib_V1.0.1/Libraries/STM32F4xx_StdPeriph_Driver/src/stm32f4xx_usart.c ****   /* Clear M, PCE, PS, TE and RE bits */
 272:../STLibs//STM32F4xx_DSP_StdPeriph_Lib_V1.0.1/Libraries/STM32F4xx_StdPeriph_Driver/src/stm32f4xx_usart.c ****   tmpreg &= (uint32_t)~((uint32_t)CR1_CLEAR_MASK);
 212              		.loc 1 272 0
 213 00c8 23F4B052 		bic	r2, r3, #5632
 273:../STLibs//STM32F4xx_DSP_StdPeriph_Lib_V1.0.1/Libraries/STM32F4xx_StdPeriph_Driver/src/stm32f4xx_usart.c **** 
 274:../STLibs//STM32F4xx_DSP_StdPeriph_Lib_V1.0.1/Libraries/STM32F4xx_StdPeriph_Driver/src/stm32f4xx_usart.c ****   /* Configure the USART Word Length, Parity and mode: 
 275:../STLibs//STM32F4xx_DSP_StdPeriph_Lib_V1.0.1/Libraries/STM32F4xx_StdPeriph_Driver/src/stm32f4xx_usart.c ****      Set the M bits according to USART_WordLength value 
 276:../STLibs//STM32F4xx_DSP_StdPeriph_Lib_V1.0.1/Libraries/STM32F4xx_StdPeriph_Driver/src/stm32f4xx_usart.c ****      Set PCE and PS bits according to USART_Parity value
 277:../STLibs//STM32F4xx_DSP_StdPeriph_Lib_V1.0.1/Libraries/STM32F4xx_StdPeriph_Driver/src/stm32f4xx_usart.c ****      Set TE and RE bits according to USART_Mode value */
 278:../STLibs//STM32F4xx_DSP_StdPeriph_Lib_V1.0.1/Libraries/STM32F4xx_StdPeriph_Driver/src/stm32f4xx_usart.c ****   tmpreg |= (uint32_t)USART_InitStruct->USART_WordLength | USART_InitStruct->USART_Parity |
 214              		.loc 1 278 0
 215 00cc 2889     		ldrh	r0, [r5, #8]
 216              	.LVL25:
 217 00ce AB88     		ldrh	r3, [r5, #4]
 218              	.LVL26:
 219 00d0 0343     		orrs	r3, r3, r0
 220 00d2 6889     		ldrh	r0, [r5, #10]
 272:../STLibs//STM32F4xx_DSP_StdPeriph_Lib_V1.0.1/Libraries/STM32F4xx_StdPeriph_Driver/src/stm32f4xx_usart.c **** 
 221              		.loc 1 272 0
 222 00d4 22F00C02 		bic	r2, r2, #12
 223              	.LVL27:
 224              		.loc 1 278 0
 225 00d8 0343     		orrs	r3, r3, r0
 279:../STLibs//STM32F4xx_DSP_StdPeriph_Lib_V1.0.1/Libraries/STM32F4xx_StdPeriph_Driver/src/stm32f4xx_usart.c ****             USART_InitStruct->USART_Mode;
 280:../STLibs//STM32F4xx_DSP_StdPeriph_Lib_V1.0.1/Libraries/STM32F4xx_StdPeriph_Driver/src/stm32f4xx_usart.c **** 
 281:../STLibs//STM32F4xx_DSP_StdPeriph_Lib_V1.0.1/Libraries/STM32F4xx_StdPeriph_Driver/src/stm32f4xx_usart.c ****   /* Write to USART CR1 */
 282:../STLibs//STM32F4xx_DSP_StdPeriph_Lib_V1.0.1/Libraries/STM32F4xx_StdPeriph_Driver/src/stm32f4xx_usart.c ****   USARTx->CR1 = (uint16_t)tmpreg;
 226              		.loc 1 282 0
 227 00da 1343     		orrs	r3, r3, r2
 228 00dc A381     		strh	r3, [r4, #12]	@ movhi
 283:../STLibs//STM32F4xx_DSP_StdPeriph_Lib_V1.0.1/Libraries/STM32F4xx_StdPeriph_Driver/src/stm32f4xx_usart.c **** 
 284:../STLibs//STM32F4xx_DSP_StdPeriph_Lib_V1.0.1/Libraries/STM32F4xx_StdPeriph_Driver/src/stm32f4xx_usart.c **** /*---------------------------- USART CR3 Configuration -----------------------*/  
 285:../STLibs//STM32F4xx_DSP_StdPeriph_Lib_V1.0.1/Libraries/STM32F4xx_StdPeriph_Driver/src/stm32f4xx_usart.c ****   tmpreg = USARTx->CR3;
 229              		.loc 1 285 0
 230 00de A38A     		ldrh	r3, [r4, #20]
 231 00e0 9BB2     		uxth	r3, r3
 232              	.LVL28:
 286:../STLibs//STM32F4xx_DSP_StdPeriph_Lib_V1.0.1/Libraries/STM32F4xx_StdPeriph_Driver/src/stm32f4xx_usart.c **** 
 287:../STLibs//STM32F4xx_DSP_StdPeriph_Lib_V1.0.1/Libraries/STM32F4xx_StdPeriph_Driver/src/stm32f4xx_usart.c ****   /* Clear CTSE and RTSE bits */
 288:../STLibs//STM32F4xx_DSP_StdPeriph_Lib_V1.0.1/Libraries/STM32F4xx_StdPeriph_Driver/src/stm32f4xx_usart.c ****   tmpreg &= (uint32_t)~((uint32_t)CR3_CLEAR_MASK);
 233              		.loc 1 288 0
 234 00e2 23F44073 		bic	r3, r3, #768
 235              	.LVL29:
 289:../STLibs//STM32F4xx_DSP_StdPeriph_Lib_V1.0.1/Libraries/STM32F4xx_StdPeriph_Driver/src/stm32f4xx_usart.c **** 
 290:../STLibs//STM32F4xx_DSP_StdPeriph_Lib_V1.0.1/Libraries/STM32F4xx_StdPeriph_Driver/src/stm32f4xx_usart.c ****   /* Configure the USART HFC : 
 291:../STLibs//STM32F4xx_DSP_StdPeriph_Lib_V1.0.1/Libraries/STM32F4xx_StdPeriph_Driver/src/stm32f4xx_usart.c ****       Set CTSE and RTSE bits according to USART_HardwareFlowControl value */
 292:../STLibs//STM32F4xx_DSP_StdPeriph_Lib_V1.0.1/Libraries/STM32F4xx_StdPeriph_Driver/src/stm32f4xx_usart.c ****   tmpreg |= USART_InitStruct->USART_HardwareFlowControl;
 293:../STLibs//STM32F4xx_DSP_StdPeriph_Lib_V1.0.1/Libraries/STM32F4xx_StdPeriph_Driver/src/stm32f4xx_usart.c **** 
 294:../STLibs//STM32F4xx_DSP_StdPeriph_Lib_V1.0.1/Libraries/STM32F4xx_StdPeriph_Driver/src/stm32f4xx_usart.c ****   /* Write to USART CR3 */
 295:../STLibs//STM32F4xx_DSP_StdPeriph_Lib_V1.0.1/Libraries/STM32F4xx_StdPeriph_Driver/src/stm32f4xx_usart.c ****   USARTx->CR3 = (uint16_t)tmpreg;
 236              		.loc 1 295 0
 237 00e6 0B43     		orrs	r3, r3, r1
 238              	.LVL30:
 234:../STLibs//STM32F4xx_DSP_StdPeriph_Lib_V1.0.1/Libraries/STM32F4xx_StdPeriph_Driver/src/stm32f4xx_usart.c ****   uint32_t tmpreg = 0x00, apbclock = 0x00;
 239              		.loc 1 234 0
 240 00e8 85B0     		sub	sp, sp, #20
 241              	.LCFI6:
 242              		.cfi_def_cfa_offset 32
 243              		.loc 1 295 0
 244 00ea A382     		strh	r3, [r4, #20]	@ movhi
 296:../STLibs//STM32F4xx_DSP_StdPeriph_Lib_V1.0.1/Libraries/STM32F4xx_StdPeriph_Driver/src/stm32f4xx_usart.c **** 
 297:../STLibs//STM32F4xx_DSP_StdPeriph_Lib_V1.0.1/Libraries/STM32F4xx_StdPeriph_Driver/src/stm32f4xx_usart.c **** /*---------------------------- USART BRR Configuration -----------------------*/
 298:../STLibs//STM32F4xx_DSP_StdPeriph_Lib_V1.0.1/Libraries/STM32F4xx_StdPeriph_Driver/src/stm32f4xx_usart.c ****   /* Configure the USART Baud Rate */
 299:../STLibs//STM32F4xx_DSP_StdPeriph_Lib_V1.0.1/Libraries/STM32F4xx_StdPeriph_Driver/src/stm32f4xx_usart.c ****   RCC_GetClocksFreq(&RCC_ClocksStatus);
 245              		.loc 1 299 0
 246 00ec 6846     		mov	r0, sp
 247 00ee FFF7FEFF 		bl	RCC_GetClocksFreq
 248              	.LVL31:
 300:../STLibs//STM32F4xx_DSP_StdPeriph_Lib_V1.0.1/Libraries/STM32F4xx_StdPeriph_Driver/src/stm32f4xx_usart.c **** 
 301:../STLibs//STM32F4xx_DSP_StdPeriph_Lib_V1.0.1/Libraries/STM32F4xx_StdPeriph_Driver/src/stm32f4xx_usart.c ****   if ((USARTx == USART1) || (USARTx == USART6))
 249              		.loc 1 301 0
 250 00f2 1A4B     		ldr	r3, .L21
 251 00f4 9C42     		cmp	r4, r3
 252 00f6 03D0     		beq	.L13
 253              		.loc 1 301 0 is_stmt 0 discriminator 1
 254 00f8 03F58063 		add	r3, r3, #1024
 255 00fc 9C42     		cmp	r4, r3
 256 00fe 22D1     		bne	.L14
 257              	.L13:
 302:../STLibs//STM32F4xx_DSP_StdPeriph_Lib_V1.0.1/Libraries/STM32F4xx_StdPeriph_Driver/src/stm32f4xx_usart.c ****   {
 303:../STLibs//STM32F4xx_DSP_StdPeriph_Lib_V1.0.1/Libraries/STM32F4xx_StdPeriph_Driver/src/stm32f4xx_usart.c ****     apbclock = RCC_ClocksStatus.PCLK2_Frequency;
 258              		.loc 1 303 0 is_stmt 1
 259 0100 0399     		ldr	r1, [sp, #12]
 260              	.LVL32:
 261              	.L15:
 304:../STLibs//STM32F4xx_DSP_StdPeriph_Lib_V1.0.1/Libraries/STM32F4xx_StdPeriph_Driver/src/stm32f4xx_usart.c ****   }
 305:../STLibs//STM32F4xx_DSP_StdPeriph_Lib_V1.0.1/Libraries/STM32F4xx_StdPeriph_Driver/src/stm32f4xx_usart.c ****   else
 306:../STLibs//STM32F4xx_DSP_StdPeriph_Lib_V1.0.1/Libraries/STM32F4xx_StdPeriph_Driver/src/stm32f4xx_usart.c ****   {
 307:../STLibs//STM32F4xx_DSP_StdPeriph_Lib_V1.0.1/Libraries/STM32F4xx_StdPeriph_Driver/src/stm32f4xx_usart.c ****     apbclock = RCC_ClocksStatus.PCLK1_Frequency;
 308:../STLibs//STM32F4xx_DSP_StdPeriph_Lib_V1.0.1/Libraries/STM32F4xx_StdPeriph_Driver/src/stm32f4xx_usart.c ****   }
 309:../STLibs//STM32F4xx_DSP_StdPeriph_Lib_V1.0.1/Libraries/STM32F4xx_StdPeriph_Driver/src/stm32f4xx_usart.c ****   
 310:../STLibs//STM32F4xx_DSP_StdPeriph_Lib_V1.0.1/Libraries/STM32F4xx_StdPeriph_Driver/src/stm32f4xx_usart.c ****   /* Determine the integer part */
 311:../STLibs//STM32F4xx_DSP_StdPeriph_Lib_V1.0.1/Libraries/STM32F4xx_StdPeriph_Driver/src/stm32f4xx_usart.c ****   if ((USARTx->CR1 & USART_CR1_OVER8) != 0)
 262              		.loc 1 311 0
 263 0102 A289     		ldrh	r2, [r4, #12]
 264 0104 1923     		movs	r3, #25
 265 0106 1004     		lsls	r0, r2, #16
 266 0108 03FB01F3 		mul	r3, r3, r1
 312:../STLibs//STM32F4xx_DSP_StdPeriph_Lib_V1.0.1/Libraries/STM32F4xx_StdPeriph_Driver/src/stm32f4xx_usart.c ****   {
 313:../STLibs//STM32F4xx_DSP_StdPeriph_Lib_V1.0.1/Libraries/STM32F4xx_StdPeriph_Driver/src/stm32f4xx_usart.c ****     /* Integer part computing in case Oversampling mode is 8 Samples */
 314:../STLibs//STM32F4xx_DSP_StdPeriph_Lib_V1.0.1/Libraries/STM32F4xx_StdPeriph_Driver/src/stm32f4xx_usart.c ****     integerdivider = ((25 * apbclock) / (2 * (USART_InitStruct->USART_BaudRate)));    
 315:../STLibs//STM32F4xx_DSP_StdPeriph_Lib_V1.0.1/Libraries/STM32F4xx_StdPeriph_Driver/src/stm32f4xx_usart.c ****   }
 316:../STLibs//STM32F4xx_DSP_StdPeriph_Lib_V1.0.1/Libraries/STM32F4xx_StdPeriph_Driver/src/stm32f4xx_usart.c ****   else /* if ((USARTx->CR1 & USART_CR1_OVER8) == 0) */
 317:../STLibs//STM32F4xx_DSP_StdPeriph_Lib_V1.0.1/Libraries/STM32F4xx_StdPeriph_Driver/src/stm32f4xx_usart.c ****   {
 318:../STLibs//STM32F4xx_DSP_StdPeriph_Lib_V1.0.1/Libraries/STM32F4xx_StdPeriph_Driver/src/stm32f4xx_usart.c ****     /* Integer part computing in case Oversampling mode is 16 Samples */
 319:../STLibs//STM32F4xx_DSP_StdPeriph_Lib_V1.0.1/Libraries/STM32F4xx_StdPeriph_Driver/src/stm32f4xx_usart.c ****     integerdivider = ((25 * apbclock) / (4 * (USART_InitStruct->USART_BaudRate)));    
 320:../STLibs//STM32F4xx_DSP_StdPeriph_Lib_V1.0.1/Libraries/STM32F4xx_StdPeriph_Driver/src/stm32f4xx_usart.c ****   }
 321:../STLibs//STM32F4xx_DSP_StdPeriph_Lib_V1.0.1/Libraries/STM32F4xx_StdPeriph_Driver/src/stm32f4xx_usart.c ****   tmpreg = (integerdivider / 100) << 4;
 322:../STLibs//STM32F4xx_DSP_StdPeriph_Lib_V1.0.1/Libraries/STM32F4xx_StdPeriph_Driver/src/stm32f4xx_usart.c **** 
 323:../STLibs//STM32F4xx_DSP_StdPeriph_Lib_V1.0.1/Libraries/STM32F4xx_StdPeriph_Driver/src/stm32f4xx_usart.c ****   /* Determine the fractional part */
 324:../STLibs//STM32F4xx_DSP_StdPeriph_Lib_V1.0.1/Libraries/STM32F4xx_StdPeriph_Driver/src/stm32f4xx_usart.c ****   fractionaldivider = integerdivider - (100 * (tmpreg >> 4));
 325:../STLibs//STM32F4xx_DSP_StdPeriph_Lib_V1.0.1/Libraries/STM32F4xx_StdPeriph_Driver/src/stm32f4xx_usart.c **** 
 326:../STLibs//STM32F4xx_DSP_StdPeriph_Lib_V1.0.1/Libraries/STM32F4xx_StdPeriph_Driver/src/stm32f4xx_usart.c ****   /* Implement the fractional part in the register */
 327:../STLibs//STM32F4xx_DSP_StdPeriph_Lib_V1.0.1/Libraries/STM32F4xx_StdPeriph_Driver/src/stm32f4xx_usart.c ****   if ((USARTx->CR1 & USART_CR1_OVER8) != 0)
 267              		.loc 1 327 0
 268 010c A289     		ldrh	r2, [r4, #12]
 269 010e 2968     		ldr	r1, [r5]
 270              	.LVL33:
 321:../STLibs//STM32F4xx_DSP_StdPeriph_Lib_V1.0.1/Libraries/STM32F4xx_StdPeriph_Driver/src/stm32f4xx_usart.c **** 
 271              		.loc 1 321 0
 272 0110 4FF06405 		mov	r5, #100
 273              	.LVL34:
 314:../STLibs//STM32F4xx_DSP_StdPeriph_Lib_V1.0.1/Libraries/STM32F4xx_StdPeriph_Driver/src/stm32f4xx_usart.c ****   }
 274              		.loc 1 314 0
 275 0114 4CBF     		ite	mi
 276 0116 4900     		lslmi	r1, r1, #1
 319:../STLibs//STM32F4xx_DSP_StdPeriph_Lib_V1.0.1/Libraries/STM32F4xx_StdPeriph_Driver/src/stm32f4xx_usart.c ****   }
 277              		.loc 1 319 0
 278 0118 8900     		lslpl	r1, r1, #2
 279              		.loc 1 327 0
 280 011a 1204     		lsls	r2, r2, #16
 319:../STLibs//STM32F4xx_DSP_StdPeriph_Lib_V1.0.1/Libraries/STM32F4xx_StdPeriph_Driver/src/stm32f4xx_usart.c ****   }
 281              		.loc 1 319 0
 282 011c B3FBF1F1 		udiv	r1, r3, r1
 283              	.LVL35:
 321:../STLibs//STM32F4xx_DSP_StdPeriph_Lib_V1.0.1/Libraries/STM32F4xx_StdPeriph_Driver/src/stm32f4xx_usart.c **** 
 284              		.loc 1 321 0
 285 0120 B1FBF5F3 		udiv	r3, r1, r5
 286 0124 4FEA0310 		lsl	r0, r3, #4
 287              	.LVL36:
 288 0128 05FB1313 		mls	r3, r5, r3, r1
 289              	.LVL37:
 290              		.loc 1 327 0
 291 012c 0DD5     		bpl	.L18
 328:../STLibs//STM32F4xx_DSP_StdPeriph_Lib_V1.0.1/Libraries/STM32F4xx_StdPeriph_Driver/src/stm32f4xx_usart.c ****   {
 329:../STLibs//STM32F4xx_DSP_StdPeriph_Lib_V1.0.1/Libraries/STM32F4xx_StdPeriph_Driver/src/stm32f4xx_usart.c ****     tmpreg |= ((((fractionaldivider * 8) + 50) / 100)) & ((uint8_t)0x07);
 292              		.loc 1 329 0
 293 012e DA00     		lsls	r2, r3, #3
 294 0130 3232     		adds	r2, r2, #50
 295 0132 B2FBF5F2 		udiv	r2, r2, r5
 296 0136 02F00702 		and	r2, r2, #7
 297 013a 42EA0003 		orr	r3, r2, r0
 298              	.LVL38:
 299              	.L19:
 330:../STLibs//STM32F4xx_DSP_StdPeriph_Lib_V1.0.1/Libraries/STM32F4xx_StdPeriph_Driver/src/stm32f4xx_usart.c ****   }
 331:../STLibs//STM32F4xx_DSP_StdPeriph_Lib_V1.0.1/Libraries/STM32F4xx_StdPeriph_Driver/src/stm32f4xx_usart.c ****   else /* if ((USARTx->CR1 & USART_CR1_OVER8) == 0) */
 332:../STLibs//STM32F4xx_DSP_StdPeriph_Lib_V1.0.1/Libraries/STM32F4xx_StdPeriph_Driver/src/stm32f4xx_usart.c ****   {
 333:../STLibs//STM32F4xx_DSP_StdPeriph_Lib_V1.0.1/Libraries/STM32F4xx_StdPeriph_Driver/src/stm32f4xx_usart.c ****     tmpreg |= ((((fractionaldivider * 16) + 50) / 100)) & ((uint8_t)0x0F);
 334:../STLibs//STM32F4xx_DSP_StdPeriph_Lib_V1.0.1/Libraries/STM32F4xx_StdPeriph_Driver/src/stm32f4xx_usart.c ****   }
 335:../STLibs//STM32F4xx_DSP_StdPeriph_Lib_V1.0.1/Libraries/STM32F4xx_StdPeriph_Driver/src/stm32f4xx_usart.c ****   
 336:../STLibs//STM32F4xx_DSP_StdPeriph_Lib_V1.0.1/Libraries/STM32F4xx_StdPeriph_Driver/src/stm32f4xx_usart.c ****   /* Write to USART BRR register */
 337:../STLibs//STM32F4xx_DSP_StdPeriph_Lib_V1.0.1/Libraries/STM32F4xx_StdPeriph_Driver/src/stm32f4xx_usart.c ****   USARTx->BRR = (uint16_t)tmpreg;
 300              		.loc 1 337 0
 301 013e 9BB2     		uxth	r3, r3
 302              	.LVL39:
 303 0140 2381     		strh	r3, [r4, #8]	@ movhi
 338:../STLibs//STM32F4xx_DSP_StdPeriph_Lib_V1.0.1/Libraries/STM32F4xx_StdPeriph_Driver/src/stm32f4xx_usart.c **** }
 304              		.loc 1 338 0
 305 0142 05B0     		add	sp, sp, #20
 306              	.LCFI7:
 307              		.cfi_remember_state
 308              		.cfi_def_cfa_offset 12
 309              		@ sp needed
 310 0144 30BD     		pop	{r4, r5, pc}
 311              	.LVL40:
 312              	.L14:
 313              	.LCFI8:
 314              		.cfi_restore_state
 307:../STLibs//STM32F4xx_DSP_StdPeriph_Lib_V1.0.1/Libraries/STM32F4xx_StdPeriph_Driver/src/stm32f4xx_usart.c ****   }
 315              		.loc 1 307 0
 316 0146 0299     		ldr	r1, [sp, #8]
 317              	.LVL41:
 318 0148 DBE7     		b	.L15
 319              	.LVL42:
 320              	.L18:
 333:../STLibs//STM32F4xx_DSP_StdPeriph_Lib_V1.0.1/Libraries/STM32F4xx_StdPeriph_Driver/src/stm32f4xx_usart.c ****   }
 321              		.loc 1 333 0
 322 014a 1B01     		lsls	r3, r3, #4
 323              	.LVL43:
 324 014c 3233     		adds	r3, r3, #50
 325 014e B3FBF5F3 		udiv	r3, r3, r5
 326 0152 03F00F03 		and	r3, r3, #15
 327 0156 0343     		orrs	r3, r3, r0
 328              	.LVL44:
 329 0158 F1E7     		b	.L19
 330              	.L22:
 331 015a 00BF     		.align	2
 332              	.L21:
 333 015c 00100140 		.word	1073811456
 334              		.cfi_endproc
 335              	.LFE111:
 337              		.align	1
 338              		.global	USART_StructInit
 339              		.syntax unified
 340              		.thumb
 341              		.thumb_func
 342              		.fpu fpv4-sp-d16
 344              	USART_StructInit:
 345              	.LFB112:
 339:../STLibs//STM32F4xx_DSP_StdPeriph_Lib_V1.0.1/Libraries/STM32F4xx_StdPeriph_Driver/src/stm32f4xx_usart.c **** 
 340:../STLibs//STM32F4xx_DSP_StdPeriph_Lib_V1.0.1/Libraries/STM32F4xx_StdPeriph_Driver/src/stm32f4xx_usart.c **** /**
 341:../STLibs//STM32F4xx_DSP_StdPeriph_Lib_V1.0.1/Libraries/STM32F4xx_StdPeriph_Driver/src/stm32f4xx_usart.c ****   * @brief  Fills each USART_InitStruct member with its default value.
 342:../STLibs//STM32F4xx_DSP_StdPeriph_Lib_V1.0.1/Libraries/STM32F4xx_StdPeriph_Driver/src/stm32f4xx_usart.c ****   * @param  USART_InitStruct: pointer to a USART_InitTypeDef structure which will
 343:../STLibs//STM32F4xx_DSP_StdPeriph_Lib_V1.0.1/Libraries/STM32F4xx_StdPeriph_Driver/src/stm32f4xx_usart.c ****   *         be initialized.
 344:../STLibs//STM32F4xx_DSP_StdPeriph_Lib_V1.0.1/Libraries/STM32F4xx_StdPeriph_Driver/src/stm32f4xx_usart.c ****   * @retval None
 345:../STLibs//STM32F4xx_DSP_StdPeriph_Lib_V1.0.1/Libraries/STM32F4xx_StdPeriph_Driver/src/stm32f4xx_usart.c ****   */
 346:../STLibs//STM32F4xx_DSP_StdPeriph_Lib_V1.0.1/Libraries/STM32F4xx_StdPeriph_Driver/src/stm32f4xx_usart.c **** void USART_StructInit(USART_InitTypeDef* USART_InitStruct)
 347:../STLibs//STM32F4xx_DSP_StdPeriph_Lib_V1.0.1/Libraries/STM32F4xx_StdPeriph_Driver/src/stm32f4xx_usart.c **** {
 346              		.loc 1 347 0
 347              		.cfi_startproc
 348              		@ args = 0, pretend = 0, frame = 0
 349              		@ frame_needed = 0, uses_anonymous_args = 0
 350              		@ link register save eliminated.
 351              	.LVL45:
 348:../STLibs//STM32F4xx_DSP_StdPeriph_Lib_V1.0.1/Libraries/STM32F4xx_StdPeriph_Driver/src/stm32f4xx_usart.c ****   /* USART_InitStruct members default value */
 349:../STLibs//STM32F4xx_DSP_StdPeriph_Lib_V1.0.1/Libraries/STM32F4xx_StdPeriph_Driver/src/stm32f4xx_usart.c ****   USART_InitStruct->USART_BaudRate = 9600;
 352              		.loc 1 349 0
 353 0160 4FF41652 		mov	r2, #9600
 354 0164 0023     		movs	r3, #0
 355 0166 C0E90023 		strd	r2, r3, [r0]
 350:../STLibs//STM32F4xx_DSP_StdPeriph_Lib_V1.0.1/Libraries/STM32F4xx_StdPeriph_Driver/src/stm32f4xx_usart.c ****   USART_InitStruct->USART_WordLength = USART_WordLength_8b;
 351:../STLibs//STM32F4xx_DSP_StdPeriph_Lib_V1.0.1/Libraries/STM32F4xx_StdPeriph_Driver/src/stm32f4xx_usart.c ****   USART_InitStruct->USART_StopBits = USART_StopBits_1;
 356              		.loc 1 351 0
 357 016a 4FF44022 		mov	r2, #786432
 358 016e 8260     		str	r2, [r0, #8]
 352:../STLibs//STM32F4xx_DSP_StdPeriph_Lib_V1.0.1/Libraries/STM32F4xx_StdPeriph_Driver/src/stm32f4xx_usart.c ****   USART_InitStruct->USART_Parity = USART_Parity_No ;
 353:../STLibs//STM32F4xx_DSP_StdPeriph_Lib_V1.0.1/Libraries/STM32F4xx_StdPeriph_Driver/src/stm32f4xx_usart.c ****   USART_InitStruct->USART_Mode = USART_Mode_Rx | USART_Mode_Tx;
 359              		.loc 1 353 0
 360 0170 8381     		strh	r3, [r0, #12]	@ movhi
 354:../STLibs//STM32F4xx_DSP_StdPeriph_Lib_V1.0.1/Libraries/STM32F4xx_StdPeriph_Driver/src/stm32f4xx_usart.c ****   USART_InitStruct->USART_HardwareFlowControl = USART_HardwareFlowControl_None;  
 355:../STLibs//STM32F4xx_DSP_StdPeriph_Lib_V1.0.1/Libraries/STM32F4xx_StdPeriph_Driver/src/stm32f4xx_usart.c **** }
 361              		.loc 1 355 0
 362 0172 7047     		bx	lr
 363              		.cfi_endproc
 364              	.LFE112:
 366              		.align	1
 367              		.global	USART_ClockInit
 368              		.syntax unified
 369              		.thumb
 370              		.thumb_func
 371              		.fpu fpv4-sp-d16
 373              	USART_ClockInit:
 374              	.LFB113:
 356:../STLibs//STM32F4xx_DSP_StdPeriph_Lib_V1.0.1/Libraries/STM32F4xx_StdPeriph_Driver/src/stm32f4xx_usart.c **** 
 357:../STLibs//STM32F4xx_DSP_StdPeriph_Lib_V1.0.1/Libraries/STM32F4xx_StdPeriph_Driver/src/stm32f4xx_usart.c **** /**
 358:../STLibs//STM32F4xx_DSP_StdPeriph_Lib_V1.0.1/Libraries/STM32F4xx_StdPeriph_Driver/src/stm32f4xx_usart.c ****   * @brief  Initializes the USARTx peripheral Clock according to the 
 359:../STLibs//STM32F4xx_DSP_StdPeriph_Lib_V1.0.1/Libraries/STM32F4xx_StdPeriph_Driver/src/stm32f4xx_usart.c ****   *         specified parameters in the USART_ClockInitStruct .
 360:../STLibs//STM32F4xx_DSP_StdPeriph_Lib_V1.0.1/Libraries/STM32F4xx_StdPeriph_Driver/src/stm32f4xx_usart.c ****   * @param  USARTx: where x can be 1, 2, 3 or 6 to select the USART peripheral.
 361:../STLibs//STM32F4xx_DSP_StdPeriph_Lib_V1.0.1/Libraries/STM32F4xx_StdPeriph_Driver/src/stm32f4xx_usart.c ****   * @param  USART_ClockInitStruct: pointer to a USART_ClockInitTypeDef structure that
 362:../STLibs//STM32F4xx_DSP_StdPeriph_Lib_V1.0.1/Libraries/STM32F4xx_StdPeriph_Driver/src/stm32f4xx_usart.c ****   *         contains the configuration information for the specified  USART peripheral.
 363:../STLibs//STM32F4xx_DSP_StdPeriph_Lib_V1.0.1/Libraries/STM32F4xx_StdPeriph_Driver/src/stm32f4xx_usart.c ****   * @note   The Smart Card and Synchronous modes are not available for UART4 and UART5.    
 364:../STLibs//STM32F4xx_DSP_StdPeriph_Lib_V1.0.1/Libraries/STM32F4xx_StdPeriph_Driver/src/stm32f4xx_usart.c ****   * @retval None
 365:../STLibs//STM32F4xx_DSP_StdPeriph_Lib_V1.0.1/Libraries/STM32F4xx_StdPeriph_Driver/src/stm32f4xx_usart.c ****   */
 366:../STLibs//STM32F4xx_DSP_StdPeriph_Lib_V1.0.1/Libraries/STM32F4xx_StdPeriph_Driver/src/stm32f4xx_usart.c **** void USART_ClockInit(USART_TypeDef* USARTx, USART_ClockInitTypeDef* USART_ClockInitStruct)
 367:../STLibs//STM32F4xx_DSP_StdPeriph_Lib_V1.0.1/Libraries/STM32F4xx_StdPeriph_Driver/src/stm32f4xx_usart.c **** {
 375              		.loc 1 367 0
 376              		.cfi_startproc
 377              		@ args = 0, pretend = 0, frame = 0
 378              		@ frame_needed = 0, uses_anonymous_args = 0
 379              	.LVL46:
 368:../STLibs//STM32F4xx_DSP_StdPeriph_Lib_V1.0.1/Libraries/STM32F4xx_StdPeriph_Driver/src/stm32f4xx_usart.c ****   uint32_t tmpreg = 0x00;
 369:../STLibs//STM32F4xx_DSP_StdPeriph_Lib_V1.0.1/Libraries/STM32F4xx_StdPeriph_Driver/src/stm32f4xx_usart.c ****   /* Check the parameters */
 370:../STLibs//STM32F4xx_DSP_StdPeriph_Lib_V1.0.1/Libraries/STM32F4xx_StdPeriph_Driver/src/stm32f4xx_usart.c ****   assert_param(IS_USART_1236_PERIPH(USARTx));
 371:../STLibs//STM32F4xx_DSP_StdPeriph_Lib_V1.0.1/Libraries/STM32F4xx_StdPeriph_Driver/src/stm32f4xx_usart.c ****   assert_param(IS_USART_CLOCK(USART_ClockInitStruct->USART_Clock));
 372:../STLibs//STM32F4xx_DSP_StdPeriph_Lib_V1.0.1/Libraries/STM32F4xx_StdPeriph_Driver/src/stm32f4xx_usart.c ****   assert_param(IS_USART_CPOL(USART_ClockInitStruct->USART_CPOL));
 373:../STLibs//STM32F4xx_DSP_StdPeriph_Lib_V1.0.1/Libraries/STM32F4xx_StdPeriph_Driver/src/stm32f4xx_usart.c ****   assert_param(IS_USART_CPHA(USART_ClockInitStruct->USART_CPHA));
 374:../STLibs//STM32F4xx_DSP_StdPeriph_Lib_V1.0.1/Libraries/STM32F4xx_StdPeriph_Driver/src/stm32f4xx_usart.c ****   assert_param(IS_USART_LASTBIT(USART_ClockInitStruct->USART_LastBit));
 375:../STLibs//STM32F4xx_DSP_StdPeriph_Lib_V1.0.1/Libraries/STM32F4xx_StdPeriph_Driver/src/stm32f4xx_usart.c ****   
 376:../STLibs//STM32F4xx_DSP_StdPeriph_Lib_V1.0.1/Libraries/STM32F4xx_StdPeriph_Driver/src/stm32f4xx_usart.c **** /*---------------------------- USART CR2 Configuration -----------------------*/
 377:../STLibs//STM32F4xx_DSP_StdPeriph_Lib_V1.0.1/Libraries/STM32F4xx_StdPeriph_Driver/src/stm32f4xx_usart.c ****   tmpreg = USARTx->CR2;
 380              		.loc 1 377 0
 381 0174 038A     		ldrh	r3, [r0, #16]
 382 0176 9BB2     		uxth	r3, r3
 383              	.LVL47:
 378:../STLibs//STM32F4xx_DSP_StdPeriph_Lib_V1.0.1/Libraries/STM32F4xx_StdPeriph_Driver/src/stm32f4xx_usart.c ****   /* Clear CLKEN, CPOL, CPHA and LBCL bits */
 379:../STLibs//STM32F4xx_DSP_StdPeriph_Lib_V1.0.1/Libraries/STM32F4xx_StdPeriph_Driver/src/stm32f4xx_usart.c ****   tmpreg &= (uint32_t)~((uint32_t)CR2_CLOCK_CLEAR_MASK);
 384              		.loc 1 379 0
 385 0178 23F47062 		bic	r2, r3, #3840
 386              	.LVL48:
 367:../STLibs//STM32F4xx_DSP_StdPeriph_Lib_V1.0.1/Libraries/STM32F4xx_StdPeriph_Driver/src/stm32f4xx_usart.c ****   uint32_t tmpreg = 0x00;
 387              		.loc 1 367 0
 388 017c 10B5     		push	{r4, lr}
 389              	.LCFI9:
 390              		.cfi_def_cfa_offset 8
 391              		.cfi_offset 4, -8
 392              		.cfi_offset 14, -4
 380:../STLibs//STM32F4xx_DSP_StdPeriph_Lib_V1.0.1/Libraries/STM32F4xx_StdPeriph_Driver/src/stm32f4xx_usart.c ****   /* Configure the USART Clock, CPOL, CPHA and LastBit ------------*/
 381:../STLibs//STM32F4xx_DSP_StdPeriph_Lib_V1.0.1/Libraries/STM32F4xx_StdPeriph_Driver/src/stm32f4xx_usart.c ****   /* Set CLKEN bit according to USART_Clock value */
 382:../STLibs//STM32F4xx_DSP_StdPeriph_Lib_V1.0.1/Libraries/STM32F4xx_StdPeriph_Driver/src/stm32f4xx_usart.c ****   /* Set CPOL bit according to USART_CPOL value */
 383:../STLibs//STM32F4xx_DSP_StdPeriph_Lib_V1.0.1/Libraries/STM32F4xx_StdPeriph_Driver/src/stm32f4xx_usart.c ****   /* Set CPHA bit according to USART_CPHA value */
 384:../STLibs//STM32F4xx_DSP_StdPeriph_Lib_V1.0.1/Libraries/STM32F4xx_StdPeriph_Driver/src/stm32f4xx_usart.c ****   /* Set LBCL bit according to USART_LastBit value */
 385:../STLibs//STM32F4xx_DSP_StdPeriph_Lib_V1.0.1/Libraries/STM32F4xx_StdPeriph_Driver/src/stm32f4xx_usart.c ****   tmpreg |= (uint32_t)USART_ClockInitStruct->USART_Clock | USART_ClockInitStruct->USART_CPOL | 
 386:../STLibs//STM32F4xx_DSP_StdPeriph_Lib_V1.0.1/Libraries/STM32F4xx_StdPeriph_Driver/src/stm32f4xx_usart.c ****                  USART_ClockInitStruct->USART_CPHA | USART_ClockInitStruct->USART_LastBit;
 393              		.loc 1 386 0
 394 017e 0B88     		ldrh	r3, [r1]
 395 0180 4C88     		ldrh	r4, [r1, #2]
 396 0182 2343     		orrs	r3, r3, r4
 397 0184 8C88     		ldrh	r4, [r1, #4]
 398 0186 C988     		ldrh	r1, [r1, #6]
 399              	.LVL49:
 400 0188 2343     		orrs	r3, r3, r4
 401 018a 0B43     		orrs	r3, r3, r1
 387:../STLibs//STM32F4xx_DSP_StdPeriph_Lib_V1.0.1/Libraries/STM32F4xx_StdPeriph_Driver/src/stm32f4xx_usart.c ****   /* Write to USART CR2 */
 388:../STLibs//STM32F4xx_DSP_StdPeriph_Lib_V1.0.1/Libraries/STM32F4xx_StdPeriph_Driver/src/stm32f4xx_usart.c ****   USARTx->CR2 = (uint16_t)tmpreg;
 402              		.loc 1 388 0
 403 018c 1343     		orrs	r3, r3, r2
 404 018e 0382     		strh	r3, [r0, #16]	@ movhi
 389:../STLibs//STM32F4xx_DSP_StdPeriph_Lib_V1.0.1/Libraries/STM32F4xx_StdPeriph_Driver/src/stm32f4xx_usart.c **** }
 405              		.loc 1 389 0
 406 0190 10BD     		pop	{r4, pc}
 407              		.cfi_endproc
 408              	.LFE113:
 410              		.align	1
 411              		.global	USART_ClockStructInit
 412              		.syntax unified
 413              		.thumb
 414              		.thumb_func
 415              		.fpu fpv4-sp-d16
 417              	USART_ClockStructInit:
 418              	.LFB114:
 390:../STLibs//STM32F4xx_DSP_StdPeriph_Lib_V1.0.1/Libraries/STM32F4xx_StdPeriph_Driver/src/stm32f4xx_usart.c **** 
 391:../STLibs//STM32F4xx_DSP_StdPeriph_Lib_V1.0.1/Libraries/STM32F4xx_StdPeriph_Driver/src/stm32f4xx_usart.c **** /**
 392:../STLibs//STM32F4xx_DSP_StdPeriph_Lib_V1.0.1/Libraries/STM32F4xx_StdPeriph_Driver/src/stm32f4xx_usart.c ****   * @brief  Fills each USART_ClockInitStruct member with its default value.
 393:../STLibs//STM32F4xx_DSP_StdPeriph_Lib_V1.0.1/Libraries/STM32F4xx_StdPeriph_Driver/src/stm32f4xx_usart.c ****   * @param  USART_ClockInitStruct: pointer to a USART_ClockInitTypeDef structure
 394:../STLibs//STM32F4xx_DSP_StdPeriph_Lib_V1.0.1/Libraries/STM32F4xx_StdPeriph_Driver/src/stm32f4xx_usart.c ****   *         which will be initialized.
 395:../STLibs//STM32F4xx_DSP_StdPeriph_Lib_V1.0.1/Libraries/STM32F4xx_StdPeriph_Driver/src/stm32f4xx_usart.c ****   * @retval None
 396:../STLibs//STM32F4xx_DSP_StdPeriph_Lib_V1.0.1/Libraries/STM32F4xx_StdPeriph_Driver/src/stm32f4xx_usart.c ****   */
 397:../STLibs//STM32F4xx_DSP_StdPeriph_Lib_V1.0.1/Libraries/STM32F4xx_StdPeriph_Driver/src/stm32f4xx_usart.c **** void USART_ClockStructInit(USART_ClockInitTypeDef* USART_ClockInitStruct)
 398:../STLibs//STM32F4xx_DSP_StdPeriph_Lib_V1.0.1/Libraries/STM32F4xx_StdPeriph_Driver/src/stm32f4xx_usart.c **** {
 419              		.loc 1 398 0
 420              		.cfi_startproc
 421              		@ args = 0, pretend = 0, frame = 0
 422              		@ frame_needed = 0, uses_anonymous_args = 0
 423              		@ link register save eliminated.
 424              	.LVL50:
 399:../STLibs//STM32F4xx_DSP_StdPeriph_Lib_V1.0.1/Libraries/STM32F4xx_StdPeriph_Driver/src/stm32f4xx_usart.c ****   /* USART_ClockInitStruct members default value */
 400:../STLibs//STM32F4xx_DSP_StdPeriph_Lib_V1.0.1/Libraries/STM32F4xx_StdPeriph_Driver/src/stm32f4xx_usart.c ****   USART_ClockInitStruct->USART_Clock = USART_Clock_Disable;
 425              		.loc 1 400 0
 426 0192 0023     		movs	r3, #0
 427 0194 0380     		strh	r3, [r0]	@ movhi
 401:../STLibs//STM32F4xx_DSP_StdPeriph_Lib_V1.0.1/Libraries/STM32F4xx_StdPeriph_Driver/src/stm32f4xx_usart.c ****   USART_ClockInitStruct->USART_CPOL = USART_CPOL_Low;
 428              		.loc 1 401 0
 429 0196 4380     		strh	r3, [r0, #2]	@ movhi
 402:../STLibs//STM32F4xx_DSP_StdPeriph_Lib_V1.0.1/Libraries/STM32F4xx_StdPeriph_Driver/src/stm32f4xx_usart.c ****   USART_ClockInitStruct->USART_CPHA = USART_CPHA_1Edge;
 430              		.loc 1 402 0
 431 0198 8380     		strh	r3, [r0, #4]	@ movhi
 403:../STLibs//STM32F4xx_DSP_StdPeriph_Lib_V1.0.1/Libraries/STM32F4xx_StdPeriph_Driver/src/stm32f4xx_usart.c ****   USART_ClockInitStruct->USART_LastBit = USART_LastBit_Disable;
 432              		.loc 1 403 0
 433 019a C380     		strh	r3, [r0, #6]	@ movhi
 404:../STLibs//STM32F4xx_DSP_StdPeriph_Lib_V1.0.1/Libraries/STM32F4xx_StdPeriph_Driver/src/stm32f4xx_usart.c **** }
 434              		.loc 1 404 0
 435 019c 7047     		bx	lr
 436              		.cfi_endproc
 437              	.LFE114:
 439              		.align	1
 440              		.global	USART_Cmd
 441              		.syntax unified
 442              		.thumb
 443              		.thumb_func
 444              		.fpu fpv4-sp-d16
 446              	USART_Cmd:
 447              	.LFB115:
 405:../STLibs//STM32F4xx_DSP_StdPeriph_Lib_V1.0.1/Libraries/STM32F4xx_StdPeriph_Driver/src/stm32f4xx_usart.c **** 
 406:../STLibs//STM32F4xx_DSP_StdPeriph_Lib_V1.0.1/Libraries/STM32F4xx_StdPeriph_Driver/src/stm32f4xx_usart.c **** /**
 407:../STLibs//STM32F4xx_DSP_StdPeriph_Lib_V1.0.1/Libraries/STM32F4xx_StdPeriph_Driver/src/stm32f4xx_usart.c ****   * @brief  Enables or disables the specified USART peripheral.
 408:../STLibs//STM32F4xx_DSP_StdPeriph_Lib_V1.0.1/Libraries/STM32F4xx_StdPeriph_Driver/src/stm32f4xx_usart.c ****   * @param  USARTx: where x can be 1, 2, 3, 4, 5 or 6 to select the USART or 
 409:../STLibs//STM32F4xx_DSP_StdPeriph_Lib_V1.0.1/Libraries/STM32F4xx_StdPeriph_Driver/src/stm32f4xx_usart.c ****   *         UART peripheral.
 410:../STLibs//STM32F4xx_DSP_StdPeriph_Lib_V1.0.1/Libraries/STM32F4xx_StdPeriph_Driver/src/stm32f4xx_usart.c ****   * @param  NewState: new state of the USARTx peripheral.
 411:../STLibs//STM32F4xx_DSP_StdPeriph_Lib_V1.0.1/Libraries/STM32F4xx_StdPeriph_Driver/src/stm32f4xx_usart.c ****   *          This parameter can be: ENABLE or DISABLE.
 412:../STLibs//STM32F4xx_DSP_StdPeriph_Lib_V1.0.1/Libraries/STM32F4xx_StdPeriph_Driver/src/stm32f4xx_usart.c ****   * @retval None
 413:../STLibs//STM32F4xx_DSP_StdPeriph_Lib_V1.0.1/Libraries/STM32F4xx_StdPeriph_Driver/src/stm32f4xx_usart.c ****   */
 414:../STLibs//STM32F4xx_DSP_StdPeriph_Lib_V1.0.1/Libraries/STM32F4xx_StdPeriph_Driver/src/stm32f4xx_usart.c **** void USART_Cmd(USART_TypeDef* USARTx, FunctionalState NewState)
 415:../STLibs//STM32F4xx_DSP_StdPeriph_Lib_V1.0.1/Libraries/STM32F4xx_StdPeriph_Driver/src/stm32f4xx_usart.c **** {
 448              		.loc 1 415 0
 449              		.cfi_startproc
 450              		@ args = 0, pretend = 0, frame = 0
 451              		@ frame_needed = 0, uses_anonymous_args = 0
 452              		@ link register save eliminated.
 453              	.LVL51:
 416:../STLibs//STM32F4xx_DSP_StdPeriph_Lib_V1.0.1/Libraries/STM32F4xx_StdPeriph_Driver/src/stm32f4xx_usart.c ****   /* Check the parameters */
 417:../STLibs//STM32F4xx_DSP_StdPeriph_Lib_V1.0.1/Libraries/STM32F4xx_StdPeriph_Driver/src/stm32f4xx_usart.c ****   assert_param(IS_USART_ALL_PERIPH(USARTx));
 418:../STLibs//STM32F4xx_DSP_StdPeriph_Lib_V1.0.1/Libraries/STM32F4xx_StdPeriph_Driver/src/stm32f4xx_usart.c ****   assert_param(IS_FUNCTIONAL_STATE(NewState));
 419:../STLibs//STM32F4xx_DSP_StdPeriph_Lib_V1.0.1/Libraries/STM32F4xx_StdPeriph_Driver/src/stm32f4xx_usart.c ****   
 420:../STLibs//STM32F4xx_DSP_StdPeriph_Lib_V1.0.1/Libraries/STM32F4xx_StdPeriph_Driver/src/stm32f4xx_usart.c ****   if (NewState != DISABLE)
 421:../STLibs//STM32F4xx_DSP_StdPeriph_Lib_V1.0.1/Libraries/STM32F4xx_StdPeriph_Driver/src/stm32f4xx_usart.c ****   {
 422:../STLibs//STM32F4xx_DSP_StdPeriph_Lib_V1.0.1/Libraries/STM32F4xx_StdPeriph_Driver/src/stm32f4xx_usart.c ****     /* Enable the selected USART by setting the UE bit in the CR1 register */
 423:../STLibs//STM32F4xx_DSP_StdPeriph_Lib_V1.0.1/Libraries/STM32F4xx_StdPeriph_Driver/src/stm32f4xx_usart.c ****     USARTx->CR1 |= USART_CR1_UE;
 454              		.loc 1 423 0
 455 019e 8389     		ldrh	r3, [r0, #12]
 420:../STLibs//STM32F4xx_DSP_StdPeriph_Lib_V1.0.1/Libraries/STM32F4xx_StdPeriph_Driver/src/stm32f4xx_usart.c ****   {
 456              		.loc 1 420 0
 457 01a0 19B1     		cbz	r1, .L27
 458              		.loc 1 423 0
 459 01a2 43F40053 		orr	r3, r3, #8192
 460              	.L29:
 424:../STLibs//STM32F4xx_DSP_StdPeriph_Lib_V1.0.1/Libraries/STM32F4xx_StdPeriph_Driver/src/stm32f4xx_usart.c ****   }
 425:../STLibs//STM32F4xx_DSP_StdPeriph_Lib_V1.0.1/Libraries/STM32F4xx_StdPeriph_Driver/src/stm32f4xx_usart.c ****   else
 426:../STLibs//STM32F4xx_DSP_StdPeriph_Lib_V1.0.1/Libraries/STM32F4xx_StdPeriph_Driver/src/stm32f4xx_usart.c ****   {
 427:../STLibs//STM32F4xx_DSP_StdPeriph_Lib_V1.0.1/Libraries/STM32F4xx_StdPeriph_Driver/src/stm32f4xx_usart.c ****     /* Disable the selected USART by clearing the UE bit in the CR1 register */
 428:../STLibs//STM32F4xx_DSP_StdPeriph_Lib_V1.0.1/Libraries/STM32F4xx_StdPeriph_Driver/src/stm32f4xx_usart.c ****     USARTx->CR1 &= (uint16_t)~((uint16_t)USART_CR1_UE);
 461              		.loc 1 428 0
 462 01a6 8381     		strh	r3, [r0, #12]	@ movhi
 429:../STLibs//STM32F4xx_DSP_StdPeriph_Lib_V1.0.1/Libraries/STM32F4xx_StdPeriph_Driver/src/stm32f4xx_usart.c ****   }
 430:../STLibs//STM32F4xx_DSP_StdPeriph_Lib_V1.0.1/Libraries/STM32F4xx_StdPeriph_Driver/src/stm32f4xx_usart.c **** }
 463              		.loc 1 430 0
 464 01a8 7047     		bx	lr
 465              	.L27:
 428:../STLibs//STM32F4xx_DSP_StdPeriph_Lib_V1.0.1/Libraries/STM32F4xx_StdPeriph_Driver/src/stm32f4xx_usart.c ****   }
 466              		.loc 1 428 0
 467 01aa 23F40053 		bic	r3, r3, #8192
 468 01ae 1B04     		lsls	r3, r3, #16
 469 01b0 1B0C     		lsrs	r3, r3, #16
 470 01b2 F8E7     		b	.L29
 471              		.cfi_endproc
 472              	.LFE115:
 474              		.align	1
 475              		.global	USART_SetPrescaler
 476              		.syntax unified
 477              		.thumb
 478              		.thumb_func
 479              		.fpu fpv4-sp-d16
 481              	USART_SetPrescaler:
 482              	.LFB116:
 431:../STLibs//STM32F4xx_DSP_StdPeriph_Lib_V1.0.1/Libraries/STM32F4xx_StdPeriph_Driver/src/stm32f4xx_usart.c **** 
 432:../STLibs//STM32F4xx_DSP_StdPeriph_Lib_V1.0.1/Libraries/STM32F4xx_StdPeriph_Driver/src/stm32f4xx_usart.c **** /**
 433:../STLibs//STM32F4xx_DSP_StdPeriph_Lib_V1.0.1/Libraries/STM32F4xx_StdPeriph_Driver/src/stm32f4xx_usart.c ****   * @brief  Sets the system clock prescaler.
 434:../STLibs//STM32F4xx_DSP_StdPeriph_Lib_V1.0.1/Libraries/STM32F4xx_StdPeriph_Driver/src/stm32f4xx_usart.c ****   * @param  USARTx: where x can be 1, 2, 3, 4, 5 or 6 to select the USART or 
 435:../STLibs//STM32F4xx_DSP_StdPeriph_Lib_V1.0.1/Libraries/STM32F4xx_StdPeriph_Driver/src/stm32f4xx_usart.c ****   *         UART peripheral.
 436:../STLibs//STM32F4xx_DSP_StdPeriph_Lib_V1.0.1/Libraries/STM32F4xx_StdPeriph_Driver/src/stm32f4xx_usart.c ****   * @param  USART_Prescaler: specifies the prescaler clock. 
 437:../STLibs//STM32F4xx_DSP_StdPeriph_Lib_V1.0.1/Libraries/STM32F4xx_StdPeriph_Driver/src/stm32f4xx_usart.c ****   * @note   The function is used for IrDA mode with UART4 and UART5.   
 438:../STLibs//STM32F4xx_DSP_StdPeriph_Lib_V1.0.1/Libraries/STM32F4xx_StdPeriph_Driver/src/stm32f4xx_usart.c ****   * @retval None
 439:../STLibs//STM32F4xx_DSP_StdPeriph_Lib_V1.0.1/Libraries/STM32F4xx_StdPeriph_Driver/src/stm32f4xx_usart.c ****   */
 440:../STLibs//STM32F4xx_DSP_StdPeriph_Lib_V1.0.1/Libraries/STM32F4xx_StdPeriph_Driver/src/stm32f4xx_usart.c **** void USART_SetPrescaler(USART_TypeDef* USARTx, uint8_t USART_Prescaler)
 441:../STLibs//STM32F4xx_DSP_StdPeriph_Lib_V1.0.1/Libraries/STM32F4xx_StdPeriph_Driver/src/stm32f4xx_usart.c **** { 
 483              		.loc 1 441 0
 484              		.cfi_startproc
 485              		@ args = 0, pretend = 0, frame = 0
 486              		@ frame_needed = 0, uses_anonymous_args = 0
 487              		@ link register save eliminated.
 488              	.LVL52:
 442:../STLibs//STM32F4xx_DSP_StdPeriph_Lib_V1.0.1/Libraries/STM32F4xx_StdPeriph_Driver/src/stm32f4xx_usart.c ****   /* Check the parameters */
 443:../STLibs//STM32F4xx_DSP_StdPeriph_Lib_V1.0.1/Libraries/STM32F4xx_StdPeriph_Driver/src/stm32f4xx_usart.c ****   assert_param(IS_USART_ALL_PERIPH(USARTx));
 444:../STLibs//STM32F4xx_DSP_StdPeriph_Lib_V1.0.1/Libraries/STM32F4xx_StdPeriph_Driver/src/stm32f4xx_usart.c ****   
 445:../STLibs//STM32F4xx_DSP_StdPeriph_Lib_V1.0.1/Libraries/STM32F4xx_StdPeriph_Driver/src/stm32f4xx_usart.c ****   /* Clear the USART prescaler */
 446:../STLibs//STM32F4xx_DSP_StdPeriph_Lib_V1.0.1/Libraries/STM32F4xx_StdPeriph_Driver/src/stm32f4xx_usart.c ****   USARTx->GTPR &= USART_GTPR_GT;
 489              		.loc 1 446 0
 490 01b4 038B     		ldrh	r3, [r0, #24]
 491 01b6 03F47F43 		and	r3, r3, #65280
 492 01ba 0383     		strh	r3, [r0, #24]	@ movhi
 447:../STLibs//STM32F4xx_DSP_StdPeriph_Lib_V1.0.1/Libraries/STM32F4xx_StdPeriph_Driver/src/stm32f4xx_usart.c ****   /* Set the USART prescaler */
 448:../STLibs//STM32F4xx_DSP_StdPeriph_Lib_V1.0.1/Libraries/STM32F4xx_StdPeriph_Driver/src/stm32f4xx_usart.c ****   USARTx->GTPR |= USART_Prescaler;
 493              		.loc 1 448 0
 494 01bc 038B     		ldrh	r3, [r0, #24]
 495 01be 1943     		orrs	r1, r1, r3
 496              	.LVL53:
 497 01c0 0183     		strh	r1, [r0, #24]	@ movhi
 449:../STLibs//STM32F4xx_DSP_StdPeriph_Lib_V1.0.1/Libraries/STM32F4xx_StdPeriph_Driver/src/stm32f4xx_usart.c **** }
 498              		.loc 1 449 0
 499 01c2 7047     		bx	lr
 500              		.cfi_endproc
 501              	.LFE116:
 503              		.align	1
 504              		.global	USART_OverSampling8Cmd
 505              		.syntax unified
 506              		.thumb
 507              		.thumb_func
 508              		.fpu fpv4-sp-d16
 510              	USART_OverSampling8Cmd:
 511              	.LFB117:
 450:../STLibs//STM32F4xx_DSP_StdPeriph_Lib_V1.0.1/Libraries/STM32F4xx_StdPeriph_Driver/src/stm32f4xx_usart.c **** 
 451:../STLibs//STM32F4xx_DSP_StdPeriph_Lib_V1.0.1/Libraries/STM32F4xx_StdPeriph_Driver/src/stm32f4xx_usart.c **** /**
 452:../STLibs//STM32F4xx_DSP_StdPeriph_Lib_V1.0.1/Libraries/STM32F4xx_StdPeriph_Driver/src/stm32f4xx_usart.c ****   * @brief  Enables or disables the USART's 8x oversampling mode.
 453:../STLibs//STM32F4xx_DSP_StdPeriph_Lib_V1.0.1/Libraries/STM32F4xx_StdPeriph_Driver/src/stm32f4xx_usart.c ****   * @note   This function has to be called before calling USART_Init() function
 454:../STLibs//STM32F4xx_DSP_StdPeriph_Lib_V1.0.1/Libraries/STM32F4xx_StdPeriph_Driver/src/stm32f4xx_usart.c ****   *         in order to have correct baudrate Divider value.
 455:../STLibs//STM32F4xx_DSP_StdPeriph_Lib_V1.0.1/Libraries/STM32F4xx_StdPeriph_Driver/src/stm32f4xx_usart.c ****   * @param  USARTx: where x can be 1, 2, 3, 4, 5 or 6 to select the USART or 
 456:../STLibs//STM32F4xx_DSP_StdPeriph_Lib_V1.0.1/Libraries/STM32F4xx_StdPeriph_Driver/src/stm32f4xx_usart.c ****   *         UART peripheral.
 457:../STLibs//STM32F4xx_DSP_StdPeriph_Lib_V1.0.1/Libraries/STM32F4xx_StdPeriph_Driver/src/stm32f4xx_usart.c ****   * @param  NewState: new state of the USART 8x oversampling mode.
 458:../STLibs//STM32F4xx_DSP_StdPeriph_Lib_V1.0.1/Libraries/STM32F4xx_StdPeriph_Driver/src/stm32f4xx_usart.c ****   *          This parameter can be: ENABLE or DISABLE.
 459:../STLibs//STM32F4xx_DSP_StdPeriph_Lib_V1.0.1/Libraries/STM32F4xx_StdPeriph_Driver/src/stm32f4xx_usart.c ****   * @retval None
 460:../STLibs//STM32F4xx_DSP_StdPeriph_Lib_V1.0.1/Libraries/STM32F4xx_StdPeriph_Driver/src/stm32f4xx_usart.c ****   */
 461:../STLibs//STM32F4xx_DSP_StdPeriph_Lib_V1.0.1/Libraries/STM32F4xx_StdPeriph_Driver/src/stm32f4xx_usart.c **** void USART_OverSampling8Cmd(USART_TypeDef* USARTx, FunctionalState NewState)
 462:../STLibs//STM32F4xx_DSP_StdPeriph_Lib_V1.0.1/Libraries/STM32F4xx_StdPeriph_Driver/src/stm32f4xx_usart.c **** {
 512              		.loc 1 462 0
 513              		.cfi_startproc
 514              		@ args = 0, pretend = 0, frame = 0
 515              		@ frame_needed = 0, uses_anonymous_args = 0
 516              		@ link register save eliminated.
 517              	.LVL54:
 463:../STLibs//STM32F4xx_DSP_StdPeriph_Lib_V1.0.1/Libraries/STM32F4xx_StdPeriph_Driver/src/stm32f4xx_usart.c ****   /* Check the parameters */
 464:../STLibs//STM32F4xx_DSP_StdPeriph_Lib_V1.0.1/Libraries/STM32F4xx_StdPeriph_Driver/src/stm32f4xx_usart.c ****   assert_param(IS_USART_ALL_PERIPH(USARTx));
 465:../STLibs//STM32F4xx_DSP_StdPeriph_Lib_V1.0.1/Libraries/STM32F4xx_StdPeriph_Driver/src/stm32f4xx_usart.c ****   assert_param(IS_FUNCTIONAL_STATE(NewState));
 466:../STLibs//STM32F4xx_DSP_StdPeriph_Lib_V1.0.1/Libraries/STM32F4xx_StdPeriph_Driver/src/stm32f4xx_usart.c ****   
 467:../STLibs//STM32F4xx_DSP_StdPeriph_Lib_V1.0.1/Libraries/STM32F4xx_StdPeriph_Driver/src/stm32f4xx_usart.c ****   if (NewState != DISABLE)
 468:../STLibs//STM32F4xx_DSP_StdPeriph_Lib_V1.0.1/Libraries/STM32F4xx_StdPeriph_Driver/src/stm32f4xx_usart.c ****   {
 469:../STLibs//STM32F4xx_DSP_StdPeriph_Lib_V1.0.1/Libraries/STM32F4xx_StdPeriph_Driver/src/stm32f4xx_usart.c ****     /* Enable the 8x Oversampling mode by setting the OVER8 bit in the CR1 register */
 470:../STLibs//STM32F4xx_DSP_StdPeriph_Lib_V1.0.1/Libraries/STM32F4xx_StdPeriph_Driver/src/stm32f4xx_usart.c ****     USARTx->CR1 |= USART_CR1_OVER8;
 518              		.loc 1 470 0
 519 01c4 8389     		ldrh	r3, [r0, #12]
 467:../STLibs//STM32F4xx_DSP_StdPeriph_Lib_V1.0.1/Libraries/STM32F4xx_StdPeriph_Driver/src/stm32f4xx_usart.c ****   {
 520              		.loc 1 467 0
 521 01c6 19B1     		cbz	r1, .L32
 522              		.loc 1 470 0
 523 01c8 43F40043 		orr	r3, r3, #32768
 524              	.L34:
 471:../STLibs//STM32F4xx_DSP_StdPeriph_Lib_V1.0.1/Libraries/STM32F4xx_StdPeriph_Driver/src/stm32f4xx_usart.c ****   }
 472:../STLibs//STM32F4xx_DSP_StdPeriph_Lib_V1.0.1/Libraries/STM32F4xx_StdPeriph_Driver/src/stm32f4xx_usart.c ****   else
 473:../STLibs//STM32F4xx_DSP_StdPeriph_Lib_V1.0.1/Libraries/STM32F4xx_StdPeriph_Driver/src/stm32f4xx_usart.c ****   {
 474:../STLibs//STM32F4xx_DSP_StdPeriph_Lib_V1.0.1/Libraries/STM32F4xx_StdPeriph_Driver/src/stm32f4xx_usart.c ****     /* Disable the 8x Oversampling mode by clearing the OVER8 bit in the CR1 register */
 475:../STLibs//STM32F4xx_DSP_StdPeriph_Lib_V1.0.1/Libraries/STM32F4xx_StdPeriph_Driver/src/stm32f4xx_usart.c ****     USARTx->CR1 &= (uint16_t)~((uint16_t)USART_CR1_OVER8);
 525              		.loc 1 475 0
 526 01cc 8381     		strh	r3, [r0, #12]	@ movhi
 476:../STLibs//STM32F4xx_DSP_StdPeriph_Lib_V1.0.1/Libraries/STM32F4xx_StdPeriph_Driver/src/stm32f4xx_usart.c ****   }
 477:../STLibs//STM32F4xx_DSP_StdPeriph_Lib_V1.0.1/Libraries/STM32F4xx_StdPeriph_Driver/src/stm32f4xx_usart.c **** }  
 527              		.loc 1 477 0
 528 01ce 7047     		bx	lr
 529              	.L32:
 475:../STLibs//STM32F4xx_DSP_StdPeriph_Lib_V1.0.1/Libraries/STM32F4xx_StdPeriph_Driver/src/stm32f4xx_usart.c ****   }
 530              		.loc 1 475 0
 531 01d0 C3F30E03 		ubfx	r3, r3, #0, #15
 532 01d4 FAE7     		b	.L34
 533              		.cfi_endproc
 534              	.LFE117:
 536              		.align	1
 537              		.global	USART_OneBitMethodCmd
 538              		.syntax unified
 539              		.thumb
 540              		.thumb_func
 541              		.fpu fpv4-sp-d16
 543              	USART_OneBitMethodCmd:
 544              	.LFB118:
 478:../STLibs//STM32F4xx_DSP_StdPeriph_Lib_V1.0.1/Libraries/STM32F4xx_StdPeriph_Driver/src/stm32f4xx_usart.c **** 
 479:../STLibs//STM32F4xx_DSP_StdPeriph_Lib_V1.0.1/Libraries/STM32F4xx_StdPeriph_Driver/src/stm32f4xx_usart.c **** /**
 480:../STLibs//STM32F4xx_DSP_StdPeriph_Lib_V1.0.1/Libraries/STM32F4xx_StdPeriph_Driver/src/stm32f4xx_usart.c ****   * @brief  Enables or disables the USART's one bit sampling method.
 481:../STLibs//STM32F4xx_DSP_StdPeriph_Lib_V1.0.1/Libraries/STM32F4xx_StdPeriph_Driver/src/stm32f4xx_usart.c ****   * @param  USARTx: where x can be 1, 2, 3, 4, 5 or 6 to select the USART or 
 482:../STLibs//STM32F4xx_DSP_StdPeriph_Lib_V1.0.1/Libraries/STM32F4xx_StdPeriph_Driver/src/stm32f4xx_usart.c ****   *         UART peripheral.
 483:../STLibs//STM32F4xx_DSP_StdPeriph_Lib_V1.0.1/Libraries/STM32F4xx_StdPeriph_Driver/src/stm32f4xx_usart.c ****   * @param  NewState: new state of the USART one bit sampling method.
 484:../STLibs//STM32F4xx_DSP_StdPeriph_Lib_V1.0.1/Libraries/STM32F4xx_StdPeriph_Driver/src/stm32f4xx_usart.c ****   *          This parameter can be: ENABLE or DISABLE.
 485:../STLibs//STM32F4xx_DSP_StdPeriph_Lib_V1.0.1/Libraries/STM32F4xx_StdPeriph_Driver/src/stm32f4xx_usart.c ****   * @retval None
 486:../STLibs//STM32F4xx_DSP_StdPeriph_Lib_V1.0.1/Libraries/STM32F4xx_StdPeriph_Driver/src/stm32f4xx_usart.c ****   */
 487:../STLibs//STM32F4xx_DSP_StdPeriph_Lib_V1.0.1/Libraries/STM32F4xx_StdPeriph_Driver/src/stm32f4xx_usart.c **** void USART_OneBitMethodCmd(USART_TypeDef* USARTx, FunctionalState NewState)
 488:../STLibs//STM32F4xx_DSP_StdPeriph_Lib_V1.0.1/Libraries/STM32F4xx_StdPeriph_Driver/src/stm32f4xx_usart.c **** {
 545              		.loc 1 488 0
 546              		.cfi_startproc
 547              		@ args = 0, pretend = 0, frame = 0
 548              		@ frame_needed = 0, uses_anonymous_args = 0
 549              		@ link register save eliminated.
 550              	.LVL55:
 489:../STLibs//STM32F4xx_DSP_StdPeriph_Lib_V1.0.1/Libraries/STM32F4xx_StdPeriph_Driver/src/stm32f4xx_usart.c ****   /* Check the parameters */
 490:../STLibs//STM32F4xx_DSP_StdPeriph_Lib_V1.0.1/Libraries/STM32F4xx_StdPeriph_Driver/src/stm32f4xx_usart.c ****   assert_param(IS_USART_ALL_PERIPH(USARTx));
 491:../STLibs//STM32F4xx_DSP_StdPeriph_Lib_V1.0.1/Libraries/STM32F4xx_StdPeriph_Driver/src/stm32f4xx_usart.c ****   assert_param(IS_FUNCTIONAL_STATE(NewState));
 492:../STLibs//STM32F4xx_DSP_StdPeriph_Lib_V1.0.1/Libraries/STM32F4xx_StdPeriph_Driver/src/stm32f4xx_usart.c ****   
 493:../STLibs//STM32F4xx_DSP_StdPeriph_Lib_V1.0.1/Libraries/STM32F4xx_StdPeriph_Driver/src/stm32f4xx_usart.c ****   if (NewState != DISABLE)
 494:../STLibs//STM32F4xx_DSP_StdPeriph_Lib_V1.0.1/Libraries/STM32F4xx_StdPeriph_Driver/src/stm32f4xx_usart.c ****   {
 495:../STLibs//STM32F4xx_DSP_StdPeriph_Lib_V1.0.1/Libraries/STM32F4xx_StdPeriph_Driver/src/stm32f4xx_usart.c ****     /* Enable the one bit method by setting the ONEBITE bit in the CR3 register */
 496:../STLibs//STM32F4xx_DSP_StdPeriph_Lib_V1.0.1/Libraries/STM32F4xx_StdPeriph_Driver/src/stm32f4xx_usart.c ****     USARTx->CR3 |= USART_CR3_ONEBIT;
 551              		.loc 1 496 0
 552 01d6 838A     		ldrh	r3, [r0, #20]
 493:../STLibs//STM32F4xx_DSP_StdPeriph_Lib_V1.0.1/Libraries/STM32F4xx_StdPeriph_Driver/src/stm32f4xx_usart.c ****   {
 553              		.loc 1 493 0
 554 01d8 19B1     		cbz	r1, .L36
 555              		.loc 1 496 0
 556 01da 43F40063 		orr	r3, r3, #2048
 557              	.L38:
 497:../STLibs//STM32F4xx_DSP_StdPeriph_Lib_V1.0.1/Libraries/STM32F4xx_StdPeriph_Driver/src/stm32f4xx_usart.c ****   }
 498:../STLibs//STM32F4xx_DSP_StdPeriph_Lib_V1.0.1/Libraries/STM32F4xx_StdPeriph_Driver/src/stm32f4xx_usart.c ****   else
 499:../STLibs//STM32F4xx_DSP_StdPeriph_Lib_V1.0.1/Libraries/STM32F4xx_StdPeriph_Driver/src/stm32f4xx_usart.c ****   {
 500:../STLibs//STM32F4xx_DSP_StdPeriph_Lib_V1.0.1/Libraries/STM32F4xx_StdPeriph_Driver/src/stm32f4xx_usart.c ****     /* Disable the one bit method by clearing the ONEBITE bit in the CR3 register */
 501:../STLibs//STM32F4xx_DSP_StdPeriph_Lib_V1.0.1/Libraries/STM32F4xx_StdPeriph_Driver/src/stm32f4xx_usart.c ****     USARTx->CR3 &= (uint16_t)~((uint16_t)USART_CR3_ONEBIT);
 558              		.loc 1 501 0
 559 01de 8382     		strh	r3, [r0, #20]	@ movhi
 502:../STLibs//STM32F4xx_DSP_StdPeriph_Lib_V1.0.1/Libraries/STM32F4xx_StdPeriph_Driver/src/stm32f4xx_usart.c ****   }
 503:../STLibs//STM32F4xx_DSP_StdPeriph_Lib_V1.0.1/Libraries/STM32F4xx_StdPeriph_Driver/src/stm32f4xx_usart.c **** }
 560              		.loc 1 503 0
 561 01e0 7047     		bx	lr
 562              	.L36:
 501:../STLibs//STM32F4xx_DSP_StdPeriph_Lib_V1.0.1/Libraries/STM32F4xx_StdPeriph_Driver/src/stm32f4xx_usart.c ****   }
 563              		.loc 1 501 0
 564 01e2 23F40063 		bic	r3, r3, #2048
 565 01e6 1B04     		lsls	r3, r3, #16
 566 01e8 1B0C     		lsrs	r3, r3, #16
 567 01ea F8E7     		b	.L38
 568              		.cfi_endproc
 569              	.LFE118:
 571              		.align	1
 572              		.global	USART_SendData
 573              		.syntax unified
 574              		.thumb
 575              		.thumb_func
 576              		.fpu fpv4-sp-d16
 578              	USART_SendData:
 579              	.LFB119:
 504:../STLibs//STM32F4xx_DSP_StdPeriph_Lib_V1.0.1/Libraries/STM32F4xx_StdPeriph_Driver/src/stm32f4xx_usart.c **** 
 505:../STLibs//STM32F4xx_DSP_StdPeriph_Lib_V1.0.1/Libraries/STM32F4xx_StdPeriph_Driver/src/stm32f4xx_usart.c **** /**
 506:../STLibs//STM32F4xx_DSP_StdPeriph_Lib_V1.0.1/Libraries/STM32F4xx_StdPeriph_Driver/src/stm32f4xx_usart.c ****   * @}
 507:../STLibs//STM32F4xx_DSP_StdPeriph_Lib_V1.0.1/Libraries/STM32F4xx_StdPeriph_Driver/src/stm32f4xx_usart.c ****   */
 508:../STLibs//STM32F4xx_DSP_StdPeriph_Lib_V1.0.1/Libraries/STM32F4xx_StdPeriph_Driver/src/stm32f4xx_usart.c **** 
 509:../STLibs//STM32F4xx_DSP_StdPeriph_Lib_V1.0.1/Libraries/STM32F4xx_StdPeriph_Driver/src/stm32f4xx_usart.c **** /** @defgroup USART_Group2 Data transfers functions
 510:../STLibs//STM32F4xx_DSP_StdPeriph_Lib_V1.0.1/Libraries/STM32F4xx_StdPeriph_Driver/src/stm32f4xx_usart.c ****  *  @brief   Data transfers functions 
 511:../STLibs//STM32F4xx_DSP_StdPeriph_Lib_V1.0.1/Libraries/STM32F4xx_StdPeriph_Driver/src/stm32f4xx_usart.c ****  *
 512:../STLibs//STM32F4xx_DSP_StdPeriph_Lib_V1.0.1/Libraries/STM32F4xx_StdPeriph_Driver/src/stm32f4xx_usart.c **** @verbatim   
 513:../STLibs//STM32F4xx_DSP_StdPeriph_Lib_V1.0.1/Libraries/STM32F4xx_StdPeriph_Driver/src/stm32f4xx_usart.c ****  ===============================================================================
 514:../STLibs//STM32F4xx_DSP_StdPeriph_Lib_V1.0.1/Libraries/STM32F4xx_StdPeriph_Driver/src/stm32f4xx_usart.c ****                             Data transfers functions
 515:../STLibs//STM32F4xx_DSP_StdPeriph_Lib_V1.0.1/Libraries/STM32F4xx_StdPeriph_Driver/src/stm32f4xx_usart.c ****  ===============================================================================  
 516:../STLibs//STM32F4xx_DSP_StdPeriph_Lib_V1.0.1/Libraries/STM32F4xx_StdPeriph_Driver/src/stm32f4xx_usart.c **** 
 517:../STLibs//STM32F4xx_DSP_StdPeriph_Lib_V1.0.1/Libraries/STM32F4xx_StdPeriph_Driver/src/stm32f4xx_usart.c ****   This subsection provides a set of functions allowing to manage the USART data 
 518:../STLibs//STM32F4xx_DSP_StdPeriph_Lib_V1.0.1/Libraries/STM32F4xx_StdPeriph_Driver/src/stm32f4xx_usart.c ****   transfers.
 519:../STLibs//STM32F4xx_DSP_StdPeriph_Lib_V1.0.1/Libraries/STM32F4xx_StdPeriph_Driver/src/stm32f4xx_usart.c ****   
 520:../STLibs//STM32F4xx_DSP_StdPeriph_Lib_V1.0.1/Libraries/STM32F4xx_StdPeriph_Driver/src/stm32f4xx_usart.c ****   During an USART reception, data shifts in least significant bit first through 
 521:../STLibs//STM32F4xx_DSP_StdPeriph_Lib_V1.0.1/Libraries/STM32F4xx_StdPeriph_Driver/src/stm32f4xx_usart.c ****   the RX pin. In this mode, the USART_DR register consists of a buffer (RDR) 
 522:../STLibs//STM32F4xx_DSP_StdPeriph_Lib_V1.0.1/Libraries/STM32F4xx_StdPeriph_Driver/src/stm32f4xx_usart.c ****   between the internal bus and the received shift register.
 523:../STLibs//STM32F4xx_DSP_StdPeriph_Lib_V1.0.1/Libraries/STM32F4xx_StdPeriph_Driver/src/stm32f4xx_usart.c **** 
 524:../STLibs//STM32F4xx_DSP_StdPeriph_Lib_V1.0.1/Libraries/STM32F4xx_StdPeriph_Driver/src/stm32f4xx_usart.c ****   When a transmission is taking place, a write instruction to the USART_DR register 
 525:../STLibs//STM32F4xx_DSP_StdPeriph_Lib_V1.0.1/Libraries/STM32F4xx_StdPeriph_Driver/src/stm32f4xx_usart.c ****   stores the data in the TDR register and which is copied in the shift register 
 526:../STLibs//STM32F4xx_DSP_StdPeriph_Lib_V1.0.1/Libraries/STM32F4xx_StdPeriph_Driver/src/stm32f4xx_usart.c ****   at the end of the current transmission.
 527:../STLibs//STM32F4xx_DSP_StdPeriph_Lib_V1.0.1/Libraries/STM32F4xx_StdPeriph_Driver/src/stm32f4xx_usart.c **** 
 528:../STLibs//STM32F4xx_DSP_StdPeriph_Lib_V1.0.1/Libraries/STM32F4xx_StdPeriph_Driver/src/stm32f4xx_usart.c ****   The read access of the USART_DR register can be done using the USART_ReceiveData()
 529:../STLibs//STM32F4xx_DSP_StdPeriph_Lib_V1.0.1/Libraries/STM32F4xx_StdPeriph_Driver/src/stm32f4xx_usart.c ****   function and returns the RDR buffered value. Whereas a write access to the USART_DR 
 530:../STLibs//STM32F4xx_DSP_StdPeriph_Lib_V1.0.1/Libraries/STM32F4xx_StdPeriph_Driver/src/stm32f4xx_usart.c ****   can be done using USART_SendData() function and stores the written data into 
 531:../STLibs//STM32F4xx_DSP_StdPeriph_Lib_V1.0.1/Libraries/STM32F4xx_StdPeriph_Driver/src/stm32f4xx_usart.c ****   TDR buffer.
 532:../STLibs//STM32F4xx_DSP_StdPeriph_Lib_V1.0.1/Libraries/STM32F4xx_StdPeriph_Driver/src/stm32f4xx_usart.c **** 
 533:../STLibs//STM32F4xx_DSP_StdPeriph_Lib_V1.0.1/Libraries/STM32F4xx_StdPeriph_Driver/src/stm32f4xx_usart.c **** @endverbatim
 534:../STLibs//STM32F4xx_DSP_StdPeriph_Lib_V1.0.1/Libraries/STM32F4xx_StdPeriph_Driver/src/stm32f4xx_usart.c ****   * @{
 535:../STLibs//STM32F4xx_DSP_StdPeriph_Lib_V1.0.1/Libraries/STM32F4xx_StdPeriph_Driver/src/stm32f4xx_usart.c ****   */
 536:../STLibs//STM32F4xx_DSP_StdPeriph_Lib_V1.0.1/Libraries/STM32F4xx_StdPeriph_Driver/src/stm32f4xx_usart.c **** 
 537:../STLibs//STM32F4xx_DSP_StdPeriph_Lib_V1.0.1/Libraries/STM32F4xx_StdPeriph_Driver/src/stm32f4xx_usart.c **** /**
 538:../STLibs//STM32F4xx_DSP_StdPeriph_Lib_V1.0.1/Libraries/STM32F4xx_StdPeriph_Driver/src/stm32f4xx_usart.c ****   * @brief  Transmits single data through the USARTx peripheral.
 539:../STLibs//STM32F4xx_DSP_StdPeriph_Lib_V1.0.1/Libraries/STM32F4xx_StdPeriph_Driver/src/stm32f4xx_usart.c ****   * @param  USARTx: where x can be 1, 2, 3, 4, 5 or 6 to select the USART or 
 540:../STLibs//STM32F4xx_DSP_StdPeriph_Lib_V1.0.1/Libraries/STM32F4xx_StdPeriph_Driver/src/stm32f4xx_usart.c ****   *         UART peripheral.
 541:../STLibs//STM32F4xx_DSP_StdPeriph_Lib_V1.0.1/Libraries/STM32F4xx_StdPeriph_Driver/src/stm32f4xx_usart.c ****   * @param  Data: the data to transmit.
 542:../STLibs//STM32F4xx_DSP_StdPeriph_Lib_V1.0.1/Libraries/STM32F4xx_StdPeriph_Driver/src/stm32f4xx_usart.c ****   * @retval None
 543:../STLibs//STM32F4xx_DSP_StdPeriph_Lib_V1.0.1/Libraries/STM32F4xx_StdPeriph_Driver/src/stm32f4xx_usart.c ****   */
 544:../STLibs//STM32F4xx_DSP_StdPeriph_Lib_V1.0.1/Libraries/STM32F4xx_StdPeriph_Driver/src/stm32f4xx_usart.c **** void USART_SendData(USART_TypeDef* USARTx, uint16_t Data)
 545:../STLibs//STM32F4xx_DSP_StdPeriph_Lib_V1.0.1/Libraries/STM32F4xx_StdPeriph_Driver/src/stm32f4xx_usart.c **** {
 580              		.loc 1 545 0
 581              		.cfi_startproc
 582              		@ args = 0, pretend = 0, frame = 0
 583              		@ frame_needed = 0, uses_anonymous_args = 0
 584              		@ link register save eliminated.
 585              	.LVL56:
 546:../STLibs//STM32F4xx_DSP_StdPeriph_Lib_V1.0.1/Libraries/STM32F4xx_StdPeriph_Driver/src/stm32f4xx_usart.c ****   /* Check the parameters */
 547:../STLibs//STM32F4xx_DSP_StdPeriph_Lib_V1.0.1/Libraries/STM32F4xx_StdPeriph_Driver/src/stm32f4xx_usart.c ****   assert_param(IS_USART_ALL_PERIPH(USARTx));
 548:../STLibs//STM32F4xx_DSP_StdPeriph_Lib_V1.0.1/Libraries/STM32F4xx_StdPeriph_Driver/src/stm32f4xx_usart.c ****   assert_param(IS_USART_DATA(Data)); 
 549:../STLibs//STM32F4xx_DSP_StdPeriph_Lib_V1.0.1/Libraries/STM32F4xx_StdPeriph_Driver/src/stm32f4xx_usart.c ****     
 550:../STLibs//STM32F4xx_DSP_StdPeriph_Lib_V1.0.1/Libraries/STM32F4xx_StdPeriph_Driver/src/stm32f4xx_usart.c ****   /* Transmit Data */
 551:../STLibs//STM32F4xx_DSP_StdPeriph_Lib_V1.0.1/Libraries/STM32F4xx_StdPeriph_Driver/src/stm32f4xx_usart.c ****   USARTx->DR = (Data & (uint16_t)0x01FF);
 586              		.loc 1 551 0
 587 01ec C1F30801 		ubfx	r1, r1, #0, #9
 588              	.LVL57:
 589 01f0 8180     		strh	r1, [r0, #4]	@ movhi
 552:../STLibs//STM32F4xx_DSP_StdPeriph_Lib_V1.0.1/Libraries/STM32F4xx_StdPeriph_Driver/src/stm32f4xx_usart.c **** }
 590              		.loc 1 552 0
 591 01f2 7047     		bx	lr
 592              		.cfi_endproc
 593              	.LFE119:
 595              		.align	1
 596              		.global	USART_ReceiveData
 597              		.syntax unified
 598              		.thumb
 599              		.thumb_func
 600              		.fpu fpv4-sp-d16
 602              	USART_ReceiveData:
 603              	.LFB120:
 553:../STLibs//STM32F4xx_DSP_StdPeriph_Lib_V1.0.1/Libraries/STM32F4xx_StdPeriph_Driver/src/stm32f4xx_usart.c **** 
 554:../STLibs//STM32F4xx_DSP_StdPeriph_Lib_V1.0.1/Libraries/STM32F4xx_StdPeriph_Driver/src/stm32f4xx_usart.c **** /**
 555:../STLibs//STM32F4xx_DSP_StdPeriph_Lib_V1.0.1/Libraries/STM32F4xx_StdPeriph_Driver/src/stm32f4xx_usart.c ****   * @brief  Returns the most recent received data by the USARTx peripheral.
 556:../STLibs//STM32F4xx_DSP_StdPeriph_Lib_V1.0.1/Libraries/STM32F4xx_StdPeriph_Driver/src/stm32f4xx_usart.c ****   * @param  USARTx: where x can be 1, 2, 3, 4, 5 or 6 to select the USART or 
 557:../STLibs//STM32F4xx_DSP_StdPeriph_Lib_V1.0.1/Libraries/STM32F4xx_StdPeriph_Driver/src/stm32f4xx_usart.c ****   *         UART peripheral.
 558:../STLibs//STM32F4xx_DSP_StdPeriph_Lib_V1.0.1/Libraries/STM32F4xx_StdPeriph_Driver/src/stm32f4xx_usart.c ****   * @retval The received data.
 559:../STLibs//STM32F4xx_DSP_StdPeriph_Lib_V1.0.1/Libraries/STM32F4xx_StdPeriph_Driver/src/stm32f4xx_usart.c ****   */
 560:../STLibs//STM32F4xx_DSP_StdPeriph_Lib_V1.0.1/Libraries/STM32F4xx_StdPeriph_Driver/src/stm32f4xx_usart.c **** uint16_t USART_ReceiveData(USART_TypeDef* USARTx)
 561:../STLibs//STM32F4xx_DSP_StdPeriph_Lib_V1.0.1/Libraries/STM32F4xx_StdPeriph_Driver/src/stm32f4xx_usart.c **** {
 604              		.loc 1 561 0
 605              		.cfi_startproc
 606              		@ args = 0, pretend = 0, frame = 0
 607              		@ frame_needed = 0, uses_anonymous_args = 0
 608              		@ link register save eliminated.
 609              	.LVL58:
 562:../STLibs//STM32F4xx_DSP_StdPeriph_Lib_V1.0.1/Libraries/STM32F4xx_StdPeriph_Driver/src/stm32f4xx_usart.c ****   /* Check the parameters */
 563:../STLibs//STM32F4xx_DSP_StdPeriph_Lib_V1.0.1/Libraries/STM32F4xx_StdPeriph_Driver/src/stm32f4xx_usart.c ****   assert_param(IS_USART_ALL_PERIPH(USARTx));
 564:../STLibs//STM32F4xx_DSP_StdPeriph_Lib_V1.0.1/Libraries/STM32F4xx_StdPeriph_Driver/src/stm32f4xx_usart.c ****   
 565:../STLibs//STM32F4xx_DSP_StdPeriph_Lib_V1.0.1/Libraries/STM32F4xx_StdPeriph_Driver/src/stm32f4xx_usart.c ****   /* Receive Data */
 566:../STLibs//STM32F4xx_DSP_StdPeriph_Lib_V1.0.1/Libraries/STM32F4xx_StdPeriph_Driver/src/stm32f4xx_usart.c ****   return (uint16_t)(USARTx->DR & (uint16_t)0x01FF);
 610              		.loc 1 566 0
 611 01f4 8088     		ldrh	r0, [r0, #4]
 612              	.LVL59:
 567:../STLibs//STM32F4xx_DSP_StdPeriph_Lib_V1.0.1/Libraries/STM32F4xx_StdPeriph_Driver/src/stm32f4xx_usart.c **** }
 613              		.loc 1 567 0
 614 01f6 C0F30800 		ubfx	r0, r0, #0, #9
 615 01fa 7047     		bx	lr
 616              		.cfi_endproc
 617              	.LFE120:
 619              		.align	1
 620              		.global	USART_SetAddress
 621              		.syntax unified
 622              		.thumb
 623              		.thumb_func
 624              		.fpu fpv4-sp-d16
 626              	USART_SetAddress:
 627              	.LFB121:
 568:../STLibs//STM32F4xx_DSP_StdPeriph_Lib_V1.0.1/Libraries/STM32F4xx_StdPeriph_Driver/src/stm32f4xx_usart.c **** 
 569:../STLibs//STM32F4xx_DSP_StdPeriph_Lib_V1.0.1/Libraries/STM32F4xx_StdPeriph_Driver/src/stm32f4xx_usart.c **** /**
 570:../STLibs//STM32F4xx_DSP_StdPeriph_Lib_V1.0.1/Libraries/STM32F4xx_StdPeriph_Driver/src/stm32f4xx_usart.c ****   * @}
 571:../STLibs//STM32F4xx_DSP_StdPeriph_Lib_V1.0.1/Libraries/STM32F4xx_StdPeriph_Driver/src/stm32f4xx_usart.c ****   */
 572:../STLibs//STM32F4xx_DSP_StdPeriph_Lib_V1.0.1/Libraries/STM32F4xx_StdPeriph_Driver/src/stm32f4xx_usart.c **** 
 573:../STLibs//STM32F4xx_DSP_StdPeriph_Lib_V1.0.1/Libraries/STM32F4xx_StdPeriph_Driver/src/stm32f4xx_usart.c **** /** @defgroup USART_Group3 MultiProcessor Communication functions
 574:../STLibs//STM32F4xx_DSP_StdPeriph_Lib_V1.0.1/Libraries/STM32F4xx_StdPeriph_Driver/src/stm32f4xx_usart.c ****  *  @brief   Multi-Processor Communication functions 
 575:../STLibs//STM32F4xx_DSP_StdPeriph_Lib_V1.0.1/Libraries/STM32F4xx_StdPeriph_Driver/src/stm32f4xx_usart.c ****  *
 576:../STLibs//STM32F4xx_DSP_StdPeriph_Lib_V1.0.1/Libraries/STM32F4xx_StdPeriph_Driver/src/stm32f4xx_usart.c **** @verbatim   
 577:../STLibs//STM32F4xx_DSP_StdPeriph_Lib_V1.0.1/Libraries/STM32F4xx_StdPeriph_Driver/src/stm32f4xx_usart.c ****  ===============================================================================
 578:../STLibs//STM32F4xx_DSP_StdPeriph_Lib_V1.0.1/Libraries/STM32F4xx_StdPeriph_Driver/src/stm32f4xx_usart.c ****                     Multi-Processor Communication functions
 579:../STLibs//STM32F4xx_DSP_StdPeriph_Lib_V1.0.1/Libraries/STM32F4xx_StdPeriph_Driver/src/stm32f4xx_usart.c ****  ===============================================================================  
 580:../STLibs//STM32F4xx_DSP_StdPeriph_Lib_V1.0.1/Libraries/STM32F4xx_StdPeriph_Driver/src/stm32f4xx_usart.c **** 
 581:../STLibs//STM32F4xx_DSP_StdPeriph_Lib_V1.0.1/Libraries/STM32F4xx_StdPeriph_Driver/src/stm32f4xx_usart.c ****   This subsection provides a set of functions allowing to manage the USART 
 582:../STLibs//STM32F4xx_DSP_StdPeriph_Lib_V1.0.1/Libraries/STM32F4xx_StdPeriph_Driver/src/stm32f4xx_usart.c ****   multiprocessor communication.
 583:../STLibs//STM32F4xx_DSP_StdPeriph_Lib_V1.0.1/Libraries/STM32F4xx_StdPeriph_Driver/src/stm32f4xx_usart.c ****   
 584:../STLibs//STM32F4xx_DSP_StdPeriph_Lib_V1.0.1/Libraries/STM32F4xx_StdPeriph_Driver/src/stm32f4xx_usart.c ****   For instance one of the USARTs can be the master, its TX output is connected to 
 585:../STLibs//STM32F4xx_DSP_StdPeriph_Lib_V1.0.1/Libraries/STM32F4xx_StdPeriph_Driver/src/stm32f4xx_usart.c ****   the RX input of the other USART. The others are slaves, their respective TX outputs 
 586:../STLibs//STM32F4xx_DSP_StdPeriph_Lib_V1.0.1/Libraries/STM32F4xx_StdPeriph_Driver/src/stm32f4xx_usart.c ****   are logically ANDed together and connected to the RX input of the master.
 587:../STLibs//STM32F4xx_DSP_StdPeriph_Lib_V1.0.1/Libraries/STM32F4xx_StdPeriph_Driver/src/stm32f4xx_usart.c **** 
 588:../STLibs//STM32F4xx_DSP_StdPeriph_Lib_V1.0.1/Libraries/STM32F4xx_StdPeriph_Driver/src/stm32f4xx_usart.c ****   USART multiprocessor communication is possible through the following procedure:
 589:../STLibs//STM32F4xx_DSP_StdPeriph_Lib_V1.0.1/Libraries/STM32F4xx_StdPeriph_Driver/src/stm32f4xx_usart.c ****      1. Program the Baud rate, Word length = 9 bits, Stop bits, Parity, Mode transmitter 
 590:../STLibs//STM32F4xx_DSP_StdPeriph_Lib_V1.0.1/Libraries/STM32F4xx_StdPeriph_Driver/src/stm32f4xx_usart.c ****         or Mode receiver and hardware flow control values using the USART_Init()
 591:../STLibs//STM32F4xx_DSP_StdPeriph_Lib_V1.0.1/Libraries/STM32F4xx_StdPeriph_Driver/src/stm32f4xx_usart.c ****         function.
 592:../STLibs//STM32F4xx_DSP_StdPeriph_Lib_V1.0.1/Libraries/STM32F4xx_StdPeriph_Driver/src/stm32f4xx_usart.c ****      2. Configures the USART address using the USART_SetAddress() function.
 593:../STLibs//STM32F4xx_DSP_StdPeriph_Lib_V1.0.1/Libraries/STM32F4xx_StdPeriph_Driver/src/stm32f4xx_usart.c ****      3. Configures the wake up method (USART_WakeUp_IdleLine or USART_WakeUp_AddressMark)
 594:../STLibs//STM32F4xx_DSP_StdPeriph_Lib_V1.0.1/Libraries/STM32F4xx_StdPeriph_Driver/src/stm32f4xx_usart.c ****         using USART_WakeUpConfig() function only for the slaves.
 595:../STLibs//STM32F4xx_DSP_StdPeriph_Lib_V1.0.1/Libraries/STM32F4xx_StdPeriph_Driver/src/stm32f4xx_usart.c ****      4. Enable the USART using the USART_Cmd() function.
 596:../STLibs//STM32F4xx_DSP_StdPeriph_Lib_V1.0.1/Libraries/STM32F4xx_StdPeriph_Driver/src/stm32f4xx_usart.c ****      5. Enter the USART slaves in mute mode using USART_ReceiverWakeUpCmd() function.
 597:../STLibs//STM32F4xx_DSP_StdPeriph_Lib_V1.0.1/Libraries/STM32F4xx_StdPeriph_Driver/src/stm32f4xx_usart.c **** 
 598:../STLibs//STM32F4xx_DSP_StdPeriph_Lib_V1.0.1/Libraries/STM32F4xx_StdPeriph_Driver/src/stm32f4xx_usart.c ****   The USART Slave exit from mute mode when receive the wake up condition.
 599:../STLibs//STM32F4xx_DSP_StdPeriph_Lib_V1.0.1/Libraries/STM32F4xx_StdPeriph_Driver/src/stm32f4xx_usart.c **** 
 600:../STLibs//STM32F4xx_DSP_StdPeriph_Lib_V1.0.1/Libraries/STM32F4xx_StdPeriph_Driver/src/stm32f4xx_usart.c **** @endverbatim
 601:../STLibs//STM32F4xx_DSP_StdPeriph_Lib_V1.0.1/Libraries/STM32F4xx_StdPeriph_Driver/src/stm32f4xx_usart.c ****   * @{
 602:../STLibs//STM32F4xx_DSP_StdPeriph_Lib_V1.0.1/Libraries/STM32F4xx_StdPeriph_Driver/src/stm32f4xx_usart.c ****   */
 603:../STLibs//STM32F4xx_DSP_StdPeriph_Lib_V1.0.1/Libraries/STM32F4xx_StdPeriph_Driver/src/stm32f4xx_usart.c **** 
 604:../STLibs//STM32F4xx_DSP_StdPeriph_Lib_V1.0.1/Libraries/STM32F4xx_StdPeriph_Driver/src/stm32f4xx_usart.c **** /**
 605:../STLibs//STM32F4xx_DSP_StdPeriph_Lib_V1.0.1/Libraries/STM32F4xx_StdPeriph_Driver/src/stm32f4xx_usart.c ****   * @brief  Sets the address of the USART node.
 606:../STLibs//STM32F4xx_DSP_StdPeriph_Lib_V1.0.1/Libraries/STM32F4xx_StdPeriph_Driver/src/stm32f4xx_usart.c ****   * @param  USARTx: where x can be 1, 2, 3, 4, 5 or 6 to select the USART or 
 607:../STLibs//STM32F4xx_DSP_StdPeriph_Lib_V1.0.1/Libraries/STM32F4xx_StdPeriph_Driver/src/stm32f4xx_usart.c ****   *         UART peripheral.
 608:../STLibs//STM32F4xx_DSP_StdPeriph_Lib_V1.0.1/Libraries/STM32F4xx_StdPeriph_Driver/src/stm32f4xx_usart.c ****   * @param  USART_Address: Indicates the address of the USART node.
 609:../STLibs//STM32F4xx_DSP_StdPeriph_Lib_V1.0.1/Libraries/STM32F4xx_StdPeriph_Driver/src/stm32f4xx_usart.c ****   * @retval None
 610:../STLibs//STM32F4xx_DSP_StdPeriph_Lib_V1.0.1/Libraries/STM32F4xx_StdPeriph_Driver/src/stm32f4xx_usart.c ****   */
 611:../STLibs//STM32F4xx_DSP_StdPeriph_Lib_V1.0.1/Libraries/STM32F4xx_StdPeriph_Driver/src/stm32f4xx_usart.c **** void USART_SetAddress(USART_TypeDef* USARTx, uint8_t USART_Address)
 612:../STLibs//STM32F4xx_DSP_StdPeriph_Lib_V1.0.1/Libraries/STM32F4xx_StdPeriph_Driver/src/stm32f4xx_usart.c **** {
 628              		.loc 1 612 0
 629              		.cfi_startproc
 630              		@ args = 0, pretend = 0, frame = 0
 631              		@ frame_needed = 0, uses_anonymous_args = 0
 632              		@ link register save eliminated.
 633              	.LVL60:
 613:../STLibs//STM32F4xx_DSP_StdPeriph_Lib_V1.0.1/Libraries/STM32F4xx_StdPeriph_Driver/src/stm32f4xx_usart.c ****   /* Check the parameters */
 614:../STLibs//STM32F4xx_DSP_StdPeriph_Lib_V1.0.1/Libraries/STM32F4xx_StdPeriph_Driver/src/stm32f4xx_usart.c ****   assert_param(IS_USART_ALL_PERIPH(USARTx));
 615:../STLibs//STM32F4xx_DSP_StdPeriph_Lib_V1.0.1/Libraries/STM32F4xx_StdPeriph_Driver/src/stm32f4xx_usart.c ****   assert_param(IS_USART_ADDRESS(USART_Address)); 
 616:../STLibs//STM32F4xx_DSP_StdPeriph_Lib_V1.0.1/Libraries/STM32F4xx_StdPeriph_Driver/src/stm32f4xx_usart.c ****     
 617:../STLibs//STM32F4xx_DSP_StdPeriph_Lib_V1.0.1/Libraries/STM32F4xx_StdPeriph_Driver/src/stm32f4xx_usart.c ****   /* Clear the USART address */
 618:../STLibs//STM32F4xx_DSP_StdPeriph_Lib_V1.0.1/Libraries/STM32F4xx_StdPeriph_Driver/src/stm32f4xx_usart.c ****   USARTx->CR2 &= (uint16_t)~((uint16_t)USART_CR2_ADD);
 634              		.loc 1 618 0
 635 01fc 038A     		ldrh	r3, [r0, #16]
 636 01fe 23F00F03 		bic	r3, r3, #15
 637 0202 1B04     		lsls	r3, r3, #16
 638 0204 1B0C     		lsrs	r3, r3, #16
 639 0206 0382     		strh	r3, [r0, #16]	@ movhi
 619:../STLibs//STM32F4xx_DSP_StdPeriph_Lib_V1.0.1/Libraries/STM32F4xx_StdPeriph_Driver/src/stm32f4xx_usart.c ****   /* Set the USART address node */
 620:../STLibs//STM32F4xx_DSP_StdPeriph_Lib_V1.0.1/Libraries/STM32F4xx_StdPeriph_Driver/src/stm32f4xx_usart.c ****   USARTx->CR2 |= USART_Address;
 640              		.loc 1 620 0
 641 0208 038A     		ldrh	r3, [r0, #16]
 642 020a 1943     		orrs	r1, r1, r3
 643              	.LVL61:
 644 020c 0182     		strh	r1, [r0, #16]	@ movhi
 621:../STLibs//STM32F4xx_DSP_StdPeriph_Lib_V1.0.1/Libraries/STM32F4xx_StdPeriph_Driver/src/stm32f4xx_usart.c **** }
 645              		.loc 1 621 0
 646 020e 7047     		bx	lr
 647              		.cfi_endproc
 648              	.LFE121:
 650              		.align	1
 651              		.global	USART_ReceiverWakeUpCmd
 652              		.syntax unified
 653              		.thumb
 654              		.thumb_func
 655              		.fpu fpv4-sp-d16
 657              	USART_ReceiverWakeUpCmd:
 658              	.LFB122:
 622:../STLibs//STM32F4xx_DSP_StdPeriph_Lib_V1.0.1/Libraries/STM32F4xx_StdPeriph_Driver/src/stm32f4xx_usart.c **** 
 623:../STLibs//STM32F4xx_DSP_StdPeriph_Lib_V1.0.1/Libraries/STM32F4xx_StdPeriph_Driver/src/stm32f4xx_usart.c **** /**
 624:../STLibs//STM32F4xx_DSP_StdPeriph_Lib_V1.0.1/Libraries/STM32F4xx_StdPeriph_Driver/src/stm32f4xx_usart.c ****   * @brief  Determines if the USART is in mute mode or not.
 625:../STLibs//STM32F4xx_DSP_StdPeriph_Lib_V1.0.1/Libraries/STM32F4xx_StdPeriph_Driver/src/stm32f4xx_usart.c ****   * @param  USARTx: where x can be 1, 2, 3, 4, 5 or 6 to select the USART or 
 626:../STLibs//STM32F4xx_DSP_StdPeriph_Lib_V1.0.1/Libraries/STM32F4xx_StdPeriph_Driver/src/stm32f4xx_usart.c ****   *         UART peripheral.
 627:../STLibs//STM32F4xx_DSP_StdPeriph_Lib_V1.0.1/Libraries/STM32F4xx_StdPeriph_Driver/src/stm32f4xx_usart.c ****   * @param  NewState: new state of the USART mute mode.
 628:../STLibs//STM32F4xx_DSP_StdPeriph_Lib_V1.0.1/Libraries/STM32F4xx_StdPeriph_Driver/src/stm32f4xx_usart.c ****   *          This parameter can be: ENABLE or DISABLE.
 629:../STLibs//STM32F4xx_DSP_StdPeriph_Lib_V1.0.1/Libraries/STM32F4xx_StdPeriph_Driver/src/stm32f4xx_usart.c ****   * @retval None
 630:../STLibs//STM32F4xx_DSP_StdPeriph_Lib_V1.0.1/Libraries/STM32F4xx_StdPeriph_Driver/src/stm32f4xx_usart.c ****   */
 631:../STLibs//STM32F4xx_DSP_StdPeriph_Lib_V1.0.1/Libraries/STM32F4xx_StdPeriph_Driver/src/stm32f4xx_usart.c **** void USART_ReceiverWakeUpCmd(USART_TypeDef* USARTx, FunctionalState NewState)
 632:../STLibs//STM32F4xx_DSP_StdPeriph_Lib_V1.0.1/Libraries/STM32F4xx_StdPeriph_Driver/src/stm32f4xx_usart.c **** {
 659              		.loc 1 632 0
 660              		.cfi_startproc
 661              		@ args = 0, pretend = 0, frame = 0
 662              		@ frame_needed = 0, uses_anonymous_args = 0
 663              		@ link register save eliminated.
 664              	.LVL62:
 633:../STLibs//STM32F4xx_DSP_StdPeriph_Lib_V1.0.1/Libraries/STM32F4xx_StdPeriph_Driver/src/stm32f4xx_usart.c ****   /* Check the parameters */
 634:../STLibs//STM32F4xx_DSP_StdPeriph_Lib_V1.0.1/Libraries/STM32F4xx_StdPeriph_Driver/src/stm32f4xx_usart.c ****   assert_param(IS_USART_ALL_PERIPH(USARTx));
 635:../STLibs//STM32F4xx_DSP_StdPeriph_Lib_V1.0.1/Libraries/STM32F4xx_StdPeriph_Driver/src/stm32f4xx_usart.c ****   assert_param(IS_FUNCTIONAL_STATE(NewState)); 
 636:../STLibs//STM32F4xx_DSP_StdPeriph_Lib_V1.0.1/Libraries/STM32F4xx_StdPeriph_Driver/src/stm32f4xx_usart.c ****   
 637:../STLibs//STM32F4xx_DSP_StdPeriph_Lib_V1.0.1/Libraries/STM32F4xx_StdPeriph_Driver/src/stm32f4xx_usart.c ****   if (NewState != DISABLE)
 638:../STLibs//STM32F4xx_DSP_StdPeriph_Lib_V1.0.1/Libraries/STM32F4xx_StdPeriph_Driver/src/stm32f4xx_usart.c ****   {
 639:../STLibs//STM32F4xx_DSP_StdPeriph_Lib_V1.0.1/Libraries/STM32F4xx_StdPeriph_Driver/src/stm32f4xx_usart.c ****     /* Enable the USART mute mode  by setting the RWU bit in the CR1 register */
 640:../STLibs//STM32F4xx_DSP_StdPeriph_Lib_V1.0.1/Libraries/STM32F4xx_StdPeriph_Driver/src/stm32f4xx_usart.c ****     USARTx->CR1 |= USART_CR1_RWU;
 665              		.loc 1 640 0
 666 0210 8389     		ldrh	r3, [r0, #12]
 637:../STLibs//STM32F4xx_DSP_StdPeriph_Lib_V1.0.1/Libraries/STM32F4xx_StdPeriph_Driver/src/stm32f4xx_usart.c ****   {
 667              		.loc 1 637 0
 668 0212 19B1     		cbz	r1, .L43
 669              		.loc 1 640 0
 670 0214 43F00203 		orr	r3, r3, #2
 671              	.L45:
 641:../STLibs//STM32F4xx_DSP_StdPeriph_Lib_V1.0.1/Libraries/STM32F4xx_StdPeriph_Driver/src/stm32f4xx_usart.c ****   }
 642:../STLibs//STM32F4xx_DSP_StdPeriph_Lib_V1.0.1/Libraries/STM32F4xx_StdPeriph_Driver/src/stm32f4xx_usart.c ****   else
 643:../STLibs//STM32F4xx_DSP_StdPeriph_Lib_V1.0.1/Libraries/STM32F4xx_StdPeriph_Driver/src/stm32f4xx_usart.c ****   {
 644:../STLibs//STM32F4xx_DSP_StdPeriph_Lib_V1.0.1/Libraries/STM32F4xx_StdPeriph_Driver/src/stm32f4xx_usart.c ****     /* Disable the USART mute mode by clearing the RWU bit in the CR1 register */
 645:../STLibs//STM32F4xx_DSP_StdPeriph_Lib_V1.0.1/Libraries/STM32F4xx_StdPeriph_Driver/src/stm32f4xx_usart.c ****     USARTx->CR1 &= (uint16_t)~((uint16_t)USART_CR1_RWU);
 672              		.loc 1 645 0
 673 0218 8381     		strh	r3, [r0, #12]	@ movhi
 646:../STLibs//STM32F4xx_DSP_StdPeriph_Lib_V1.0.1/Libraries/STM32F4xx_StdPeriph_Driver/src/stm32f4xx_usart.c ****   }
 647:../STLibs//STM32F4xx_DSP_StdPeriph_Lib_V1.0.1/Libraries/STM32F4xx_StdPeriph_Driver/src/stm32f4xx_usart.c **** }
 674              		.loc 1 647 0
 675 021a 7047     		bx	lr
 676              	.L43:
 645:../STLibs//STM32F4xx_DSP_StdPeriph_Lib_V1.0.1/Libraries/STM32F4xx_StdPeriph_Driver/src/stm32f4xx_usart.c ****   }
 677              		.loc 1 645 0
 678 021c 23F00203 		bic	r3, r3, #2
 679 0220 1B04     		lsls	r3, r3, #16
 680 0222 1B0C     		lsrs	r3, r3, #16
 681 0224 F8E7     		b	.L45
 682              		.cfi_endproc
 683              	.LFE122:
 685              		.align	1
 686              		.global	USART_WakeUpConfig
 687              		.syntax unified
 688              		.thumb
 689              		.thumb_func
 690              		.fpu fpv4-sp-d16
 692              	USART_WakeUpConfig:
 693              	.LFB123:
 648:../STLibs//STM32F4xx_DSP_StdPeriph_Lib_V1.0.1/Libraries/STM32F4xx_StdPeriph_Driver/src/stm32f4xx_usart.c **** /**
 649:../STLibs//STM32F4xx_DSP_StdPeriph_Lib_V1.0.1/Libraries/STM32F4xx_StdPeriph_Driver/src/stm32f4xx_usart.c ****   * @brief  Selects the USART WakeUp method.
 650:../STLibs//STM32F4xx_DSP_StdPeriph_Lib_V1.0.1/Libraries/STM32F4xx_StdPeriph_Driver/src/stm32f4xx_usart.c ****   * @param  USARTx: where x can be 1, 2, 3, 4, 5 or 6 to select the USART or 
 651:../STLibs//STM32F4xx_DSP_StdPeriph_Lib_V1.0.1/Libraries/STM32F4xx_StdPeriph_Driver/src/stm32f4xx_usart.c ****   *         UART peripheral.
 652:../STLibs//STM32F4xx_DSP_StdPeriph_Lib_V1.0.1/Libraries/STM32F4xx_StdPeriph_Driver/src/stm32f4xx_usart.c ****   * @param  USART_WakeUp: specifies the USART wakeup method.
 653:../STLibs//STM32F4xx_DSP_StdPeriph_Lib_V1.0.1/Libraries/STM32F4xx_StdPeriph_Driver/src/stm32f4xx_usart.c ****   *          This parameter can be one of the following values:
 654:../STLibs//STM32F4xx_DSP_StdPeriph_Lib_V1.0.1/Libraries/STM32F4xx_StdPeriph_Driver/src/stm32f4xx_usart.c ****   *            @arg USART_WakeUp_IdleLine: WakeUp by an idle line detection
 655:../STLibs//STM32F4xx_DSP_StdPeriph_Lib_V1.0.1/Libraries/STM32F4xx_StdPeriph_Driver/src/stm32f4xx_usart.c ****   *            @arg USART_WakeUp_AddressMark: WakeUp by an address mark
 656:../STLibs//STM32F4xx_DSP_StdPeriph_Lib_V1.0.1/Libraries/STM32F4xx_StdPeriph_Driver/src/stm32f4xx_usart.c ****   * @retval None
 657:../STLibs//STM32F4xx_DSP_StdPeriph_Lib_V1.0.1/Libraries/STM32F4xx_StdPeriph_Driver/src/stm32f4xx_usart.c ****   */
 658:../STLibs//STM32F4xx_DSP_StdPeriph_Lib_V1.0.1/Libraries/STM32F4xx_StdPeriph_Driver/src/stm32f4xx_usart.c **** void USART_WakeUpConfig(USART_TypeDef* USARTx, uint16_t USART_WakeUp)
 659:../STLibs//STM32F4xx_DSP_StdPeriph_Lib_V1.0.1/Libraries/STM32F4xx_StdPeriph_Driver/src/stm32f4xx_usart.c **** {
 694              		.loc 1 659 0
 695              		.cfi_startproc
 696              		@ args = 0, pretend = 0, frame = 0
 697              		@ frame_needed = 0, uses_anonymous_args = 0
 698              		@ link register save eliminated.
 699              	.LVL63:
 660:../STLibs//STM32F4xx_DSP_StdPeriph_Lib_V1.0.1/Libraries/STM32F4xx_StdPeriph_Driver/src/stm32f4xx_usart.c ****   /* Check the parameters */
 661:../STLibs//STM32F4xx_DSP_StdPeriph_Lib_V1.0.1/Libraries/STM32F4xx_StdPeriph_Driver/src/stm32f4xx_usart.c ****   assert_param(IS_USART_ALL_PERIPH(USARTx));
 662:../STLibs//STM32F4xx_DSP_StdPeriph_Lib_V1.0.1/Libraries/STM32F4xx_StdPeriph_Driver/src/stm32f4xx_usart.c ****   assert_param(IS_USART_WAKEUP(USART_WakeUp));
 663:../STLibs//STM32F4xx_DSP_StdPeriph_Lib_V1.0.1/Libraries/STM32F4xx_StdPeriph_Driver/src/stm32f4xx_usart.c ****   
 664:../STLibs//STM32F4xx_DSP_StdPeriph_Lib_V1.0.1/Libraries/STM32F4xx_StdPeriph_Driver/src/stm32f4xx_usart.c ****   USARTx->CR1 &= (uint16_t)~((uint16_t)USART_CR1_WAKE);
 700              		.loc 1 664 0
 701 0226 8389     		ldrh	r3, [r0, #12]
 702 0228 23F40063 		bic	r3, r3, #2048
 703 022c 1B04     		lsls	r3, r3, #16
 704 022e 1B0C     		lsrs	r3, r3, #16
 705 0230 8381     		strh	r3, [r0, #12]	@ movhi
 665:../STLibs//STM32F4xx_DSP_StdPeriph_Lib_V1.0.1/Libraries/STM32F4xx_StdPeriph_Driver/src/stm32f4xx_usart.c ****   USARTx->CR1 |= USART_WakeUp;
 706              		.loc 1 665 0
 707 0232 8389     		ldrh	r3, [r0, #12]
 708 0234 1943     		orrs	r1, r1, r3
 709              	.LVL64:
 710 0236 8181     		strh	r1, [r0, #12]	@ movhi
 666:../STLibs//STM32F4xx_DSP_StdPeriph_Lib_V1.0.1/Libraries/STM32F4xx_StdPeriph_Driver/src/stm32f4xx_usart.c **** }
 711              		.loc 1 666 0
 712 0238 7047     		bx	lr
 713              		.cfi_endproc
 714              	.LFE123:
 716              		.align	1
 717              		.global	USART_LINBreakDetectLengthConfig
 718              		.syntax unified
 719              		.thumb
 720              		.thumb_func
 721              		.fpu fpv4-sp-d16
 723              	USART_LINBreakDetectLengthConfig:
 724              	.LFB124:
 667:../STLibs//STM32F4xx_DSP_StdPeriph_Lib_V1.0.1/Libraries/STM32F4xx_StdPeriph_Driver/src/stm32f4xx_usart.c **** 
 668:../STLibs//STM32F4xx_DSP_StdPeriph_Lib_V1.0.1/Libraries/STM32F4xx_StdPeriph_Driver/src/stm32f4xx_usart.c **** /**
 669:../STLibs//STM32F4xx_DSP_StdPeriph_Lib_V1.0.1/Libraries/STM32F4xx_StdPeriph_Driver/src/stm32f4xx_usart.c ****   * @}
 670:../STLibs//STM32F4xx_DSP_StdPeriph_Lib_V1.0.1/Libraries/STM32F4xx_StdPeriph_Driver/src/stm32f4xx_usart.c ****   */
 671:../STLibs//STM32F4xx_DSP_StdPeriph_Lib_V1.0.1/Libraries/STM32F4xx_StdPeriph_Driver/src/stm32f4xx_usart.c **** 
 672:../STLibs//STM32F4xx_DSP_StdPeriph_Lib_V1.0.1/Libraries/STM32F4xx_StdPeriph_Driver/src/stm32f4xx_usart.c **** /** @defgroup USART_Group4 LIN mode functions
 673:../STLibs//STM32F4xx_DSP_StdPeriph_Lib_V1.0.1/Libraries/STM32F4xx_StdPeriph_Driver/src/stm32f4xx_usart.c ****  *  @brief   LIN mode functions 
 674:../STLibs//STM32F4xx_DSP_StdPeriph_Lib_V1.0.1/Libraries/STM32F4xx_StdPeriph_Driver/src/stm32f4xx_usart.c ****  *
 675:../STLibs//STM32F4xx_DSP_StdPeriph_Lib_V1.0.1/Libraries/STM32F4xx_StdPeriph_Driver/src/stm32f4xx_usart.c **** @verbatim   
 676:../STLibs//STM32F4xx_DSP_StdPeriph_Lib_V1.0.1/Libraries/STM32F4xx_StdPeriph_Driver/src/stm32f4xx_usart.c ****  ===============================================================================
 677:../STLibs//STM32F4xx_DSP_StdPeriph_Lib_V1.0.1/Libraries/STM32F4xx_StdPeriph_Driver/src/stm32f4xx_usart.c ****                                 LIN mode functions
 678:../STLibs//STM32F4xx_DSP_StdPeriph_Lib_V1.0.1/Libraries/STM32F4xx_StdPeriph_Driver/src/stm32f4xx_usart.c ****  ===============================================================================  
 679:../STLibs//STM32F4xx_DSP_StdPeriph_Lib_V1.0.1/Libraries/STM32F4xx_StdPeriph_Driver/src/stm32f4xx_usart.c **** 
 680:../STLibs//STM32F4xx_DSP_StdPeriph_Lib_V1.0.1/Libraries/STM32F4xx_StdPeriph_Driver/src/stm32f4xx_usart.c ****   This subsection provides a set of functions allowing to manage the USART LIN 
 681:../STLibs//STM32F4xx_DSP_StdPeriph_Lib_V1.0.1/Libraries/STM32F4xx_StdPeriph_Driver/src/stm32f4xx_usart.c ****   Mode communication.
 682:../STLibs//STM32F4xx_DSP_StdPeriph_Lib_V1.0.1/Libraries/STM32F4xx_StdPeriph_Driver/src/stm32f4xx_usart.c ****   
 683:../STLibs//STM32F4xx_DSP_StdPeriph_Lib_V1.0.1/Libraries/STM32F4xx_StdPeriph_Driver/src/stm32f4xx_usart.c ****   In LIN mode, 8-bit data format with 1 stop bit is required in accordance with 
 684:../STLibs//STM32F4xx_DSP_StdPeriph_Lib_V1.0.1/Libraries/STM32F4xx_StdPeriph_Driver/src/stm32f4xx_usart.c ****   the LIN standard.
 685:../STLibs//STM32F4xx_DSP_StdPeriph_Lib_V1.0.1/Libraries/STM32F4xx_StdPeriph_Driver/src/stm32f4xx_usart.c **** 
 686:../STLibs//STM32F4xx_DSP_StdPeriph_Lib_V1.0.1/Libraries/STM32F4xx_StdPeriph_Driver/src/stm32f4xx_usart.c ****   Only this LIN Feature is supported by the USART IP:
 687:../STLibs//STM32F4xx_DSP_StdPeriph_Lib_V1.0.1/Libraries/STM32F4xx_StdPeriph_Driver/src/stm32f4xx_usart.c ****     - LIN Master Synchronous Break send capability and LIN slave break detection
 688:../STLibs//STM32F4xx_DSP_StdPeriph_Lib_V1.0.1/Libraries/STM32F4xx_StdPeriph_Driver/src/stm32f4xx_usart.c ****       capability :  13-bit break generation and 10/11 bit break detection
 689:../STLibs//STM32F4xx_DSP_StdPeriph_Lib_V1.0.1/Libraries/STM32F4xx_StdPeriph_Driver/src/stm32f4xx_usart.c **** 
 690:../STLibs//STM32F4xx_DSP_StdPeriph_Lib_V1.0.1/Libraries/STM32F4xx_StdPeriph_Driver/src/stm32f4xx_usart.c **** 
 691:../STLibs//STM32F4xx_DSP_StdPeriph_Lib_V1.0.1/Libraries/STM32F4xx_StdPeriph_Driver/src/stm32f4xx_usart.c ****   USART LIN Master transmitter communication is possible through the following procedure:
 692:../STLibs//STM32F4xx_DSP_StdPeriph_Lib_V1.0.1/Libraries/STM32F4xx_StdPeriph_Driver/src/stm32f4xx_usart.c ****      1. Program the Baud rate, Word length = 8bits, Stop bits = 1bit, Parity, 
 693:../STLibs//STM32F4xx_DSP_StdPeriph_Lib_V1.0.1/Libraries/STM32F4xx_StdPeriph_Driver/src/stm32f4xx_usart.c ****         Mode transmitter or Mode receiver and hardware flow control values using 
 694:../STLibs//STM32F4xx_DSP_StdPeriph_Lib_V1.0.1/Libraries/STM32F4xx_StdPeriph_Driver/src/stm32f4xx_usart.c ****         the USART_Init() function.
 695:../STLibs//STM32F4xx_DSP_StdPeriph_Lib_V1.0.1/Libraries/STM32F4xx_StdPeriph_Driver/src/stm32f4xx_usart.c ****      2. Enable the USART using the USART_Cmd() function.
 696:../STLibs//STM32F4xx_DSP_StdPeriph_Lib_V1.0.1/Libraries/STM32F4xx_StdPeriph_Driver/src/stm32f4xx_usart.c ****      3. Enable the LIN mode using the USART_LINCmd() function.
 697:../STLibs//STM32F4xx_DSP_StdPeriph_Lib_V1.0.1/Libraries/STM32F4xx_StdPeriph_Driver/src/stm32f4xx_usart.c ****      4. Send the break character using USART_SendBreak() function.
 698:../STLibs//STM32F4xx_DSP_StdPeriph_Lib_V1.0.1/Libraries/STM32F4xx_StdPeriph_Driver/src/stm32f4xx_usart.c **** 
 699:../STLibs//STM32F4xx_DSP_StdPeriph_Lib_V1.0.1/Libraries/STM32F4xx_StdPeriph_Driver/src/stm32f4xx_usart.c ****   USART LIN Master receiver communication is possible through the following procedure:
 700:../STLibs//STM32F4xx_DSP_StdPeriph_Lib_V1.0.1/Libraries/STM32F4xx_StdPeriph_Driver/src/stm32f4xx_usart.c ****      1. Program the Baud rate, Word length = 8bits, Stop bits = 1bit, Parity, 
 701:../STLibs//STM32F4xx_DSP_StdPeriph_Lib_V1.0.1/Libraries/STM32F4xx_StdPeriph_Driver/src/stm32f4xx_usart.c ****         Mode transmitter or Mode receiver and hardware flow control values using 
 702:../STLibs//STM32F4xx_DSP_StdPeriph_Lib_V1.0.1/Libraries/STM32F4xx_StdPeriph_Driver/src/stm32f4xx_usart.c ****         the USART_Init() function.
 703:../STLibs//STM32F4xx_DSP_StdPeriph_Lib_V1.0.1/Libraries/STM32F4xx_StdPeriph_Driver/src/stm32f4xx_usart.c ****      2. Enable the USART using the USART_Cmd() function.
 704:../STLibs//STM32F4xx_DSP_StdPeriph_Lib_V1.0.1/Libraries/STM32F4xx_StdPeriph_Driver/src/stm32f4xx_usart.c ****      3. Configures the break detection length using the USART_LINBreakDetectLengthConfig()
 705:../STLibs//STM32F4xx_DSP_StdPeriph_Lib_V1.0.1/Libraries/STM32F4xx_StdPeriph_Driver/src/stm32f4xx_usart.c ****         function.
 706:../STLibs//STM32F4xx_DSP_StdPeriph_Lib_V1.0.1/Libraries/STM32F4xx_StdPeriph_Driver/src/stm32f4xx_usart.c ****      4. Enable the LIN mode using the USART_LINCmd() function.
 707:../STLibs//STM32F4xx_DSP_StdPeriph_Lib_V1.0.1/Libraries/STM32F4xx_StdPeriph_Driver/src/stm32f4xx_usart.c **** 
 708:../STLibs//STM32F4xx_DSP_StdPeriph_Lib_V1.0.1/Libraries/STM32F4xx_StdPeriph_Driver/src/stm32f4xx_usart.c **** 
 709:../STLibs//STM32F4xx_DSP_StdPeriph_Lib_V1.0.1/Libraries/STM32F4xx_StdPeriph_Driver/src/stm32f4xx_usart.c **** @note In LIN mode, the following bits must be kept cleared:
 710:../STLibs//STM32F4xx_DSP_StdPeriph_Lib_V1.0.1/Libraries/STM32F4xx_StdPeriph_Driver/src/stm32f4xx_usart.c ****         - CLKEN in the USART_CR2 register,
 711:../STLibs//STM32F4xx_DSP_StdPeriph_Lib_V1.0.1/Libraries/STM32F4xx_StdPeriph_Driver/src/stm32f4xx_usart.c ****         - STOP[1:0], SCEN, HDSEL and IREN in the USART_CR3 register.
 712:../STLibs//STM32F4xx_DSP_StdPeriph_Lib_V1.0.1/Libraries/STM32F4xx_StdPeriph_Driver/src/stm32f4xx_usart.c **** 
 713:../STLibs//STM32F4xx_DSP_StdPeriph_Lib_V1.0.1/Libraries/STM32F4xx_StdPeriph_Driver/src/stm32f4xx_usart.c **** @endverbatim
 714:../STLibs//STM32F4xx_DSP_StdPeriph_Lib_V1.0.1/Libraries/STM32F4xx_StdPeriph_Driver/src/stm32f4xx_usart.c ****   * @{
 715:../STLibs//STM32F4xx_DSP_StdPeriph_Lib_V1.0.1/Libraries/STM32F4xx_StdPeriph_Driver/src/stm32f4xx_usart.c ****   */
 716:../STLibs//STM32F4xx_DSP_StdPeriph_Lib_V1.0.1/Libraries/STM32F4xx_StdPeriph_Driver/src/stm32f4xx_usart.c **** 
 717:../STLibs//STM32F4xx_DSP_StdPeriph_Lib_V1.0.1/Libraries/STM32F4xx_StdPeriph_Driver/src/stm32f4xx_usart.c **** /**
 718:../STLibs//STM32F4xx_DSP_StdPeriph_Lib_V1.0.1/Libraries/STM32F4xx_StdPeriph_Driver/src/stm32f4xx_usart.c ****   * @brief  Sets the USART LIN Break detection length.
 719:../STLibs//STM32F4xx_DSP_StdPeriph_Lib_V1.0.1/Libraries/STM32F4xx_StdPeriph_Driver/src/stm32f4xx_usart.c ****   * @param  USARTx: where x can be 1, 2, 3, 4, 5 or 6 to select the USART or 
 720:../STLibs//STM32F4xx_DSP_StdPeriph_Lib_V1.0.1/Libraries/STM32F4xx_StdPeriph_Driver/src/stm32f4xx_usart.c ****   *         UART peripheral.
 721:../STLibs//STM32F4xx_DSP_StdPeriph_Lib_V1.0.1/Libraries/STM32F4xx_StdPeriph_Driver/src/stm32f4xx_usart.c ****   * @param  USART_LINBreakDetectLength: specifies the LIN break detection length.
 722:../STLibs//STM32F4xx_DSP_StdPeriph_Lib_V1.0.1/Libraries/STM32F4xx_StdPeriph_Driver/src/stm32f4xx_usart.c ****   *          This parameter can be one of the following values:
 723:../STLibs//STM32F4xx_DSP_StdPeriph_Lib_V1.0.1/Libraries/STM32F4xx_StdPeriph_Driver/src/stm32f4xx_usart.c ****   *            @arg USART_LINBreakDetectLength_10b: 10-bit break detection
 724:../STLibs//STM32F4xx_DSP_StdPeriph_Lib_V1.0.1/Libraries/STM32F4xx_StdPeriph_Driver/src/stm32f4xx_usart.c ****   *            @arg USART_LINBreakDetectLength_11b: 11-bit break detection
 725:../STLibs//STM32F4xx_DSP_StdPeriph_Lib_V1.0.1/Libraries/STM32F4xx_StdPeriph_Driver/src/stm32f4xx_usart.c ****   * @retval None
 726:../STLibs//STM32F4xx_DSP_StdPeriph_Lib_V1.0.1/Libraries/STM32F4xx_StdPeriph_Driver/src/stm32f4xx_usart.c ****   */
 727:../STLibs//STM32F4xx_DSP_StdPeriph_Lib_V1.0.1/Libraries/STM32F4xx_StdPeriph_Driver/src/stm32f4xx_usart.c **** void USART_LINBreakDetectLengthConfig(USART_TypeDef* USARTx, uint16_t USART_LINBreakDetectLength)
 728:../STLibs//STM32F4xx_DSP_StdPeriph_Lib_V1.0.1/Libraries/STM32F4xx_StdPeriph_Driver/src/stm32f4xx_usart.c **** {
 725              		.loc 1 728 0
 726              		.cfi_startproc
 727              		@ args = 0, pretend = 0, frame = 0
 728              		@ frame_needed = 0, uses_anonymous_args = 0
 729              		@ link register save eliminated.
 730              	.LVL65:
 729:../STLibs//STM32F4xx_DSP_StdPeriph_Lib_V1.0.1/Libraries/STM32F4xx_StdPeriph_Driver/src/stm32f4xx_usart.c ****   /* Check the parameters */
 730:../STLibs//STM32F4xx_DSP_StdPeriph_Lib_V1.0.1/Libraries/STM32F4xx_StdPeriph_Driver/src/stm32f4xx_usart.c ****   assert_param(IS_USART_ALL_PERIPH(USARTx));
 731:../STLibs//STM32F4xx_DSP_StdPeriph_Lib_V1.0.1/Libraries/STM32F4xx_StdPeriph_Driver/src/stm32f4xx_usart.c ****   assert_param(IS_USART_LIN_BREAK_DETECT_LENGTH(USART_LINBreakDetectLength));
 732:../STLibs//STM32F4xx_DSP_StdPeriph_Lib_V1.0.1/Libraries/STM32F4xx_StdPeriph_Driver/src/stm32f4xx_usart.c ****   
 733:../STLibs//STM32F4xx_DSP_StdPeriph_Lib_V1.0.1/Libraries/STM32F4xx_StdPeriph_Driver/src/stm32f4xx_usart.c ****   USARTx->CR2 &= (uint16_t)~((uint16_t)USART_CR2_LBDL);
 731              		.loc 1 733 0
 732 023a 038A     		ldrh	r3, [r0, #16]
 733 023c 23F02003 		bic	r3, r3, #32
 734 0240 1B04     		lsls	r3, r3, #16
 735 0242 1B0C     		lsrs	r3, r3, #16
 736 0244 0382     		strh	r3, [r0, #16]	@ movhi
 734:../STLibs//STM32F4xx_DSP_StdPeriph_Lib_V1.0.1/Libraries/STM32F4xx_StdPeriph_Driver/src/stm32f4xx_usart.c ****   USARTx->CR2 |= USART_LINBreakDetectLength;  
 737              		.loc 1 734 0
 738 0246 038A     		ldrh	r3, [r0, #16]
 739 0248 1943     		orrs	r1, r1, r3
 740              	.LVL66:
 741 024a 0182     		strh	r1, [r0, #16]	@ movhi
 735:../STLibs//STM32F4xx_DSP_StdPeriph_Lib_V1.0.1/Libraries/STM32F4xx_StdPeriph_Driver/src/stm32f4xx_usart.c **** }
 742              		.loc 1 735 0
 743 024c 7047     		bx	lr
 744              		.cfi_endproc
 745              	.LFE124:
 747              		.align	1
 748              		.global	USART_LINCmd
 749              		.syntax unified
 750              		.thumb
 751              		.thumb_func
 752              		.fpu fpv4-sp-d16
 754              	USART_LINCmd:
 755              	.LFB125:
 736:../STLibs//STM32F4xx_DSP_StdPeriph_Lib_V1.0.1/Libraries/STM32F4xx_StdPeriph_Driver/src/stm32f4xx_usart.c **** 
 737:../STLibs//STM32F4xx_DSP_StdPeriph_Lib_V1.0.1/Libraries/STM32F4xx_StdPeriph_Driver/src/stm32f4xx_usart.c **** /**
 738:../STLibs//STM32F4xx_DSP_StdPeriph_Lib_V1.0.1/Libraries/STM32F4xx_StdPeriph_Driver/src/stm32f4xx_usart.c ****   * @brief  Enables or disables the USART's LIN mode.
 739:../STLibs//STM32F4xx_DSP_StdPeriph_Lib_V1.0.1/Libraries/STM32F4xx_StdPeriph_Driver/src/stm32f4xx_usart.c ****   * @param  USARTx: where x can be 1, 2, 3, 4, 5 or 6 to select the USART or 
 740:../STLibs//STM32F4xx_DSP_StdPeriph_Lib_V1.0.1/Libraries/STM32F4xx_StdPeriph_Driver/src/stm32f4xx_usart.c ****   *         UART peripheral.
 741:../STLibs//STM32F4xx_DSP_StdPeriph_Lib_V1.0.1/Libraries/STM32F4xx_StdPeriph_Driver/src/stm32f4xx_usart.c ****   * @param  NewState: new state of the USART LIN mode.
 742:../STLibs//STM32F4xx_DSP_StdPeriph_Lib_V1.0.1/Libraries/STM32F4xx_StdPeriph_Driver/src/stm32f4xx_usart.c ****   *          This parameter can be: ENABLE or DISABLE.
 743:../STLibs//STM32F4xx_DSP_StdPeriph_Lib_V1.0.1/Libraries/STM32F4xx_StdPeriph_Driver/src/stm32f4xx_usart.c ****   * @retval None
 744:../STLibs//STM32F4xx_DSP_StdPeriph_Lib_V1.0.1/Libraries/STM32F4xx_StdPeriph_Driver/src/stm32f4xx_usart.c ****   */
 745:../STLibs//STM32F4xx_DSP_StdPeriph_Lib_V1.0.1/Libraries/STM32F4xx_StdPeriph_Driver/src/stm32f4xx_usart.c **** void USART_LINCmd(USART_TypeDef* USARTx, FunctionalState NewState)
 746:../STLibs//STM32F4xx_DSP_StdPeriph_Lib_V1.0.1/Libraries/STM32F4xx_StdPeriph_Driver/src/stm32f4xx_usart.c **** {
 756              		.loc 1 746 0
 757              		.cfi_startproc
 758              		@ args = 0, pretend = 0, frame = 0
 759              		@ frame_needed = 0, uses_anonymous_args = 0
 760              		@ link register save eliminated.
 761              	.LVL67:
 747:../STLibs//STM32F4xx_DSP_StdPeriph_Lib_V1.0.1/Libraries/STM32F4xx_StdPeriph_Driver/src/stm32f4xx_usart.c ****   /* Check the parameters */
 748:../STLibs//STM32F4xx_DSP_StdPeriph_Lib_V1.0.1/Libraries/STM32F4xx_StdPeriph_Driver/src/stm32f4xx_usart.c ****   assert_param(IS_USART_ALL_PERIPH(USARTx));
 749:../STLibs//STM32F4xx_DSP_StdPeriph_Lib_V1.0.1/Libraries/STM32F4xx_StdPeriph_Driver/src/stm32f4xx_usart.c ****   assert_param(IS_FUNCTIONAL_STATE(NewState));
 750:../STLibs//STM32F4xx_DSP_StdPeriph_Lib_V1.0.1/Libraries/STM32F4xx_StdPeriph_Driver/src/stm32f4xx_usart.c ****   
 751:../STLibs//STM32F4xx_DSP_StdPeriph_Lib_V1.0.1/Libraries/STM32F4xx_StdPeriph_Driver/src/stm32f4xx_usart.c ****   if (NewState != DISABLE)
 752:../STLibs//STM32F4xx_DSP_StdPeriph_Lib_V1.0.1/Libraries/STM32F4xx_StdPeriph_Driver/src/stm32f4xx_usart.c ****   {
 753:../STLibs//STM32F4xx_DSP_StdPeriph_Lib_V1.0.1/Libraries/STM32F4xx_StdPeriph_Driver/src/stm32f4xx_usart.c ****     /* Enable the LIN mode by setting the LINEN bit in the CR2 register */
 754:../STLibs//STM32F4xx_DSP_StdPeriph_Lib_V1.0.1/Libraries/STM32F4xx_StdPeriph_Driver/src/stm32f4xx_usart.c ****     USARTx->CR2 |= USART_CR2_LINEN;
 762              		.loc 1 754 0
 763 024e 038A     		ldrh	r3, [r0, #16]
 751:../STLibs//STM32F4xx_DSP_StdPeriph_Lib_V1.0.1/Libraries/STM32F4xx_StdPeriph_Driver/src/stm32f4xx_usart.c ****   {
 764              		.loc 1 751 0
 765 0250 19B1     		cbz	r1, .L49
 766              		.loc 1 754 0
 767 0252 43F48043 		orr	r3, r3, #16384
 768              	.L51:
 755:../STLibs//STM32F4xx_DSP_StdPeriph_Lib_V1.0.1/Libraries/STM32F4xx_StdPeriph_Driver/src/stm32f4xx_usart.c ****   }
 756:../STLibs//STM32F4xx_DSP_StdPeriph_Lib_V1.0.1/Libraries/STM32F4xx_StdPeriph_Driver/src/stm32f4xx_usart.c ****   else
 757:../STLibs//STM32F4xx_DSP_StdPeriph_Lib_V1.0.1/Libraries/STM32F4xx_StdPeriph_Driver/src/stm32f4xx_usart.c ****   {
 758:../STLibs//STM32F4xx_DSP_StdPeriph_Lib_V1.0.1/Libraries/STM32F4xx_StdPeriph_Driver/src/stm32f4xx_usart.c ****     /* Disable the LIN mode by clearing the LINEN bit in the CR2 register */
 759:../STLibs//STM32F4xx_DSP_StdPeriph_Lib_V1.0.1/Libraries/STM32F4xx_StdPeriph_Driver/src/stm32f4xx_usart.c ****     USARTx->CR2 &= (uint16_t)~((uint16_t)USART_CR2_LINEN);
 769              		.loc 1 759 0
 770 0256 0382     		strh	r3, [r0, #16]	@ movhi
 760:../STLibs//STM32F4xx_DSP_StdPeriph_Lib_V1.0.1/Libraries/STM32F4xx_StdPeriph_Driver/src/stm32f4xx_usart.c ****   }
 761:../STLibs//STM32F4xx_DSP_StdPeriph_Lib_V1.0.1/Libraries/STM32F4xx_StdPeriph_Driver/src/stm32f4xx_usart.c **** }
 771              		.loc 1 761 0
 772 0258 7047     		bx	lr
 773              	.L49:
 759:../STLibs//STM32F4xx_DSP_StdPeriph_Lib_V1.0.1/Libraries/STM32F4xx_StdPeriph_Driver/src/stm32f4xx_usart.c ****   }
 774              		.loc 1 759 0
 775 025a 23F48043 		bic	r3, r3, #16384
 776 025e 1B04     		lsls	r3, r3, #16
 777 0260 1B0C     		lsrs	r3, r3, #16
 778 0262 F8E7     		b	.L51
 779              		.cfi_endproc
 780              	.LFE125:
 782              		.align	1
 783              		.global	USART_SendBreak
 784              		.syntax unified
 785              		.thumb
 786              		.thumb_func
 787              		.fpu fpv4-sp-d16
 789              	USART_SendBreak:
 790              	.LFB126:
 762:../STLibs//STM32F4xx_DSP_StdPeriph_Lib_V1.0.1/Libraries/STM32F4xx_StdPeriph_Driver/src/stm32f4xx_usart.c **** 
 763:../STLibs//STM32F4xx_DSP_StdPeriph_Lib_V1.0.1/Libraries/STM32F4xx_StdPeriph_Driver/src/stm32f4xx_usart.c **** /**
 764:../STLibs//STM32F4xx_DSP_StdPeriph_Lib_V1.0.1/Libraries/STM32F4xx_StdPeriph_Driver/src/stm32f4xx_usart.c ****   * @brief  Transmits break characters.
 765:../STLibs//STM32F4xx_DSP_StdPeriph_Lib_V1.0.1/Libraries/STM32F4xx_StdPeriph_Driver/src/stm32f4xx_usart.c ****   * @param  USARTx: where x can be 1, 2, 3, 4, 5 or 6 to select the USART or 
 766:../STLibs//STM32F4xx_DSP_StdPeriph_Lib_V1.0.1/Libraries/STM32F4xx_StdPeriph_Driver/src/stm32f4xx_usart.c ****   *         UART peripheral.
 767:../STLibs//STM32F4xx_DSP_StdPeriph_Lib_V1.0.1/Libraries/STM32F4xx_StdPeriph_Driver/src/stm32f4xx_usart.c ****   * @retval None
 768:../STLibs//STM32F4xx_DSP_StdPeriph_Lib_V1.0.1/Libraries/STM32F4xx_StdPeriph_Driver/src/stm32f4xx_usart.c ****   */
 769:../STLibs//STM32F4xx_DSP_StdPeriph_Lib_V1.0.1/Libraries/STM32F4xx_StdPeriph_Driver/src/stm32f4xx_usart.c **** void USART_SendBreak(USART_TypeDef* USARTx)
 770:../STLibs//STM32F4xx_DSP_StdPeriph_Lib_V1.0.1/Libraries/STM32F4xx_StdPeriph_Driver/src/stm32f4xx_usart.c **** {
 791              		.loc 1 770 0
 792              		.cfi_startproc
 793              		@ args = 0, pretend = 0, frame = 0
 794              		@ frame_needed = 0, uses_anonymous_args = 0
 795              		@ link register save eliminated.
 796              	.LVL68:
 771:../STLibs//STM32F4xx_DSP_StdPeriph_Lib_V1.0.1/Libraries/STM32F4xx_StdPeriph_Driver/src/stm32f4xx_usart.c ****   /* Check the parameters */
 772:../STLibs//STM32F4xx_DSP_StdPeriph_Lib_V1.0.1/Libraries/STM32F4xx_StdPeriph_Driver/src/stm32f4xx_usart.c ****   assert_param(IS_USART_ALL_PERIPH(USARTx));
 773:../STLibs//STM32F4xx_DSP_StdPeriph_Lib_V1.0.1/Libraries/STM32F4xx_StdPeriph_Driver/src/stm32f4xx_usart.c ****   
 774:../STLibs//STM32F4xx_DSP_StdPeriph_Lib_V1.0.1/Libraries/STM32F4xx_StdPeriph_Driver/src/stm32f4xx_usart.c ****   /* Send break characters */
 775:../STLibs//STM32F4xx_DSP_StdPeriph_Lib_V1.0.1/Libraries/STM32F4xx_StdPeriph_Driver/src/stm32f4xx_usart.c ****   USARTx->CR1 |= USART_CR1_SBK;
 797              		.loc 1 775 0
 798 0264 8389     		ldrh	r3, [r0, #12]
 799 0266 43F00103 		orr	r3, r3, #1
 800 026a 8381     		strh	r3, [r0, #12]	@ movhi
 776:../STLibs//STM32F4xx_DSP_StdPeriph_Lib_V1.0.1/Libraries/STM32F4xx_StdPeriph_Driver/src/stm32f4xx_usart.c **** }
 801              		.loc 1 776 0
 802 026c 7047     		bx	lr
 803              		.cfi_endproc
 804              	.LFE126:
 806              		.align	1
 807              		.global	USART_HalfDuplexCmd
 808              		.syntax unified
 809              		.thumb
 810              		.thumb_func
 811              		.fpu fpv4-sp-d16
 813              	USART_HalfDuplexCmd:
 814              	.LFB127:
 777:../STLibs//STM32F4xx_DSP_StdPeriph_Lib_V1.0.1/Libraries/STM32F4xx_StdPeriph_Driver/src/stm32f4xx_usart.c **** 
 778:../STLibs//STM32F4xx_DSP_StdPeriph_Lib_V1.0.1/Libraries/STM32F4xx_StdPeriph_Driver/src/stm32f4xx_usart.c **** /**
 779:../STLibs//STM32F4xx_DSP_StdPeriph_Lib_V1.0.1/Libraries/STM32F4xx_StdPeriph_Driver/src/stm32f4xx_usart.c ****   * @}
 780:../STLibs//STM32F4xx_DSP_StdPeriph_Lib_V1.0.1/Libraries/STM32F4xx_StdPeriph_Driver/src/stm32f4xx_usart.c ****   */
 781:../STLibs//STM32F4xx_DSP_StdPeriph_Lib_V1.0.1/Libraries/STM32F4xx_StdPeriph_Driver/src/stm32f4xx_usart.c **** 
 782:../STLibs//STM32F4xx_DSP_StdPeriph_Lib_V1.0.1/Libraries/STM32F4xx_StdPeriph_Driver/src/stm32f4xx_usart.c **** /** @defgroup USART_Group5 Halfduplex mode function
 783:../STLibs//STM32F4xx_DSP_StdPeriph_Lib_V1.0.1/Libraries/STM32F4xx_StdPeriph_Driver/src/stm32f4xx_usart.c ****  *  @brief   Half-duplex mode function 
 784:../STLibs//STM32F4xx_DSP_StdPeriph_Lib_V1.0.1/Libraries/STM32F4xx_StdPeriph_Driver/src/stm32f4xx_usart.c ****  *
 785:../STLibs//STM32F4xx_DSP_StdPeriph_Lib_V1.0.1/Libraries/STM32F4xx_StdPeriph_Driver/src/stm32f4xx_usart.c **** @verbatim   
 786:../STLibs//STM32F4xx_DSP_StdPeriph_Lib_V1.0.1/Libraries/STM32F4xx_StdPeriph_Driver/src/stm32f4xx_usart.c ****  ===============================================================================
 787:../STLibs//STM32F4xx_DSP_StdPeriph_Lib_V1.0.1/Libraries/STM32F4xx_StdPeriph_Driver/src/stm32f4xx_usart.c ****                          Half-duplex mode function
 788:../STLibs//STM32F4xx_DSP_StdPeriph_Lib_V1.0.1/Libraries/STM32F4xx_StdPeriph_Driver/src/stm32f4xx_usart.c ****  ===============================================================================  
 789:../STLibs//STM32F4xx_DSP_StdPeriph_Lib_V1.0.1/Libraries/STM32F4xx_StdPeriph_Driver/src/stm32f4xx_usart.c **** 
 790:../STLibs//STM32F4xx_DSP_StdPeriph_Lib_V1.0.1/Libraries/STM32F4xx_StdPeriph_Driver/src/stm32f4xx_usart.c ****   This subsection provides a set of functions allowing to manage the USART 
 791:../STLibs//STM32F4xx_DSP_StdPeriph_Lib_V1.0.1/Libraries/STM32F4xx_StdPeriph_Driver/src/stm32f4xx_usart.c ****   Half-duplex communication.
 792:../STLibs//STM32F4xx_DSP_StdPeriph_Lib_V1.0.1/Libraries/STM32F4xx_StdPeriph_Driver/src/stm32f4xx_usart.c ****   
 793:../STLibs//STM32F4xx_DSP_StdPeriph_Lib_V1.0.1/Libraries/STM32F4xx_StdPeriph_Driver/src/stm32f4xx_usart.c ****   The USART can be configured to follow a single-wire half-duplex protocol where 
 794:../STLibs//STM32F4xx_DSP_StdPeriph_Lib_V1.0.1/Libraries/STM32F4xx_StdPeriph_Driver/src/stm32f4xx_usart.c ****   the TX and RX lines are internally connected.
 795:../STLibs//STM32F4xx_DSP_StdPeriph_Lib_V1.0.1/Libraries/STM32F4xx_StdPeriph_Driver/src/stm32f4xx_usart.c **** 
 796:../STLibs//STM32F4xx_DSP_StdPeriph_Lib_V1.0.1/Libraries/STM32F4xx_StdPeriph_Driver/src/stm32f4xx_usart.c ****   USART Half duplex communication is possible through the following procedure:
 797:../STLibs//STM32F4xx_DSP_StdPeriph_Lib_V1.0.1/Libraries/STM32F4xx_StdPeriph_Driver/src/stm32f4xx_usart.c ****      1. Program the Baud rate, Word length, Stop bits, Parity, Mode transmitter 
 798:../STLibs//STM32F4xx_DSP_StdPeriph_Lib_V1.0.1/Libraries/STM32F4xx_StdPeriph_Driver/src/stm32f4xx_usart.c ****         or Mode receiver and hardware flow control values using the USART_Init()
 799:../STLibs//STM32F4xx_DSP_StdPeriph_Lib_V1.0.1/Libraries/STM32F4xx_StdPeriph_Driver/src/stm32f4xx_usart.c ****         function.
 800:../STLibs//STM32F4xx_DSP_StdPeriph_Lib_V1.0.1/Libraries/STM32F4xx_StdPeriph_Driver/src/stm32f4xx_usart.c ****      2. Configures the USART address using the USART_SetAddress() function.
 801:../STLibs//STM32F4xx_DSP_StdPeriph_Lib_V1.0.1/Libraries/STM32F4xx_StdPeriph_Driver/src/stm32f4xx_usart.c ****      3. Enable the USART using the USART_Cmd() function.
 802:../STLibs//STM32F4xx_DSP_StdPeriph_Lib_V1.0.1/Libraries/STM32F4xx_StdPeriph_Driver/src/stm32f4xx_usart.c ****      4. Enable the half duplex mode using USART_HalfDuplexCmd() function.
 803:../STLibs//STM32F4xx_DSP_StdPeriph_Lib_V1.0.1/Libraries/STM32F4xx_StdPeriph_Driver/src/stm32f4xx_usart.c **** 
 804:../STLibs//STM32F4xx_DSP_StdPeriph_Lib_V1.0.1/Libraries/STM32F4xx_StdPeriph_Driver/src/stm32f4xx_usart.c **** 
 805:../STLibs//STM32F4xx_DSP_StdPeriph_Lib_V1.0.1/Libraries/STM32F4xx_StdPeriph_Driver/src/stm32f4xx_usart.c **** @note The RX pin is no longer used
 806:../STLibs//STM32F4xx_DSP_StdPeriph_Lib_V1.0.1/Libraries/STM32F4xx_StdPeriph_Driver/src/stm32f4xx_usart.c **** @note In Half-duplex mode the following bits must be kept cleared:
 807:../STLibs//STM32F4xx_DSP_StdPeriph_Lib_V1.0.1/Libraries/STM32F4xx_StdPeriph_Driver/src/stm32f4xx_usart.c ****         - LINEN and CLKEN bits in the USART_CR2 register.
 808:../STLibs//STM32F4xx_DSP_StdPeriph_Lib_V1.0.1/Libraries/STM32F4xx_StdPeriph_Driver/src/stm32f4xx_usart.c ****         - SCEN and IREN bits in the USART_CR3 register.
 809:../STLibs//STM32F4xx_DSP_StdPeriph_Lib_V1.0.1/Libraries/STM32F4xx_StdPeriph_Driver/src/stm32f4xx_usart.c **** 
 810:../STLibs//STM32F4xx_DSP_StdPeriph_Lib_V1.0.1/Libraries/STM32F4xx_StdPeriph_Driver/src/stm32f4xx_usart.c **** @endverbatim
 811:../STLibs//STM32F4xx_DSP_StdPeriph_Lib_V1.0.1/Libraries/STM32F4xx_StdPeriph_Driver/src/stm32f4xx_usart.c ****   * @{
 812:../STLibs//STM32F4xx_DSP_StdPeriph_Lib_V1.0.1/Libraries/STM32F4xx_StdPeriph_Driver/src/stm32f4xx_usart.c ****   */
 813:../STLibs//STM32F4xx_DSP_StdPeriph_Lib_V1.0.1/Libraries/STM32F4xx_StdPeriph_Driver/src/stm32f4xx_usart.c **** 
 814:../STLibs//STM32F4xx_DSP_StdPeriph_Lib_V1.0.1/Libraries/STM32F4xx_StdPeriph_Driver/src/stm32f4xx_usart.c **** /**
 815:../STLibs//STM32F4xx_DSP_StdPeriph_Lib_V1.0.1/Libraries/STM32F4xx_StdPeriph_Driver/src/stm32f4xx_usart.c ****   * @brief  Enables or disables the USART's Half Duplex communication.
 816:../STLibs//STM32F4xx_DSP_StdPeriph_Lib_V1.0.1/Libraries/STM32F4xx_StdPeriph_Driver/src/stm32f4xx_usart.c ****   * @param  USARTx: where x can be 1, 2, 3, 4, 5 or 6 to select the USART or 
 817:../STLibs//STM32F4xx_DSP_StdPeriph_Lib_V1.0.1/Libraries/STM32F4xx_StdPeriph_Driver/src/stm32f4xx_usart.c ****   *         UART peripheral.
 818:../STLibs//STM32F4xx_DSP_StdPeriph_Lib_V1.0.1/Libraries/STM32F4xx_StdPeriph_Driver/src/stm32f4xx_usart.c ****   * @param  NewState: new state of the USART Communication.
 819:../STLibs//STM32F4xx_DSP_StdPeriph_Lib_V1.0.1/Libraries/STM32F4xx_StdPeriph_Driver/src/stm32f4xx_usart.c ****   *          This parameter can be: ENABLE or DISABLE.
 820:../STLibs//STM32F4xx_DSP_StdPeriph_Lib_V1.0.1/Libraries/STM32F4xx_StdPeriph_Driver/src/stm32f4xx_usart.c ****   * @retval None
 821:../STLibs//STM32F4xx_DSP_StdPeriph_Lib_V1.0.1/Libraries/STM32F4xx_StdPeriph_Driver/src/stm32f4xx_usart.c ****   */
 822:../STLibs//STM32F4xx_DSP_StdPeriph_Lib_V1.0.1/Libraries/STM32F4xx_StdPeriph_Driver/src/stm32f4xx_usart.c **** void USART_HalfDuplexCmd(USART_TypeDef* USARTx, FunctionalState NewState)
 823:../STLibs//STM32F4xx_DSP_StdPeriph_Lib_V1.0.1/Libraries/STM32F4xx_StdPeriph_Driver/src/stm32f4xx_usart.c **** {
 815              		.loc 1 823 0
 816              		.cfi_startproc
 817              		@ args = 0, pretend = 0, frame = 0
 818              		@ frame_needed = 0, uses_anonymous_args = 0
 819              		@ link register save eliminated.
 820              	.LVL69:
 824:../STLibs//STM32F4xx_DSP_StdPeriph_Lib_V1.0.1/Libraries/STM32F4xx_StdPeriph_Driver/src/stm32f4xx_usart.c ****   /* Check the parameters */
 825:../STLibs//STM32F4xx_DSP_StdPeriph_Lib_V1.0.1/Libraries/STM32F4xx_StdPeriph_Driver/src/stm32f4xx_usart.c ****   assert_param(IS_USART_ALL_PERIPH(USARTx));
 826:../STLibs//STM32F4xx_DSP_StdPeriph_Lib_V1.0.1/Libraries/STM32F4xx_StdPeriph_Driver/src/stm32f4xx_usart.c ****   assert_param(IS_FUNCTIONAL_STATE(NewState));
 827:../STLibs//STM32F4xx_DSP_StdPeriph_Lib_V1.0.1/Libraries/STM32F4xx_StdPeriph_Driver/src/stm32f4xx_usart.c ****   
 828:../STLibs//STM32F4xx_DSP_StdPeriph_Lib_V1.0.1/Libraries/STM32F4xx_StdPeriph_Driver/src/stm32f4xx_usart.c ****   if (NewState != DISABLE)
 829:../STLibs//STM32F4xx_DSP_StdPeriph_Lib_V1.0.1/Libraries/STM32F4xx_StdPeriph_Driver/src/stm32f4xx_usart.c ****   {
 830:../STLibs//STM32F4xx_DSP_StdPeriph_Lib_V1.0.1/Libraries/STM32F4xx_StdPeriph_Driver/src/stm32f4xx_usart.c ****     /* Enable the Half-Duplex mode by setting the HDSEL bit in the CR3 register */
 831:../STLibs//STM32F4xx_DSP_StdPeriph_Lib_V1.0.1/Libraries/STM32F4xx_StdPeriph_Driver/src/stm32f4xx_usart.c ****     USARTx->CR3 |= USART_CR3_HDSEL;
 821              		.loc 1 831 0
 822 026e 838A     		ldrh	r3, [r0, #20]
 828:../STLibs//STM32F4xx_DSP_StdPeriph_Lib_V1.0.1/Libraries/STM32F4xx_StdPeriph_Driver/src/stm32f4xx_usart.c ****   {
 823              		.loc 1 828 0
 824 0270 19B1     		cbz	r1, .L54
 825              		.loc 1 831 0
 826 0272 43F00803 		orr	r3, r3, #8
 827              	.L56:
 832:../STLibs//STM32F4xx_DSP_StdPeriph_Lib_V1.0.1/Libraries/STM32F4xx_StdPeriph_Driver/src/stm32f4xx_usart.c ****   }
 833:../STLibs//STM32F4xx_DSP_StdPeriph_Lib_V1.0.1/Libraries/STM32F4xx_StdPeriph_Driver/src/stm32f4xx_usart.c ****   else
 834:../STLibs//STM32F4xx_DSP_StdPeriph_Lib_V1.0.1/Libraries/STM32F4xx_StdPeriph_Driver/src/stm32f4xx_usart.c ****   {
 835:../STLibs//STM32F4xx_DSP_StdPeriph_Lib_V1.0.1/Libraries/STM32F4xx_StdPeriph_Driver/src/stm32f4xx_usart.c ****     /* Disable the Half-Duplex mode by clearing the HDSEL bit in the CR3 register */
 836:../STLibs//STM32F4xx_DSP_StdPeriph_Lib_V1.0.1/Libraries/STM32F4xx_StdPeriph_Driver/src/stm32f4xx_usart.c ****     USARTx->CR3 &= (uint16_t)~((uint16_t)USART_CR3_HDSEL);
 828              		.loc 1 836 0
 829 0276 8382     		strh	r3, [r0, #20]	@ movhi
 837:../STLibs//STM32F4xx_DSP_StdPeriph_Lib_V1.0.1/Libraries/STM32F4xx_StdPeriph_Driver/src/stm32f4xx_usart.c ****   }
 838:../STLibs//STM32F4xx_DSP_StdPeriph_Lib_V1.0.1/Libraries/STM32F4xx_StdPeriph_Driver/src/stm32f4xx_usart.c **** }
 830              		.loc 1 838 0
 831 0278 7047     		bx	lr
 832              	.L54:
 836:../STLibs//STM32F4xx_DSP_StdPeriph_Lib_V1.0.1/Libraries/STM32F4xx_StdPeriph_Driver/src/stm32f4xx_usart.c ****   }
 833              		.loc 1 836 0
 834 027a 23F00803 		bic	r3, r3, #8
 835 027e 1B04     		lsls	r3, r3, #16
 836 0280 1B0C     		lsrs	r3, r3, #16
 837 0282 F8E7     		b	.L56
 838              		.cfi_endproc
 839              	.LFE127:
 841              		.align	1
 842              		.global	USART_SetGuardTime
 843              		.syntax unified
 844              		.thumb
 845              		.thumb_func
 846              		.fpu fpv4-sp-d16
 848              	USART_SetGuardTime:
 849              	.LFB128:
 839:../STLibs//STM32F4xx_DSP_StdPeriph_Lib_V1.0.1/Libraries/STM32F4xx_StdPeriph_Driver/src/stm32f4xx_usart.c **** 
 840:../STLibs//STM32F4xx_DSP_StdPeriph_Lib_V1.0.1/Libraries/STM32F4xx_StdPeriph_Driver/src/stm32f4xx_usart.c **** /**
 841:../STLibs//STM32F4xx_DSP_StdPeriph_Lib_V1.0.1/Libraries/STM32F4xx_StdPeriph_Driver/src/stm32f4xx_usart.c ****   * @}
 842:../STLibs//STM32F4xx_DSP_StdPeriph_Lib_V1.0.1/Libraries/STM32F4xx_StdPeriph_Driver/src/stm32f4xx_usart.c ****   */
 843:../STLibs//STM32F4xx_DSP_StdPeriph_Lib_V1.0.1/Libraries/STM32F4xx_StdPeriph_Driver/src/stm32f4xx_usart.c **** 
 844:../STLibs//STM32F4xx_DSP_StdPeriph_Lib_V1.0.1/Libraries/STM32F4xx_StdPeriph_Driver/src/stm32f4xx_usart.c **** 
 845:../STLibs//STM32F4xx_DSP_StdPeriph_Lib_V1.0.1/Libraries/STM32F4xx_StdPeriph_Driver/src/stm32f4xx_usart.c **** /** @defgroup USART_Group6 Smartcard mode functions
 846:../STLibs//STM32F4xx_DSP_StdPeriph_Lib_V1.0.1/Libraries/STM32F4xx_StdPeriph_Driver/src/stm32f4xx_usart.c ****  *  @brief   Smartcard mode functions 
 847:../STLibs//STM32F4xx_DSP_StdPeriph_Lib_V1.0.1/Libraries/STM32F4xx_StdPeriph_Driver/src/stm32f4xx_usart.c ****  *
 848:../STLibs//STM32F4xx_DSP_StdPeriph_Lib_V1.0.1/Libraries/STM32F4xx_StdPeriph_Driver/src/stm32f4xx_usart.c **** @verbatim   
 849:../STLibs//STM32F4xx_DSP_StdPeriph_Lib_V1.0.1/Libraries/STM32F4xx_StdPeriph_Driver/src/stm32f4xx_usart.c ****  ===============================================================================
 850:../STLibs//STM32F4xx_DSP_StdPeriph_Lib_V1.0.1/Libraries/STM32F4xx_StdPeriph_Driver/src/stm32f4xx_usart.c ****                                Smartcard mode functions
 851:../STLibs//STM32F4xx_DSP_StdPeriph_Lib_V1.0.1/Libraries/STM32F4xx_StdPeriph_Driver/src/stm32f4xx_usart.c ****  ===============================================================================  
 852:../STLibs//STM32F4xx_DSP_StdPeriph_Lib_V1.0.1/Libraries/STM32F4xx_StdPeriph_Driver/src/stm32f4xx_usart.c **** 
 853:../STLibs//STM32F4xx_DSP_StdPeriph_Lib_V1.0.1/Libraries/STM32F4xx_StdPeriph_Driver/src/stm32f4xx_usart.c ****   This subsection provides a set of functions allowing to manage the USART 
 854:../STLibs//STM32F4xx_DSP_StdPeriph_Lib_V1.0.1/Libraries/STM32F4xx_StdPeriph_Driver/src/stm32f4xx_usart.c ****   Smartcard communication.
 855:../STLibs//STM32F4xx_DSP_StdPeriph_Lib_V1.0.1/Libraries/STM32F4xx_StdPeriph_Driver/src/stm32f4xx_usart.c ****   
 856:../STLibs//STM32F4xx_DSP_StdPeriph_Lib_V1.0.1/Libraries/STM32F4xx_StdPeriph_Driver/src/stm32f4xx_usart.c ****   The Smartcard interface is designed to support asynchronous protocol Smartcards as
 857:../STLibs//STM32F4xx_DSP_StdPeriph_Lib_V1.0.1/Libraries/STM32F4xx_StdPeriph_Driver/src/stm32f4xx_usart.c ****   defined in the ISO 7816-3 standard.
 858:../STLibs//STM32F4xx_DSP_StdPeriph_Lib_V1.0.1/Libraries/STM32F4xx_StdPeriph_Driver/src/stm32f4xx_usart.c **** 
 859:../STLibs//STM32F4xx_DSP_StdPeriph_Lib_V1.0.1/Libraries/STM32F4xx_StdPeriph_Driver/src/stm32f4xx_usart.c ****   The USART can provide a clock to the smartcard through the SCLK output.
 860:../STLibs//STM32F4xx_DSP_StdPeriph_Lib_V1.0.1/Libraries/STM32F4xx_StdPeriph_Driver/src/stm32f4xx_usart.c ****   In smartcard mode, SCLK is not associated to the communication but is simply derived 
 861:../STLibs//STM32F4xx_DSP_StdPeriph_Lib_V1.0.1/Libraries/STM32F4xx_StdPeriph_Driver/src/stm32f4xx_usart.c ****   from the internal peripheral input clock through a 5-bit prescaler.
 862:../STLibs//STM32F4xx_DSP_StdPeriph_Lib_V1.0.1/Libraries/STM32F4xx_StdPeriph_Driver/src/stm32f4xx_usart.c **** 
 863:../STLibs//STM32F4xx_DSP_StdPeriph_Lib_V1.0.1/Libraries/STM32F4xx_StdPeriph_Driver/src/stm32f4xx_usart.c ****   Smartcard communication is possible through the following procedure:
 864:../STLibs//STM32F4xx_DSP_StdPeriph_Lib_V1.0.1/Libraries/STM32F4xx_StdPeriph_Driver/src/stm32f4xx_usart.c ****      1. Configures the Smartcard Prescaler using the USART_SetPrescaler() function.
 865:../STLibs//STM32F4xx_DSP_StdPeriph_Lib_V1.0.1/Libraries/STM32F4xx_StdPeriph_Driver/src/stm32f4xx_usart.c ****      2. Configures the Smartcard Guard Time using the USART_SetGuardTime() function.
 866:../STLibs//STM32F4xx_DSP_StdPeriph_Lib_V1.0.1/Libraries/STM32F4xx_StdPeriph_Driver/src/stm32f4xx_usart.c ****      3. Program the USART clock using the USART_ClockInit() function as following:
 867:../STLibs//STM32F4xx_DSP_StdPeriph_Lib_V1.0.1/Libraries/STM32F4xx_StdPeriph_Driver/src/stm32f4xx_usart.c ****         - USART Clock enabled
 868:../STLibs//STM32F4xx_DSP_StdPeriph_Lib_V1.0.1/Libraries/STM32F4xx_StdPeriph_Driver/src/stm32f4xx_usart.c ****         - USART CPOL Low
 869:../STLibs//STM32F4xx_DSP_StdPeriph_Lib_V1.0.1/Libraries/STM32F4xx_StdPeriph_Driver/src/stm32f4xx_usart.c ****         - USART CPHA on first edge
 870:../STLibs//STM32F4xx_DSP_StdPeriph_Lib_V1.0.1/Libraries/STM32F4xx_StdPeriph_Driver/src/stm32f4xx_usart.c ****         - USART Last Bit Clock Enabled
 871:../STLibs//STM32F4xx_DSP_StdPeriph_Lib_V1.0.1/Libraries/STM32F4xx_StdPeriph_Driver/src/stm32f4xx_usart.c ****      4. Program the Smartcard interface using the USART_Init() function as following:
 872:../STLibs//STM32F4xx_DSP_StdPeriph_Lib_V1.0.1/Libraries/STM32F4xx_StdPeriph_Driver/src/stm32f4xx_usart.c ****         - Word Length = 9 Bits
 873:../STLibs//STM32F4xx_DSP_StdPeriph_Lib_V1.0.1/Libraries/STM32F4xx_StdPeriph_Driver/src/stm32f4xx_usart.c ****         - 1.5 Stop Bit
 874:../STLibs//STM32F4xx_DSP_StdPeriph_Lib_V1.0.1/Libraries/STM32F4xx_StdPeriph_Driver/src/stm32f4xx_usart.c ****         - Even parity
 875:../STLibs//STM32F4xx_DSP_StdPeriph_Lib_V1.0.1/Libraries/STM32F4xx_StdPeriph_Driver/src/stm32f4xx_usart.c ****         - BaudRate = 12096 baud
 876:../STLibs//STM32F4xx_DSP_StdPeriph_Lib_V1.0.1/Libraries/STM32F4xx_StdPeriph_Driver/src/stm32f4xx_usart.c ****         - Hardware flow control disabled (RTS and CTS signals)
 877:../STLibs//STM32F4xx_DSP_StdPeriph_Lib_V1.0.1/Libraries/STM32F4xx_StdPeriph_Driver/src/stm32f4xx_usart.c ****         - Tx and Rx enabled
 878:../STLibs//STM32F4xx_DSP_StdPeriph_Lib_V1.0.1/Libraries/STM32F4xx_StdPeriph_Driver/src/stm32f4xx_usart.c ****      5. Optionally you can enable the parity error interrupt using the USART_ITConfig()
 879:../STLibs//STM32F4xx_DSP_StdPeriph_Lib_V1.0.1/Libraries/STM32F4xx_StdPeriph_Driver/src/stm32f4xx_usart.c ****         function
 880:../STLibs//STM32F4xx_DSP_StdPeriph_Lib_V1.0.1/Libraries/STM32F4xx_StdPeriph_Driver/src/stm32f4xx_usart.c ****      6. Enable the USART using the USART_Cmd() function.
 881:../STLibs//STM32F4xx_DSP_StdPeriph_Lib_V1.0.1/Libraries/STM32F4xx_StdPeriph_Driver/src/stm32f4xx_usart.c ****      7. Enable the Smartcard NACK using the USART_SmartCardNACKCmd() function.
 882:../STLibs//STM32F4xx_DSP_StdPeriph_Lib_V1.0.1/Libraries/STM32F4xx_StdPeriph_Driver/src/stm32f4xx_usart.c ****      8. Enable the Smartcard interface using the USART_SmartCardCmd() function.
 883:../STLibs//STM32F4xx_DSP_StdPeriph_Lib_V1.0.1/Libraries/STM32F4xx_StdPeriph_Driver/src/stm32f4xx_usart.c **** 
 884:../STLibs//STM32F4xx_DSP_StdPeriph_Lib_V1.0.1/Libraries/STM32F4xx_StdPeriph_Driver/src/stm32f4xx_usart.c ****   Please refer to the ISO 7816-3 specification for more details.
 885:../STLibs//STM32F4xx_DSP_StdPeriph_Lib_V1.0.1/Libraries/STM32F4xx_StdPeriph_Driver/src/stm32f4xx_usart.c **** 
 886:../STLibs//STM32F4xx_DSP_StdPeriph_Lib_V1.0.1/Libraries/STM32F4xx_StdPeriph_Driver/src/stm32f4xx_usart.c **** 
 887:../STLibs//STM32F4xx_DSP_StdPeriph_Lib_V1.0.1/Libraries/STM32F4xx_StdPeriph_Driver/src/stm32f4xx_usart.c **** @note It is also possible to choose 0.5 stop bit for receiving but it is recommended 
 888:../STLibs//STM32F4xx_DSP_StdPeriph_Lib_V1.0.1/Libraries/STM32F4xx_StdPeriph_Driver/src/stm32f4xx_usart.c ****       to use 1.5 stop bits for both transmitting and receiving to avoid switching 
 889:../STLibs//STM32F4xx_DSP_StdPeriph_Lib_V1.0.1/Libraries/STM32F4xx_StdPeriph_Driver/src/stm32f4xx_usart.c ****       between the two configurations.
 890:../STLibs//STM32F4xx_DSP_StdPeriph_Lib_V1.0.1/Libraries/STM32F4xx_StdPeriph_Driver/src/stm32f4xx_usart.c **** @note In smartcard mode, the following bits must be kept cleared:
 891:../STLibs//STM32F4xx_DSP_StdPeriph_Lib_V1.0.1/Libraries/STM32F4xx_StdPeriph_Driver/src/stm32f4xx_usart.c ****         - LINEN bit in the USART_CR2 register.
 892:../STLibs//STM32F4xx_DSP_StdPeriph_Lib_V1.0.1/Libraries/STM32F4xx_StdPeriph_Driver/src/stm32f4xx_usart.c ****         - HDSEL and IREN bits in the USART_CR3 register.
 893:../STLibs//STM32F4xx_DSP_StdPeriph_Lib_V1.0.1/Libraries/STM32F4xx_StdPeriph_Driver/src/stm32f4xx_usart.c **** @note Smartcard mode is available on USART peripherals only (not available on UART4 
 894:../STLibs//STM32F4xx_DSP_StdPeriph_Lib_V1.0.1/Libraries/STM32F4xx_StdPeriph_Driver/src/stm32f4xx_usart.c ****       and UART5 peripherals).
 895:../STLibs//STM32F4xx_DSP_StdPeriph_Lib_V1.0.1/Libraries/STM32F4xx_StdPeriph_Driver/src/stm32f4xx_usart.c **** 
 896:../STLibs//STM32F4xx_DSP_StdPeriph_Lib_V1.0.1/Libraries/STM32F4xx_StdPeriph_Driver/src/stm32f4xx_usart.c **** @endverbatim
 897:../STLibs//STM32F4xx_DSP_StdPeriph_Lib_V1.0.1/Libraries/STM32F4xx_StdPeriph_Driver/src/stm32f4xx_usart.c ****   * @{
 898:../STLibs//STM32F4xx_DSP_StdPeriph_Lib_V1.0.1/Libraries/STM32F4xx_StdPeriph_Driver/src/stm32f4xx_usart.c ****   */
 899:../STLibs//STM32F4xx_DSP_StdPeriph_Lib_V1.0.1/Libraries/STM32F4xx_StdPeriph_Driver/src/stm32f4xx_usart.c **** 
 900:../STLibs//STM32F4xx_DSP_StdPeriph_Lib_V1.0.1/Libraries/STM32F4xx_StdPeriph_Driver/src/stm32f4xx_usart.c **** /**
 901:../STLibs//STM32F4xx_DSP_StdPeriph_Lib_V1.0.1/Libraries/STM32F4xx_StdPeriph_Driver/src/stm32f4xx_usart.c ****   * @brief  Sets the specified USART guard time.
 902:../STLibs//STM32F4xx_DSP_StdPeriph_Lib_V1.0.1/Libraries/STM32F4xx_StdPeriph_Driver/src/stm32f4xx_usart.c ****   * @param  USARTx: where x can be 1, 2, 3 or 6 to select the USART or 
 903:../STLibs//STM32F4xx_DSP_StdPeriph_Lib_V1.0.1/Libraries/STM32F4xx_StdPeriph_Driver/src/stm32f4xx_usart.c ****   *         UART peripheral.
 904:../STLibs//STM32F4xx_DSP_StdPeriph_Lib_V1.0.1/Libraries/STM32F4xx_StdPeriph_Driver/src/stm32f4xx_usart.c ****   * @param  USART_GuardTime: specifies the guard time.   
 905:../STLibs//STM32F4xx_DSP_StdPeriph_Lib_V1.0.1/Libraries/STM32F4xx_StdPeriph_Driver/src/stm32f4xx_usart.c ****   * @retval None
 906:../STLibs//STM32F4xx_DSP_StdPeriph_Lib_V1.0.1/Libraries/STM32F4xx_StdPeriph_Driver/src/stm32f4xx_usart.c ****   */
 907:../STLibs//STM32F4xx_DSP_StdPeriph_Lib_V1.0.1/Libraries/STM32F4xx_StdPeriph_Driver/src/stm32f4xx_usart.c **** void USART_SetGuardTime(USART_TypeDef* USARTx, uint8_t USART_GuardTime)
 908:../STLibs//STM32F4xx_DSP_StdPeriph_Lib_V1.0.1/Libraries/STM32F4xx_StdPeriph_Driver/src/stm32f4xx_usart.c **** {    
 850              		.loc 1 908 0
 851              		.cfi_startproc
 852              		@ args = 0, pretend = 0, frame = 0
 853              		@ frame_needed = 0, uses_anonymous_args = 0
 854              		@ link register save eliminated.
 855              	.LVL70:
 909:../STLibs//STM32F4xx_DSP_StdPeriph_Lib_V1.0.1/Libraries/STM32F4xx_StdPeriph_Driver/src/stm32f4xx_usart.c ****   /* Check the parameters */
 910:../STLibs//STM32F4xx_DSP_StdPeriph_Lib_V1.0.1/Libraries/STM32F4xx_StdPeriph_Driver/src/stm32f4xx_usart.c ****   assert_param(IS_USART_1236_PERIPH(USARTx));
 911:../STLibs//STM32F4xx_DSP_StdPeriph_Lib_V1.0.1/Libraries/STM32F4xx_StdPeriph_Driver/src/stm32f4xx_usart.c ****   
 912:../STLibs//STM32F4xx_DSP_StdPeriph_Lib_V1.0.1/Libraries/STM32F4xx_StdPeriph_Driver/src/stm32f4xx_usart.c ****   /* Clear the USART Guard time */
 913:../STLibs//STM32F4xx_DSP_StdPeriph_Lib_V1.0.1/Libraries/STM32F4xx_StdPeriph_Driver/src/stm32f4xx_usart.c ****   USARTx->GTPR &= USART_GTPR_PSC;
 856              		.loc 1 913 0
 857 0284 038B     		ldrh	r3, [r0, #24]
 858 0286 DBB2     		uxtb	r3, r3
 859 0288 0383     		strh	r3, [r0, #24]	@ movhi
 914:../STLibs//STM32F4xx_DSP_StdPeriph_Lib_V1.0.1/Libraries/STM32F4xx_StdPeriph_Driver/src/stm32f4xx_usart.c ****   /* Set the USART guard time */
 915:../STLibs//STM32F4xx_DSP_StdPeriph_Lib_V1.0.1/Libraries/STM32F4xx_StdPeriph_Driver/src/stm32f4xx_usart.c ****   USARTx->GTPR |= (uint16_t)((uint16_t)USART_GuardTime << 0x08);
 860              		.loc 1 915 0
 861 028a 038B     		ldrh	r3, [r0, #24]
 862 028c 43EA0121 		orr	r1, r3, r1, lsl #8
 863              	.LVL71:
 864 0290 0183     		strh	r1, [r0, #24]	@ movhi
 916:../STLibs//STM32F4xx_DSP_StdPeriph_Lib_V1.0.1/Libraries/STM32F4xx_StdPeriph_Driver/src/stm32f4xx_usart.c **** }
 865              		.loc 1 916 0
 866 0292 7047     		bx	lr
 867              		.cfi_endproc
 868              	.LFE128:
 870              		.align	1
 871              		.global	USART_SmartCardCmd
 872              		.syntax unified
 873              		.thumb
 874              		.thumb_func
 875              		.fpu fpv4-sp-d16
 877              	USART_SmartCardCmd:
 878              	.LFB129:
 917:../STLibs//STM32F4xx_DSP_StdPeriph_Lib_V1.0.1/Libraries/STM32F4xx_StdPeriph_Driver/src/stm32f4xx_usart.c **** 
 918:../STLibs//STM32F4xx_DSP_StdPeriph_Lib_V1.0.1/Libraries/STM32F4xx_StdPeriph_Driver/src/stm32f4xx_usart.c **** /**
 919:../STLibs//STM32F4xx_DSP_StdPeriph_Lib_V1.0.1/Libraries/STM32F4xx_StdPeriph_Driver/src/stm32f4xx_usart.c ****   * @brief  Enables or disables the USART's Smart Card mode.
 920:../STLibs//STM32F4xx_DSP_StdPeriph_Lib_V1.0.1/Libraries/STM32F4xx_StdPeriph_Driver/src/stm32f4xx_usart.c ****   * @param  USARTx: where x can be 1, 2, 3 or 6 to select the USART or 
 921:../STLibs//STM32F4xx_DSP_StdPeriph_Lib_V1.0.1/Libraries/STM32F4xx_StdPeriph_Driver/src/stm32f4xx_usart.c ****   *         UART peripheral.
 922:../STLibs//STM32F4xx_DSP_StdPeriph_Lib_V1.0.1/Libraries/STM32F4xx_StdPeriph_Driver/src/stm32f4xx_usart.c ****   * @param  NewState: new state of the Smart Card mode.
 923:../STLibs//STM32F4xx_DSP_StdPeriph_Lib_V1.0.1/Libraries/STM32F4xx_StdPeriph_Driver/src/stm32f4xx_usart.c ****   *          This parameter can be: ENABLE or DISABLE.      
 924:../STLibs//STM32F4xx_DSP_StdPeriph_Lib_V1.0.1/Libraries/STM32F4xx_StdPeriph_Driver/src/stm32f4xx_usart.c ****   * @retval None
 925:../STLibs//STM32F4xx_DSP_StdPeriph_Lib_V1.0.1/Libraries/STM32F4xx_StdPeriph_Driver/src/stm32f4xx_usart.c ****   */
 926:../STLibs//STM32F4xx_DSP_StdPeriph_Lib_V1.0.1/Libraries/STM32F4xx_StdPeriph_Driver/src/stm32f4xx_usart.c **** void USART_SmartCardCmd(USART_TypeDef* USARTx, FunctionalState NewState)
 927:../STLibs//STM32F4xx_DSP_StdPeriph_Lib_V1.0.1/Libraries/STM32F4xx_StdPeriph_Driver/src/stm32f4xx_usart.c **** {
 879              		.loc 1 927 0
 880              		.cfi_startproc
 881              		@ args = 0, pretend = 0, frame = 0
 882              		@ frame_needed = 0, uses_anonymous_args = 0
 883              		@ link register save eliminated.
 884              	.LVL72:
 928:../STLibs//STM32F4xx_DSP_StdPeriph_Lib_V1.0.1/Libraries/STM32F4xx_StdPeriph_Driver/src/stm32f4xx_usart.c ****   /* Check the parameters */
 929:../STLibs//STM32F4xx_DSP_StdPeriph_Lib_V1.0.1/Libraries/STM32F4xx_StdPeriph_Driver/src/stm32f4xx_usart.c ****   assert_param(IS_USART_1236_PERIPH(USARTx));
 930:../STLibs//STM32F4xx_DSP_StdPeriph_Lib_V1.0.1/Libraries/STM32F4xx_StdPeriph_Driver/src/stm32f4xx_usart.c ****   assert_param(IS_FUNCTIONAL_STATE(NewState));
 931:../STLibs//STM32F4xx_DSP_StdPeriph_Lib_V1.0.1/Libraries/STM32F4xx_StdPeriph_Driver/src/stm32f4xx_usart.c ****   if (NewState != DISABLE)
 932:../STLibs//STM32F4xx_DSP_StdPeriph_Lib_V1.0.1/Libraries/STM32F4xx_StdPeriph_Driver/src/stm32f4xx_usart.c ****   {
 933:../STLibs//STM32F4xx_DSP_StdPeriph_Lib_V1.0.1/Libraries/STM32F4xx_StdPeriph_Driver/src/stm32f4xx_usart.c ****     /* Enable the SC mode by setting the SCEN bit in the CR3 register */
 934:../STLibs//STM32F4xx_DSP_StdPeriph_Lib_V1.0.1/Libraries/STM32F4xx_StdPeriph_Driver/src/stm32f4xx_usart.c ****     USARTx->CR3 |= USART_CR3_SCEN;
 885              		.loc 1 934 0
 886 0294 838A     		ldrh	r3, [r0, #20]
 931:../STLibs//STM32F4xx_DSP_StdPeriph_Lib_V1.0.1/Libraries/STM32F4xx_StdPeriph_Driver/src/stm32f4xx_usart.c ****   {
 887              		.loc 1 931 0
 888 0296 19B1     		cbz	r1, .L59
 889              		.loc 1 934 0
 890 0298 43F02003 		orr	r3, r3, #32
 891              	.L61:
 935:../STLibs//STM32F4xx_DSP_StdPeriph_Lib_V1.0.1/Libraries/STM32F4xx_StdPeriph_Driver/src/stm32f4xx_usart.c ****   }
 936:../STLibs//STM32F4xx_DSP_StdPeriph_Lib_V1.0.1/Libraries/STM32F4xx_StdPeriph_Driver/src/stm32f4xx_usart.c ****   else
 937:../STLibs//STM32F4xx_DSP_StdPeriph_Lib_V1.0.1/Libraries/STM32F4xx_StdPeriph_Driver/src/stm32f4xx_usart.c ****   {
 938:../STLibs//STM32F4xx_DSP_StdPeriph_Lib_V1.0.1/Libraries/STM32F4xx_StdPeriph_Driver/src/stm32f4xx_usart.c ****     /* Disable the SC mode by clearing the SCEN bit in the CR3 register */
 939:../STLibs//STM32F4xx_DSP_StdPeriph_Lib_V1.0.1/Libraries/STM32F4xx_StdPeriph_Driver/src/stm32f4xx_usart.c ****     USARTx->CR3 &= (uint16_t)~((uint16_t)USART_CR3_SCEN);
 892              		.loc 1 939 0
 893 029c 8382     		strh	r3, [r0, #20]	@ movhi
 940:../STLibs//STM32F4xx_DSP_StdPeriph_Lib_V1.0.1/Libraries/STM32F4xx_StdPeriph_Driver/src/stm32f4xx_usart.c ****   }
 941:../STLibs//STM32F4xx_DSP_StdPeriph_Lib_V1.0.1/Libraries/STM32F4xx_StdPeriph_Driver/src/stm32f4xx_usart.c **** }
 894              		.loc 1 941 0
 895 029e 7047     		bx	lr
 896              	.L59:
 939:../STLibs//STM32F4xx_DSP_StdPeriph_Lib_V1.0.1/Libraries/STM32F4xx_StdPeriph_Driver/src/stm32f4xx_usart.c ****   }
 897              		.loc 1 939 0
 898 02a0 23F02003 		bic	r3, r3, #32
 899 02a4 1B04     		lsls	r3, r3, #16
 900 02a6 1B0C     		lsrs	r3, r3, #16
 901 02a8 F8E7     		b	.L61
 902              		.cfi_endproc
 903              	.LFE129:
 905              		.align	1
 906              		.global	USART_SmartCardNACKCmd
 907              		.syntax unified
 908              		.thumb
 909              		.thumb_func
 910              		.fpu fpv4-sp-d16
 912              	USART_SmartCardNACKCmd:
 913              	.LFB130:
 942:../STLibs//STM32F4xx_DSP_StdPeriph_Lib_V1.0.1/Libraries/STM32F4xx_StdPeriph_Driver/src/stm32f4xx_usart.c **** 
 943:../STLibs//STM32F4xx_DSP_StdPeriph_Lib_V1.0.1/Libraries/STM32F4xx_StdPeriph_Driver/src/stm32f4xx_usart.c **** /**
 944:../STLibs//STM32F4xx_DSP_StdPeriph_Lib_V1.0.1/Libraries/STM32F4xx_StdPeriph_Driver/src/stm32f4xx_usart.c ****   * @brief  Enables or disables NACK transmission.
 945:../STLibs//STM32F4xx_DSP_StdPeriph_Lib_V1.0.1/Libraries/STM32F4xx_StdPeriph_Driver/src/stm32f4xx_usart.c ****   * @param  USARTx: where x can be 1, 2, 3 or 6 to select the USART or 
 946:../STLibs//STM32F4xx_DSP_StdPeriph_Lib_V1.0.1/Libraries/STM32F4xx_StdPeriph_Driver/src/stm32f4xx_usart.c ****   *         UART peripheral.
 947:../STLibs//STM32F4xx_DSP_StdPeriph_Lib_V1.0.1/Libraries/STM32F4xx_StdPeriph_Driver/src/stm32f4xx_usart.c ****   * @param  NewState: new state of the NACK transmission.
 948:../STLibs//STM32F4xx_DSP_StdPeriph_Lib_V1.0.1/Libraries/STM32F4xx_StdPeriph_Driver/src/stm32f4xx_usart.c ****   *          This parameter can be: ENABLE or DISABLE.  
 949:../STLibs//STM32F4xx_DSP_StdPeriph_Lib_V1.0.1/Libraries/STM32F4xx_StdPeriph_Driver/src/stm32f4xx_usart.c ****   * @retval None
 950:../STLibs//STM32F4xx_DSP_StdPeriph_Lib_V1.0.1/Libraries/STM32F4xx_StdPeriph_Driver/src/stm32f4xx_usart.c ****   */
 951:../STLibs//STM32F4xx_DSP_StdPeriph_Lib_V1.0.1/Libraries/STM32F4xx_StdPeriph_Driver/src/stm32f4xx_usart.c **** void USART_SmartCardNACKCmd(USART_TypeDef* USARTx, FunctionalState NewState)
 952:../STLibs//STM32F4xx_DSP_StdPeriph_Lib_V1.0.1/Libraries/STM32F4xx_StdPeriph_Driver/src/stm32f4xx_usart.c **** {
 914              		.loc 1 952 0
 915              		.cfi_startproc
 916              		@ args = 0, pretend = 0, frame = 0
 917              		@ frame_needed = 0, uses_anonymous_args = 0
 918              		@ link register save eliminated.
 919              	.LVL73:
 953:../STLibs//STM32F4xx_DSP_StdPeriph_Lib_V1.0.1/Libraries/STM32F4xx_StdPeriph_Driver/src/stm32f4xx_usart.c ****   /* Check the parameters */
 954:../STLibs//STM32F4xx_DSP_StdPeriph_Lib_V1.0.1/Libraries/STM32F4xx_StdPeriph_Driver/src/stm32f4xx_usart.c ****   assert_param(IS_USART_1236_PERIPH(USARTx)); 
 955:../STLibs//STM32F4xx_DSP_StdPeriph_Lib_V1.0.1/Libraries/STM32F4xx_StdPeriph_Driver/src/stm32f4xx_usart.c ****   assert_param(IS_FUNCTIONAL_STATE(NewState));
 956:../STLibs//STM32F4xx_DSP_StdPeriph_Lib_V1.0.1/Libraries/STM32F4xx_StdPeriph_Driver/src/stm32f4xx_usart.c ****   if (NewState != DISABLE)
 957:../STLibs//STM32F4xx_DSP_StdPeriph_Lib_V1.0.1/Libraries/STM32F4xx_StdPeriph_Driver/src/stm32f4xx_usart.c ****   {
 958:../STLibs//STM32F4xx_DSP_StdPeriph_Lib_V1.0.1/Libraries/STM32F4xx_StdPeriph_Driver/src/stm32f4xx_usart.c ****     /* Enable the NACK transmission by setting the NACK bit in the CR3 register */
 959:../STLibs//STM32F4xx_DSP_StdPeriph_Lib_V1.0.1/Libraries/STM32F4xx_StdPeriph_Driver/src/stm32f4xx_usart.c ****     USARTx->CR3 |= USART_CR3_NACK;
 920              		.loc 1 959 0
 921 02aa 838A     		ldrh	r3, [r0, #20]
 956:../STLibs//STM32F4xx_DSP_StdPeriph_Lib_V1.0.1/Libraries/STM32F4xx_StdPeriph_Driver/src/stm32f4xx_usart.c ****   {
 922              		.loc 1 956 0
 923 02ac 19B1     		cbz	r1, .L63
 924              		.loc 1 959 0
 925 02ae 43F01003 		orr	r3, r3, #16
 926              	.L65:
 960:../STLibs//STM32F4xx_DSP_StdPeriph_Lib_V1.0.1/Libraries/STM32F4xx_StdPeriph_Driver/src/stm32f4xx_usart.c ****   }
 961:../STLibs//STM32F4xx_DSP_StdPeriph_Lib_V1.0.1/Libraries/STM32F4xx_StdPeriph_Driver/src/stm32f4xx_usart.c ****   else
 962:../STLibs//STM32F4xx_DSP_StdPeriph_Lib_V1.0.1/Libraries/STM32F4xx_StdPeriph_Driver/src/stm32f4xx_usart.c ****   {
 963:../STLibs//STM32F4xx_DSP_StdPeriph_Lib_V1.0.1/Libraries/STM32F4xx_StdPeriph_Driver/src/stm32f4xx_usart.c ****     /* Disable the NACK transmission by clearing the NACK bit in the CR3 register */
 964:../STLibs//STM32F4xx_DSP_StdPeriph_Lib_V1.0.1/Libraries/STM32F4xx_StdPeriph_Driver/src/stm32f4xx_usart.c ****     USARTx->CR3 &= (uint16_t)~((uint16_t)USART_CR3_NACK);
 927              		.loc 1 964 0
 928 02b2 8382     		strh	r3, [r0, #20]	@ movhi
 965:../STLibs//STM32F4xx_DSP_StdPeriph_Lib_V1.0.1/Libraries/STM32F4xx_StdPeriph_Driver/src/stm32f4xx_usart.c ****   }
 966:../STLibs//STM32F4xx_DSP_StdPeriph_Lib_V1.0.1/Libraries/STM32F4xx_StdPeriph_Driver/src/stm32f4xx_usart.c **** }
 929              		.loc 1 966 0
 930 02b4 7047     		bx	lr
 931              	.L63:
 964:../STLibs//STM32F4xx_DSP_StdPeriph_Lib_V1.0.1/Libraries/STM32F4xx_StdPeriph_Driver/src/stm32f4xx_usart.c ****   }
 932              		.loc 1 964 0
 933 02b6 23F01003 		bic	r3, r3, #16
 934 02ba 1B04     		lsls	r3, r3, #16
 935 02bc 1B0C     		lsrs	r3, r3, #16
 936 02be F8E7     		b	.L65
 937              		.cfi_endproc
 938              	.LFE130:
 940              		.align	1
 941              		.global	USART_IrDAConfig
 942              		.syntax unified
 943              		.thumb
 944              		.thumb_func
 945              		.fpu fpv4-sp-d16
 947              	USART_IrDAConfig:
 948              	.LFB131:
 967:../STLibs//STM32F4xx_DSP_StdPeriph_Lib_V1.0.1/Libraries/STM32F4xx_StdPeriph_Driver/src/stm32f4xx_usart.c **** 
 968:../STLibs//STM32F4xx_DSP_StdPeriph_Lib_V1.0.1/Libraries/STM32F4xx_StdPeriph_Driver/src/stm32f4xx_usart.c **** /**
 969:../STLibs//STM32F4xx_DSP_StdPeriph_Lib_V1.0.1/Libraries/STM32F4xx_StdPeriph_Driver/src/stm32f4xx_usart.c ****   * @}
 970:../STLibs//STM32F4xx_DSP_StdPeriph_Lib_V1.0.1/Libraries/STM32F4xx_StdPeriph_Driver/src/stm32f4xx_usart.c ****   */
 971:../STLibs//STM32F4xx_DSP_StdPeriph_Lib_V1.0.1/Libraries/STM32F4xx_StdPeriph_Driver/src/stm32f4xx_usart.c **** 
 972:../STLibs//STM32F4xx_DSP_StdPeriph_Lib_V1.0.1/Libraries/STM32F4xx_StdPeriph_Driver/src/stm32f4xx_usart.c **** /** @defgroup USART_Group7 IrDA mode functions
 973:../STLibs//STM32F4xx_DSP_StdPeriph_Lib_V1.0.1/Libraries/STM32F4xx_StdPeriph_Driver/src/stm32f4xx_usart.c ****  *  @brief   IrDA mode functions 
 974:../STLibs//STM32F4xx_DSP_StdPeriph_Lib_V1.0.1/Libraries/STM32F4xx_StdPeriph_Driver/src/stm32f4xx_usart.c ****  *
 975:../STLibs//STM32F4xx_DSP_StdPeriph_Lib_V1.0.1/Libraries/STM32F4xx_StdPeriph_Driver/src/stm32f4xx_usart.c **** @verbatim   
 976:../STLibs//STM32F4xx_DSP_StdPeriph_Lib_V1.0.1/Libraries/STM32F4xx_StdPeriph_Driver/src/stm32f4xx_usart.c ****  ===============================================================================
 977:../STLibs//STM32F4xx_DSP_StdPeriph_Lib_V1.0.1/Libraries/STM32F4xx_StdPeriph_Driver/src/stm32f4xx_usart.c ****                                 IrDA mode functions
 978:../STLibs//STM32F4xx_DSP_StdPeriph_Lib_V1.0.1/Libraries/STM32F4xx_StdPeriph_Driver/src/stm32f4xx_usart.c ****  ===============================================================================  
 979:../STLibs//STM32F4xx_DSP_StdPeriph_Lib_V1.0.1/Libraries/STM32F4xx_StdPeriph_Driver/src/stm32f4xx_usart.c **** 
 980:../STLibs//STM32F4xx_DSP_StdPeriph_Lib_V1.0.1/Libraries/STM32F4xx_StdPeriph_Driver/src/stm32f4xx_usart.c ****   This subsection provides a set of functions allowing to manage the USART 
 981:../STLibs//STM32F4xx_DSP_StdPeriph_Lib_V1.0.1/Libraries/STM32F4xx_StdPeriph_Driver/src/stm32f4xx_usart.c ****   IrDA communication.
 982:../STLibs//STM32F4xx_DSP_StdPeriph_Lib_V1.0.1/Libraries/STM32F4xx_StdPeriph_Driver/src/stm32f4xx_usart.c ****   
 983:../STLibs//STM32F4xx_DSP_StdPeriph_Lib_V1.0.1/Libraries/STM32F4xx_StdPeriph_Driver/src/stm32f4xx_usart.c ****   IrDA is a half duplex communication protocol. If the Transmitter is busy, any data
 984:../STLibs//STM32F4xx_DSP_StdPeriph_Lib_V1.0.1/Libraries/STM32F4xx_StdPeriph_Driver/src/stm32f4xx_usart.c ****   on the IrDA receive line will be ignored by the IrDA decoder and if the Receiver 
 985:../STLibs//STM32F4xx_DSP_StdPeriph_Lib_V1.0.1/Libraries/STM32F4xx_StdPeriph_Driver/src/stm32f4xx_usart.c ****   is busy, data on the TX from the USART to IrDA will not be encoded by IrDA.
 986:../STLibs//STM32F4xx_DSP_StdPeriph_Lib_V1.0.1/Libraries/STM32F4xx_StdPeriph_Driver/src/stm32f4xx_usart.c ****   While receiving data, transmission should be avoided as the data to be transmitted
 987:../STLibs//STM32F4xx_DSP_StdPeriph_Lib_V1.0.1/Libraries/STM32F4xx_StdPeriph_Driver/src/stm32f4xx_usart.c ****   could be corrupted.
 988:../STLibs//STM32F4xx_DSP_StdPeriph_Lib_V1.0.1/Libraries/STM32F4xx_StdPeriph_Driver/src/stm32f4xx_usart.c **** 
 989:../STLibs//STM32F4xx_DSP_StdPeriph_Lib_V1.0.1/Libraries/STM32F4xx_StdPeriph_Driver/src/stm32f4xx_usart.c ****   IrDA communication is possible through the following procedure:
 990:../STLibs//STM32F4xx_DSP_StdPeriph_Lib_V1.0.1/Libraries/STM32F4xx_StdPeriph_Driver/src/stm32f4xx_usart.c ****      1. Program the Baud rate, Word length = 8 bits, Stop bits, Parity, Transmitter/Receiver 
 991:../STLibs//STM32F4xx_DSP_StdPeriph_Lib_V1.0.1/Libraries/STM32F4xx_StdPeriph_Driver/src/stm32f4xx_usart.c ****         modes and hardware flow control values using the USART_Init() function.
 992:../STLibs//STM32F4xx_DSP_StdPeriph_Lib_V1.0.1/Libraries/STM32F4xx_StdPeriph_Driver/src/stm32f4xx_usart.c ****      2. Enable the USART using the USART_Cmd() function.
 993:../STLibs//STM32F4xx_DSP_StdPeriph_Lib_V1.0.1/Libraries/STM32F4xx_StdPeriph_Driver/src/stm32f4xx_usart.c ****      3. Configures the IrDA pulse width by configuring the prescaler using  
 994:../STLibs//STM32F4xx_DSP_StdPeriph_Lib_V1.0.1/Libraries/STM32F4xx_StdPeriph_Driver/src/stm32f4xx_usart.c ****         the USART_SetPrescaler() function.
 995:../STLibs//STM32F4xx_DSP_StdPeriph_Lib_V1.0.1/Libraries/STM32F4xx_StdPeriph_Driver/src/stm32f4xx_usart.c ****      4. Configures the IrDA  USART_IrDAMode_LowPower or USART_IrDAMode_Normal mode
 996:../STLibs//STM32F4xx_DSP_StdPeriph_Lib_V1.0.1/Libraries/STM32F4xx_StdPeriph_Driver/src/stm32f4xx_usart.c ****         using the USART_IrDAConfig() function.
 997:../STLibs//STM32F4xx_DSP_StdPeriph_Lib_V1.0.1/Libraries/STM32F4xx_StdPeriph_Driver/src/stm32f4xx_usart.c ****      5. Enable the IrDA using the USART_IrDACmd() function.
 998:../STLibs//STM32F4xx_DSP_StdPeriph_Lib_V1.0.1/Libraries/STM32F4xx_StdPeriph_Driver/src/stm32f4xx_usart.c **** 
 999:../STLibs//STM32F4xx_DSP_StdPeriph_Lib_V1.0.1/Libraries/STM32F4xx_StdPeriph_Driver/src/stm32f4xx_usart.c **** @note A pulse of width less than two and greater than one PSC period(s) may or may
1000:../STLibs//STM32F4xx_DSP_StdPeriph_Lib_V1.0.1/Libraries/STM32F4xx_StdPeriph_Driver/src/stm32f4xx_usart.c ****       not be rejected.
1001:../STLibs//STM32F4xx_DSP_StdPeriph_Lib_V1.0.1/Libraries/STM32F4xx_StdPeriph_Driver/src/stm32f4xx_usart.c **** @note The receiver set up time should be managed by software. The IrDA physical layer
1002:../STLibs//STM32F4xx_DSP_StdPeriph_Lib_V1.0.1/Libraries/STM32F4xx_StdPeriph_Driver/src/stm32f4xx_usart.c ****       specification specifies a minimum of 10 ms delay between transmission and 
1003:../STLibs//STM32F4xx_DSP_StdPeriph_Lib_V1.0.1/Libraries/STM32F4xx_StdPeriph_Driver/src/stm32f4xx_usart.c ****       reception (IrDA is a half duplex protocol).
1004:../STLibs//STM32F4xx_DSP_StdPeriph_Lib_V1.0.1/Libraries/STM32F4xx_StdPeriph_Driver/src/stm32f4xx_usart.c **** @note In IrDA mode, the following bits must be kept cleared:
1005:../STLibs//STM32F4xx_DSP_StdPeriph_Lib_V1.0.1/Libraries/STM32F4xx_StdPeriph_Driver/src/stm32f4xx_usart.c ****         - LINEN, STOP and CLKEN bits in the USART_CR2 register.
1006:../STLibs//STM32F4xx_DSP_StdPeriph_Lib_V1.0.1/Libraries/STM32F4xx_StdPeriph_Driver/src/stm32f4xx_usart.c ****         - SCEN and HDSEL bits in the USART_CR3 register.
1007:../STLibs//STM32F4xx_DSP_StdPeriph_Lib_V1.0.1/Libraries/STM32F4xx_StdPeriph_Driver/src/stm32f4xx_usart.c **** 
1008:../STLibs//STM32F4xx_DSP_StdPeriph_Lib_V1.0.1/Libraries/STM32F4xx_StdPeriph_Driver/src/stm32f4xx_usart.c **** @endverbatim
1009:../STLibs//STM32F4xx_DSP_StdPeriph_Lib_V1.0.1/Libraries/STM32F4xx_StdPeriph_Driver/src/stm32f4xx_usart.c ****   * @{
1010:../STLibs//STM32F4xx_DSP_StdPeriph_Lib_V1.0.1/Libraries/STM32F4xx_StdPeriph_Driver/src/stm32f4xx_usart.c ****   */
1011:../STLibs//STM32F4xx_DSP_StdPeriph_Lib_V1.0.1/Libraries/STM32F4xx_StdPeriph_Driver/src/stm32f4xx_usart.c **** 
1012:../STLibs//STM32F4xx_DSP_StdPeriph_Lib_V1.0.1/Libraries/STM32F4xx_StdPeriph_Driver/src/stm32f4xx_usart.c **** /**
1013:../STLibs//STM32F4xx_DSP_StdPeriph_Lib_V1.0.1/Libraries/STM32F4xx_StdPeriph_Driver/src/stm32f4xx_usart.c ****   * @brief  Configures the USART's IrDA interface.
1014:../STLibs//STM32F4xx_DSP_StdPeriph_Lib_V1.0.1/Libraries/STM32F4xx_StdPeriph_Driver/src/stm32f4xx_usart.c ****   * @param  USARTx: where x can be 1, 2, 3, 4, 5 or 6 to select the USART or 
1015:../STLibs//STM32F4xx_DSP_StdPeriph_Lib_V1.0.1/Libraries/STM32F4xx_StdPeriph_Driver/src/stm32f4xx_usart.c ****   *         UART peripheral.
1016:../STLibs//STM32F4xx_DSP_StdPeriph_Lib_V1.0.1/Libraries/STM32F4xx_StdPeriph_Driver/src/stm32f4xx_usart.c ****   * @param  USART_IrDAMode: specifies the IrDA mode.
1017:../STLibs//STM32F4xx_DSP_StdPeriph_Lib_V1.0.1/Libraries/STM32F4xx_StdPeriph_Driver/src/stm32f4xx_usart.c ****   *          This parameter can be one of the following values:
1018:../STLibs//STM32F4xx_DSP_StdPeriph_Lib_V1.0.1/Libraries/STM32F4xx_StdPeriph_Driver/src/stm32f4xx_usart.c ****   *            @arg USART_IrDAMode_LowPower
1019:../STLibs//STM32F4xx_DSP_StdPeriph_Lib_V1.0.1/Libraries/STM32F4xx_StdPeriph_Driver/src/stm32f4xx_usart.c ****   *            @arg USART_IrDAMode_Normal
1020:../STLibs//STM32F4xx_DSP_StdPeriph_Lib_V1.0.1/Libraries/STM32F4xx_StdPeriph_Driver/src/stm32f4xx_usart.c ****   * @retval None
1021:../STLibs//STM32F4xx_DSP_StdPeriph_Lib_V1.0.1/Libraries/STM32F4xx_StdPeriph_Driver/src/stm32f4xx_usart.c ****   */
1022:../STLibs//STM32F4xx_DSP_StdPeriph_Lib_V1.0.1/Libraries/STM32F4xx_StdPeriph_Driver/src/stm32f4xx_usart.c **** void USART_IrDAConfig(USART_TypeDef* USARTx, uint16_t USART_IrDAMode)
1023:../STLibs//STM32F4xx_DSP_StdPeriph_Lib_V1.0.1/Libraries/STM32F4xx_StdPeriph_Driver/src/stm32f4xx_usart.c **** {
 949              		.loc 1 1023 0
 950              		.cfi_startproc
 951              		@ args = 0, pretend = 0, frame = 0
 952              		@ frame_needed = 0, uses_anonymous_args = 0
 953              		@ link register save eliminated.
 954              	.LVL74:
1024:../STLibs//STM32F4xx_DSP_StdPeriph_Lib_V1.0.1/Libraries/STM32F4xx_StdPeriph_Driver/src/stm32f4xx_usart.c ****   /* Check the parameters */
1025:../STLibs//STM32F4xx_DSP_StdPeriph_Lib_V1.0.1/Libraries/STM32F4xx_StdPeriph_Driver/src/stm32f4xx_usart.c ****   assert_param(IS_USART_ALL_PERIPH(USARTx));
1026:../STLibs//STM32F4xx_DSP_StdPeriph_Lib_V1.0.1/Libraries/STM32F4xx_StdPeriph_Driver/src/stm32f4xx_usart.c ****   assert_param(IS_USART_IRDA_MODE(USART_IrDAMode));
1027:../STLibs//STM32F4xx_DSP_StdPeriph_Lib_V1.0.1/Libraries/STM32F4xx_StdPeriph_Driver/src/stm32f4xx_usart.c ****     
1028:../STLibs//STM32F4xx_DSP_StdPeriph_Lib_V1.0.1/Libraries/STM32F4xx_StdPeriph_Driver/src/stm32f4xx_usart.c ****   USARTx->CR3 &= (uint16_t)~((uint16_t)USART_CR3_IRLP);
 955              		.loc 1 1028 0
 956 02c0 838A     		ldrh	r3, [r0, #20]
 957 02c2 23F00403 		bic	r3, r3, #4
 958 02c6 1B04     		lsls	r3, r3, #16
 959 02c8 1B0C     		lsrs	r3, r3, #16
 960 02ca 8382     		strh	r3, [r0, #20]	@ movhi
1029:../STLibs//STM32F4xx_DSP_StdPeriph_Lib_V1.0.1/Libraries/STM32F4xx_StdPeriph_Driver/src/stm32f4xx_usart.c ****   USARTx->CR3 |= USART_IrDAMode;
 961              		.loc 1 1029 0
 962 02cc 838A     		ldrh	r3, [r0, #20]
 963 02ce 1943     		orrs	r1, r1, r3
 964              	.LVL75:
 965 02d0 8182     		strh	r1, [r0, #20]	@ movhi
1030:../STLibs//STM32F4xx_DSP_StdPeriph_Lib_V1.0.1/Libraries/STM32F4xx_StdPeriph_Driver/src/stm32f4xx_usart.c **** }
 966              		.loc 1 1030 0
 967 02d2 7047     		bx	lr
 968              		.cfi_endproc
 969              	.LFE131:
 971              		.align	1
 972              		.global	USART_IrDACmd
 973              		.syntax unified
 974              		.thumb
 975              		.thumb_func
 976              		.fpu fpv4-sp-d16
 978              	USART_IrDACmd:
 979              	.LFB132:
1031:../STLibs//STM32F4xx_DSP_StdPeriph_Lib_V1.0.1/Libraries/STM32F4xx_StdPeriph_Driver/src/stm32f4xx_usart.c **** 
1032:../STLibs//STM32F4xx_DSP_StdPeriph_Lib_V1.0.1/Libraries/STM32F4xx_StdPeriph_Driver/src/stm32f4xx_usart.c **** /**
1033:../STLibs//STM32F4xx_DSP_StdPeriph_Lib_V1.0.1/Libraries/STM32F4xx_StdPeriph_Driver/src/stm32f4xx_usart.c ****   * @brief  Enables or disables the USART's IrDA interface.
1034:../STLibs//STM32F4xx_DSP_StdPeriph_Lib_V1.0.1/Libraries/STM32F4xx_StdPeriph_Driver/src/stm32f4xx_usart.c ****   * @param  USARTx: where x can be 1, 2, 3, 4, 5 or 6 to select the USART or 
1035:../STLibs//STM32F4xx_DSP_StdPeriph_Lib_V1.0.1/Libraries/STM32F4xx_StdPeriph_Driver/src/stm32f4xx_usart.c ****   *         UART peripheral.
1036:../STLibs//STM32F4xx_DSP_StdPeriph_Lib_V1.0.1/Libraries/STM32F4xx_StdPeriph_Driver/src/stm32f4xx_usart.c ****   * @param  NewState: new state of the IrDA mode.
1037:../STLibs//STM32F4xx_DSP_StdPeriph_Lib_V1.0.1/Libraries/STM32F4xx_StdPeriph_Driver/src/stm32f4xx_usart.c ****   *          This parameter can be: ENABLE or DISABLE.
1038:../STLibs//STM32F4xx_DSP_StdPeriph_Lib_V1.0.1/Libraries/STM32F4xx_StdPeriph_Driver/src/stm32f4xx_usart.c ****   * @retval None
1039:../STLibs//STM32F4xx_DSP_StdPeriph_Lib_V1.0.1/Libraries/STM32F4xx_StdPeriph_Driver/src/stm32f4xx_usart.c ****   */
1040:../STLibs//STM32F4xx_DSP_StdPeriph_Lib_V1.0.1/Libraries/STM32F4xx_StdPeriph_Driver/src/stm32f4xx_usart.c **** void USART_IrDACmd(USART_TypeDef* USARTx, FunctionalState NewState)
1041:../STLibs//STM32F4xx_DSP_StdPeriph_Lib_V1.0.1/Libraries/STM32F4xx_StdPeriph_Driver/src/stm32f4xx_usart.c **** {
 980              		.loc 1 1041 0
 981              		.cfi_startproc
 982              		@ args = 0, pretend = 0, frame = 0
 983              		@ frame_needed = 0, uses_anonymous_args = 0
 984              		@ link register save eliminated.
 985              	.LVL76:
1042:../STLibs//STM32F4xx_DSP_StdPeriph_Lib_V1.0.1/Libraries/STM32F4xx_StdPeriph_Driver/src/stm32f4xx_usart.c ****   /* Check the parameters */
1043:../STLibs//STM32F4xx_DSP_StdPeriph_Lib_V1.0.1/Libraries/STM32F4xx_StdPeriph_Driver/src/stm32f4xx_usart.c ****   assert_param(IS_USART_ALL_PERIPH(USARTx));
1044:../STLibs//STM32F4xx_DSP_StdPeriph_Lib_V1.0.1/Libraries/STM32F4xx_StdPeriph_Driver/src/stm32f4xx_usart.c ****   assert_param(IS_FUNCTIONAL_STATE(NewState));
1045:../STLibs//STM32F4xx_DSP_StdPeriph_Lib_V1.0.1/Libraries/STM32F4xx_StdPeriph_Driver/src/stm32f4xx_usart.c ****     
1046:../STLibs//STM32F4xx_DSP_StdPeriph_Lib_V1.0.1/Libraries/STM32F4xx_StdPeriph_Driver/src/stm32f4xx_usart.c ****   if (NewState != DISABLE)
1047:../STLibs//STM32F4xx_DSP_StdPeriph_Lib_V1.0.1/Libraries/STM32F4xx_StdPeriph_Driver/src/stm32f4xx_usart.c ****   {
1048:../STLibs//STM32F4xx_DSP_StdPeriph_Lib_V1.0.1/Libraries/STM32F4xx_StdPeriph_Driver/src/stm32f4xx_usart.c ****     /* Enable the IrDA mode by setting the IREN bit in the CR3 register */
1049:../STLibs//STM32F4xx_DSP_StdPeriph_Lib_V1.0.1/Libraries/STM32F4xx_StdPeriph_Driver/src/stm32f4xx_usart.c ****     USARTx->CR3 |= USART_CR3_IREN;
 986              		.loc 1 1049 0
 987 02d4 838A     		ldrh	r3, [r0, #20]
1046:../STLibs//STM32F4xx_DSP_StdPeriph_Lib_V1.0.1/Libraries/STM32F4xx_StdPeriph_Driver/src/stm32f4xx_usart.c ****   {
 988              		.loc 1 1046 0
 989 02d6 19B1     		cbz	r1, .L68
 990              		.loc 1 1049 0
 991 02d8 43F00203 		orr	r3, r3, #2
 992              	.L70:
1050:../STLibs//STM32F4xx_DSP_StdPeriph_Lib_V1.0.1/Libraries/STM32F4xx_StdPeriph_Driver/src/stm32f4xx_usart.c ****   }
1051:../STLibs//STM32F4xx_DSP_StdPeriph_Lib_V1.0.1/Libraries/STM32F4xx_StdPeriph_Driver/src/stm32f4xx_usart.c ****   else
1052:../STLibs//STM32F4xx_DSP_StdPeriph_Lib_V1.0.1/Libraries/STM32F4xx_StdPeriph_Driver/src/stm32f4xx_usart.c ****   {
1053:../STLibs//STM32F4xx_DSP_StdPeriph_Lib_V1.0.1/Libraries/STM32F4xx_StdPeriph_Driver/src/stm32f4xx_usart.c ****     /* Disable the IrDA mode by clearing the IREN bit in the CR3 register */
1054:../STLibs//STM32F4xx_DSP_StdPeriph_Lib_V1.0.1/Libraries/STM32F4xx_StdPeriph_Driver/src/stm32f4xx_usart.c ****     USARTx->CR3 &= (uint16_t)~((uint16_t)USART_CR3_IREN);
 993              		.loc 1 1054 0
 994 02dc 8382     		strh	r3, [r0, #20]	@ movhi
1055:../STLibs//STM32F4xx_DSP_StdPeriph_Lib_V1.0.1/Libraries/STM32F4xx_StdPeriph_Driver/src/stm32f4xx_usart.c ****   }
1056:../STLibs//STM32F4xx_DSP_StdPeriph_Lib_V1.0.1/Libraries/STM32F4xx_StdPeriph_Driver/src/stm32f4xx_usart.c **** }
 995              		.loc 1 1056 0
 996 02de 7047     		bx	lr
 997              	.L68:
1054:../STLibs//STM32F4xx_DSP_StdPeriph_Lib_V1.0.1/Libraries/STM32F4xx_StdPeriph_Driver/src/stm32f4xx_usart.c ****   }
 998              		.loc 1 1054 0
 999 02e0 23F00203 		bic	r3, r3, #2
 1000 02e4 1B04     		lsls	r3, r3, #16
 1001 02e6 1B0C     		lsrs	r3, r3, #16
 1002 02e8 F8E7     		b	.L70
 1003              		.cfi_endproc
 1004              	.LFE132:
 1006              		.align	1
 1007              		.global	USART_DMACmd
 1008              		.syntax unified
 1009              		.thumb
 1010              		.thumb_func
 1011              		.fpu fpv4-sp-d16
 1013              	USART_DMACmd:
 1014              	.LFB133:
1057:../STLibs//STM32F4xx_DSP_StdPeriph_Lib_V1.0.1/Libraries/STM32F4xx_StdPeriph_Driver/src/stm32f4xx_usart.c **** 
1058:../STLibs//STM32F4xx_DSP_StdPeriph_Lib_V1.0.1/Libraries/STM32F4xx_StdPeriph_Driver/src/stm32f4xx_usart.c **** /**
1059:../STLibs//STM32F4xx_DSP_StdPeriph_Lib_V1.0.1/Libraries/STM32F4xx_StdPeriph_Driver/src/stm32f4xx_usart.c ****   * @}
1060:../STLibs//STM32F4xx_DSP_StdPeriph_Lib_V1.0.1/Libraries/STM32F4xx_StdPeriph_Driver/src/stm32f4xx_usart.c ****   */
1061:../STLibs//STM32F4xx_DSP_StdPeriph_Lib_V1.0.1/Libraries/STM32F4xx_StdPeriph_Driver/src/stm32f4xx_usart.c **** 
1062:../STLibs//STM32F4xx_DSP_StdPeriph_Lib_V1.0.1/Libraries/STM32F4xx_StdPeriph_Driver/src/stm32f4xx_usart.c **** /** @defgroup USART_Group8 DMA transfers management functions
1063:../STLibs//STM32F4xx_DSP_StdPeriph_Lib_V1.0.1/Libraries/STM32F4xx_StdPeriph_Driver/src/stm32f4xx_usart.c ****  *  @brief   DMA transfers management functions
1064:../STLibs//STM32F4xx_DSP_StdPeriph_Lib_V1.0.1/Libraries/STM32F4xx_StdPeriph_Driver/src/stm32f4xx_usart.c ****  *
1065:../STLibs//STM32F4xx_DSP_StdPeriph_Lib_V1.0.1/Libraries/STM32F4xx_StdPeriph_Driver/src/stm32f4xx_usart.c **** @verbatim   
1066:../STLibs//STM32F4xx_DSP_StdPeriph_Lib_V1.0.1/Libraries/STM32F4xx_StdPeriph_Driver/src/stm32f4xx_usart.c ****  ===============================================================================
1067:../STLibs//STM32F4xx_DSP_StdPeriph_Lib_V1.0.1/Libraries/STM32F4xx_StdPeriph_Driver/src/stm32f4xx_usart.c ****                       DMA transfers management functions
1068:../STLibs//STM32F4xx_DSP_StdPeriph_Lib_V1.0.1/Libraries/STM32F4xx_StdPeriph_Driver/src/stm32f4xx_usart.c ****  ===============================================================================  
1069:../STLibs//STM32F4xx_DSP_StdPeriph_Lib_V1.0.1/Libraries/STM32F4xx_StdPeriph_Driver/src/stm32f4xx_usart.c **** 
1070:../STLibs//STM32F4xx_DSP_StdPeriph_Lib_V1.0.1/Libraries/STM32F4xx_StdPeriph_Driver/src/stm32f4xx_usart.c **** @endverbatim
1071:../STLibs//STM32F4xx_DSP_StdPeriph_Lib_V1.0.1/Libraries/STM32F4xx_StdPeriph_Driver/src/stm32f4xx_usart.c ****   * @{
1072:../STLibs//STM32F4xx_DSP_StdPeriph_Lib_V1.0.1/Libraries/STM32F4xx_StdPeriph_Driver/src/stm32f4xx_usart.c ****   */
1073:../STLibs//STM32F4xx_DSP_StdPeriph_Lib_V1.0.1/Libraries/STM32F4xx_StdPeriph_Driver/src/stm32f4xx_usart.c ****   
1074:../STLibs//STM32F4xx_DSP_StdPeriph_Lib_V1.0.1/Libraries/STM32F4xx_StdPeriph_Driver/src/stm32f4xx_usart.c **** /**
1075:../STLibs//STM32F4xx_DSP_StdPeriph_Lib_V1.0.1/Libraries/STM32F4xx_StdPeriph_Driver/src/stm32f4xx_usart.c ****   * @brief  Enables or disables the USART's DMA interface.
1076:../STLibs//STM32F4xx_DSP_StdPeriph_Lib_V1.0.1/Libraries/STM32F4xx_StdPeriph_Driver/src/stm32f4xx_usart.c ****   * @param  USARTx: where x can be 1, 2, 3, 4, 5 or 6 to select the USART or 
1077:../STLibs//STM32F4xx_DSP_StdPeriph_Lib_V1.0.1/Libraries/STM32F4xx_StdPeriph_Driver/src/stm32f4xx_usart.c ****   *         UART peripheral.
1078:../STLibs//STM32F4xx_DSP_StdPeriph_Lib_V1.0.1/Libraries/STM32F4xx_StdPeriph_Driver/src/stm32f4xx_usart.c ****   * @param  USART_DMAReq: specifies the DMA request.
1079:../STLibs//STM32F4xx_DSP_StdPeriph_Lib_V1.0.1/Libraries/STM32F4xx_StdPeriph_Driver/src/stm32f4xx_usart.c ****   *          This parameter can be any combination of the following values:
1080:../STLibs//STM32F4xx_DSP_StdPeriph_Lib_V1.0.1/Libraries/STM32F4xx_StdPeriph_Driver/src/stm32f4xx_usart.c ****   *            @arg USART_DMAReq_Tx: USART DMA transmit request
1081:../STLibs//STM32F4xx_DSP_StdPeriph_Lib_V1.0.1/Libraries/STM32F4xx_StdPeriph_Driver/src/stm32f4xx_usart.c ****   *            @arg USART_DMAReq_Rx: USART DMA receive request
1082:../STLibs//STM32F4xx_DSP_StdPeriph_Lib_V1.0.1/Libraries/STM32F4xx_StdPeriph_Driver/src/stm32f4xx_usart.c ****   * @param  NewState: new state of the DMA Request sources.
1083:../STLibs//STM32F4xx_DSP_StdPeriph_Lib_V1.0.1/Libraries/STM32F4xx_StdPeriph_Driver/src/stm32f4xx_usart.c ****   *          This parameter can be: ENABLE or DISABLE.   
1084:../STLibs//STM32F4xx_DSP_StdPeriph_Lib_V1.0.1/Libraries/STM32F4xx_StdPeriph_Driver/src/stm32f4xx_usart.c ****   * @retval None
1085:../STLibs//STM32F4xx_DSP_StdPeriph_Lib_V1.0.1/Libraries/STM32F4xx_StdPeriph_Driver/src/stm32f4xx_usart.c ****   */
1086:../STLibs//STM32F4xx_DSP_StdPeriph_Lib_V1.0.1/Libraries/STM32F4xx_StdPeriph_Driver/src/stm32f4xx_usart.c **** void USART_DMACmd(USART_TypeDef* USARTx, uint16_t USART_DMAReq, FunctionalState NewState)
1087:../STLibs//STM32F4xx_DSP_StdPeriph_Lib_V1.0.1/Libraries/STM32F4xx_StdPeriph_Driver/src/stm32f4xx_usart.c **** {
 1015              		.loc 1 1087 0
 1016              		.cfi_startproc
 1017              		@ args = 0, pretend = 0, frame = 0
 1018              		@ frame_needed = 0, uses_anonymous_args = 0
 1019              		@ link register save eliminated.
 1020              	.LVL77:
1088:../STLibs//STM32F4xx_DSP_StdPeriph_Lib_V1.0.1/Libraries/STM32F4xx_StdPeriph_Driver/src/stm32f4xx_usart.c ****   /* Check the parameters */
1089:../STLibs//STM32F4xx_DSP_StdPeriph_Lib_V1.0.1/Libraries/STM32F4xx_StdPeriph_Driver/src/stm32f4xx_usart.c ****   assert_param(IS_USART_ALL_PERIPH(USARTx));
1090:../STLibs//STM32F4xx_DSP_StdPeriph_Lib_V1.0.1/Libraries/STM32F4xx_StdPeriph_Driver/src/stm32f4xx_usart.c ****   assert_param(IS_USART_DMAREQ(USART_DMAReq));  
1091:../STLibs//STM32F4xx_DSP_StdPeriph_Lib_V1.0.1/Libraries/STM32F4xx_StdPeriph_Driver/src/stm32f4xx_usart.c ****   assert_param(IS_FUNCTIONAL_STATE(NewState)); 
1092:../STLibs//STM32F4xx_DSP_StdPeriph_Lib_V1.0.1/Libraries/STM32F4xx_StdPeriph_Driver/src/stm32f4xx_usart.c **** 
1093:../STLibs//STM32F4xx_DSP_StdPeriph_Lib_V1.0.1/Libraries/STM32F4xx_StdPeriph_Driver/src/stm32f4xx_usart.c ****   if (NewState != DISABLE)
1094:../STLibs//STM32F4xx_DSP_StdPeriph_Lib_V1.0.1/Libraries/STM32F4xx_StdPeriph_Driver/src/stm32f4xx_usart.c ****   {
1095:../STLibs//STM32F4xx_DSP_StdPeriph_Lib_V1.0.1/Libraries/STM32F4xx_StdPeriph_Driver/src/stm32f4xx_usart.c ****     /* Enable the DMA transfer for selected requests by setting the DMAT and/or
1096:../STLibs//STM32F4xx_DSP_StdPeriph_Lib_V1.0.1/Libraries/STM32F4xx_StdPeriph_Driver/src/stm32f4xx_usart.c ****        DMAR bits in the USART CR3 register */
1097:../STLibs//STM32F4xx_DSP_StdPeriph_Lib_V1.0.1/Libraries/STM32F4xx_StdPeriph_Driver/src/stm32f4xx_usart.c ****     USARTx->CR3 |= USART_DMAReq;
 1021              		.loc 1 1097 0
 1022 02ea 838A     		ldrh	r3, [r0, #20]
1093:../STLibs//STM32F4xx_DSP_StdPeriph_Lib_V1.0.1/Libraries/STM32F4xx_StdPeriph_Driver/src/stm32f4xx_usart.c ****   {
 1023              		.loc 1 1093 0
 1024 02ec 12B1     		cbz	r2, .L72
 1025              		.loc 1 1097 0
 1026 02ee 1943     		orrs	r1, r1, r3
 1027              	.LVL78:
 1028              	.L74:
1098:../STLibs//STM32F4xx_DSP_StdPeriph_Lib_V1.0.1/Libraries/STM32F4xx_StdPeriph_Driver/src/stm32f4xx_usart.c ****   }
1099:../STLibs//STM32F4xx_DSP_StdPeriph_Lib_V1.0.1/Libraries/STM32F4xx_StdPeriph_Driver/src/stm32f4xx_usart.c ****   else
1100:../STLibs//STM32F4xx_DSP_StdPeriph_Lib_V1.0.1/Libraries/STM32F4xx_StdPeriph_Driver/src/stm32f4xx_usart.c ****   {
1101:../STLibs//STM32F4xx_DSP_StdPeriph_Lib_V1.0.1/Libraries/STM32F4xx_StdPeriph_Driver/src/stm32f4xx_usart.c ****     /* Disable the DMA transfer for selected requests by clearing the DMAT and/or
1102:../STLibs//STM32F4xx_DSP_StdPeriph_Lib_V1.0.1/Libraries/STM32F4xx_StdPeriph_Driver/src/stm32f4xx_usart.c ****        DMAR bits in the USART CR3 register */
1103:../STLibs//STM32F4xx_DSP_StdPeriph_Lib_V1.0.1/Libraries/STM32F4xx_StdPeriph_Driver/src/stm32f4xx_usart.c ****     USARTx->CR3 &= (uint16_t)~USART_DMAReq;
 1029              		.loc 1 1103 0
 1030 02f0 8182     		strh	r1, [r0, #20]	@ movhi
1104:../STLibs//STM32F4xx_DSP_StdPeriph_Lib_V1.0.1/Libraries/STM32F4xx_StdPeriph_Driver/src/stm32f4xx_usart.c ****   }
1105:../STLibs//STM32F4xx_DSP_StdPeriph_Lib_V1.0.1/Libraries/STM32F4xx_StdPeriph_Driver/src/stm32f4xx_usart.c **** }
 1031              		.loc 1 1105 0
 1032 02f2 7047     		bx	lr
 1033              	.LVL79:
 1034              	.L72:
1103:../STLibs//STM32F4xx_DSP_StdPeriph_Lib_V1.0.1/Libraries/STM32F4xx_StdPeriph_Driver/src/stm32f4xx_usart.c ****   }
 1035              		.loc 1 1103 0
 1036 02f4 23EA0101 		bic	r1, r3, r1
 1037              	.LVL80:
 1038 02f8 FAE7     		b	.L74
 1039              		.cfi_endproc
 1040              	.LFE133:
 1042              		.align	1
 1043              		.global	USART_ITConfig
 1044              		.syntax unified
 1045              		.thumb
 1046              		.thumb_func
 1047              		.fpu fpv4-sp-d16
 1049              	USART_ITConfig:
 1050              	.LFB134:
1106:../STLibs//STM32F4xx_DSP_StdPeriph_Lib_V1.0.1/Libraries/STM32F4xx_StdPeriph_Driver/src/stm32f4xx_usart.c **** 
1107:../STLibs//STM32F4xx_DSP_StdPeriph_Lib_V1.0.1/Libraries/STM32F4xx_StdPeriph_Driver/src/stm32f4xx_usart.c **** /**
1108:../STLibs//STM32F4xx_DSP_StdPeriph_Lib_V1.0.1/Libraries/STM32F4xx_StdPeriph_Driver/src/stm32f4xx_usart.c ****   * @}
1109:../STLibs//STM32F4xx_DSP_StdPeriph_Lib_V1.0.1/Libraries/STM32F4xx_StdPeriph_Driver/src/stm32f4xx_usart.c ****   */
1110:../STLibs//STM32F4xx_DSP_StdPeriph_Lib_V1.0.1/Libraries/STM32F4xx_StdPeriph_Driver/src/stm32f4xx_usart.c ****   
1111:../STLibs//STM32F4xx_DSP_StdPeriph_Lib_V1.0.1/Libraries/STM32F4xx_StdPeriph_Driver/src/stm32f4xx_usart.c **** /** @defgroup USART_Group9 Interrupts and flags management functions
1112:../STLibs//STM32F4xx_DSP_StdPeriph_Lib_V1.0.1/Libraries/STM32F4xx_StdPeriph_Driver/src/stm32f4xx_usart.c ****  *  @brief   Interrupts and flags management functions 
1113:../STLibs//STM32F4xx_DSP_StdPeriph_Lib_V1.0.1/Libraries/STM32F4xx_StdPeriph_Driver/src/stm32f4xx_usart.c ****  *
1114:../STLibs//STM32F4xx_DSP_StdPeriph_Lib_V1.0.1/Libraries/STM32F4xx_StdPeriph_Driver/src/stm32f4xx_usart.c **** @verbatim   
1115:../STLibs//STM32F4xx_DSP_StdPeriph_Lib_V1.0.1/Libraries/STM32F4xx_StdPeriph_Driver/src/stm32f4xx_usart.c ****  ===============================================================================
1116:../STLibs//STM32F4xx_DSP_StdPeriph_Lib_V1.0.1/Libraries/STM32F4xx_StdPeriph_Driver/src/stm32f4xx_usart.c ****                    Interrupts and flags management functions
1117:../STLibs//STM32F4xx_DSP_StdPeriph_Lib_V1.0.1/Libraries/STM32F4xx_StdPeriph_Driver/src/stm32f4xx_usart.c ****  ===============================================================================  
1118:../STLibs//STM32F4xx_DSP_StdPeriph_Lib_V1.0.1/Libraries/STM32F4xx_StdPeriph_Driver/src/stm32f4xx_usart.c **** 
1119:../STLibs//STM32F4xx_DSP_StdPeriph_Lib_V1.0.1/Libraries/STM32F4xx_StdPeriph_Driver/src/stm32f4xx_usart.c ****   This subsection provides a set of functions allowing to configure the USART 
1120:../STLibs//STM32F4xx_DSP_StdPeriph_Lib_V1.0.1/Libraries/STM32F4xx_StdPeriph_Driver/src/stm32f4xx_usart.c ****   Interrupts sources, DMA channels requests and check or clear the flags or 
1121:../STLibs//STM32F4xx_DSP_StdPeriph_Lib_V1.0.1/Libraries/STM32F4xx_StdPeriph_Driver/src/stm32f4xx_usart.c ****   pending bits status.
1122:../STLibs//STM32F4xx_DSP_StdPeriph_Lib_V1.0.1/Libraries/STM32F4xx_StdPeriph_Driver/src/stm32f4xx_usart.c ****   The user should identify which mode will be used in his application to manage 
1123:../STLibs//STM32F4xx_DSP_StdPeriph_Lib_V1.0.1/Libraries/STM32F4xx_StdPeriph_Driver/src/stm32f4xx_usart.c ****   the communication: Polling mode, Interrupt mode or DMA mode. 
1124:../STLibs//STM32F4xx_DSP_StdPeriph_Lib_V1.0.1/Libraries/STM32F4xx_StdPeriph_Driver/src/stm32f4xx_usart.c ****     
1125:../STLibs//STM32F4xx_DSP_StdPeriph_Lib_V1.0.1/Libraries/STM32F4xx_StdPeriph_Driver/src/stm32f4xx_usart.c ****   Polling Mode
1126:../STLibs//STM32F4xx_DSP_StdPeriph_Lib_V1.0.1/Libraries/STM32F4xx_StdPeriph_Driver/src/stm32f4xx_usart.c ****   =============
1127:../STLibs//STM32F4xx_DSP_StdPeriph_Lib_V1.0.1/Libraries/STM32F4xx_StdPeriph_Driver/src/stm32f4xx_usart.c ****   In Polling Mode, the SPI communication can be managed by 10 flags:
1128:../STLibs//STM32F4xx_DSP_StdPeriph_Lib_V1.0.1/Libraries/STM32F4xx_StdPeriph_Driver/src/stm32f4xx_usart.c ****      1. USART_FLAG_TXE : to indicate the status of the transmit buffer register
1129:../STLibs//STM32F4xx_DSP_StdPeriph_Lib_V1.0.1/Libraries/STM32F4xx_StdPeriph_Driver/src/stm32f4xx_usart.c ****      2. USART_FLAG_RXNE : to indicate the status of the receive buffer register
1130:../STLibs//STM32F4xx_DSP_StdPeriph_Lib_V1.0.1/Libraries/STM32F4xx_StdPeriph_Driver/src/stm32f4xx_usart.c ****      3. USART_FLAG_TC : to indicate the status of the transmit operation
1131:../STLibs//STM32F4xx_DSP_StdPeriph_Lib_V1.0.1/Libraries/STM32F4xx_StdPeriph_Driver/src/stm32f4xx_usart.c ****      4. USART_FLAG_IDLE : to indicate the status of the Idle Line             
1132:../STLibs//STM32F4xx_DSP_StdPeriph_Lib_V1.0.1/Libraries/STM32F4xx_StdPeriph_Driver/src/stm32f4xx_usart.c ****      5. USART_FLAG_CTS : to indicate the status of the nCTS input
1133:../STLibs//STM32F4xx_DSP_StdPeriph_Lib_V1.0.1/Libraries/STM32F4xx_StdPeriph_Driver/src/stm32f4xx_usart.c ****      6. USART_FLAG_LBD : to indicate the status of the LIN break detection
1134:../STLibs//STM32F4xx_DSP_StdPeriph_Lib_V1.0.1/Libraries/STM32F4xx_StdPeriph_Driver/src/stm32f4xx_usart.c ****      7. USART_FLAG_NE : to indicate if a noise error occur
1135:../STLibs//STM32F4xx_DSP_StdPeriph_Lib_V1.0.1/Libraries/STM32F4xx_StdPeriph_Driver/src/stm32f4xx_usart.c ****      8. USART_FLAG_FE : to indicate if a frame error occur
1136:../STLibs//STM32F4xx_DSP_StdPeriph_Lib_V1.0.1/Libraries/STM32F4xx_StdPeriph_Driver/src/stm32f4xx_usart.c ****      9. USART_FLAG_PE : to indicate if a parity error occur
1137:../STLibs//STM32F4xx_DSP_StdPeriph_Lib_V1.0.1/Libraries/STM32F4xx_StdPeriph_Driver/src/stm32f4xx_usart.c ****      10. USART_FLAG_ORE : to indicate if an Overrun error occur
1138:../STLibs//STM32F4xx_DSP_StdPeriph_Lib_V1.0.1/Libraries/STM32F4xx_StdPeriph_Driver/src/stm32f4xx_usart.c **** 
1139:../STLibs//STM32F4xx_DSP_StdPeriph_Lib_V1.0.1/Libraries/STM32F4xx_StdPeriph_Driver/src/stm32f4xx_usart.c ****   In this Mode it is advised to use the following functions:
1140:../STLibs//STM32F4xx_DSP_StdPeriph_Lib_V1.0.1/Libraries/STM32F4xx_StdPeriph_Driver/src/stm32f4xx_usart.c ****       - FlagStatus USART_GetFlagStatus(USART_TypeDef* USARTx, uint16_t USART_FLAG);
1141:../STLibs//STM32F4xx_DSP_StdPeriph_Lib_V1.0.1/Libraries/STM32F4xx_StdPeriph_Driver/src/stm32f4xx_usart.c ****       - void USART_ClearFlag(USART_TypeDef* USARTx, uint16_t USART_FLAG);
1142:../STLibs//STM32F4xx_DSP_StdPeriph_Lib_V1.0.1/Libraries/STM32F4xx_StdPeriph_Driver/src/stm32f4xx_usart.c **** 
1143:../STLibs//STM32F4xx_DSP_StdPeriph_Lib_V1.0.1/Libraries/STM32F4xx_StdPeriph_Driver/src/stm32f4xx_usart.c ****   Interrupt Mode
1144:../STLibs//STM32F4xx_DSP_StdPeriph_Lib_V1.0.1/Libraries/STM32F4xx_StdPeriph_Driver/src/stm32f4xx_usart.c ****   ===============
1145:../STLibs//STM32F4xx_DSP_StdPeriph_Lib_V1.0.1/Libraries/STM32F4xx_StdPeriph_Driver/src/stm32f4xx_usart.c ****   In Interrupt Mode, the USART communication can be managed by 8 interrupt sources
1146:../STLibs//STM32F4xx_DSP_StdPeriph_Lib_V1.0.1/Libraries/STM32F4xx_StdPeriph_Driver/src/stm32f4xx_usart.c ****   and 10 pending bits: 
1147:../STLibs//STM32F4xx_DSP_StdPeriph_Lib_V1.0.1/Libraries/STM32F4xx_StdPeriph_Driver/src/stm32f4xx_usart.c **** 
1148:../STLibs//STM32F4xx_DSP_StdPeriph_Lib_V1.0.1/Libraries/STM32F4xx_StdPeriph_Driver/src/stm32f4xx_usart.c ****   Pending Bits:
1149:../STLibs//STM32F4xx_DSP_StdPeriph_Lib_V1.0.1/Libraries/STM32F4xx_StdPeriph_Driver/src/stm32f4xx_usart.c ****   ------------- 
1150:../STLibs//STM32F4xx_DSP_StdPeriph_Lib_V1.0.1/Libraries/STM32F4xx_StdPeriph_Driver/src/stm32f4xx_usart.c ****      1. USART_IT_TXE : to indicate the status of the transmit buffer register
1151:../STLibs//STM32F4xx_DSP_StdPeriph_Lib_V1.0.1/Libraries/STM32F4xx_StdPeriph_Driver/src/stm32f4xx_usart.c ****      2. USART_IT_RXNE : to indicate the status of the receive buffer register
1152:../STLibs//STM32F4xx_DSP_StdPeriph_Lib_V1.0.1/Libraries/STM32F4xx_StdPeriph_Driver/src/stm32f4xx_usart.c ****      3. USART_IT_TC : to indicate the status of the transmit operation
1153:../STLibs//STM32F4xx_DSP_StdPeriph_Lib_V1.0.1/Libraries/STM32F4xx_StdPeriph_Driver/src/stm32f4xx_usart.c ****      4. USART_IT_IDLE : to indicate the status of the Idle Line             
1154:../STLibs//STM32F4xx_DSP_StdPeriph_Lib_V1.0.1/Libraries/STM32F4xx_StdPeriph_Driver/src/stm32f4xx_usart.c ****      5. USART_IT_CTS : to indicate the status of the nCTS input
1155:../STLibs//STM32F4xx_DSP_StdPeriph_Lib_V1.0.1/Libraries/STM32F4xx_StdPeriph_Driver/src/stm32f4xx_usart.c ****      6. USART_IT_LBD : to indicate the status of the LIN break detection
1156:../STLibs//STM32F4xx_DSP_StdPeriph_Lib_V1.0.1/Libraries/STM32F4xx_StdPeriph_Driver/src/stm32f4xx_usart.c ****      7. USART_IT_NE : to indicate if a noise error occur
1157:../STLibs//STM32F4xx_DSP_StdPeriph_Lib_V1.0.1/Libraries/STM32F4xx_StdPeriph_Driver/src/stm32f4xx_usart.c ****      8. USART_IT_FE : to indicate if a frame error occur
1158:../STLibs//STM32F4xx_DSP_StdPeriph_Lib_V1.0.1/Libraries/STM32F4xx_StdPeriph_Driver/src/stm32f4xx_usart.c ****      9. USART_IT_PE : to indicate if a parity error occur
1159:../STLibs//STM32F4xx_DSP_StdPeriph_Lib_V1.0.1/Libraries/STM32F4xx_StdPeriph_Driver/src/stm32f4xx_usart.c ****      10. USART_IT_ORE : to indicate if an Overrun error occur
1160:../STLibs//STM32F4xx_DSP_StdPeriph_Lib_V1.0.1/Libraries/STM32F4xx_StdPeriph_Driver/src/stm32f4xx_usart.c **** 
1161:../STLibs//STM32F4xx_DSP_StdPeriph_Lib_V1.0.1/Libraries/STM32F4xx_StdPeriph_Driver/src/stm32f4xx_usart.c ****   Interrupt Source:
1162:../STLibs//STM32F4xx_DSP_StdPeriph_Lib_V1.0.1/Libraries/STM32F4xx_StdPeriph_Driver/src/stm32f4xx_usart.c ****   -----------------
1163:../STLibs//STM32F4xx_DSP_StdPeriph_Lib_V1.0.1/Libraries/STM32F4xx_StdPeriph_Driver/src/stm32f4xx_usart.c ****      1. USART_IT_TXE : specifies the interrupt source for the Tx buffer empty 
1164:../STLibs//STM32F4xx_DSP_StdPeriph_Lib_V1.0.1/Libraries/STM32F4xx_StdPeriph_Driver/src/stm32f4xx_usart.c ****                        interrupt. 
1165:../STLibs//STM32F4xx_DSP_StdPeriph_Lib_V1.0.1/Libraries/STM32F4xx_StdPeriph_Driver/src/stm32f4xx_usart.c ****      2. USART_IT_RXNE : specifies the interrupt source for the Rx buffer not 
1166:../STLibs//STM32F4xx_DSP_StdPeriph_Lib_V1.0.1/Libraries/STM32F4xx_StdPeriph_Driver/src/stm32f4xx_usart.c ****                         empty interrupt.
1167:../STLibs//STM32F4xx_DSP_StdPeriph_Lib_V1.0.1/Libraries/STM32F4xx_StdPeriph_Driver/src/stm32f4xx_usart.c ****      3. USART_IT_TC : specifies the interrupt source for the Transmit complete 
1168:../STLibs//STM32F4xx_DSP_StdPeriph_Lib_V1.0.1/Libraries/STM32F4xx_StdPeriph_Driver/src/stm32f4xx_usart.c ****                        interrupt. 
1169:../STLibs//STM32F4xx_DSP_StdPeriph_Lib_V1.0.1/Libraries/STM32F4xx_StdPeriph_Driver/src/stm32f4xx_usart.c ****      4. USART_IT_IDLE : specifies the interrupt source for the Idle Line interrupt.             
1170:../STLibs//STM32F4xx_DSP_StdPeriph_Lib_V1.0.1/Libraries/STM32F4xx_StdPeriph_Driver/src/stm32f4xx_usart.c ****      5. USART_IT_CTS : specifies the interrupt source for the CTS interrupt. 
1171:../STLibs//STM32F4xx_DSP_StdPeriph_Lib_V1.0.1/Libraries/STM32F4xx_StdPeriph_Driver/src/stm32f4xx_usart.c ****      6. USART_IT_LBD : specifies the interrupt source for the LIN break detection
1172:../STLibs//STM32F4xx_DSP_StdPeriph_Lib_V1.0.1/Libraries/STM32F4xx_StdPeriph_Driver/src/stm32f4xx_usart.c ****                        interrupt. 
1173:../STLibs//STM32F4xx_DSP_StdPeriph_Lib_V1.0.1/Libraries/STM32F4xx_StdPeriph_Driver/src/stm32f4xx_usart.c ****      7. USART_IT_PE : specifies the interrupt source for the parity error interrupt. 
1174:../STLibs//STM32F4xx_DSP_StdPeriph_Lib_V1.0.1/Libraries/STM32F4xx_StdPeriph_Driver/src/stm32f4xx_usart.c ****      8. USART_IT_ERR :  specifies the interrupt source for the errors interrupt.
1175:../STLibs//STM32F4xx_DSP_StdPeriph_Lib_V1.0.1/Libraries/STM32F4xx_StdPeriph_Driver/src/stm32f4xx_usart.c **** 
1176:../STLibs//STM32F4xx_DSP_StdPeriph_Lib_V1.0.1/Libraries/STM32F4xx_StdPeriph_Driver/src/stm32f4xx_usart.c **** @note Some parameters are coded in order to use them as interrupt source or as pending bits.
1177:../STLibs//STM32F4xx_DSP_StdPeriph_Lib_V1.0.1/Libraries/STM32F4xx_StdPeriph_Driver/src/stm32f4xx_usart.c **** 
1178:../STLibs//STM32F4xx_DSP_StdPeriph_Lib_V1.0.1/Libraries/STM32F4xx_StdPeriph_Driver/src/stm32f4xx_usart.c ****   In this Mode it is advised to use the following functions:
1179:../STLibs//STM32F4xx_DSP_StdPeriph_Lib_V1.0.1/Libraries/STM32F4xx_StdPeriph_Driver/src/stm32f4xx_usart.c ****      - void USART_ITConfig(USART_TypeDef* USARTx, uint16_t USART_IT, FunctionalState NewState);
1180:../STLibs//STM32F4xx_DSP_StdPeriph_Lib_V1.0.1/Libraries/STM32F4xx_StdPeriph_Driver/src/stm32f4xx_usart.c ****      - ITStatus USART_GetITStatus(USART_TypeDef* USARTx, uint16_t USART_IT);
1181:../STLibs//STM32F4xx_DSP_StdPeriph_Lib_V1.0.1/Libraries/STM32F4xx_StdPeriph_Driver/src/stm32f4xx_usart.c ****      - void USART_ClearITPendingBit(USART_TypeDef* USARTx, uint16_t USART_IT);
1182:../STLibs//STM32F4xx_DSP_StdPeriph_Lib_V1.0.1/Libraries/STM32F4xx_StdPeriph_Driver/src/stm32f4xx_usart.c **** 
1183:../STLibs//STM32F4xx_DSP_StdPeriph_Lib_V1.0.1/Libraries/STM32F4xx_StdPeriph_Driver/src/stm32f4xx_usart.c ****   DMA Mode
1184:../STLibs//STM32F4xx_DSP_StdPeriph_Lib_V1.0.1/Libraries/STM32F4xx_StdPeriph_Driver/src/stm32f4xx_usart.c ****   ========
1185:../STLibs//STM32F4xx_DSP_StdPeriph_Lib_V1.0.1/Libraries/STM32F4xx_StdPeriph_Driver/src/stm32f4xx_usart.c ****   In DMA Mode, the USART communication can be managed by 2 DMA Channel requests:
1186:../STLibs//STM32F4xx_DSP_StdPeriph_Lib_V1.0.1/Libraries/STM32F4xx_StdPeriph_Driver/src/stm32f4xx_usart.c ****      1. USART_DMAReq_Tx: specifies the Tx buffer DMA transfer request
1187:../STLibs//STM32F4xx_DSP_StdPeriph_Lib_V1.0.1/Libraries/STM32F4xx_StdPeriph_Driver/src/stm32f4xx_usart.c ****      2. USART_DMAReq_Rx: specifies the Rx buffer DMA transfer request
1188:../STLibs//STM32F4xx_DSP_StdPeriph_Lib_V1.0.1/Libraries/STM32F4xx_StdPeriph_Driver/src/stm32f4xx_usart.c **** 
1189:../STLibs//STM32F4xx_DSP_StdPeriph_Lib_V1.0.1/Libraries/STM32F4xx_StdPeriph_Driver/src/stm32f4xx_usart.c ****   In this Mode it is advised to use the following function:
1190:../STLibs//STM32F4xx_DSP_StdPeriph_Lib_V1.0.1/Libraries/STM32F4xx_StdPeriph_Driver/src/stm32f4xx_usart.c ****      - void USART_DMACmd(USART_TypeDef* USARTx, uint16_t USART_DMAReq, FunctionalState NewState);
1191:../STLibs//STM32F4xx_DSP_StdPeriph_Lib_V1.0.1/Libraries/STM32F4xx_StdPeriph_Driver/src/stm32f4xx_usart.c **** 
1192:../STLibs//STM32F4xx_DSP_StdPeriph_Lib_V1.0.1/Libraries/STM32F4xx_StdPeriph_Driver/src/stm32f4xx_usart.c **** @endverbatim
1193:../STLibs//STM32F4xx_DSP_StdPeriph_Lib_V1.0.1/Libraries/STM32F4xx_StdPeriph_Driver/src/stm32f4xx_usart.c ****   * @{
1194:../STLibs//STM32F4xx_DSP_StdPeriph_Lib_V1.0.1/Libraries/STM32F4xx_StdPeriph_Driver/src/stm32f4xx_usart.c ****   */
1195:../STLibs//STM32F4xx_DSP_StdPeriph_Lib_V1.0.1/Libraries/STM32F4xx_StdPeriph_Driver/src/stm32f4xx_usart.c **** 
1196:../STLibs//STM32F4xx_DSP_StdPeriph_Lib_V1.0.1/Libraries/STM32F4xx_StdPeriph_Driver/src/stm32f4xx_usart.c **** /**
1197:../STLibs//STM32F4xx_DSP_StdPeriph_Lib_V1.0.1/Libraries/STM32F4xx_StdPeriph_Driver/src/stm32f4xx_usart.c ****   * @brief  Enables or disables the specified USART interrupts.
1198:../STLibs//STM32F4xx_DSP_StdPeriph_Lib_V1.0.1/Libraries/STM32F4xx_StdPeriph_Driver/src/stm32f4xx_usart.c ****   * @param  USARTx: where x can be 1, 2, 3, 4, 5 or 6 to select the USART or 
1199:../STLibs//STM32F4xx_DSP_StdPeriph_Lib_V1.0.1/Libraries/STM32F4xx_StdPeriph_Driver/src/stm32f4xx_usart.c ****   *         UART peripheral.
1200:../STLibs//STM32F4xx_DSP_StdPeriph_Lib_V1.0.1/Libraries/STM32F4xx_StdPeriph_Driver/src/stm32f4xx_usart.c ****   * @param  USART_IT: specifies the USART interrupt sources to be enabled or disabled.
1201:../STLibs//STM32F4xx_DSP_StdPeriph_Lib_V1.0.1/Libraries/STM32F4xx_StdPeriph_Driver/src/stm32f4xx_usart.c ****   *          This parameter can be one of the following values:
1202:../STLibs//STM32F4xx_DSP_StdPeriph_Lib_V1.0.1/Libraries/STM32F4xx_StdPeriph_Driver/src/stm32f4xx_usart.c ****   *            @arg USART_IT_CTS:  CTS change interrupt
1203:../STLibs//STM32F4xx_DSP_StdPeriph_Lib_V1.0.1/Libraries/STM32F4xx_StdPeriph_Driver/src/stm32f4xx_usart.c ****   *            @arg USART_IT_LBD:  LIN Break detection interrupt
1204:../STLibs//STM32F4xx_DSP_StdPeriph_Lib_V1.0.1/Libraries/STM32F4xx_StdPeriph_Driver/src/stm32f4xx_usart.c ****   *            @arg USART_IT_TXE:  Transmit Data Register empty interrupt
1205:../STLibs//STM32F4xx_DSP_StdPeriph_Lib_V1.0.1/Libraries/STM32F4xx_StdPeriph_Driver/src/stm32f4xx_usart.c ****   *            @arg USART_IT_TC:   Transmission complete interrupt
1206:../STLibs//STM32F4xx_DSP_StdPeriph_Lib_V1.0.1/Libraries/STM32F4xx_StdPeriph_Driver/src/stm32f4xx_usart.c ****   *            @arg USART_IT_RXNE: Receive Data register not empty interrupt
1207:../STLibs//STM32F4xx_DSP_StdPeriph_Lib_V1.0.1/Libraries/STM32F4xx_StdPeriph_Driver/src/stm32f4xx_usart.c ****   *            @arg USART_IT_IDLE: Idle line detection interrupt
1208:../STLibs//STM32F4xx_DSP_StdPeriph_Lib_V1.0.1/Libraries/STM32F4xx_StdPeriph_Driver/src/stm32f4xx_usart.c ****   *            @arg USART_IT_PE:   Parity Error interrupt
1209:../STLibs//STM32F4xx_DSP_StdPeriph_Lib_V1.0.1/Libraries/STM32F4xx_StdPeriph_Driver/src/stm32f4xx_usart.c ****   *            @arg USART_IT_ERR:  Error interrupt(Frame error, noise error, overrun error)
1210:../STLibs//STM32F4xx_DSP_StdPeriph_Lib_V1.0.1/Libraries/STM32F4xx_StdPeriph_Driver/src/stm32f4xx_usart.c ****   * @param  NewState: new state of the specified USARTx interrupts.
1211:../STLibs//STM32F4xx_DSP_StdPeriph_Lib_V1.0.1/Libraries/STM32F4xx_StdPeriph_Driver/src/stm32f4xx_usart.c ****   *          This parameter can be: ENABLE or DISABLE.
1212:../STLibs//STM32F4xx_DSP_StdPeriph_Lib_V1.0.1/Libraries/STM32F4xx_StdPeriph_Driver/src/stm32f4xx_usart.c ****   * @retval None
1213:../STLibs//STM32F4xx_DSP_StdPeriph_Lib_V1.0.1/Libraries/STM32F4xx_StdPeriph_Driver/src/stm32f4xx_usart.c ****   */
1214:../STLibs//STM32F4xx_DSP_StdPeriph_Lib_V1.0.1/Libraries/STM32F4xx_StdPeriph_Driver/src/stm32f4xx_usart.c **** void USART_ITConfig(USART_TypeDef* USARTx, uint16_t USART_IT, FunctionalState NewState)
1215:../STLibs//STM32F4xx_DSP_StdPeriph_Lib_V1.0.1/Libraries/STM32F4xx_StdPeriph_Driver/src/stm32f4xx_usart.c **** {
 1051              		.loc 1 1215 0
 1052              		.cfi_startproc
 1053              		@ args = 0, pretend = 0, frame = 0
 1054              		@ frame_needed = 0, uses_anonymous_args = 0
 1055              	.LVL81:
 1056 02fa 10B5     		push	{r4, lr}
 1057              	.LCFI10:
 1058              		.cfi_def_cfa_offset 8
 1059              		.cfi_offset 4, -8
 1060              		.cfi_offset 14, -4
1216:../STLibs//STM32F4xx_DSP_StdPeriph_Lib_V1.0.1/Libraries/STM32F4xx_StdPeriph_Driver/src/stm32f4xx_usart.c ****   uint32_t usartreg = 0x00, itpos = 0x00, itmask = 0x00;
1217:../STLibs//STM32F4xx_DSP_StdPeriph_Lib_V1.0.1/Libraries/STM32F4xx_StdPeriph_Driver/src/stm32f4xx_usart.c ****   uint32_t usartxbase = 0x00;
1218:../STLibs//STM32F4xx_DSP_StdPeriph_Lib_V1.0.1/Libraries/STM32F4xx_StdPeriph_Driver/src/stm32f4xx_usart.c ****   /* Check the parameters */
1219:../STLibs//STM32F4xx_DSP_StdPeriph_Lib_V1.0.1/Libraries/STM32F4xx_StdPeriph_Driver/src/stm32f4xx_usart.c ****   assert_param(IS_USART_ALL_PERIPH(USARTx));
1220:../STLibs//STM32F4xx_DSP_StdPeriph_Lib_V1.0.1/Libraries/STM32F4xx_StdPeriph_Driver/src/stm32f4xx_usart.c ****   assert_param(IS_USART_CONFIG_IT(USART_IT));
1221:../STLibs//STM32F4xx_DSP_StdPeriph_Lib_V1.0.1/Libraries/STM32F4xx_StdPeriph_Driver/src/stm32f4xx_usart.c ****   assert_param(IS_FUNCTIONAL_STATE(NewState));
1222:../STLibs//STM32F4xx_DSP_StdPeriph_Lib_V1.0.1/Libraries/STM32F4xx_StdPeriph_Driver/src/stm32f4xx_usart.c **** 
1223:../STLibs//STM32F4xx_DSP_StdPeriph_Lib_V1.0.1/Libraries/STM32F4xx_StdPeriph_Driver/src/stm32f4xx_usart.c ****   /* The CTS interrupt is not available for UART4 and UART5 */
1224:../STLibs//STM32F4xx_DSP_StdPeriph_Lib_V1.0.1/Libraries/STM32F4xx_StdPeriph_Driver/src/stm32f4xx_usart.c ****   if (USART_IT == USART_IT_CTS)
1225:../STLibs//STM32F4xx_DSP_StdPeriph_Lib_V1.0.1/Libraries/STM32F4xx_StdPeriph_Driver/src/stm32f4xx_usart.c ****   {
1226:../STLibs//STM32F4xx_DSP_StdPeriph_Lib_V1.0.1/Libraries/STM32F4xx_StdPeriph_Driver/src/stm32f4xx_usart.c ****     assert_param(IS_USART_1236_PERIPH(USARTx));
1227:../STLibs//STM32F4xx_DSP_StdPeriph_Lib_V1.0.1/Libraries/STM32F4xx_StdPeriph_Driver/src/stm32f4xx_usart.c ****   } 
1228:../STLibs//STM32F4xx_DSP_StdPeriph_Lib_V1.0.1/Libraries/STM32F4xx_StdPeriph_Driver/src/stm32f4xx_usart.c ****     
1229:../STLibs//STM32F4xx_DSP_StdPeriph_Lib_V1.0.1/Libraries/STM32F4xx_StdPeriph_Driver/src/stm32f4xx_usart.c ****   usartxbase = (uint32_t)USARTx;
1230:../STLibs//STM32F4xx_DSP_StdPeriph_Lib_V1.0.1/Libraries/STM32F4xx_StdPeriph_Driver/src/stm32f4xx_usart.c **** 
1231:../STLibs//STM32F4xx_DSP_StdPeriph_Lib_V1.0.1/Libraries/STM32F4xx_StdPeriph_Driver/src/stm32f4xx_usart.c ****   /* Get the USART register index */
1232:../STLibs//STM32F4xx_DSP_StdPeriph_Lib_V1.0.1/Libraries/STM32F4xx_StdPeriph_Driver/src/stm32f4xx_usart.c ****   usartreg = (((uint8_t)USART_IT) >> 0x05);
 1061              		.loc 1 1232 0
 1062 02fc C1F34214 		ubfx	r4, r1, #5, #3
 1063              	.LVL82:
1233:../STLibs//STM32F4xx_DSP_StdPeriph_Lib_V1.0.1/Libraries/STM32F4xx_StdPeriph_Driver/src/stm32f4xx_usart.c **** 
1234:../STLibs//STM32F4xx_DSP_StdPeriph_Lib_V1.0.1/Libraries/STM32F4xx_StdPeriph_Driver/src/stm32f4xx_usart.c ****   /* Get the interrupt position */
1235:../STLibs//STM32F4xx_DSP_StdPeriph_Lib_V1.0.1/Libraries/STM32F4xx_StdPeriph_Driver/src/stm32f4xx_usart.c ****   itpos = USART_IT & IT_MASK;
 1064              		.loc 1 1235 0
 1065 0300 01F01F03 		and	r3, r1, #31
1236:../STLibs//STM32F4xx_DSP_StdPeriph_Lib_V1.0.1/Libraries/STM32F4xx_StdPeriph_Driver/src/stm32f4xx_usart.c ****   itmask = (((uint32_t)0x01) << itpos);
1237:../STLibs//STM32F4xx_DSP_StdPeriph_Lib_V1.0.1/Libraries/STM32F4xx_StdPeriph_Driver/src/stm32f4xx_usart.c ****     
1238:../STLibs//STM32F4xx_DSP_StdPeriph_Lib_V1.0.1/Libraries/STM32F4xx_StdPeriph_Driver/src/stm32f4xx_usart.c ****   if (usartreg == 0x01) /* The IT is in CR1 register */
 1066              		.loc 1 1238 0
 1067 0304 012C     		cmp	r4, #1
1236:../STLibs//STM32F4xx_DSP_StdPeriph_Lib_V1.0.1/Libraries/STM32F4xx_StdPeriph_Driver/src/stm32f4xx_usart.c ****   itmask = (((uint32_t)0x01) << itpos);
 1068              		.loc 1 1236 0
 1069 0306 4FF00101 		mov	r1, #1
 1070              	.LVL83:
 1071 030a 01FA03F1 		lsl	r1, r1, r3
 1072              	.LVL84:
 1073              		.loc 1 1238 0
 1074 030e 05D1     		bne	.L76
1239:../STLibs//STM32F4xx_DSP_StdPeriph_Lib_V1.0.1/Libraries/STM32F4xx_StdPeriph_Driver/src/stm32f4xx_usart.c ****   {
1240:../STLibs//STM32F4xx_DSP_StdPeriph_Lib_V1.0.1/Libraries/STM32F4xx_StdPeriph_Driver/src/stm32f4xx_usart.c ****     usartxbase += 0x0C;
 1075              		.loc 1 1240 0
 1076 0310 0C30     		adds	r0, r0, #12
 1077              	.LVL85:
 1078              	.L77:
1241:../STLibs//STM32F4xx_DSP_StdPeriph_Lib_V1.0.1/Libraries/STM32F4xx_StdPeriph_Driver/src/stm32f4xx_usart.c ****   }
1242:../STLibs//STM32F4xx_DSP_StdPeriph_Lib_V1.0.1/Libraries/STM32F4xx_StdPeriph_Driver/src/stm32f4xx_usart.c ****   else if (usartreg == 0x02) /* The IT is in CR2 register */
1243:../STLibs//STM32F4xx_DSP_StdPeriph_Lib_V1.0.1/Libraries/STM32F4xx_StdPeriph_Driver/src/stm32f4xx_usart.c ****   {
1244:../STLibs//STM32F4xx_DSP_StdPeriph_Lib_V1.0.1/Libraries/STM32F4xx_StdPeriph_Driver/src/stm32f4xx_usart.c ****     usartxbase += 0x10;
1245:../STLibs//STM32F4xx_DSP_StdPeriph_Lib_V1.0.1/Libraries/STM32F4xx_StdPeriph_Driver/src/stm32f4xx_usart.c ****   }
1246:../STLibs//STM32F4xx_DSP_StdPeriph_Lib_V1.0.1/Libraries/STM32F4xx_StdPeriph_Driver/src/stm32f4xx_usart.c ****   else /* The IT is in CR3 register */
1247:../STLibs//STM32F4xx_DSP_StdPeriph_Lib_V1.0.1/Libraries/STM32F4xx_StdPeriph_Driver/src/stm32f4xx_usart.c ****   {
1248:../STLibs//STM32F4xx_DSP_StdPeriph_Lib_V1.0.1/Libraries/STM32F4xx_StdPeriph_Driver/src/stm32f4xx_usart.c ****     usartxbase += 0x14; 
1249:../STLibs//STM32F4xx_DSP_StdPeriph_Lib_V1.0.1/Libraries/STM32F4xx_StdPeriph_Driver/src/stm32f4xx_usart.c ****   }
1250:../STLibs//STM32F4xx_DSP_StdPeriph_Lib_V1.0.1/Libraries/STM32F4xx_StdPeriph_Driver/src/stm32f4xx_usart.c ****   if (NewState != DISABLE)
1251:../STLibs//STM32F4xx_DSP_StdPeriph_Lib_V1.0.1/Libraries/STM32F4xx_StdPeriph_Driver/src/stm32f4xx_usart.c ****   {
1252:../STLibs//STM32F4xx_DSP_StdPeriph_Lib_V1.0.1/Libraries/STM32F4xx_StdPeriph_Driver/src/stm32f4xx_usart.c ****     *(__IO uint32_t*)usartxbase  |= itmask;
 1079              		.loc 1 1252 0
 1080 0312 0368     		ldr	r3, [r0]
1250:../STLibs//STM32F4xx_DSP_StdPeriph_Lib_V1.0.1/Libraries/STM32F4xx_StdPeriph_Driver/src/stm32f4xx_usart.c ****   {
 1081              		.loc 1 1250 0
 1082 0314 3AB1     		cbz	r2, .L79
 1083              		.loc 1 1252 0
 1084 0316 1943     		orrs	r1, r1, r3
 1085              	.LVL86:
 1086              	.L81:
1253:../STLibs//STM32F4xx_DSP_StdPeriph_Lib_V1.0.1/Libraries/STM32F4xx_StdPeriph_Driver/src/stm32f4xx_usart.c ****   }
1254:../STLibs//STM32F4xx_DSP_StdPeriph_Lib_V1.0.1/Libraries/STM32F4xx_StdPeriph_Driver/src/stm32f4xx_usart.c ****   else
1255:../STLibs//STM32F4xx_DSP_StdPeriph_Lib_V1.0.1/Libraries/STM32F4xx_StdPeriph_Driver/src/stm32f4xx_usart.c ****   {
1256:../STLibs//STM32F4xx_DSP_StdPeriph_Lib_V1.0.1/Libraries/STM32F4xx_StdPeriph_Driver/src/stm32f4xx_usart.c ****     *(__IO uint32_t*)usartxbase &= ~itmask;
 1087              		.loc 1 1256 0
 1088 0318 0160     		str	r1, [r0]
1257:../STLibs//STM32F4xx_DSP_StdPeriph_Lib_V1.0.1/Libraries/STM32F4xx_StdPeriph_Driver/src/stm32f4xx_usart.c ****   }
1258:../STLibs//STM32F4xx_DSP_StdPeriph_Lib_V1.0.1/Libraries/STM32F4xx_StdPeriph_Driver/src/stm32f4xx_usart.c **** }
 1089              		.loc 1 1258 0
 1090 031a 10BD     		pop	{r4, pc}
 1091              	.LVL87:
 1092              	.L76:
1242:../STLibs//STM32F4xx_DSP_StdPeriph_Lib_V1.0.1/Libraries/STM32F4xx_StdPeriph_Driver/src/stm32f4xx_usart.c ****   {
 1093              		.loc 1 1242 0
 1094 031c 022C     		cmp	r4, #2
1244:../STLibs//STM32F4xx_DSP_StdPeriph_Lib_V1.0.1/Libraries/STM32F4xx_StdPeriph_Driver/src/stm32f4xx_usart.c ****   }
 1095              		.loc 1 1244 0
 1096 031e 0CBF     		ite	eq
 1097 0320 1030     		addeq	r0, r0, #16
 1098              	.LVL88:
1248:../STLibs//STM32F4xx_DSP_StdPeriph_Lib_V1.0.1/Libraries/STM32F4xx_StdPeriph_Driver/src/stm32f4xx_usart.c ****   }
 1099              		.loc 1 1248 0
 1100 0322 1430     		addne	r0, r0, #20
 1101              	.LVL89:
 1102 0324 F5E7     		b	.L77
 1103              	.L79:
1256:../STLibs//STM32F4xx_DSP_StdPeriph_Lib_V1.0.1/Libraries/STM32F4xx_StdPeriph_Driver/src/stm32f4xx_usart.c ****   }
 1104              		.loc 1 1256 0
 1105 0326 23EA0101 		bic	r1, r3, r1
 1106              	.LVL90:
 1107 032a F5E7     		b	.L81
 1108              		.cfi_endproc
 1109              	.LFE134:
 1111              		.align	1
 1112              		.global	USART_GetFlagStatus
 1113              		.syntax unified
 1114              		.thumb
 1115              		.thumb_func
 1116              		.fpu fpv4-sp-d16
 1118              	USART_GetFlagStatus:
 1119              	.LFB135:
1259:../STLibs//STM32F4xx_DSP_StdPeriph_Lib_V1.0.1/Libraries/STM32F4xx_StdPeriph_Driver/src/stm32f4xx_usart.c **** 
1260:../STLibs//STM32F4xx_DSP_StdPeriph_Lib_V1.0.1/Libraries/STM32F4xx_StdPeriph_Driver/src/stm32f4xx_usart.c **** /**
1261:../STLibs//STM32F4xx_DSP_StdPeriph_Lib_V1.0.1/Libraries/STM32F4xx_StdPeriph_Driver/src/stm32f4xx_usart.c ****   * @brief  Checks whether the specified USART flag is set or not.
1262:../STLibs//STM32F4xx_DSP_StdPeriph_Lib_V1.0.1/Libraries/STM32F4xx_StdPeriph_Driver/src/stm32f4xx_usart.c ****   * @param  USARTx: where x can be 1, 2, 3, 4, 5 or 6 to select the USART or 
1263:../STLibs//STM32F4xx_DSP_StdPeriph_Lib_V1.0.1/Libraries/STM32F4xx_StdPeriph_Driver/src/stm32f4xx_usart.c ****   *         UART peripheral.
1264:../STLibs//STM32F4xx_DSP_StdPeriph_Lib_V1.0.1/Libraries/STM32F4xx_StdPeriph_Driver/src/stm32f4xx_usart.c ****   * @param  USART_FLAG: specifies the flag to check.
1265:../STLibs//STM32F4xx_DSP_StdPeriph_Lib_V1.0.1/Libraries/STM32F4xx_StdPeriph_Driver/src/stm32f4xx_usart.c ****   *          This parameter can be one of the following values:
1266:../STLibs//STM32F4xx_DSP_StdPeriph_Lib_V1.0.1/Libraries/STM32F4xx_StdPeriph_Driver/src/stm32f4xx_usart.c ****   *            @arg USART_FLAG_CTS:  CTS Change flag (not available for UART4 and UART5)
1267:../STLibs//STM32F4xx_DSP_StdPeriph_Lib_V1.0.1/Libraries/STM32F4xx_StdPeriph_Driver/src/stm32f4xx_usart.c ****   *            @arg USART_FLAG_LBD:  LIN Break detection flag
1268:../STLibs//STM32F4xx_DSP_StdPeriph_Lib_V1.0.1/Libraries/STM32F4xx_StdPeriph_Driver/src/stm32f4xx_usart.c ****   *            @arg USART_FLAG_TXE:  Transmit data register empty flag
1269:../STLibs//STM32F4xx_DSP_StdPeriph_Lib_V1.0.1/Libraries/STM32F4xx_StdPeriph_Driver/src/stm32f4xx_usart.c ****   *            @arg USART_FLAG_TC:   Transmission Complete flag
1270:../STLibs//STM32F4xx_DSP_StdPeriph_Lib_V1.0.1/Libraries/STM32F4xx_StdPeriph_Driver/src/stm32f4xx_usart.c ****   *            @arg USART_FLAG_RXNE: Receive data register not empty flag
1271:../STLibs//STM32F4xx_DSP_StdPeriph_Lib_V1.0.1/Libraries/STM32F4xx_StdPeriph_Driver/src/stm32f4xx_usart.c ****   *            @arg USART_FLAG_IDLE: Idle Line detection flag
1272:../STLibs//STM32F4xx_DSP_StdPeriph_Lib_V1.0.1/Libraries/STM32F4xx_StdPeriph_Driver/src/stm32f4xx_usart.c ****   *            @arg USART_FLAG_ORE:  OverRun Error flag
1273:../STLibs//STM32F4xx_DSP_StdPeriph_Lib_V1.0.1/Libraries/STM32F4xx_StdPeriph_Driver/src/stm32f4xx_usart.c ****   *            @arg USART_FLAG_NE:   Noise Error flag
1274:../STLibs//STM32F4xx_DSP_StdPeriph_Lib_V1.0.1/Libraries/STM32F4xx_StdPeriph_Driver/src/stm32f4xx_usart.c ****   *            @arg USART_FLAG_FE:   Framing Error flag
1275:../STLibs//STM32F4xx_DSP_StdPeriph_Lib_V1.0.1/Libraries/STM32F4xx_StdPeriph_Driver/src/stm32f4xx_usart.c ****   *            @arg USART_FLAG_PE:   Parity Error flag
1276:../STLibs//STM32F4xx_DSP_StdPeriph_Lib_V1.0.1/Libraries/STM32F4xx_StdPeriph_Driver/src/stm32f4xx_usart.c ****   * @retval The new state of USART_FLAG (SET or RESET).
1277:../STLibs//STM32F4xx_DSP_StdPeriph_Lib_V1.0.1/Libraries/STM32F4xx_StdPeriph_Driver/src/stm32f4xx_usart.c ****   */
1278:../STLibs//STM32F4xx_DSP_StdPeriph_Lib_V1.0.1/Libraries/STM32F4xx_StdPeriph_Driver/src/stm32f4xx_usart.c **** FlagStatus USART_GetFlagStatus(USART_TypeDef* USARTx, uint16_t USART_FLAG)
1279:../STLibs//STM32F4xx_DSP_StdPeriph_Lib_V1.0.1/Libraries/STM32F4xx_StdPeriph_Driver/src/stm32f4xx_usart.c **** {
 1120              		.loc 1 1279 0
 1121              		.cfi_startproc
 1122              		@ args = 0, pretend = 0, frame = 0
 1123              		@ frame_needed = 0, uses_anonymous_args = 0
 1124              		@ link register save eliminated.
 1125              	.LVL91:
1280:../STLibs//STM32F4xx_DSP_StdPeriph_Lib_V1.0.1/Libraries/STM32F4xx_StdPeriph_Driver/src/stm32f4xx_usart.c ****   FlagStatus bitstatus = RESET;
1281:../STLibs//STM32F4xx_DSP_StdPeriph_Lib_V1.0.1/Libraries/STM32F4xx_StdPeriph_Driver/src/stm32f4xx_usart.c ****   /* Check the parameters */
1282:../STLibs//STM32F4xx_DSP_StdPeriph_Lib_V1.0.1/Libraries/STM32F4xx_StdPeriph_Driver/src/stm32f4xx_usart.c ****   assert_param(IS_USART_ALL_PERIPH(USARTx));
1283:../STLibs//STM32F4xx_DSP_StdPeriph_Lib_V1.0.1/Libraries/STM32F4xx_StdPeriph_Driver/src/stm32f4xx_usart.c ****   assert_param(IS_USART_FLAG(USART_FLAG));
1284:../STLibs//STM32F4xx_DSP_StdPeriph_Lib_V1.0.1/Libraries/STM32F4xx_StdPeriph_Driver/src/stm32f4xx_usart.c **** 
1285:../STLibs//STM32F4xx_DSP_StdPeriph_Lib_V1.0.1/Libraries/STM32F4xx_StdPeriph_Driver/src/stm32f4xx_usart.c ****   /* The CTS flag is not available for UART4 and UART5 */
1286:../STLibs//STM32F4xx_DSP_StdPeriph_Lib_V1.0.1/Libraries/STM32F4xx_StdPeriph_Driver/src/stm32f4xx_usart.c ****   if (USART_FLAG == USART_FLAG_CTS)
1287:../STLibs//STM32F4xx_DSP_StdPeriph_Lib_V1.0.1/Libraries/STM32F4xx_StdPeriph_Driver/src/stm32f4xx_usart.c ****   {
1288:../STLibs//STM32F4xx_DSP_StdPeriph_Lib_V1.0.1/Libraries/STM32F4xx_StdPeriph_Driver/src/stm32f4xx_usart.c ****     assert_param(IS_USART_1236_PERIPH(USARTx));
1289:../STLibs//STM32F4xx_DSP_StdPeriph_Lib_V1.0.1/Libraries/STM32F4xx_StdPeriph_Driver/src/stm32f4xx_usart.c ****   } 
1290:../STLibs//STM32F4xx_DSP_StdPeriph_Lib_V1.0.1/Libraries/STM32F4xx_StdPeriph_Driver/src/stm32f4xx_usart.c ****     
1291:../STLibs//STM32F4xx_DSP_StdPeriph_Lib_V1.0.1/Libraries/STM32F4xx_StdPeriph_Driver/src/stm32f4xx_usart.c ****   if ((USARTx->SR & USART_FLAG) != (uint16_t)RESET)
 1126              		.loc 1 1291 0
 1127 032c 0388     		ldrh	r3, [r0]
 1128              	.LVL92:
 1129 032e 1942     		tst	r1, r3
1292:../STLibs//STM32F4xx_DSP_StdPeriph_Lib_V1.0.1/Libraries/STM32F4xx_StdPeriph_Driver/src/stm32f4xx_usart.c ****   {
1293:../STLibs//STM32F4xx_DSP_StdPeriph_Lib_V1.0.1/Libraries/STM32F4xx_StdPeriph_Driver/src/stm32f4xx_usart.c ****     bitstatus = SET;
1294:../STLibs//STM32F4xx_DSP_StdPeriph_Lib_V1.0.1/Libraries/STM32F4xx_StdPeriph_Driver/src/stm32f4xx_usart.c ****   }
1295:../STLibs//STM32F4xx_DSP_StdPeriph_Lib_V1.0.1/Libraries/STM32F4xx_StdPeriph_Driver/src/stm32f4xx_usart.c ****   else
1296:../STLibs//STM32F4xx_DSP_StdPeriph_Lib_V1.0.1/Libraries/STM32F4xx_StdPeriph_Driver/src/stm32f4xx_usart.c ****   {
1297:../STLibs//STM32F4xx_DSP_StdPeriph_Lib_V1.0.1/Libraries/STM32F4xx_StdPeriph_Driver/src/stm32f4xx_usart.c ****     bitstatus = RESET;
1298:../STLibs//STM32F4xx_DSP_StdPeriph_Lib_V1.0.1/Libraries/STM32F4xx_StdPeriph_Driver/src/stm32f4xx_usart.c ****   }
1299:../STLibs//STM32F4xx_DSP_StdPeriph_Lib_V1.0.1/Libraries/STM32F4xx_StdPeriph_Driver/src/stm32f4xx_usart.c ****   return bitstatus;
1300:../STLibs//STM32F4xx_DSP_StdPeriph_Lib_V1.0.1/Libraries/STM32F4xx_StdPeriph_Driver/src/stm32f4xx_usart.c **** }
 1130              		.loc 1 1300 0
 1131 0330 14BF     		ite	ne
 1132 0332 0120     		movne	r0, #1
 1133              	.LVL93:
 1134 0334 0020     		moveq	r0, #0
 1135 0336 7047     		bx	lr
 1136              		.cfi_endproc
 1137              	.LFE135:
 1139              		.align	1
 1140              		.global	USART_ClearFlag
 1141              		.syntax unified
 1142              		.thumb
 1143              		.thumb_func
 1144              		.fpu fpv4-sp-d16
 1146              	USART_ClearFlag:
 1147              	.LFB136:
1301:../STLibs//STM32F4xx_DSP_StdPeriph_Lib_V1.0.1/Libraries/STM32F4xx_StdPeriph_Driver/src/stm32f4xx_usart.c **** 
1302:../STLibs//STM32F4xx_DSP_StdPeriph_Lib_V1.0.1/Libraries/STM32F4xx_StdPeriph_Driver/src/stm32f4xx_usart.c **** /**
1303:../STLibs//STM32F4xx_DSP_StdPeriph_Lib_V1.0.1/Libraries/STM32F4xx_StdPeriph_Driver/src/stm32f4xx_usart.c ****   * @brief  Clears the USARTx's pending flags.
1304:../STLibs//STM32F4xx_DSP_StdPeriph_Lib_V1.0.1/Libraries/STM32F4xx_StdPeriph_Driver/src/stm32f4xx_usart.c ****   * @param  USARTx: where x can be 1, 2, 3, 4, 5 or 6 to select the USART or 
1305:../STLibs//STM32F4xx_DSP_StdPeriph_Lib_V1.0.1/Libraries/STM32F4xx_StdPeriph_Driver/src/stm32f4xx_usart.c ****   *         UART peripheral.
1306:../STLibs//STM32F4xx_DSP_StdPeriph_Lib_V1.0.1/Libraries/STM32F4xx_StdPeriph_Driver/src/stm32f4xx_usart.c ****   * @param  USART_FLAG: specifies the flag to clear.
1307:../STLibs//STM32F4xx_DSP_StdPeriph_Lib_V1.0.1/Libraries/STM32F4xx_StdPeriph_Driver/src/stm32f4xx_usart.c ****   *          This parameter can be any combination of the following values:
1308:../STLibs//STM32F4xx_DSP_StdPeriph_Lib_V1.0.1/Libraries/STM32F4xx_StdPeriph_Driver/src/stm32f4xx_usart.c ****   *            @arg USART_FLAG_CTS:  CTS Change flag (not available for UART4 and UART5).
1309:../STLibs//STM32F4xx_DSP_StdPeriph_Lib_V1.0.1/Libraries/STM32F4xx_StdPeriph_Driver/src/stm32f4xx_usart.c ****   *            @arg USART_FLAG_LBD:  LIN Break detection flag.
1310:../STLibs//STM32F4xx_DSP_StdPeriph_Lib_V1.0.1/Libraries/STM32F4xx_StdPeriph_Driver/src/stm32f4xx_usart.c ****   *            @arg USART_FLAG_TC:   Transmission Complete flag.
1311:../STLibs//STM32F4xx_DSP_StdPeriph_Lib_V1.0.1/Libraries/STM32F4xx_StdPeriph_Driver/src/stm32f4xx_usart.c ****   *            @arg USART_FLAG_RXNE: Receive data register not empty flag.
1312:../STLibs//STM32F4xx_DSP_StdPeriph_Lib_V1.0.1/Libraries/STM32F4xx_StdPeriph_Driver/src/stm32f4xx_usart.c ****   *   
1313:../STLibs//STM32F4xx_DSP_StdPeriph_Lib_V1.0.1/Libraries/STM32F4xx_StdPeriph_Driver/src/stm32f4xx_usart.c ****   * @note   PE (Parity error), FE (Framing error), NE (Noise error), ORE (OverRun 
1314:../STLibs//STM32F4xx_DSP_StdPeriph_Lib_V1.0.1/Libraries/STM32F4xx_StdPeriph_Driver/src/stm32f4xx_usart.c ****   *          error) and IDLE (Idle line detected) flags are cleared by software 
1315:../STLibs//STM32F4xx_DSP_StdPeriph_Lib_V1.0.1/Libraries/STM32F4xx_StdPeriph_Driver/src/stm32f4xx_usart.c ****   *          sequence: a read operation to USART_SR register (USART_GetFlagStatus()) 
1316:../STLibs//STM32F4xx_DSP_StdPeriph_Lib_V1.0.1/Libraries/STM32F4xx_StdPeriph_Driver/src/stm32f4xx_usart.c ****   *          followed by a read operation to USART_DR register (USART_ReceiveData()).
1317:../STLibs//STM32F4xx_DSP_StdPeriph_Lib_V1.0.1/Libraries/STM32F4xx_StdPeriph_Driver/src/stm32f4xx_usart.c ****   * @note   RXNE flag can be also cleared by a read to the USART_DR register 
1318:../STLibs//STM32F4xx_DSP_StdPeriph_Lib_V1.0.1/Libraries/STM32F4xx_StdPeriph_Driver/src/stm32f4xx_usart.c ****   *          (USART_ReceiveData()).
1319:../STLibs//STM32F4xx_DSP_StdPeriph_Lib_V1.0.1/Libraries/STM32F4xx_StdPeriph_Driver/src/stm32f4xx_usart.c ****   * @note   TC flag can be also cleared by software sequence: a read operation to 
1320:../STLibs//STM32F4xx_DSP_StdPeriph_Lib_V1.0.1/Libraries/STM32F4xx_StdPeriph_Driver/src/stm32f4xx_usart.c ****   *          USART_SR register (USART_GetFlagStatus()) followed by a write operation
1321:../STLibs//STM32F4xx_DSP_StdPeriph_Lib_V1.0.1/Libraries/STM32F4xx_StdPeriph_Driver/src/stm32f4xx_usart.c ****   *          to USART_DR register (USART_SendData()).
1322:../STLibs//STM32F4xx_DSP_StdPeriph_Lib_V1.0.1/Libraries/STM32F4xx_StdPeriph_Driver/src/stm32f4xx_usart.c ****   * @note   TXE flag is cleared only by a write to the USART_DR register 
1323:../STLibs//STM32F4xx_DSP_StdPeriph_Lib_V1.0.1/Libraries/STM32F4xx_StdPeriph_Driver/src/stm32f4xx_usart.c ****   *          (USART_SendData()).
1324:../STLibs//STM32F4xx_DSP_StdPeriph_Lib_V1.0.1/Libraries/STM32F4xx_StdPeriph_Driver/src/stm32f4xx_usart.c ****   *   
1325:../STLibs//STM32F4xx_DSP_StdPeriph_Lib_V1.0.1/Libraries/STM32F4xx_StdPeriph_Driver/src/stm32f4xx_usart.c ****   * @retval None
1326:../STLibs//STM32F4xx_DSP_StdPeriph_Lib_V1.0.1/Libraries/STM32F4xx_StdPeriph_Driver/src/stm32f4xx_usart.c ****   */
1327:../STLibs//STM32F4xx_DSP_StdPeriph_Lib_V1.0.1/Libraries/STM32F4xx_StdPeriph_Driver/src/stm32f4xx_usart.c **** void USART_ClearFlag(USART_TypeDef* USARTx, uint16_t USART_FLAG)
1328:../STLibs//STM32F4xx_DSP_StdPeriph_Lib_V1.0.1/Libraries/STM32F4xx_StdPeriph_Driver/src/stm32f4xx_usart.c **** {
 1148              		.loc 1 1328 0
 1149              		.cfi_startproc
 1150              		@ args = 0, pretend = 0, frame = 0
 1151              		@ frame_needed = 0, uses_anonymous_args = 0
 1152              		@ link register save eliminated.
 1153              	.LVL94:
1329:../STLibs//STM32F4xx_DSP_StdPeriph_Lib_V1.0.1/Libraries/STM32F4xx_StdPeriph_Driver/src/stm32f4xx_usart.c ****   /* Check the parameters */
