   1              		.cpu cortex-m4
   2              		.eabi_attribute 27, 1
   3              		.eabi_attribute 20, 1
   4              		.eabi_attribute 21, 1
   5              		.eabi_attribute 23, 3
   6              		.eabi_attribute 24, 1
   7              		.eabi_attribute 25, 1
   8              		.eabi_attribute 26, 1
   9              		.eabi_attribute 30, 4
  10              		.eabi_attribute 34, 1
  11              		.eabi_attribute 18, 4
  12              		.file	"usbd_ioreq.c"
  13              		.text
  14              	.Ltext0:
  15              		.cfi_sections	.debug_frame
  16              		.align	1
  17              		.global	USBD_CtlSendData
  18              		.syntax unified
  19              		.thumb
  20              		.thumb_func
  21              		.fpu fpv4-sp-d16
  23              	USBD_CtlSendData:
  24              	.LFB110:
  25              		.file 1 "../STLibs//STM32_USB-Host-Device_Lib_V2.1.0/Libraries/STM32_USB_Device_Library/Core/src/u
   1:../STLibs//STM32_USB-Host-Device_Lib_V2.1.0/Libraries/STM32_USB_Device_Library/Core/src/usbd_ioreq.c **** /**
   2:../STLibs//STM32_USB-Host-Device_Lib_V2.1.0/Libraries/STM32_USB_Device_Library/Core/src/usbd_ioreq.c ****   ******************************************************************************
   3:../STLibs//STM32_USB-Host-Device_Lib_V2.1.0/Libraries/STM32_USB_Device_Library/Core/src/usbd_ioreq.c ****   * @file    usbd_ioreq.c
   4:../STLibs//STM32_USB-Host-Device_Lib_V2.1.0/Libraries/STM32_USB_Device_Library/Core/src/usbd_ioreq.c ****   * @author  MCD Application Team
   5:../STLibs//STM32_USB-Host-Device_Lib_V2.1.0/Libraries/STM32_USB_Device_Library/Core/src/usbd_ioreq.c ****   * @version V1.1.0
   6:../STLibs//STM32_USB-Host-Device_Lib_V2.1.0/Libraries/STM32_USB_Device_Library/Core/src/usbd_ioreq.c ****   * @date    19-March-2012
   7:../STLibs//STM32_USB-Host-Device_Lib_V2.1.0/Libraries/STM32_USB_Device_Library/Core/src/usbd_ioreq.c ****   * @brief   This file provides the IO requests APIs for control endpoints.
   8:../STLibs//STM32_USB-Host-Device_Lib_V2.1.0/Libraries/STM32_USB_Device_Library/Core/src/usbd_ioreq.c ****   ******************************************************************************
   9:../STLibs//STM32_USB-Host-Device_Lib_V2.1.0/Libraries/STM32_USB_Device_Library/Core/src/usbd_ioreq.c ****   * @attention
  10:../STLibs//STM32_USB-Host-Device_Lib_V2.1.0/Libraries/STM32_USB_Device_Library/Core/src/usbd_ioreq.c ****   *
  11:../STLibs//STM32_USB-Host-Device_Lib_V2.1.0/Libraries/STM32_USB_Device_Library/Core/src/usbd_ioreq.c ****   * <h2><center>&copy; COPYRIGHT 2012 STMicroelectronics</center></h2>
  12:../STLibs//STM32_USB-Host-Device_Lib_V2.1.0/Libraries/STM32_USB_Device_Library/Core/src/usbd_ioreq.c ****   *
  13:../STLibs//STM32_USB-Host-Device_Lib_V2.1.0/Libraries/STM32_USB_Device_Library/Core/src/usbd_ioreq.c ****   * Licensed under MCD-ST Liberty SW License Agreement V2, (the "License");
  14:../STLibs//STM32_USB-Host-Device_Lib_V2.1.0/Libraries/STM32_USB_Device_Library/Core/src/usbd_ioreq.c ****   * You may not use this file except in compliance with the License.
  15:../STLibs//STM32_USB-Host-Device_Lib_V2.1.0/Libraries/STM32_USB_Device_Library/Core/src/usbd_ioreq.c ****   * You may obtain a copy of the License at:
  16:../STLibs//STM32_USB-Host-Device_Lib_V2.1.0/Libraries/STM32_USB_Device_Library/Core/src/usbd_ioreq.c ****   *
  17:../STLibs//STM32_USB-Host-Device_Lib_V2.1.0/Libraries/STM32_USB_Device_Library/Core/src/usbd_ioreq.c ****   *        http://www.st.com/software_license_agreement_liberty_v2
  18:../STLibs//STM32_USB-Host-Device_Lib_V2.1.0/Libraries/STM32_USB_Device_Library/Core/src/usbd_ioreq.c ****   *
  19:../STLibs//STM32_USB-Host-Device_Lib_V2.1.0/Libraries/STM32_USB_Device_Library/Core/src/usbd_ioreq.c ****   * Unless required by applicable law or agreed to in writing, software 
  20:../STLibs//STM32_USB-Host-Device_Lib_V2.1.0/Libraries/STM32_USB_Device_Library/Core/src/usbd_ioreq.c ****   * distributed under the License is distributed on an "AS IS" BASIS, 
  21:../STLibs//STM32_USB-Host-Device_Lib_V2.1.0/Libraries/STM32_USB_Device_Library/Core/src/usbd_ioreq.c ****   * WITHOUT WARRANTIES OR CONDITIONS OF ANY KIND, either express or implied.
  22:../STLibs//STM32_USB-Host-Device_Lib_V2.1.0/Libraries/STM32_USB_Device_Library/Core/src/usbd_ioreq.c ****   * See the License for the specific language governing permissions and
  23:../STLibs//STM32_USB-Host-Device_Lib_V2.1.0/Libraries/STM32_USB_Device_Library/Core/src/usbd_ioreq.c ****   * limitations under the License.
  24:../STLibs//STM32_USB-Host-Device_Lib_V2.1.0/Libraries/STM32_USB_Device_Library/Core/src/usbd_ioreq.c ****   *
  25:../STLibs//STM32_USB-Host-Device_Lib_V2.1.0/Libraries/STM32_USB_Device_Library/Core/src/usbd_ioreq.c ****   ******************************************************************************
  26:../STLibs//STM32_USB-Host-Device_Lib_V2.1.0/Libraries/STM32_USB_Device_Library/Core/src/usbd_ioreq.c ****   */ 
  27:../STLibs//STM32_USB-Host-Device_Lib_V2.1.0/Libraries/STM32_USB_Device_Library/Core/src/usbd_ioreq.c **** 
  28:../STLibs//STM32_USB-Host-Device_Lib_V2.1.0/Libraries/STM32_USB_Device_Library/Core/src/usbd_ioreq.c **** /* Includes ------------------------------------------------------------------*/
  29:../STLibs//STM32_USB-Host-Device_Lib_V2.1.0/Libraries/STM32_USB_Device_Library/Core/src/usbd_ioreq.c **** #include "usbd_ioreq.h"
  30:../STLibs//STM32_USB-Host-Device_Lib_V2.1.0/Libraries/STM32_USB_Device_Library/Core/src/usbd_ioreq.c **** 
  31:../STLibs//STM32_USB-Host-Device_Lib_V2.1.0/Libraries/STM32_USB_Device_Library/Core/src/usbd_ioreq.c **** /** @addtogroup STM32_USB_OTG_DEVICE_LIBRARY
  32:../STLibs//STM32_USB-Host-Device_Lib_V2.1.0/Libraries/STM32_USB_Device_Library/Core/src/usbd_ioreq.c ****   * @{
  33:../STLibs//STM32_USB-Host-Device_Lib_V2.1.0/Libraries/STM32_USB_Device_Library/Core/src/usbd_ioreq.c ****   */
  34:../STLibs//STM32_USB-Host-Device_Lib_V2.1.0/Libraries/STM32_USB_Device_Library/Core/src/usbd_ioreq.c **** 
  35:../STLibs//STM32_USB-Host-Device_Lib_V2.1.0/Libraries/STM32_USB_Device_Library/Core/src/usbd_ioreq.c **** 
  36:../STLibs//STM32_USB-Host-Device_Lib_V2.1.0/Libraries/STM32_USB_Device_Library/Core/src/usbd_ioreq.c **** /** @defgroup USBD_IOREQ 
  37:../STLibs//STM32_USB-Host-Device_Lib_V2.1.0/Libraries/STM32_USB_Device_Library/Core/src/usbd_ioreq.c ****   * @brief control I/O requests module
  38:../STLibs//STM32_USB-Host-Device_Lib_V2.1.0/Libraries/STM32_USB_Device_Library/Core/src/usbd_ioreq.c ****   * @{
  39:../STLibs//STM32_USB-Host-Device_Lib_V2.1.0/Libraries/STM32_USB_Device_Library/Core/src/usbd_ioreq.c ****   */ 
  40:../STLibs//STM32_USB-Host-Device_Lib_V2.1.0/Libraries/STM32_USB_Device_Library/Core/src/usbd_ioreq.c **** 
  41:../STLibs//STM32_USB-Host-Device_Lib_V2.1.0/Libraries/STM32_USB_Device_Library/Core/src/usbd_ioreq.c **** /** @defgroup USBD_IOREQ_Private_TypesDefinitions
  42:../STLibs//STM32_USB-Host-Device_Lib_V2.1.0/Libraries/STM32_USB_Device_Library/Core/src/usbd_ioreq.c ****   * @{
  43:../STLibs//STM32_USB-Host-Device_Lib_V2.1.0/Libraries/STM32_USB_Device_Library/Core/src/usbd_ioreq.c ****   */ 
  44:../STLibs//STM32_USB-Host-Device_Lib_V2.1.0/Libraries/STM32_USB_Device_Library/Core/src/usbd_ioreq.c **** /**
  45:../STLibs//STM32_USB-Host-Device_Lib_V2.1.0/Libraries/STM32_USB_Device_Library/Core/src/usbd_ioreq.c ****   * @}
  46:../STLibs//STM32_USB-Host-Device_Lib_V2.1.0/Libraries/STM32_USB_Device_Library/Core/src/usbd_ioreq.c ****   */ 
  47:../STLibs//STM32_USB-Host-Device_Lib_V2.1.0/Libraries/STM32_USB_Device_Library/Core/src/usbd_ioreq.c **** 
  48:../STLibs//STM32_USB-Host-Device_Lib_V2.1.0/Libraries/STM32_USB_Device_Library/Core/src/usbd_ioreq.c **** 
  49:../STLibs//STM32_USB-Host-Device_Lib_V2.1.0/Libraries/STM32_USB_Device_Library/Core/src/usbd_ioreq.c **** /** @defgroup USBD_IOREQ_Private_Defines
  50:../STLibs//STM32_USB-Host-Device_Lib_V2.1.0/Libraries/STM32_USB_Device_Library/Core/src/usbd_ioreq.c ****   * @{
  51:../STLibs//STM32_USB-Host-Device_Lib_V2.1.0/Libraries/STM32_USB_Device_Library/Core/src/usbd_ioreq.c ****   */ 
  52:../STLibs//STM32_USB-Host-Device_Lib_V2.1.0/Libraries/STM32_USB_Device_Library/Core/src/usbd_ioreq.c **** 
  53:../STLibs//STM32_USB-Host-Device_Lib_V2.1.0/Libraries/STM32_USB_Device_Library/Core/src/usbd_ioreq.c **** /**
  54:../STLibs//STM32_USB-Host-Device_Lib_V2.1.0/Libraries/STM32_USB_Device_Library/Core/src/usbd_ioreq.c ****   * @}
  55:../STLibs//STM32_USB-Host-Device_Lib_V2.1.0/Libraries/STM32_USB_Device_Library/Core/src/usbd_ioreq.c ****   */ 
  56:../STLibs//STM32_USB-Host-Device_Lib_V2.1.0/Libraries/STM32_USB_Device_Library/Core/src/usbd_ioreq.c **** 
  57:../STLibs//STM32_USB-Host-Device_Lib_V2.1.0/Libraries/STM32_USB_Device_Library/Core/src/usbd_ioreq.c **** 
  58:../STLibs//STM32_USB-Host-Device_Lib_V2.1.0/Libraries/STM32_USB_Device_Library/Core/src/usbd_ioreq.c **** /** @defgroup USBD_IOREQ_Private_Macros
  59:../STLibs//STM32_USB-Host-Device_Lib_V2.1.0/Libraries/STM32_USB_Device_Library/Core/src/usbd_ioreq.c ****   * @{
  60:../STLibs//STM32_USB-Host-Device_Lib_V2.1.0/Libraries/STM32_USB_Device_Library/Core/src/usbd_ioreq.c ****   */ 
  61:../STLibs//STM32_USB-Host-Device_Lib_V2.1.0/Libraries/STM32_USB_Device_Library/Core/src/usbd_ioreq.c **** /**
  62:../STLibs//STM32_USB-Host-Device_Lib_V2.1.0/Libraries/STM32_USB_Device_Library/Core/src/usbd_ioreq.c ****   * @}
  63:../STLibs//STM32_USB-Host-Device_Lib_V2.1.0/Libraries/STM32_USB_Device_Library/Core/src/usbd_ioreq.c ****   */ 
  64:../STLibs//STM32_USB-Host-Device_Lib_V2.1.0/Libraries/STM32_USB_Device_Library/Core/src/usbd_ioreq.c **** 
  65:../STLibs//STM32_USB-Host-Device_Lib_V2.1.0/Libraries/STM32_USB_Device_Library/Core/src/usbd_ioreq.c **** 
  66:../STLibs//STM32_USB-Host-Device_Lib_V2.1.0/Libraries/STM32_USB_Device_Library/Core/src/usbd_ioreq.c **** /** @defgroup USBD_IOREQ_Private_Variables
  67:../STLibs//STM32_USB-Host-Device_Lib_V2.1.0/Libraries/STM32_USB_Device_Library/Core/src/usbd_ioreq.c ****   * @{
  68:../STLibs//STM32_USB-Host-Device_Lib_V2.1.0/Libraries/STM32_USB_Device_Library/Core/src/usbd_ioreq.c ****   */ 
  69:../STLibs//STM32_USB-Host-Device_Lib_V2.1.0/Libraries/STM32_USB_Device_Library/Core/src/usbd_ioreq.c **** 
  70:../STLibs//STM32_USB-Host-Device_Lib_V2.1.0/Libraries/STM32_USB_Device_Library/Core/src/usbd_ioreq.c **** /**
  71:../STLibs//STM32_USB-Host-Device_Lib_V2.1.0/Libraries/STM32_USB_Device_Library/Core/src/usbd_ioreq.c ****   * @}
  72:../STLibs//STM32_USB-Host-Device_Lib_V2.1.0/Libraries/STM32_USB_Device_Library/Core/src/usbd_ioreq.c ****   */ 
  73:../STLibs//STM32_USB-Host-Device_Lib_V2.1.0/Libraries/STM32_USB_Device_Library/Core/src/usbd_ioreq.c **** 
  74:../STLibs//STM32_USB-Host-Device_Lib_V2.1.0/Libraries/STM32_USB_Device_Library/Core/src/usbd_ioreq.c **** 
  75:../STLibs//STM32_USB-Host-Device_Lib_V2.1.0/Libraries/STM32_USB_Device_Library/Core/src/usbd_ioreq.c **** /** @defgroup USBD_IOREQ_Private_FunctionPrototypes
  76:../STLibs//STM32_USB-Host-Device_Lib_V2.1.0/Libraries/STM32_USB_Device_Library/Core/src/usbd_ioreq.c ****   * @{
  77:../STLibs//STM32_USB-Host-Device_Lib_V2.1.0/Libraries/STM32_USB_Device_Library/Core/src/usbd_ioreq.c ****   */ 
  78:../STLibs//STM32_USB-Host-Device_Lib_V2.1.0/Libraries/STM32_USB_Device_Library/Core/src/usbd_ioreq.c **** /**
  79:../STLibs//STM32_USB-Host-Device_Lib_V2.1.0/Libraries/STM32_USB_Device_Library/Core/src/usbd_ioreq.c ****   * @}
  80:../STLibs//STM32_USB-Host-Device_Lib_V2.1.0/Libraries/STM32_USB_Device_Library/Core/src/usbd_ioreq.c ****   */ 
  81:../STLibs//STM32_USB-Host-Device_Lib_V2.1.0/Libraries/STM32_USB_Device_Library/Core/src/usbd_ioreq.c **** 
  82:../STLibs//STM32_USB-Host-Device_Lib_V2.1.0/Libraries/STM32_USB_Device_Library/Core/src/usbd_ioreq.c **** 
  83:../STLibs//STM32_USB-Host-Device_Lib_V2.1.0/Libraries/STM32_USB_Device_Library/Core/src/usbd_ioreq.c **** /** @defgroup USBD_IOREQ_Private_Functions
  84:../STLibs//STM32_USB-Host-Device_Lib_V2.1.0/Libraries/STM32_USB_Device_Library/Core/src/usbd_ioreq.c ****   * @{
  85:../STLibs//STM32_USB-Host-Device_Lib_V2.1.0/Libraries/STM32_USB_Device_Library/Core/src/usbd_ioreq.c ****   */ 
  86:../STLibs//STM32_USB-Host-Device_Lib_V2.1.0/Libraries/STM32_USB_Device_Library/Core/src/usbd_ioreq.c **** 
  87:../STLibs//STM32_USB-Host-Device_Lib_V2.1.0/Libraries/STM32_USB_Device_Library/Core/src/usbd_ioreq.c **** /**
  88:../STLibs//STM32_USB-Host-Device_Lib_V2.1.0/Libraries/STM32_USB_Device_Library/Core/src/usbd_ioreq.c **** * @brief  USBD_CtlSendData
  89:../STLibs//STM32_USB-Host-Device_Lib_V2.1.0/Libraries/STM32_USB_Device_Library/Core/src/usbd_ioreq.c **** *         send data on the ctl pipe
  90:../STLibs//STM32_USB-Host-Device_Lib_V2.1.0/Libraries/STM32_USB_Device_Library/Core/src/usbd_ioreq.c **** * @param  pdev: device instance
  91:../STLibs//STM32_USB-Host-Device_Lib_V2.1.0/Libraries/STM32_USB_Device_Library/Core/src/usbd_ioreq.c **** * @param  buff: pointer to data buffer
  92:../STLibs//STM32_USB-Host-Device_Lib_V2.1.0/Libraries/STM32_USB_Device_Library/Core/src/usbd_ioreq.c **** * @param  len: length of data to be sent
  93:../STLibs//STM32_USB-Host-Device_Lib_V2.1.0/Libraries/STM32_USB_Device_Library/Core/src/usbd_ioreq.c **** * @retval status
  94:../STLibs//STM32_USB-Host-Device_Lib_V2.1.0/Libraries/STM32_USB_Device_Library/Core/src/usbd_ioreq.c **** */
  95:../STLibs//STM32_USB-Host-Device_Lib_V2.1.0/Libraries/STM32_USB_Device_Library/Core/src/usbd_ioreq.c **** USBD_Status  USBD_CtlSendData (USB_OTG_CORE_HANDLE  *pdev, 
  96:../STLibs//STM32_USB-Host-Device_Lib_V2.1.0/Libraries/STM32_USB_Device_Library/Core/src/usbd_ioreq.c ****                                uint8_t *pbuf,
  97:../STLibs//STM32_USB-Host-Device_Lib_V2.1.0/Libraries/STM32_USB_Device_Library/Core/src/usbd_ioreq.c ****                                uint16_t len)
  98:../STLibs//STM32_USB-Host-Device_Lib_V2.1.0/Libraries/STM32_USB_Device_Library/Core/src/usbd_ioreq.c **** {
  26              		.loc 1 98 0
  27              		.cfi_startproc
  28              		@ args = 0, pretend = 0, frame = 0
  29              		@ frame_needed = 0, uses_anonymous_args = 0
  30              	.LVL0:
  31 0000 10B5     		push	{r4, lr}
  32              	.LCFI0:
  33              		.cfi_def_cfa_offset 8
  34              		.cfi_offset 4, -8
  35              		.cfi_offset 14, -4
  36              		.loc 1 98 0
  37 0002 0446     		mov	r4, r0
  38 0004 1346     		mov	r3, r2
  99:../STLibs//STM32_USB-Host-Device_Lib_V2.1.0/Libraries/STM32_USB_Device_Library/Core/src/usbd_ioreq.c ****   USBD_Status ret = USBD_OK;
 100:../STLibs//STM32_USB-Host-Device_Lib_V2.1.0/Libraries/STM32_USB_Device_Library/Core/src/usbd_ioreq.c ****   
 101:../STLibs//STM32_USB-Host-Device_Lib_V2.1.0/Libraries/STM32_USB_Device_Library/Core/src/usbd_ioreq.c ****   pdev->dev.in_ep[0].total_data_len = len;
  39              		.loc 1 101 0
  40 0006 C4F83C21 		str	r2, [r4, #316]
 102:../STLibs//STM32_USB-Host-Device_Lib_V2.1.0/Libraries/STM32_USB_Device_Library/Core/src/usbd_ioreq.c ****   pdev->dev.in_ep[0].rem_data_len   = len;
  41              		.loc 1 102 0
  42 000a C4F83821 		str	r2, [r4, #312]
 103:../STLibs//STM32_USB-Host-Device_Lib_V2.1.0/Libraries/STM32_USB_Device_Library/Core/src/usbd_ioreq.c ****   pdev->dev.device_state = USB_OTG_EP0_DATA_IN;
  43              		.loc 1 103 0
  44 000e 0222     		movs	r2, #2
  45              	.LVL1:
  46 0010 80F81121 		strb	r2, [r0, #273]
 104:../STLibs//STM32_USB-Host-Device_Lib_V2.1.0/Libraries/STM32_USB_Device_Library/Core/src/usbd_ioreq.c **** 
 105:../STLibs//STM32_USB-Host-Device_Lib_V2.1.0/Libraries/STM32_USB_Device_Library/Core/src/usbd_ioreq.c ****   DCD_EP_Tx (pdev, 0, pbuf, len);
  47              		.loc 1 105 0
  48 0014 0A46     		mov	r2, r1
  49 0016 0021     		movs	r1, #0
  50              	.LVL2:
  51 0018 FFF7FEFF 		bl	DCD_EP_Tx
  52              	.LVL3:
 106:../STLibs//STM32_USB-Host-Device_Lib_V2.1.0/Libraries/STM32_USB_Device_Library/Core/src/usbd_ioreq.c ****  
 107:../STLibs//STM32_USB-Host-Device_Lib_V2.1.0/Libraries/STM32_USB_Device_Library/Core/src/usbd_ioreq.c ****   return ret;
 108:../STLibs//STM32_USB-Host-Device_Lib_V2.1.0/Libraries/STM32_USB_Device_Library/Core/src/usbd_ioreq.c **** }
  53              		.loc 1 108 0
  54 001c 0020     		movs	r0, #0
  55 001e 10BD     		pop	{r4, pc}
  56              		.cfi_endproc
  57              	.LFE110:
  59              		.align	1
  60              		.global	USBD_CtlContinueSendData
  61              		.syntax unified
  62              		.thumb
  63              		.thumb_func
  64              		.fpu fpv4-sp-d16
  66              	USBD_CtlContinueSendData:
  67              	.LFB111:
 109:../STLibs//STM32_USB-Host-Device_Lib_V2.1.0/Libraries/STM32_USB_Device_Library/Core/src/usbd_ioreq.c **** 
 110:../STLibs//STM32_USB-Host-Device_Lib_V2.1.0/Libraries/STM32_USB_Device_Library/Core/src/usbd_ioreq.c **** /**
 111:../STLibs//STM32_USB-Host-Device_Lib_V2.1.0/Libraries/STM32_USB_Device_Library/Core/src/usbd_ioreq.c **** * @brief  USBD_CtlContinueSendData
 112:../STLibs//STM32_USB-Host-Device_Lib_V2.1.0/Libraries/STM32_USB_Device_Library/Core/src/usbd_ioreq.c **** *         continue sending data on the ctl pipe
 113:../STLibs//STM32_USB-Host-Device_Lib_V2.1.0/Libraries/STM32_USB_Device_Library/Core/src/usbd_ioreq.c **** * @param  pdev: device instance
 114:../STLibs//STM32_USB-Host-Device_Lib_V2.1.0/Libraries/STM32_USB_Device_Library/Core/src/usbd_ioreq.c **** * @param  buff: pointer to data buffer
 115:../STLibs//STM32_USB-Host-Device_Lib_V2.1.0/Libraries/STM32_USB_Device_Library/Core/src/usbd_ioreq.c **** * @param  len: length of data to be sent
 116:../STLibs//STM32_USB-Host-Device_Lib_V2.1.0/Libraries/STM32_USB_Device_Library/Core/src/usbd_ioreq.c **** * @retval status
 117:../STLibs//STM32_USB-Host-Device_Lib_V2.1.0/Libraries/STM32_USB_Device_Library/Core/src/usbd_ioreq.c **** */
 118:../STLibs//STM32_USB-Host-Device_Lib_V2.1.0/Libraries/STM32_USB_Device_Library/Core/src/usbd_ioreq.c **** USBD_Status  USBD_CtlContinueSendData (USB_OTG_CORE_HANDLE  *pdev, 
 119:../STLibs//STM32_USB-Host-Device_Lib_V2.1.0/Libraries/STM32_USB_Device_Library/Core/src/usbd_ioreq.c ****                                        uint8_t *pbuf,
 120:../STLibs//STM32_USB-Host-Device_Lib_V2.1.0/Libraries/STM32_USB_Device_Library/Core/src/usbd_ioreq.c ****                                        uint16_t len)
 121:../STLibs//STM32_USB-Host-Device_Lib_V2.1.0/Libraries/STM32_USB_Device_Library/Core/src/usbd_ioreq.c **** {
  68              		.loc 1 121 0
  69              		.cfi_startproc
  70              		@ args = 0, pretend = 0, frame = 0
  71              		@ frame_needed = 0, uses_anonymous_args = 0
  72              	.LVL4:
  73 0020 08B5     		push	{r3, lr}
  74              	.LCFI1:
  75              		.cfi_def_cfa_offset 8
  76              		.cfi_offset 3, -8
  77              		.cfi_offset 14, -4
 122:../STLibs//STM32_USB-Host-Device_Lib_V2.1.0/Libraries/STM32_USB_Device_Library/Core/src/usbd_ioreq.c ****   USBD_Status ret = USBD_OK;
 123:../STLibs//STM32_USB-Host-Device_Lib_V2.1.0/Libraries/STM32_USB_Device_Library/Core/src/usbd_ioreq.c ****   
 124:../STLibs//STM32_USB-Host-Device_Lib_V2.1.0/Libraries/STM32_USB_Device_Library/Core/src/usbd_ioreq.c ****   DCD_EP_Tx (pdev, 0, pbuf, len);
  78              		.loc 1 124 0
  79 0022 1346     		mov	r3, r2
  80 0024 0A46     		mov	r2, r1
  81              	.LVL5:
  82 0026 0021     		movs	r1, #0
  83              	.LVL6:
  84 0028 FFF7FEFF 		bl	DCD_EP_Tx
  85              	.LVL7:
 125:../STLibs//STM32_USB-Host-Device_Lib_V2.1.0/Libraries/STM32_USB_Device_Library/Core/src/usbd_ioreq.c ****   
 126:../STLibs//STM32_USB-Host-Device_Lib_V2.1.0/Libraries/STM32_USB_Device_Library/Core/src/usbd_ioreq.c ****   
 127:../STLibs//STM32_USB-Host-Device_Lib_V2.1.0/Libraries/STM32_USB_Device_Library/Core/src/usbd_ioreq.c ****   return ret;
 128:../STLibs//STM32_USB-Host-Device_Lib_V2.1.0/Libraries/STM32_USB_Device_Library/Core/src/usbd_ioreq.c **** }
  86              		.loc 1 128 0
  87 002c 0020     		movs	r0, #0
  88 002e 08BD     		pop	{r3, pc}
  89              		.cfi_endproc
  90              	.LFE111:
  92              		.align	1
  93              		.global	USBD_CtlPrepareRx
  94              		.syntax unified
  95              		.thumb
  96              		.thumb_func
  97              		.fpu fpv4-sp-d16
  99              	USBD_CtlPrepareRx:
 100              	.LFB112:
 129:../STLibs//STM32_USB-Host-Device_Lib_V2.1.0/Libraries/STM32_USB_Device_Library/Core/src/usbd_ioreq.c **** 
 130:../STLibs//STM32_USB-Host-Device_Lib_V2.1.0/Libraries/STM32_USB_Device_Library/Core/src/usbd_ioreq.c **** /**
 131:../STLibs//STM32_USB-Host-Device_Lib_V2.1.0/Libraries/STM32_USB_Device_Library/Core/src/usbd_ioreq.c **** * @brief  USBD_CtlPrepareRx
 132:../STLibs//STM32_USB-Host-Device_Lib_V2.1.0/Libraries/STM32_USB_Device_Library/Core/src/usbd_ioreq.c **** *         receive data on the ctl pipe
 133:../STLibs//STM32_USB-Host-Device_Lib_V2.1.0/Libraries/STM32_USB_Device_Library/Core/src/usbd_ioreq.c **** * @param  pdev: USB OTG device instance
 134:../STLibs//STM32_USB-Host-Device_Lib_V2.1.0/Libraries/STM32_USB_Device_Library/Core/src/usbd_ioreq.c **** * @param  buff: pointer to data buffer
 135:../STLibs//STM32_USB-Host-Device_Lib_V2.1.0/Libraries/STM32_USB_Device_Library/Core/src/usbd_ioreq.c **** * @param  len: length of data to be received
 136:../STLibs//STM32_USB-Host-Device_Lib_V2.1.0/Libraries/STM32_USB_Device_Library/Core/src/usbd_ioreq.c **** * @retval status
 137:../STLibs//STM32_USB-Host-Device_Lib_V2.1.0/Libraries/STM32_USB_Device_Library/Core/src/usbd_ioreq.c **** */
 138:../STLibs//STM32_USB-Host-Device_Lib_V2.1.0/Libraries/STM32_USB_Device_Library/Core/src/usbd_ioreq.c **** USBD_Status  USBD_CtlPrepareRx (USB_OTG_CORE_HANDLE  *pdev,
 139:../STLibs//STM32_USB-Host-Device_Lib_V2.1.0/Libraries/STM32_USB_Device_Library/Core/src/usbd_ioreq.c ****                                   uint8_t *pbuf,                                  
 140:../STLibs//STM32_USB-Host-Device_Lib_V2.1.0/Libraries/STM32_USB_Device_Library/Core/src/usbd_ioreq.c ****                                   uint16_t len)
 141:../STLibs//STM32_USB-Host-Device_Lib_V2.1.0/Libraries/STM32_USB_Device_Library/Core/src/usbd_ioreq.c **** {
 101              		.loc 1 141 0
 102              		.cfi_startproc
 103              		@ args = 0, pretend = 0, frame = 0
 104              		@ frame_needed = 0, uses_anonymous_args = 0
 105              	.LVL8:
 106 0030 10B5     		push	{r4, lr}
 107              	.LCFI2:
 108              		.cfi_def_cfa_offset 8
 109              		.cfi_offset 4, -8
 110              		.cfi_offset 14, -4
 111              		.loc 1 141 0
 112 0032 0446     		mov	r4, r0
 113 0034 1346     		mov	r3, r2
 142:../STLibs//STM32_USB-Host-Device_Lib_V2.1.0/Libraries/STM32_USB_Device_Library/Core/src/usbd_ioreq.c ****   USBD_Status ret = USBD_OK;
 143:../STLibs//STM32_USB-Host-Device_Lib_V2.1.0/Libraries/STM32_USB_Device_Library/Core/src/usbd_ioreq.c ****   
 144:../STLibs//STM32_USB-Host-Device_Lib_V2.1.0/Libraries/STM32_USB_Device_Library/Core/src/usbd_ioreq.c ****   pdev->dev.out_ep[0].total_data_len = len;
 114              		.loc 1 144 0
 115 0036 C4F89423 		str	r2, [r4, #916]
 145:../STLibs//STM32_USB-Host-Device_Lib_V2.1.0/Libraries/STM32_USB_Device_Library/Core/src/usbd_ioreq.c ****   pdev->dev.out_ep[0].rem_data_len   = len;
 116              		.loc 1 145 0
 117 003a C4F89023 		str	r2, [r4, #912]
 146:../STLibs//STM32_USB-Host-Device_Lib_V2.1.0/Libraries/STM32_USB_Device_Library/Core/src/usbd_ioreq.c ****   pdev->dev.device_state = USB_OTG_EP0_DATA_OUT;
 118              		.loc 1 146 0
 119 003e 0322     		movs	r2, #3
 120              	.LVL9:
 121 0040 80F81121 		strb	r2, [r0, #273]
 147:../STLibs//STM32_USB-Host-Device_Lib_V2.1.0/Libraries/STM32_USB_Device_Library/Core/src/usbd_ioreq.c ****   
 148:../STLibs//STM32_USB-Host-Device_Lib_V2.1.0/Libraries/STM32_USB_Device_Library/Core/src/usbd_ioreq.c ****   DCD_EP_PrepareRx (pdev,
 122              		.loc 1 148 0
 123 0044 0A46     		mov	r2, r1
 124 0046 0021     		movs	r1, #0
 125              	.LVL10:
 126 0048 FFF7FEFF 		bl	DCD_EP_PrepareRx
 127              	.LVL11:
 149:../STLibs//STM32_USB-Host-Device_Lib_V2.1.0/Libraries/STM32_USB_Device_Library/Core/src/usbd_ioreq.c ****                     0,
 150:../STLibs//STM32_USB-Host-Device_Lib_V2.1.0/Libraries/STM32_USB_Device_Library/Core/src/usbd_ioreq.c ****                     pbuf,
 151:../STLibs//STM32_USB-Host-Device_Lib_V2.1.0/Libraries/STM32_USB_Device_Library/Core/src/usbd_ioreq.c ****                     len);
 152:../STLibs//STM32_USB-Host-Device_Lib_V2.1.0/Libraries/STM32_USB_Device_Library/Core/src/usbd_ioreq.c ****   
 153:../STLibs//STM32_USB-Host-Device_Lib_V2.1.0/Libraries/STM32_USB_Device_Library/Core/src/usbd_ioreq.c **** 
 154:../STLibs//STM32_USB-Host-Device_Lib_V2.1.0/Libraries/STM32_USB_Device_Library/Core/src/usbd_ioreq.c ****   return ret;
 155:../STLibs//STM32_USB-Host-Device_Lib_V2.1.0/Libraries/STM32_USB_Device_Library/Core/src/usbd_ioreq.c **** }
 128              		.loc 1 155 0
 129 004c 0020     		movs	r0, #0
 130 004e 10BD     		pop	{r4, pc}
 131              		.cfi_endproc
 132              	.LFE112:
 134              		.align	1
 135              		.global	USBD_CtlContinueRx
 136              		.syntax unified
 137              		.thumb
 138              		.thumb_func
 139              		.fpu fpv4-sp-d16
 141              	USBD_CtlContinueRx:
 142              	.LFB113:
 156:../STLibs//STM32_USB-Host-Device_Lib_V2.1.0/Libraries/STM32_USB_Device_Library/Core/src/usbd_ioreq.c **** 
 157:../STLibs//STM32_USB-Host-Device_Lib_V2.1.0/Libraries/STM32_USB_Device_Library/Core/src/usbd_ioreq.c **** /**
 158:../STLibs//STM32_USB-Host-Device_Lib_V2.1.0/Libraries/STM32_USB_Device_Library/Core/src/usbd_ioreq.c **** * @brief  USBD_CtlContinueRx
 159:../STLibs//STM32_USB-Host-Device_Lib_V2.1.0/Libraries/STM32_USB_Device_Library/Core/src/usbd_ioreq.c **** *         continue receive data on the ctl pipe
 160:../STLibs//STM32_USB-Host-Device_Lib_V2.1.0/Libraries/STM32_USB_Device_Library/Core/src/usbd_ioreq.c **** * @param  pdev: USB OTG device instance
 161:../STLibs//STM32_USB-Host-Device_Lib_V2.1.0/Libraries/STM32_USB_Device_Library/Core/src/usbd_ioreq.c **** * @param  buff: pointer to data buffer
 162:../STLibs//STM32_USB-Host-Device_Lib_V2.1.0/Libraries/STM32_USB_Device_Library/Core/src/usbd_ioreq.c **** * @param  len: length of data to be received
 163:../STLibs//STM32_USB-Host-Device_Lib_V2.1.0/Libraries/STM32_USB_Device_Library/Core/src/usbd_ioreq.c **** * @retval status
 164:../STLibs//STM32_USB-Host-Device_Lib_V2.1.0/Libraries/STM32_USB_Device_Library/Core/src/usbd_ioreq.c **** */
 165:../STLibs//STM32_USB-Host-Device_Lib_V2.1.0/Libraries/STM32_USB_Device_Library/Core/src/usbd_ioreq.c **** USBD_Status  USBD_CtlContinueRx (USB_OTG_CORE_HANDLE  *pdev, 
 166:../STLibs//STM32_USB-Host-Device_Lib_V2.1.0/Libraries/STM32_USB_Device_Library/Core/src/usbd_ioreq.c ****                                           uint8_t *pbuf,                                          
 167:../STLibs//STM32_USB-Host-Device_Lib_V2.1.0/Libraries/STM32_USB_Device_Library/Core/src/usbd_ioreq.c ****                                           uint16_t len)
 168:../STLibs//STM32_USB-Host-Device_Lib_V2.1.0/Libraries/STM32_USB_Device_Library/Core/src/usbd_ioreq.c **** {
 143              		.loc 1 168 0
 144              		.cfi_startproc
 145              		@ args = 0, pretend = 0, frame = 0
 146              		@ frame_needed = 0, uses_anonymous_args = 0
 147              	.LVL12:
 148 0050 08B5     		push	{r3, lr}
 149              	.LCFI3:
 150              		.cfi_def_cfa_offset 8
 151              		.cfi_offset 3, -8
 152              		.cfi_offset 14, -4
 169:../STLibs//STM32_USB-Host-Device_Lib_V2.1.0/Libraries/STM32_USB_Device_Library/Core/src/usbd_ioreq.c ****   USBD_Status ret = USBD_OK;
 170:../STLibs//STM32_USB-Host-Device_Lib_V2.1.0/Libraries/STM32_USB_Device_Library/Core/src/usbd_ioreq.c ****   
 171:../STLibs//STM32_USB-Host-Device_Lib_V2.1.0/Libraries/STM32_USB_Device_Library/Core/src/usbd_ioreq.c ****   DCD_EP_PrepareRx (pdev,
 153              		.loc 1 171 0
 154 0052 1346     		mov	r3, r2
 155 0054 0A46     		mov	r2, r1
 156              	.LVL13:
 157 0056 0021     		movs	r1, #0
 158              	.LVL14:
 159 0058 FFF7FEFF 		bl	DCD_EP_PrepareRx
 160              	.LVL15:
 172:../STLibs//STM32_USB-Host-Device_Lib_V2.1.0/Libraries/STM32_USB_Device_Library/Core/src/usbd_ioreq.c ****                     0,                     
 173:../STLibs//STM32_USB-Host-Device_Lib_V2.1.0/Libraries/STM32_USB_Device_Library/Core/src/usbd_ioreq.c ****                     pbuf,                         
 174:../STLibs//STM32_USB-Host-Device_Lib_V2.1.0/Libraries/STM32_USB_Device_Library/Core/src/usbd_ioreq.c ****                     len);
 175:../STLibs//STM32_USB-Host-Device_Lib_V2.1.0/Libraries/STM32_USB_Device_Library/Core/src/usbd_ioreq.c ****   return ret;
 176:../STLibs//STM32_USB-Host-Device_Lib_V2.1.0/Libraries/STM32_USB_Device_Library/Core/src/usbd_ioreq.c **** }
 161              		.loc 1 176 0
 162 005c 0020     		movs	r0, #0
 163 005e 08BD     		pop	{r3, pc}
 164              		.cfi_endproc
 165              	.LFE113:
 167              		.align	1
 168              		.global	USBD_CtlSendStatus
 169              		.syntax unified
 170              		.thumb
 171              		.thumb_func
 172              		.fpu fpv4-sp-d16
 174              	USBD_CtlSendStatus:
 175              	.LFB114:
 177:../STLibs//STM32_USB-Host-Device_Lib_V2.1.0/Libraries/STM32_USB_Device_Library/Core/src/usbd_ioreq.c **** /**
 178:../STLibs//STM32_USB-Host-Device_Lib_V2.1.0/Libraries/STM32_USB_Device_Library/Core/src/usbd_ioreq.c **** * @brief  USBD_CtlSendStatus
 179:../STLibs//STM32_USB-Host-Device_Lib_V2.1.0/Libraries/STM32_USB_Device_Library/Core/src/usbd_ioreq.c **** *         send zero lzngth packet on the ctl pipe
 180:../STLibs//STM32_USB-Host-Device_Lib_V2.1.0/Libraries/STM32_USB_Device_Library/Core/src/usbd_ioreq.c **** * @param  pdev: USB OTG device instance
 181:../STLibs//STM32_USB-Host-Device_Lib_V2.1.0/Libraries/STM32_USB_Device_Library/Core/src/usbd_ioreq.c **** * @retval status
 182:../STLibs//STM32_USB-Host-Device_Lib_V2.1.0/Libraries/STM32_USB_Device_Library/Core/src/usbd_ioreq.c **** */
 183:../STLibs//STM32_USB-Host-Device_Lib_V2.1.0/Libraries/STM32_USB_Device_Library/Core/src/usbd_ioreq.c **** USBD_Status  USBD_CtlSendStatus (USB_OTG_CORE_HANDLE  *pdev)
 184:../STLibs//STM32_USB-Host-Device_Lib_V2.1.0/Libraries/STM32_USB_Device_Library/Core/src/usbd_ioreq.c **** {
 176              		.loc 1 184 0
 177              		.cfi_startproc
 178              		@ args = 0, pretend = 0, frame = 0
 179              		@ frame_needed = 0, uses_anonymous_args = 0
 180              	.LVL16:
 181 0060 10B5     		push	{r4, lr}
 182              	.LCFI4:
 183              		.cfi_def_cfa_offset 8
 184              		.cfi_offset 4, -8
 185              		.cfi_offset 14, -4
 185:../STLibs//STM32_USB-Host-Device_Lib_V2.1.0/Libraries/STM32_USB_Device_Library/Core/src/usbd_ioreq.c ****   USBD_Status ret = USBD_OK;
 186:../STLibs//STM32_USB-Host-Device_Lib_V2.1.0/Libraries/STM32_USB_Device_Library/Core/src/usbd_ioreq.c ****   pdev->dev.device_state = USB_OTG_EP0_STATUS_IN;
 186              		.loc 1 186 0
 187 0062 0423     		movs	r3, #4
 188 0064 80F81131 		strb	r3, [r0, #273]
 187:../STLibs//STM32_USB-Host-Device_Lib_V2.1.0/Libraries/STM32_USB_Device_Library/Core/src/usbd_ioreq.c ****   DCD_EP_Tx (pdev,
 189              		.loc 1 187 0
 190 0068 0023     		movs	r3, #0
 184:../STLibs//STM32_USB-Host-Device_Lib_V2.1.0/Libraries/STM32_USB_Device_Library/Core/src/usbd_ioreq.c ****   USBD_Status ret = USBD_OK;
 191              		.loc 1 184 0
 192 006a 0446     		mov	r4, r0
 193              		.loc 1 187 0
 194 006c 1A46     		mov	r2, r3
 195 006e 1946     		mov	r1, r3
 196 0070 FFF7FEFF 		bl	DCD_EP_Tx
 197              	.LVL17:
 188:../STLibs//STM32_USB-Host-Device_Lib_V2.1.0/Libraries/STM32_USB_Device_Library/Core/src/usbd_ioreq.c ****              0,
 189:../STLibs//STM32_USB-Host-Device_Lib_V2.1.0/Libraries/STM32_USB_Device_Library/Core/src/usbd_ioreq.c ****              NULL, 
 190:../STLibs//STM32_USB-Host-Device_Lib_V2.1.0/Libraries/STM32_USB_Device_Library/Core/src/usbd_ioreq.c ****              0); 
 191:../STLibs//STM32_USB-Host-Device_Lib_V2.1.0/Libraries/STM32_USB_Device_Library/Core/src/usbd_ioreq.c ****   
 192:../STLibs//STM32_USB-Host-Device_Lib_V2.1.0/Libraries/STM32_USB_Device_Library/Core/src/usbd_ioreq.c ****   USB_OTG_EP0_OutStart(pdev);  
 198              		.loc 1 192 0
 199 0074 2046     		mov	r0, r4
 200 0076 FFF7FEFF 		bl	USB_OTG_EP0_OutStart
 201              	.LVL18:
 193:../STLibs//STM32_USB-Host-Device_Lib_V2.1.0/Libraries/STM32_USB_Device_Library/Core/src/usbd_ioreq.c ****   
 194:../STLibs//STM32_USB-Host-Device_Lib_V2.1.0/Libraries/STM32_USB_Device_Library/Core/src/usbd_ioreq.c ****   return ret;
 195:../STLibs//STM32_USB-Host-Device_Lib_V2.1.0/Libraries/STM32_USB_Device_Library/Core/src/usbd_ioreq.c **** }
 202              		.loc 1 195 0
 203 007a 0020     		movs	r0, #0
 204 007c 10BD     		pop	{r4, pc}
 205              		.cfi_endproc
 206              	.LFE114:
 208              		.align	1
 209              		.global	USBD_CtlReceiveStatus
 210              		.syntax unified
 211              		.thumb
 212              		.thumb_func
 213              		.fpu fpv4-sp-d16
 215              	USBD_CtlReceiveStatus:
 216              	.LFB115:
 196:../STLibs//STM32_USB-Host-Device_Lib_V2.1.0/Libraries/STM32_USB_Device_Library/Core/src/usbd_ioreq.c **** 
 197:../STLibs//STM32_USB-Host-Device_Lib_V2.1.0/Libraries/STM32_USB_Device_Library/Core/src/usbd_ioreq.c **** /**
 198:../STLibs//STM32_USB-Host-Device_Lib_V2.1.0/Libraries/STM32_USB_Device_Library/Core/src/usbd_ioreq.c **** * @brief  USBD_CtlReceiveStatus
 199:../STLibs//STM32_USB-Host-Device_Lib_V2.1.0/Libraries/STM32_USB_Device_Library/Core/src/usbd_ioreq.c **** *         receive zero lzngth packet on the ctl pipe
 200:../STLibs//STM32_USB-Host-Device_Lib_V2.1.0/Libraries/STM32_USB_Device_Library/Core/src/usbd_ioreq.c **** * @param  pdev: USB OTG device instance
 201:../STLibs//STM32_USB-Host-Device_Lib_V2.1.0/Libraries/STM32_USB_Device_Library/Core/src/usbd_ioreq.c **** * @retval status
 202:../STLibs//STM32_USB-Host-Device_Lib_V2.1.0/Libraries/STM32_USB_Device_Library/Core/src/usbd_ioreq.c **** */
 203:../STLibs//STM32_USB-Host-Device_Lib_V2.1.0/Libraries/STM32_USB_Device_Library/Core/src/usbd_ioreq.c **** USBD_Status  USBD_CtlReceiveStatus (USB_OTG_CORE_HANDLE  *pdev)
 204:../STLibs//STM32_USB-Host-Device_Lib_V2.1.0/Libraries/STM32_USB_Device_Library/Core/src/usbd_ioreq.c **** {
 217              		.loc 1 204 0
 218              		.cfi_startproc
 219              		@ args = 0, pretend = 0, frame = 0
 220              		@ frame_needed = 0, uses_anonymous_args = 0
 221              	.LVL19:
 222 007e 10B5     		push	{r4, lr}
 223              	.LCFI5:
 224              		.cfi_def_cfa_offset 8
 225              		.cfi_offset 4, -8
 226              		.cfi_offset 14, -4
 205:../STLibs//STM32_USB-Host-Device_Lib_V2.1.0/Libraries/STM32_USB_Device_Library/Core/src/usbd_ioreq.c ****   USBD_Status ret = USBD_OK;
 206:../STLibs//STM32_USB-Host-Device_Lib_V2.1.0/Libraries/STM32_USB_Device_Library/Core/src/usbd_ioreq.c ****   pdev->dev.device_state = USB_OTG_EP0_STATUS_OUT;  
 227              		.loc 1 206 0
 228 0080 0523     		movs	r3, #5
 229 0082 80F81131 		strb	r3, [r0, #273]
 207:../STLibs//STM32_USB-Host-Device_Lib_V2.1.0/Libraries/STM32_USB_Device_Library/Core/src/usbd_ioreq.c ****   DCD_EP_PrepareRx ( pdev,
 230              		.loc 1 207 0
 231 0086 0023     		movs	r3, #0
 204:../STLibs//STM32_USB-Host-Device_Lib_V2.1.0/Libraries/STM32_USB_Device_Library/Core/src/usbd_ioreq.c ****   USBD_Status ret = USBD_OK;
 232              		.loc 1 204 0
 233 0088 0446     		mov	r4, r0
 234              		.loc 1 207 0
 235 008a 1A46     		mov	r2, r3
 236 008c 1946     		mov	r1, r3
 237 008e FFF7FEFF 		bl	DCD_EP_PrepareRx
 238              	.LVL20:
 208:../STLibs//STM32_USB-Host-Device_Lib_V2.1.0/Libraries/STM32_USB_Device_Library/Core/src/usbd_ioreq.c ****                     0,
 209:../STLibs//STM32_USB-Host-Device_Lib_V2.1.0/Libraries/STM32_USB_Device_Library/Core/src/usbd_ioreq.c ****                     NULL,
 210:../STLibs//STM32_USB-Host-Device_Lib_V2.1.0/Libraries/STM32_USB_Device_Library/Core/src/usbd_ioreq.c ****                     0);  
 211:../STLibs//STM32_USB-Host-Device_Lib_V2.1.0/Libraries/STM32_USB_Device_Library/Core/src/usbd_ioreq.c **** 
 212:../STLibs//STM32_USB-Host-Device_Lib_V2.1.0/Libraries/STM32_USB_Device_Library/Core/src/usbd_ioreq.c ****   USB_OTG_EP0_OutStart(pdev);
 239              		.loc 1 212 0
 240 0092 2046     		mov	r0, r4
 241 0094 FFF7FEFF 		bl	USB_OTG_EP0_OutStart
 242              	.LVL21:
 213:../STLibs//STM32_USB-Host-Device_Lib_V2.1.0/Libraries/STM32_USB_Device_Library/Core/src/usbd_ioreq.c ****   
 214:../STLibs//STM32_USB-Host-Device_Lib_V2.1.0/Libraries/STM32_USB_Device_Library/Core/src/usbd_ioreq.c ****   return ret;
 215:../STLibs//STM32_USB-Host-Device_Lib_V2.1.0/Libraries/STM32_USB_Device_Library/Core/src/usbd_ioreq.c **** }
 243              		.loc 1 215 0
 244 0098 0020     		movs	r0, #0
 245 009a 10BD     		pop	{r4, pc}
 246              		.cfi_endproc
 247              	.LFE115:
 249              		.align	1
 250              		.global	USBD_GetRxCount
 251              		.syntax unified
 252              		.thumb
 253              		.thumb_func
 254              		.fpu fpv4-sp-d16
 256              	USBD_GetRxCount:
 257              	.LFB116:
 216:../STLibs//STM32_USB-Host-Device_Lib_V2.1.0/Libraries/STM32_USB_Device_Library/Core/src/usbd_ioreq.c **** 
 217:../STLibs//STM32_USB-Host-Device_Lib_V2.1.0/Libraries/STM32_USB_Device_Library/Core/src/usbd_ioreq.c **** 
 218:../STLibs//STM32_USB-Host-Device_Lib_V2.1.0/Libraries/STM32_USB_Device_Library/Core/src/usbd_ioreq.c **** /**
 219:../STLibs//STM32_USB-Host-Device_Lib_V2.1.0/Libraries/STM32_USB_Device_Library/Core/src/usbd_ioreq.c **** * @brief  USBD_GetRxCount
 220:../STLibs//STM32_USB-Host-Device_Lib_V2.1.0/Libraries/STM32_USB_Device_Library/Core/src/usbd_ioreq.c **** *         returns the received data length
 221:../STLibs//STM32_USB-Host-Device_Lib_V2.1.0/Libraries/STM32_USB_Device_Library/Core/src/usbd_ioreq.c **** * @param  pdev: USB OTG device instance
 222:../STLibs//STM32_USB-Host-Device_Lib_V2.1.0/Libraries/STM32_USB_Device_Library/Core/src/usbd_ioreq.c **** *         epnum: endpoint index
 223:../STLibs//STM32_USB-Host-Device_Lib_V2.1.0/Libraries/STM32_USB_Device_Library/Core/src/usbd_ioreq.c **** * @retval Rx Data blength
 224:../STLibs//STM32_USB-Host-Device_Lib_V2.1.0/Libraries/STM32_USB_Device_Library/Core/src/usbd_ioreq.c **** */
 225:../STLibs//STM32_USB-Host-Device_Lib_V2.1.0/Libraries/STM32_USB_Device_Library/Core/src/usbd_ioreq.c **** uint16_t  USBD_GetRxCount (USB_OTG_CORE_HANDLE  *pdev , uint8_t epnum)
 226:../STLibs//STM32_USB-Host-Device_Lib_V2.1.0/Libraries/STM32_USB_Device_Library/Core/src/usbd_ioreq.c **** {
 258              		.loc 1 226 0
 259              		.cfi_startproc
 260              		@ args = 0, pretend = 0, frame = 0
 261              		@ frame_needed = 0, uses_anonymous_args = 0
 262              		@ link register save eliminated.
 263              	.LVL22:
 227:../STLibs//STM32_USB-Host-Device_Lib_V2.1.0/Libraries/STM32_USB_Device_Library/Core/src/usbd_ioreq.c ****   return pdev->dev.out_ep[epnum].xfer_count;
 264              		.loc 1 227 0
 265 009c 2823     		movs	r3, #40
 266 009e 03FB0101 		mla	r1, r3, r1, r0
 267              	.LVL23:
 228:../STLibs//STM32_USB-Host-Device_Lib_V2.1.0/Libraries/STM32_USB_Device_Library/Core/src/usbd_ioreq.c **** }
 268              		.loc 1 228 0
 269 00a2 B1F88C03 		ldrh	r0, [r1, #908]
 270              	.LVL24:
 271 00a6 7047     		bx	lr
 272              		.cfi_endproc
 273              	.LFE116:
 275              	.Letext0:
 276              		.file 2 "/opt/gcc-arm-none-eabi-7-2017-q4-major/arm-none-eabi/include/machine/_default_types.h"
 277              		.file 3 "/opt/gcc-arm-none-eabi-7-2017-q4-major/arm-none-eabi/include/sys/_stdint.h"
 278              		.file 4 "../STLibs//STM32F4xx_DSP_StdPeriph_Lib_V1.0.1/Libraries/CMSIS/Include/core_cm4.h"
 279              		.file 5 "../STLibs//STM32F4xx_DSP_StdPeriph_Lib_V1.0.1/Libraries/CMSIS/Device/ST/STM32F4xx/Include
 280              		.file 6 "../STLibs//STM32_USB-Host-Device_Lib_V2.1.0/Libraries/STM32_USB_OTG_Driver/inc/usb_regs.h
 281              		.file 7 "../STLibs//STM32_USB-Host-Device_Lib_V2.1.0/Libraries/STM32_USB_OTG_Driver/inc/usb_core.h
 282              		.file 8 "../STLibs//STM32_USB-Host-Device_Lib_V2.1.0/Libraries/STM32_USB_Device_Library/Core/inc/u
 283              		.file 9 "../STLibs//STM32_USB-Host-Device_Lib_V2.1.0/Libraries/STM32_USB_OTG_Driver/inc/usb_dcd.h"