   1              		.cpu cortex-m4
   2              		.eabi_attribute 27, 1
   3              		.eabi_attribute 20, 1
   4              		.eabi_attribute 21, 1
   5              		.eabi_attribute 23, 3
   6              		.eabi_attribute 24, 1
   7              		.eabi_attribute 25, 1
   8              		.eabi_attribute 26, 1
   9              		.eabi_attribute 30, 4
  10              		.eabi_attribute 34, 1
  11              		.eabi_attribute 18, 4
  12              		.file	"usb_dcd_int.c"
  13              		.text
  14              	.Ltext0:
  15              		.cfi_sections	.debug_frame
  16              		.align	1
  17              		.global	USBD_OTG_ISR_Handler
  18              		.syntax unified
  19              		.thumb
  20              		.thumb_func
  21              		.fpu fpv4-sp-d16
  23              	USBD_OTG_ISR_Handler:
  24              	.LFB110:
  25              		.file 1 "../STLibs//STM32_USB-Host-Device_Lib_V2.1.0/Libraries/STM32_USB_OTG_Driver/src/usb_dcd_in
   1:../STLibs//STM32_USB-Host-Device_Lib_V2.1.0/Libraries/STM32_USB_OTG_Driver/src/usb_dcd_int.c **** /**
   2:../STLibs//STM32_USB-Host-Device_Lib_V2.1.0/Libraries/STM32_USB_OTG_Driver/src/usb_dcd_int.c ****   ******************************************************************************
   3:../STLibs//STM32_USB-Host-Device_Lib_V2.1.0/Libraries/STM32_USB_OTG_Driver/src/usb_dcd_int.c ****   * @file    usb_dcd_int.c
   4:../STLibs//STM32_USB-Host-Device_Lib_V2.1.0/Libraries/STM32_USB_OTG_Driver/src/usb_dcd_int.c ****   * @author  MCD Application Team
   5:../STLibs//STM32_USB-Host-Device_Lib_V2.1.0/Libraries/STM32_USB_OTG_Driver/src/usb_dcd_int.c ****   * @version V2.1.0
   6:../STLibs//STM32_USB-Host-Device_Lib_V2.1.0/Libraries/STM32_USB_OTG_Driver/src/usb_dcd_int.c ****   * @date    19-March-2012
   7:../STLibs//STM32_USB-Host-Device_Lib_V2.1.0/Libraries/STM32_USB_OTG_Driver/src/usb_dcd_int.c ****   * @brief   Peripheral Device interrupt subroutines
   8:../STLibs//STM32_USB-Host-Device_Lib_V2.1.0/Libraries/STM32_USB_OTG_Driver/src/usb_dcd_int.c ****   ******************************************************************************
   9:../STLibs//STM32_USB-Host-Device_Lib_V2.1.0/Libraries/STM32_USB_OTG_Driver/src/usb_dcd_int.c ****   * @attention
  10:../STLibs//STM32_USB-Host-Device_Lib_V2.1.0/Libraries/STM32_USB_OTG_Driver/src/usb_dcd_int.c ****   *
  11:../STLibs//STM32_USB-Host-Device_Lib_V2.1.0/Libraries/STM32_USB_OTG_Driver/src/usb_dcd_int.c ****   * <h2><center>&copy; COPYRIGHT 2012 STMicroelectronics</center></h2>
  12:../STLibs//STM32_USB-Host-Device_Lib_V2.1.0/Libraries/STM32_USB_OTG_Driver/src/usb_dcd_int.c ****   *
  13:../STLibs//STM32_USB-Host-Device_Lib_V2.1.0/Libraries/STM32_USB_OTG_Driver/src/usb_dcd_int.c ****   * Licensed under MCD-ST Liberty SW License Agreement V2, (the "License");
  14:../STLibs//STM32_USB-Host-Device_Lib_V2.1.0/Libraries/STM32_USB_OTG_Driver/src/usb_dcd_int.c ****   * You may not use this file except in compliance with the License.
  15:../STLibs//STM32_USB-Host-Device_Lib_V2.1.0/Libraries/STM32_USB_OTG_Driver/src/usb_dcd_int.c ****   * You may obtain a copy of the License at:
  16:../STLibs//STM32_USB-Host-Device_Lib_V2.1.0/Libraries/STM32_USB_OTG_Driver/src/usb_dcd_int.c ****   *
  17:../STLibs//STM32_USB-Host-Device_Lib_V2.1.0/Libraries/STM32_USB_OTG_Driver/src/usb_dcd_int.c ****   *        http://www.st.com/software_license_agreement_liberty_v2
  18:../STLibs//STM32_USB-Host-Device_Lib_V2.1.0/Libraries/STM32_USB_OTG_Driver/src/usb_dcd_int.c ****   *
  19:../STLibs//STM32_USB-Host-Device_Lib_V2.1.0/Libraries/STM32_USB_OTG_Driver/src/usb_dcd_int.c ****   * Unless required by applicable law or agreed to in writing, software 
  20:../STLibs//STM32_USB-Host-Device_Lib_V2.1.0/Libraries/STM32_USB_OTG_Driver/src/usb_dcd_int.c ****   * distributed under the License is distributed on an "AS IS" BASIS, 
  21:../STLibs//STM32_USB-Host-Device_Lib_V2.1.0/Libraries/STM32_USB_OTG_Driver/src/usb_dcd_int.c ****   * WITHOUT WARRANTIES OR CONDITIONS OF ANY KIND, either express or implied.
  22:../STLibs//STM32_USB-Host-Device_Lib_V2.1.0/Libraries/STM32_USB_OTG_Driver/src/usb_dcd_int.c ****   * See the License for the specific language governing permissions and
  23:../STLibs//STM32_USB-Host-Device_Lib_V2.1.0/Libraries/STM32_USB_OTG_Driver/src/usb_dcd_int.c ****   * limitations under the License.
  24:../STLibs//STM32_USB-Host-Device_Lib_V2.1.0/Libraries/STM32_USB_OTG_Driver/src/usb_dcd_int.c ****   *
  25:../STLibs//STM32_USB-Host-Device_Lib_V2.1.0/Libraries/STM32_USB_OTG_Driver/src/usb_dcd_int.c ****   ******************************************************************************
  26:../STLibs//STM32_USB-Host-Device_Lib_V2.1.0/Libraries/STM32_USB_OTG_Driver/src/usb_dcd_int.c ****   */
  27:../STLibs//STM32_USB-Host-Device_Lib_V2.1.0/Libraries/STM32_USB_OTG_Driver/src/usb_dcd_int.c **** 
  28:../STLibs//STM32_USB-Host-Device_Lib_V2.1.0/Libraries/STM32_USB_OTG_Driver/src/usb_dcd_int.c **** /* Includes ------------------------------------------------------------------*/
  29:../STLibs//STM32_USB-Host-Device_Lib_V2.1.0/Libraries/STM32_USB_OTG_Driver/src/usb_dcd_int.c **** #include "usb_dcd_int.h"
  30:../STLibs//STM32_USB-Host-Device_Lib_V2.1.0/Libraries/STM32_USB_OTG_Driver/src/usb_dcd_int.c **** /** @addtogroup USB_OTG_DRIVER
  31:../STLibs//STM32_USB-Host-Device_Lib_V2.1.0/Libraries/STM32_USB_OTG_Driver/src/usb_dcd_int.c **** * @{
  32:../STLibs//STM32_USB-Host-Device_Lib_V2.1.0/Libraries/STM32_USB_OTG_Driver/src/usb_dcd_int.c **** */
  33:../STLibs//STM32_USB-Host-Device_Lib_V2.1.0/Libraries/STM32_USB_OTG_Driver/src/usb_dcd_int.c **** 
  34:../STLibs//STM32_USB-Host-Device_Lib_V2.1.0/Libraries/STM32_USB_OTG_Driver/src/usb_dcd_int.c **** /** @defgroup USB_DCD_INT 
  35:../STLibs//STM32_USB-Host-Device_Lib_V2.1.0/Libraries/STM32_USB_OTG_Driver/src/usb_dcd_int.c **** * @brief This file contains the interrupt subroutines for the Device mode.
  36:../STLibs//STM32_USB-Host-Device_Lib_V2.1.0/Libraries/STM32_USB_OTG_Driver/src/usb_dcd_int.c **** * @{
  37:../STLibs//STM32_USB-Host-Device_Lib_V2.1.0/Libraries/STM32_USB_OTG_Driver/src/usb_dcd_int.c **** */
  38:../STLibs//STM32_USB-Host-Device_Lib_V2.1.0/Libraries/STM32_USB_OTG_Driver/src/usb_dcd_int.c **** 
  39:../STLibs//STM32_USB-Host-Device_Lib_V2.1.0/Libraries/STM32_USB_OTG_Driver/src/usb_dcd_int.c **** 
  40:../STLibs//STM32_USB-Host-Device_Lib_V2.1.0/Libraries/STM32_USB_OTG_Driver/src/usb_dcd_int.c **** /** @defgroup USB_DCD_INT_Private_Defines
  41:../STLibs//STM32_USB-Host-Device_Lib_V2.1.0/Libraries/STM32_USB_OTG_Driver/src/usb_dcd_int.c **** * @{
  42:../STLibs//STM32_USB-Host-Device_Lib_V2.1.0/Libraries/STM32_USB_OTG_Driver/src/usb_dcd_int.c **** */ 
  43:../STLibs//STM32_USB-Host-Device_Lib_V2.1.0/Libraries/STM32_USB_OTG_Driver/src/usb_dcd_int.c **** /**
  44:../STLibs//STM32_USB-Host-Device_Lib_V2.1.0/Libraries/STM32_USB_OTG_Driver/src/usb_dcd_int.c **** * @}
  45:../STLibs//STM32_USB-Host-Device_Lib_V2.1.0/Libraries/STM32_USB_OTG_Driver/src/usb_dcd_int.c **** */ 
  46:../STLibs//STM32_USB-Host-Device_Lib_V2.1.0/Libraries/STM32_USB_OTG_Driver/src/usb_dcd_int.c **** 
  47:../STLibs//STM32_USB-Host-Device_Lib_V2.1.0/Libraries/STM32_USB_OTG_Driver/src/usb_dcd_int.c **** 
  48:../STLibs//STM32_USB-Host-Device_Lib_V2.1.0/Libraries/STM32_USB_OTG_Driver/src/usb_dcd_int.c **** /** @defgroup USB_DCD_INT_Private_TypesDefinitions
  49:../STLibs//STM32_USB-Host-Device_Lib_V2.1.0/Libraries/STM32_USB_OTG_Driver/src/usb_dcd_int.c **** * @{
  50:../STLibs//STM32_USB-Host-Device_Lib_V2.1.0/Libraries/STM32_USB_OTG_Driver/src/usb_dcd_int.c **** */ 
  51:../STLibs//STM32_USB-Host-Device_Lib_V2.1.0/Libraries/STM32_USB_OTG_Driver/src/usb_dcd_int.c **** /**
  52:../STLibs//STM32_USB-Host-Device_Lib_V2.1.0/Libraries/STM32_USB_OTG_Driver/src/usb_dcd_int.c **** * @}
  53:../STLibs//STM32_USB-Host-Device_Lib_V2.1.0/Libraries/STM32_USB_OTG_Driver/src/usb_dcd_int.c **** */ 
  54:../STLibs//STM32_USB-Host-Device_Lib_V2.1.0/Libraries/STM32_USB_OTG_Driver/src/usb_dcd_int.c **** 
  55:../STLibs//STM32_USB-Host-Device_Lib_V2.1.0/Libraries/STM32_USB_OTG_Driver/src/usb_dcd_int.c **** 
  56:../STLibs//STM32_USB-Host-Device_Lib_V2.1.0/Libraries/STM32_USB_OTG_Driver/src/usb_dcd_int.c **** 
  57:../STLibs//STM32_USB-Host-Device_Lib_V2.1.0/Libraries/STM32_USB_OTG_Driver/src/usb_dcd_int.c **** /** @defgroup USB_DCD_INT_Private_Macros
  58:../STLibs//STM32_USB-Host-Device_Lib_V2.1.0/Libraries/STM32_USB_OTG_Driver/src/usb_dcd_int.c **** * @{
  59:../STLibs//STM32_USB-Host-Device_Lib_V2.1.0/Libraries/STM32_USB_OTG_Driver/src/usb_dcd_int.c **** */ 
  60:../STLibs//STM32_USB-Host-Device_Lib_V2.1.0/Libraries/STM32_USB_OTG_Driver/src/usb_dcd_int.c **** /**
  61:../STLibs//STM32_USB-Host-Device_Lib_V2.1.0/Libraries/STM32_USB_OTG_Driver/src/usb_dcd_int.c **** * @}
  62:../STLibs//STM32_USB-Host-Device_Lib_V2.1.0/Libraries/STM32_USB_OTG_Driver/src/usb_dcd_int.c **** */ 
  63:../STLibs//STM32_USB-Host-Device_Lib_V2.1.0/Libraries/STM32_USB_OTG_Driver/src/usb_dcd_int.c **** 
  64:../STLibs//STM32_USB-Host-Device_Lib_V2.1.0/Libraries/STM32_USB_OTG_Driver/src/usb_dcd_int.c **** 
  65:../STLibs//STM32_USB-Host-Device_Lib_V2.1.0/Libraries/STM32_USB_OTG_Driver/src/usb_dcd_int.c **** /** @defgroup USB_DCD_INT_Private_Variables
  66:../STLibs//STM32_USB-Host-Device_Lib_V2.1.0/Libraries/STM32_USB_OTG_Driver/src/usb_dcd_int.c **** * @{
  67:../STLibs//STM32_USB-Host-Device_Lib_V2.1.0/Libraries/STM32_USB_OTG_Driver/src/usb_dcd_int.c **** */ 
  68:../STLibs//STM32_USB-Host-Device_Lib_V2.1.0/Libraries/STM32_USB_OTG_Driver/src/usb_dcd_int.c **** /**
  69:../STLibs//STM32_USB-Host-Device_Lib_V2.1.0/Libraries/STM32_USB_OTG_Driver/src/usb_dcd_int.c **** * @}
  70:../STLibs//STM32_USB-Host-Device_Lib_V2.1.0/Libraries/STM32_USB_OTG_Driver/src/usb_dcd_int.c **** */ 
  71:../STLibs//STM32_USB-Host-Device_Lib_V2.1.0/Libraries/STM32_USB_OTG_Driver/src/usb_dcd_int.c **** 
  72:../STLibs//STM32_USB-Host-Device_Lib_V2.1.0/Libraries/STM32_USB_OTG_Driver/src/usb_dcd_int.c **** 
  73:../STLibs//STM32_USB-Host-Device_Lib_V2.1.0/Libraries/STM32_USB_OTG_Driver/src/usb_dcd_int.c **** /** @defgroup USB_DCD_INT_Private_FunctionPrototypes
  74:../STLibs//STM32_USB-Host-Device_Lib_V2.1.0/Libraries/STM32_USB_OTG_Driver/src/usb_dcd_int.c **** * @{
  75:../STLibs//STM32_USB-Host-Device_Lib_V2.1.0/Libraries/STM32_USB_OTG_Driver/src/usb_dcd_int.c **** */ 
  76:../STLibs//STM32_USB-Host-Device_Lib_V2.1.0/Libraries/STM32_USB_OTG_Driver/src/usb_dcd_int.c **** /* static functions */
  77:../STLibs//STM32_USB-Host-Device_Lib_V2.1.0/Libraries/STM32_USB_OTG_Driver/src/usb_dcd_int.c **** static uint32_t DCD_ReadDevInEP (USB_OTG_CORE_HANDLE *pdev, uint8_t epnum);
  78:../STLibs//STM32_USB-Host-Device_Lib_V2.1.0/Libraries/STM32_USB_OTG_Driver/src/usb_dcd_int.c **** 
  79:../STLibs//STM32_USB-Host-Device_Lib_V2.1.0/Libraries/STM32_USB_OTG_Driver/src/usb_dcd_int.c **** /* Interrupt Handlers */
  80:../STLibs//STM32_USB-Host-Device_Lib_V2.1.0/Libraries/STM32_USB_OTG_Driver/src/usb_dcd_int.c **** static uint32_t DCD_HandleInEP_ISR(USB_OTG_CORE_HANDLE *pdev);
  81:../STLibs//STM32_USB-Host-Device_Lib_V2.1.0/Libraries/STM32_USB_OTG_Driver/src/usb_dcd_int.c **** static uint32_t DCD_HandleOutEP_ISR(USB_OTG_CORE_HANDLE *pdev);
  82:../STLibs//STM32_USB-Host-Device_Lib_V2.1.0/Libraries/STM32_USB_OTG_Driver/src/usb_dcd_int.c **** static uint32_t DCD_HandleSof_ISR(USB_OTG_CORE_HANDLE *pdev);
  83:../STLibs//STM32_USB-Host-Device_Lib_V2.1.0/Libraries/STM32_USB_OTG_Driver/src/usb_dcd_int.c **** 
  84:../STLibs//STM32_USB-Host-Device_Lib_V2.1.0/Libraries/STM32_USB_OTG_Driver/src/usb_dcd_int.c **** static uint32_t DCD_HandleRxStatusQueueLevel_ISR(USB_OTG_CORE_HANDLE *pdev);
  85:../STLibs//STM32_USB-Host-Device_Lib_V2.1.0/Libraries/STM32_USB_OTG_Driver/src/usb_dcd_int.c **** static uint32_t DCD_WriteEmptyTxFifo(USB_OTG_CORE_HANDLE *pdev , uint32_t epnum);
  86:../STLibs//STM32_USB-Host-Device_Lib_V2.1.0/Libraries/STM32_USB_OTG_Driver/src/usb_dcd_int.c **** 
  87:../STLibs//STM32_USB-Host-Device_Lib_V2.1.0/Libraries/STM32_USB_OTG_Driver/src/usb_dcd_int.c **** static uint32_t DCD_HandleUsbReset_ISR(USB_OTG_CORE_HANDLE *pdev);
  88:../STLibs//STM32_USB-Host-Device_Lib_V2.1.0/Libraries/STM32_USB_OTG_Driver/src/usb_dcd_int.c **** static uint32_t DCD_HandleEnumDone_ISR(USB_OTG_CORE_HANDLE *pdev);
  89:../STLibs//STM32_USB-Host-Device_Lib_V2.1.0/Libraries/STM32_USB_OTG_Driver/src/usb_dcd_int.c **** static uint32_t DCD_HandleResume_ISR(USB_OTG_CORE_HANDLE *pdev);
  90:../STLibs//STM32_USB-Host-Device_Lib_V2.1.0/Libraries/STM32_USB_OTG_Driver/src/usb_dcd_int.c **** static uint32_t DCD_HandleUSBSuspend_ISR(USB_OTG_CORE_HANDLE *pdev);
  91:../STLibs//STM32_USB-Host-Device_Lib_V2.1.0/Libraries/STM32_USB_OTG_Driver/src/usb_dcd_int.c **** 
  92:../STLibs//STM32_USB-Host-Device_Lib_V2.1.0/Libraries/STM32_USB_OTG_Driver/src/usb_dcd_int.c **** static uint32_t DCD_IsoINIncomplete_ISR(USB_OTG_CORE_HANDLE *pdev);
  93:../STLibs//STM32_USB-Host-Device_Lib_V2.1.0/Libraries/STM32_USB_OTG_Driver/src/usb_dcd_int.c **** static uint32_t DCD_IsoOUTIncomplete_ISR(USB_OTG_CORE_HANDLE *pdev);
  94:../STLibs//STM32_USB-Host-Device_Lib_V2.1.0/Libraries/STM32_USB_OTG_Driver/src/usb_dcd_int.c **** #ifdef VBUS_SENSING_ENABLED
  95:../STLibs//STM32_USB-Host-Device_Lib_V2.1.0/Libraries/STM32_USB_OTG_Driver/src/usb_dcd_int.c **** static uint32_t DCD_SessionRequest_ISR(USB_OTG_CORE_HANDLE *pdev);
  96:../STLibs//STM32_USB-Host-Device_Lib_V2.1.0/Libraries/STM32_USB_OTG_Driver/src/usb_dcd_int.c **** static uint32_t DCD_OTG_ISR(USB_OTG_CORE_HANDLE *pdev);
  97:../STLibs//STM32_USB-Host-Device_Lib_V2.1.0/Libraries/STM32_USB_OTG_Driver/src/usb_dcd_int.c **** #endif
  98:../STLibs//STM32_USB-Host-Device_Lib_V2.1.0/Libraries/STM32_USB_OTG_Driver/src/usb_dcd_int.c **** 
  99:../STLibs//STM32_USB-Host-Device_Lib_V2.1.0/Libraries/STM32_USB_OTG_Driver/src/usb_dcd_int.c **** /**
 100:../STLibs//STM32_USB-Host-Device_Lib_V2.1.0/Libraries/STM32_USB_OTG_Driver/src/usb_dcd_int.c **** * @}
 101:../STLibs//STM32_USB-Host-Device_Lib_V2.1.0/Libraries/STM32_USB_OTG_Driver/src/usb_dcd_int.c **** */ 
 102:../STLibs//STM32_USB-Host-Device_Lib_V2.1.0/Libraries/STM32_USB_OTG_Driver/src/usb_dcd_int.c **** 
 103:../STLibs//STM32_USB-Host-Device_Lib_V2.1.0/Libraries/STM32_USB_OTG_Driver/src/usb_dcd_int.c **** 
 104:../STLibs//STM32_USB-Host-Device_Lib_V2.1.0/Libraries/STM32_USB_OTG_Driver/src/usb_dcd_int.c **** /** @defgroup USB_DCD_INT_Private_Functions
 105:../STLibs//STM32_USB-Host-Device_Lib_V2.1.0/Libraries/STM32_USB_OTG_Driver/src/usb_dcd_int.c **** * @{
 106:../STLibs//STM32_USB-Host-Device_Lib_V2.1.0/Libraries/STM32_USB_OTG_Driver/src/usb_dcd_int.c **** */ 
 107:../STLibs//STM32_USB-Host-Device_Lib_V2.1.0/Libraries/STM32_USB_OTG_Driver/src/usb_dcd_int.c **** 
 108:../STLibs//STM32_USB-Host-Device_Lib_V2.1.0/Libraries/STM32_USB_OTG_Driver/src/usb_dcd_int.c **** 
 109:../STLibs//STM32_USB-Host-Device_Lib_V2.1.0/Libraries/STM32_USB_OTG_Driver/src/usb_dcd_int.c **** #ifdef USB_OTG_HS_DEDICATED_EP1_ENABLED  
 110:../STLibs//STM32_USB-Host-Device_Lib_V2.1.0/Libraries/STM32_USB_OTG_Driver/src/usb_dcd_int.c **** /**
 111:../STLibs//STM32_USB-Host-Device_Lib_V2.1.0/Libraries/STM32_USB_OTG_Driver/src/usb_dcd_int.c **** * @brief  USBD_OTG_EP1OUT_ISR_Handler
 112:../STLibs//STM32_USB-Host-Device_Lib_V2.1.0/Libraries/STM32_USB_OTG_Driver/src/usb_dcd_int.c **** *         handles all USB Interrupts
 113:../STLibs//STM32_USB-Host-Device_Lib_V2.1.0/Libraries/STM32_USB_OTG_Driver/src/usb_dcd_int.c **** * @param  pdev: device instance
 114:../STLibs//STM32_USB-Host-Device_Lib_V2.1.0/Libraries/STM32_USB_OTG_Driver/src/usb_dcd_int.c **** * @retval status
 115:../STLibs//STM32_USB-Host-Device_Lib_V2.1.0/Libraries/STM32_USB_OTG_Driver/src/usb_dcd_int.c **** */
 116:../STLibs//STM32_USB-Host-Device_Lib_V2.1.0/Libraries/STM32_USB_OTG_Driver/src/usb_dcd_int.c **** uint32_t USBD_OTG_EP1OUT_ISR_Handler (USB_OTG_CORE_HANDLE *pdev)
 117:../STLibs//STM32_USB-Host-Device_Lib_V2.1.0/Libraries/STM32_USB_OTG_Driver/src/usb_dcd_int.c **** {
 118:../STLibs//STM32_USB-Host-Device_Lib_V2.1.0/Libraries/STM32_USB_OTG_Driver/src/usb_dcd_int.c ****   
 119:../STLibs//STM32_USB-Host-Device_Lib_V2.1.0/Libraries/STM32_USB_OTG_Driver/src/usb_dcd_int.c ****   USB_OTG_DOEPINTn_TypeDef  doepint;
 120:../STLibs//STM32_USB-Host-Device_Lib_V2.1.0/Libraries/STM32_USB_OTG_Driver/src/usb_dcd_int.c ****   USB_OTG_DEPXFRSIZ_TypeDef  deptsiz;  
 121:../STLibs//STM32_USB-Host-Device_Lib_V2.1.0/Libraries/STM32_USB_OTG_Driver/src/usb_dcd_int.c ****   
 122:../STLibs//STM32_USB-Host-Device_Lib_V2.1.0/Libraries/STM32_USB_OTG_Driver/src/usb_dcd_int.c ****   doepint.d32 = USB_OTG_READ_REG32(&pdev->regs.OUTEP_REGS[1]->DOEPINT);
 123:../STLibs//STM32_USB-Host-Device_Lib_V2.1.0/Libraries/STM32_USB_OTG_Driver/src/usb_dcd_int.c ****   doepint.d32&= USB_OTG_READ_REG32(&pdev->regs.DREGS->DOUTEP1MSK);
 124:../STLibs//STM32_USB-Host-Device_Lib_V2.1.0/Libraries/STM32_USB_OTG_Driver/src/usb_dcd_int.c ****   
 125:../STLibs//STM32_USB-Host-Device_Lib_V2.1.0/Libraries/STM32_USB_OTG_Driver/src/usb_dcd_int.c ****   /* Transfer complete */
 126:../STLibs//STM32_USB-Host-Device_Lib_V2.1.0/Libraries/STM32_USB_OTG_Driver/src/usb_dcd_int.c ****   if ( doepint.b.xfercompl )
 127:../STLibs//STM32_USB-Host-Device_Lib_V2.1.0/Libraries/STM32_USB_OTG_Driver/src/usb_dcd_int.c ****   {
 128:../STLibs//STM32_USB-Host-Device_Lib_V2.1.0/Libraries/STM32_USB_OTG_Driver/src/usb_dcd_int.c ****     /* Clear the bit in DOEPINTn for this interrupt */
 129:../STLibs//STM32_USB-Host-Device_Lib_V2.1.0/Libraries/STM32_USB_OTG_Driver/src/usb_dcd_int.c ****     CLEAR_OUT_EP_INTR(1, xfercompl);
 130:../STLibs//STM32_USB-Host-Device_Lib_V2.1.0/Libraries/STM32_USB_OTG_Driver/src/usb_dcd_int.c ****     if (pdev->cfg.dma_enable == 1)
 131:../STLibs//STM32_USB-Host-Device_Lib_V2.1.0/Libraries/STM32_USB_OTG_Driver/src/usb_dcd_int.c ****     {
 132:../STLibs//STM32_USB-Host-Device_Lib_V2.1.0/Libraries/STM32_USB_OTG_Driver/src/usb_dcd_int.c ****       deptsiz.d32 = USB_OTG_READ_REG32(&(pdev->regs.OUTEP_REGS[1]->DOEPTSIZ));
 133:../STLibs//STM32_USB-Host-Device_Lib_V2.1.0/Libraries/STM32_USB_OTG_Driver/src/usb_dcd_int.c ****       /*ToDo : handle more than one single MPS size packet */
 134:../STLibs//STM32_USB-Host-Device_Lib_V2.1.0/Libraries/STM32_USB_OTG_Driver/src/usb_dcd_int.c ****       pdev->dev.out_ep[1].xfer_count = pdev->dev.out_ep[1].maxpacket - \
 135:../STLibs//STM32_USB-Host-Device_Lib_V2.1.0/Libraries/STM32_USB_OTG_Driver/src/usb_dcd_int.c ****         deptsiz.b.xfersize;
 136:../STLibs//STM32_USB-Host-Device_Lib_V2.1.0/Libraries/STM32_USB_OTG_Driver/src/usb_dcd_int.c ****     }    
 137:../STLibs//STM32_USB-Host-Device_Lib_V2.1.0/Libraries/STM32_USB_OTG_Driver/src/usb_dcd_int.c ****     /* Inform upper layer: data ready */
 138:../STLibs//STM32_USB-Host-Device_Lib_V2.1.0/Libraries/STM32_USB_OTG_Driver/src/usb_dcd_int.c ****     /* RX COMPLETE */
 139:../STLibs//STM32_USB-Host-Device_Lib_V2.1.0/Libraries/STM32_USB_OTG_Driver/src/usb_dcd_int.c ****     USBD_DCD_INT_fops->DataOutStage(pdev , 1);
 140:../STLibs//STM32_USB-Host-Device_Lib_V2.1.0/Libraries/STM32_USB_OTG_Driver/src/usb_dcd_int.c ****     
 141:../STLibs//STM32_USB-Host-Device_Lib_V2.1.0/Libraries/STM32_USB_OTG_Driver/src/usb_dcd_int.c ****   }
 142:../STLibs//STM32_USB-Host-Device_Lib_V2.1.0/Libraries/STM32_USB_OTG_Driver/src/usb_dcd_int.c ****   
 143:../STLibs//STM32_USB-Host-Device_Lib_V2.1.0/Libraries/STM32_USB_OTG_Driver/src/usb_dcd_int.c ****   /* Endpoint disable  */
 144:../STLibs//STM32_USB-Host-Device_Lib_V2.1.0/Libraries/STM32_USB_OTG_Driver/src/usb_dcd_int.c ****   if ( doepint.b.epdisabled )
 145:../STLibs//STM32_USB-Host-Device_Lib_V2.1.0/Libraries/STM32_USB_OTG_Driver/src/usb_dcd_int.c ****   {
 146:../STLibs//STM32_USB-Host-Device_Lib_V2.1.0/Libraries/STM32_USB_OTG_Driver/src/usb_dcd_int.c ****     /* Clear the bit in DOEPINTn for this interrupt */
 147:../STLibs//STM32_USB-Host-Device_Lib_V2.1.0/Libraries/STM32_USB_OTG_Driver/src/usb_dcd_int.c ****     CLEAR_OUT_EP_INTR(1, epdisabled);
 148:../STLibs//STM32_USB-Host-Device_Lib_V2.1.0/Libraries/STM32_USB_OTG_Driver/src/usb_dcd_int.c ****   }
 149:../STLibs//STM32_USB-Host-Device_Lib_V2.1.0/Libraries/STM32_USB_OTG_Driver/src/usb_dcd_int.c **** 
 150:../STLibs//STM32_USB-Host-Device_Lib_V2.1.0/Libraries/STM32_USB_OTG_Driver/src/usb_dcd_int.c ****   return 1;
 151:../STLibs//STM32_USB-Host-Device_Lib_V2.1.0/Libraries/STM32_USB_OTG_Driver/src/usb_dcd_int.c **** }
 152:../STLibs//STM32_USB-Host-Device_Lib_V2.1.0/Libraries/STM32_USB_OTG_Driver/src/usb_dcd_int.c **** 
 153:../STLibs//STM32_USB-Host-Device_Lib_V2.1.0/Libraries/STM32_USB_OTG_Driver/src/usb_dcd_int.c **** /**
 154:../STLibs//STM32_USB-Host-Device_Lib_V2.1.0/Libraries/STM32_USB_OTG_Driver/src/usb_dcd_int.c **** * @brief  USBD_OTG_EP1IN_ISR_Handler
 155:../STLibs//STM32_USB-Host-Device_Lib_V2.1.0/Libraries/STM32_USB_OTG_Driver/src/usb_dcd_int.c **** *         handles all USB Interrupts
 156:../STLibs//STM32_USB-Host-Device_Lib_V2.1.0/Libraries/STM32_USB_OTG_Driver/src/usb_dcd_int.c **** * @param  pdev: device instance
 157:../STLibs//STM32_USB-Host-Device_Lib_V2.1.0/Libraries/STM32_USB_OTG_Driver/src/usb_dcd_int.c **** * @retval status
 158:../STLibs//STM32_USB-Host-Device_Lib_V2.1.0/Libraries/STM32_USB_OTG_Driver/src/usb_dcd_int.c **** */
 159:../STLibs//STM32_USB-Host-Device_Lib_V2.1.0/Libraries/STM32_USB_OTG_Driver/src/usb_dcd_int.c **** uint32_t USBD_OTG_EP1IN_ISR_Handler (USB_OTG_CORE_HANDLE *pdev)
 160:../STLibs//STM32_USB-Host-Device_Lib_V2.1.0/Libraries/STM32_USB_OTG_Driver/src/usb_dcd_int.c **** {
 161:../STLibs//STM32_USB-Host-Device_Lib_V2.1.0/Libraries/STM32_USB_OTG_Driver/src/usb_dcd_int.c ****   
 162:../STLibs//STM32_USB-Host-Device_Lib_V2.1.0/Libraries/STM32_USB_OTG_Driver/src/usb_dcd_int.c ****   USB_OTG_DIEPINTn_TypeDef  diepint;
 163:../STLibs//STM32_USB-Host-Device_Lib_V2.1.0/Libraries/STM32_USB_OTG_Driver/src/usb_dcd_int.c ****   uint32_t fifoemptymsk, msk, emp;
 164:../STLibs//STM32_USB-Host-Device_Lib_V2.1.0/Libraries/STM32_USB_OTG_Driver/src/usb_dcd_int.c ****   
 165:../STLibs//STM32_USB-Host-Device_Lib_V2.1.0/Libraries/STM32_USB_OTG_Driver/src/usb_dcd_int.c ****   msk = USB_OTG_READ_REG32(&pdev->regs.DREGS->DINEP1MSK);
 166:../STLibs//STM32_USB-Host-Device_Lib_V2.1.0/Libraries/STM32_USB_OTG_Driver/src/usb_dcd_int.c ****   emp = USB_OTG_READ_REG32(&pdev->regs.DREGS->DIEPEMPMSK);
 167:../STLibs//STM32_USB-Host-Device_Lib_V2.1.0/Libraries/STM32_USB_OTG_Driver/src/usb_dcd_int.c ****   msk |= ((emp >> 1 ) & 0x1) << 7;
 168:../STLibs//STM32_USB-Host-Device_Lib_V2.1.0/Libraries/STM32_USB_OTG_Driver/src/usb_dcd_int.c ****   diepint.d32  = USB_OTG_READ_REG32(&pdev->regs.INEP_REGS[1]->DIEPINT) & msk;  
 169:../STLibs//STM32_USB-Host-Device_Lib_V2.1.0/Libraries/STM32_USB_OTG_Driver/src/usb_dcd_int.c ****   
 170:../STLibs//STM32_USB-Host-Device_Lib_V2.1.0/Libraries/STM32_USB_OTG_Driver/src/usb_dcd_int.c ****   if ( diepint.b.xfercompl )
 171:../STLibs//STM32_USB-Host-Device_Lib_V2.1.0/Libraries/STM32_USB_OTG_Driver/src/usb_dcd_int.c ****   {
 172:../STLibs//STM32_USB-Host-Device_Lib_V2.1.0/Libraries/STM32_USB_OTG_Driver/src/usb_dcd_int.c ****     fifoemptymsk = 0x1 << 1;
 173:../STLibs//STM32_USB-Host-Device_Lib_V2.1.0/Libraries/STM32_USB_OTG_Driver/src/usb_dcd_int.c ****     USB_OTG_MODIFY_REG32(&pdev->regs.DREGS->DIEPEMPMSK, fifoemptymsk, 0);
 174:../STLibs//STM32_USB-Host-Device_Lib_V2.1.0/Libraries/STM32_USB_OTG_Driver/src/usb_dcd_int.c ****     CLEAR_IN_EP_INTR(1, xfercompl);
 175:../STLibs//STM32_USB-Host-Device_Lib_V2.1.0/Libraries/STM32_USB_OTG_Driver/src/usb_dcd_int.c ****     /* TX COMPLETE */
 176:../STLibs//STM32_USB-Host-Device_Lib_V2.1.0/Libraries/STM32_USB_OTG_Driver/src/usb_dcd_int.c ****     USBD_DCD_INT_fops->DataInStage(pdev , 1);
 177:../STLibs//STM32_USB-Host-Device_Lib_V2.1.0/Libraries/STM32_USB_OTG_Driver/src/usb_dcd_int.c ****   }
 178:../STLibs//STM32_USB-Host-Device_Lib_V2.1.0/Libraries/STM32_USB_OTG_Driver/src/usb_dcd_int.c ****   if ( diepint.b.epdisabled )
 179:../STLibs//STM32_USB-Host-Device_Lib_V2.1.0/Libraries/STM32_USB_OTG_Driver/src/usb_dcd_int.c ****   {
 180:../STLibs//STM32_USB-Host-Device_Lib_V2.1.0/Libraries/STM32_USB_OTG_Driver/src/usb_dcd_int.c ****     CLEAR_IN_EP_INTR(1, epdisabled);
 181:../STLibs//STM32_USB-Host-Device_Lib_V2.1.0/Libraries/STM32_USB_OTG_Driver/src/usb_dcd_int.c ****   }  
 182:../STLibs//STM32_USB-Host-Device_Lib_V2.1.0/Libraries/STM32_USB_OTG_Driver/src/usb_dcd_int.c ****   if ( diepint.b.timeout )
 183:../STLibs//STM32_USB-Host-Device_Lib_V2.1.0/Libraries/STM32_USB_OTG_Driver/src/usb_dcd_int.c ****   {
 184:../STLibs//STM32_USB-Host-Device_Lib_V2.1.0/Libraries/STM32_USB_OTG_Driver/src/usb_dcd_int.c ****     CLEAR_IN_EP_INTR(1, timeout);
 185:../STLibs//STM32_USB-Host-Device_Lib_V2.1.0/Libraries/STM32_USB_OTG_Driver/src/usb_dcd_int.c ****   }
 186:../STLibs//STM32_USB-Host-Device_Lib_V2.1.0/Libraries/STM32_USB_OTG_Driver/src/usb_dcd_int.c ****   if (diepint.b.intktxfemp)
 187:../STLibs//STM32_USB-Host-Device_Lib_V2.1.0/Libraries/STM32_USB_OTG_Driver/src/usb_dcd_int.c ****   {
 188:../STLibs//STM32_USB-Host-Device_Lib_V2.1.0/Libraries/STM32_USB_OTG_Driver/src/usb_dcd_int.c ****     CLEAR_IN_EP_INTR(1, intktxfemp);
 189:../STLibs//STM32_USB-Host-Device_Lib_V2.1.0/Libraries/STM32_USB_OTG_Driver/src/usb_dcd_int.c ****   }
 190:../STLibs//STM32_USB-Host-Device_Lib_V2.1.0/Libraries/STM32_USB_OTG_Driver/src/usb_dcd_int.c ****   if (diepint.b.inepnakeff)
 191:../STLibs//STM32_USB-Host-Device_Lib_V2.1.0/Libraries/STM32_USB_OTG_Driver/src/usb_dcd_int.c ****   {
 192:../STLibs//STM32_USB-Host-Device_Lib_V2.1.0/Libraries/STM32_USB_OTG_Driver/src/usb_dcd_int.c ****     CLEAR_IN_EP_INTR(1, inepnakeff);
 193:../STLibs//STM32_USB-Host-Device_Lib_V2.1.0/Libraries/STM32_USB_OTG_Driver/src/usb_dcd_int.c ****   }
 194:../STLibs//STM32_USB-Host-Device_Lib_V2.1.0/Libraries/STM32_USB_OTG_Driver/src/usb_dcd_int.c ****   if (diepint.b.emptyintr)
 195:../STLibs//STM32_USB-Host-Device_Lib_V2.1.0/Libraries/STM32_USB_OTG_Driver/src/usb_dcd_int.c ****   {
 196:../STLibs//STM32_USB-Host-Device_Lib_V2.1.0/Libraries/STM32_USB_OTG_Driver/src/usb_dcd_int.c ****     DCD_WriteEmptyTxFifo(pdev , 1);
 197:../STLibs//STM32_USB-Host-Device_Lib_V2.1.0/Libraries/STM32_USB_OTG_Driver/src/usb_dcd_int.c ****     CLEAR_IN_EP_INTR(1, emptyintr);
 198:../STLibs//STM32_USB-Host-Device_Lib_V2.1.0/Libraries/STM32_USB_OTG_Driver/src/usb_dcd_int.c ****   }
 199:../STLibs//STM32_USB-Host-Device_Lib_V2.1.0/Libraries/STM32_USB_OTG_Driver/src/usb_dcd_int.c ****   return 1;
 200:../STLibs//STM32_USB-Host-Device_Lib_V2.1.0/Libraries/STM32_USB_OTG_Driver/src/usb_dcd_int.c **** }
 201:../STLibs//STM32_USB-Host-Device_Lib_V2.1.0/Libraries/STM32_USB_OTG_Driver/src/usb_dcd_int.c **** #endif
 202:../STLibs//STM32_USB-Host-Device_Lib_V2.1.0/Libraries/STM32_USB_OTG_Driver/src/usb_dcd_int.c **** 
 203:../STLibs//STM32_USB-Host-Device_Lib_V2.1.0/Libraries/STM32_USB_OTG_Driver/src/usb_dcd_int.c **** /**
 204:../STLibs//STM32_USB-Host-Device_Lib_V2.1.0/Libraries/STM32_USB_OTG_Driver/src/usb_dcd_int.c **** * @brief  STM32_USBF_OTG_ISR_Handler
 205:../STLibs//STM32_USB-Host-Device_Lib_V2.1.0/Libraries/STM32_USB_OTG_Driver/src/usb_dcd_int.c **** *         handles all USB Interrupts
 206:../STLibs//STM32_USB-Host-Device_Lib_V2.1.0/Libraries/STM32_USB_OTG_Driver/src/usb_dcd_int.c **** * @param  pdev: device instance
 207:../STLibs//STM32_USB-Host-Device_Lib_V2.1.0/Libraries/STM32_USB_OTG_Driver/src/usb_dcd_int.c **** * @retval status
 208:../STLibs//STM32_USB-Host-Device_Lib_V2.1.0/Libraries/STM32_USB_OTG_Driver/src/usb_dcd_int.c **** */
 209:../STLibs//STM32_USB-Host-Device_Lib_V2.1.0/Libraries/STM32_USB_OTG_Driver/src/usb_dcd_int.c **** uint32_t USBD_OTG_ISR_Handler (USB_OTG_CORE_HANDLE *pdev)
 210:../STLibs//STM32_USB-Host-Device_Lib_V2.1.0/Libraries/STM32_USB_OTG_Driver/src/usb_dcd_int.c **** {
  26              		.loc 1 210 0
  27              		.cfi_startproc
  28              		@ args = 0, pretend = 0, frame = 16
  29              		@ frame_needed = 0, uses_anonymous_args = 0
  30              	.LVL0:
  31 0000 2DE9F04F 		push	{r4, r5, r6, r7, r8, r9, r10, fp, lr}
  32              	.LCFI0:
  33              		.cfi_def_cfa_offset 36
  34              		.cfi_offset 4, -36
  35              		.cfi_offset 5, -32
  36              		.cfi_offset 6, -28
  37              		.cfi_offset 7, -24
  38              		.cfi_offset 8, -20
  39              		.cfi_offset 9, -16
  40              		.cfi_offset 10, -12
  41              		.cfi_offset 11, -8
  42              		.cfi_offset 14, -4
  43 0004 85B0     		sub	sp, sp, #20
  44              	.LCFI1:
  45              		.cfi_def_cfa_offset 56
  46              		.loc 1 210 0
  47 0006 0446     		mov	r4, r0
 211:../STLibs//STM32_USB-Host-Device_Lib_V2.1.0/Libraries/STM32_USB_OTG_Driver/src/usb_dcd_int.c ****   USB_OTG_GINTSTS_TypeDef  gintr_status;
 212:../STLibs//STM32_USB-Host-Device_Lib_V2.1.0/Libraries/STM32_USB_OTG_Driver/src/usb_dcd_int.c ****   uint32_t retval = 0;
 213:../STLibs//STM32_USB-Host-Device_Lib_V2.1.0/Libraries/STM32_USB_OTG_Driver/src/usb_dcd_int.c ****   
 214:../STLibs//STM32_USB-Host-Device_Lib_V2.1.0/Libraries/STM32_USB_OTG_Driver/src/usb_dcd_int.c ****   if (USB_OTG_IsDeviceMode(pdev)) /* ensure that we are in device mode */
  48              		.loc 1 214 0
  49 0008 FFF7FEFF 		bl	USB_OTG_IsDeviceMode
  50              	.LVL1:
  51 000c 18B9     		cbnz	r0, .L2
  52              	.L4:
 212:../STLibs//STM32_USB-Host-Device_Lib_V2.1.0/Libraries/STM32_USB_OTG_Driver/src/usb_dcd_int.c ****   
  53              		.loc 1 212 0
  54 000e 0020     		movs	r0, #0
  55              	.LVL2:
  56              	.L1:
 215:../STLibs//STM32_USB-Host-Device_Lib_V2.1.0/Libraries/STM32_USB_OTG_Driver/src/usb_dcd_int.c ****   {
 216:../STLibs//STM32_USB-Host-Device_Lib_V2.1.0/Libraries/STM32_USB_OTG_Driver/src/usb_dcd_int.c ****     gintr_status.d32 = USB_OTG_ReadCoreItr(pdev);
 217:../STLibs//STM32_USB-Host-Device_Lib_V2.1.0/Libraries/STM32_USB_OTG_Driver/src/usb_dcd_int.c ****     if (!gintr_status.d32) /* avoid spurious interrupt */
 218:../STLibs//STM32_USB-Host-Device_Lib_V2.1.0/Libraries/STM32_USB_OTG_Driver/src/usb_dcd_int.c ****     {
 219:../STLibs//STM32_USB-Host-Device_Lib_V2.1.0/Libraries/STM32_USB_OTG_Driver/src/usb_dcd_int.c ****       return 0;
 220:../STLibs//STM32_USB-Host-Device_Lib_V2.1.0/Libraries/STM32_USB_OTG_Driver/src/usb_dcd_int.c ****     }
 221:../STLibs//STM32_USB-Host-Device_Lib_V2.1.0/Libraries/STM32_USB_OTG_Driver/src/usb_dcd_int.c ****     
 222:../STLibs//STM32_USB-Host-Device_Lib_V2.1.0/Libraries/STM32_USB_OTG_Driver/src/usb_dcd_int.c ****     if (gintr_status.b.outepintr)
 223:../STLibs//STM32_USB-Host-Device_Lib_V2.1.0/Libraries/STM32_USB_OTG_Driver/src/usb_dcd_int.c ****     {
 224:../STLibs//STM32_USB-Host-Device_Lib_V2.1.0/Libraries/STM32_USB_OTG_Driver/src/usb_dcd_int.c ****       retval |= DCD_HandleOutEP_ISR(pdev);
 225:../STLibs//STM32_USB-Host-Device_Lib_V2.1.0/Libraries/STM32_USB_OTG_Driver/src/usb_dcd_int.c ****     }    
 226:../STLibs//STM32_USB-Host-Device_Lib_V2.1.0/Libraries/STM32_USB_OTG_Driver/src/usb_dcd_int.c ****     
 227:../STLibs//STM32_USB-Host-Device_Lib_V2.1.0/Libraries/STM32_USB_OTG_Driver/src/usb_dcd_int.c ****     if (gintr_status.b.inepint)
 228:../STLibs//STM32_USB-Host-Device_Lib_V2.1.0/Libraries/STM32_USB_OTG_Driver/src/usb_dcd_int.c ****     {
 229:../STLibs//STM32_USB-Host-Device_Lib_V2.1.0/Libraries/STM32_USB_OTG_Driver/src/usb_dcd_int.c ****       retval |= DCD_HandleInEP_ISR(pdev);
 230:../STLibs//STM32_USB-Host-Device_Lib_V2.1.0/Libraries/STM32_USB_OTG_Driver/src/usb_dcd_int.c ****     }
 231:../STLibs//STM32_USB-Host-Device_Lib_V2.1.0/Libraries/STM32_USB_OTG_Driver/src/usb_dcd_int.c ****     
 232:../STLibs//STM32_USB-Host-Device_Lib_V2.1.0/Libraries/STM32_USB_OTG_Driver/src/usb_dcd_int.c ****     if (gintr_status.b.modemismatch)
 233:../STLibs//STM32_USB-Host-Device_Lib_V2.1.0/Libraries/STM32_USB_OTG_Driver/src/usb_dcd_int.c ****     {
 234:../STLibs//STM32_USB-Host-Device_Lib_V2.1.0/Libraries/STM32_USB_OTG_Driver/src/usb_dcd_int.c ****       USB_OTG_GINTSTS_TypeDef  gintsts;
 235:../STLibs//STM32_USB-Host-Device_Lib_V2.1.0/Libraries/STM32_USB_OTG_Driver/src/usb_dcd_int.c ****       
 236:../STLibs//STM32_USB-Host-Device_Lib_V2.1.0/Libraries/STM32_USB_OTG_Driver/src/usb_dcd_int.c ****       /* Clear interrupt */
 237:../STLibs//STM32_USB-Host-Device_Lib_V2.1.0/Libraries/STM32_USB_OTG_Driver/src/usb_dcd_int.c ****       gintsts.d32 = 0;
 238:../STLibs//STM32_USB-Host-Device_Lib_V2.1.0/Libraries/STM32_USB_OTG_Driver/src/usb_dcd_int.c ****       gintsts.b.modemismatch = 1;
 239:../STLibs//STM32_USB-Host-Device_Lib_V2.1.0/Libraries/STM32_USB_OTG_Driver/src/usb_dcd_int.c ****       USB_OTG_WRITE_REG32(&pdev->regs.GREGS->GINTSTS, gintsts.d32);
 240:../STLibs//STM32_USB-Host-Device_Lib_V2.1.0/Libraries/STM32_USB_OTG_Driver/src/usb_dcd_int.c ****     }
 241:../STLibs//STM32_USB-Host-Device_Lib_V2.1.0/Libraries/STM32_USB_OTG_Driver/src/usb_dcd_int.c ****     
 242:../STLibs//STM32_USB-Host-Device_Lib_V2.1.0/Libraries/STM32_USB_OTG_Driver/src/usb_dcd_int.c ****     if (gintr_status.b.wkupintr)
 243:../STLibs//STM32_USB-Host-Device_Lib_V2.1.0/Libraries/STM32_USB_OTG_Driver/src/usb_dcd_int.c ****     {
 244:../STLibs//STM32_USB-Host-Device_Lib_V2.1.0/Libraries/STM32_USB_OTG_Driver/src/usb_dcd_int.c ****       retval |= DCD_HandleResume_ISR(pdev);
 245:../STLibs//STM32_USB-Host-Device_Lib_V2.1.0/Libraries/STM32_USB_OTG_Driver/src/usb_dcd_int.c ****     }
 246:../STLibs//STM32_USB-Host-Device_Lib_V2.1.0/Libraries/STM32_USB_OTG_Driver/src/usb_dcd_int.c ****     
 247:../STLibs//STM32_USB-Host-Device_Lib_V2.1.0/Libraries/STM32_USB_OTG_Driver/src/usb_dcd_int.c ****     if (gintr_status.b.usbsuspend)
 248:../STLibs//STM32_USB-Host-Device_Lib_V2.1.0/Libraries/STM32_USB_OTG_Driver/src/usb_dcd_int.c ****     {
 249:../STLibs//STM32_USB-Host-Device_Lib_V2.1.0/Libraries/STM32_USB_OTG_Driver/src/usb_dcd_int.c ****       retval |= DCD_HandleUSBSuspend_ISR(pdev);
 250:../STLibs//STM32_USB-Host-Device_Lib_V2.1.0/Libraries/STM32_USB_OTG_Driver/src/usb_dcd_int.c ****     }
 251:../STLibs//STM32_USB-Host-Device_Lib_V2.1.0/Libraries/STM32_USB_OTG_Driver/src/usb_dcd_int.c ****     if (gintr_status.b.sofintr)
 252:../STLibs//STM32_USB-Host-Device_Lib_V2.1.0/Libraries/STM32_USB_OTG_Driver/src/usb_dcd_int.c ****     {
 253:../STLibs//STM32_USB-Host-Device_Lib_V2.1.0/Libraries/STM32_USB_OTG_Driver/src/usb_dcd_int.c ****       retval |= DCD_HandleSof_ISR(pdev);
 254:../STLibs//STM32_USB-Host-Device_Lib_V2.1.0/Libraries/STM32_USB_OTG_Driver/src/usb_dcd_int.c ****       
 255:../STLibs//STM32_USB-Host-Device_Lib_V2.1.0/Libraries/STM32_USB_OTG_Driver/src/usb_dcd_int.c ****     }
 256:../STLibs//STM32_USB-Host-Device_Lib_V2.1.0/Libraries/STM32_USB_OTG_Driver/src/usb_dcd_int.c ****     
 257:../STLibs//STM32_USB-Host-Device_Lib_V2.1.0/Libraries/STM32_USB_OTG_Driver/src/usb_dcd_int.c ****     if (gintr_status.b.rxstsqlvl)
 258:../STLibs//STM32_USB-Host-Device_Lib_V2.1.0/Libraries/STM32_USB_OTG_Driver/src/usb_dcd_int.c ****     {
 259:../STLibs//STM32_USB-Host-Device_Lib_V2.1.0/Libraries/STM32_USB_OTG_Driver/src/usb_dcd_int.c ****       retval |= DCD_HandleRxStatusQueueLevel_ISR(pdev);
 260:../STLibs//STM32_USB-Host-Device_Lib_V2.1.0/Libraries/STM32_USB_OTG_Driver/src/usb_dcd_int.c ****       
 261:../STLibs//STM32_USB-Host-Device_Lib_V2.1.0/Libraries/STM32_USB_OTG_Driver/src/usb_dcd_int.c ****     }
 262:../STLibs//STM32_USB-Host-Device_Lib_V2.1.0/Libraries/STM32_USB_OTG_Driver/src/usb_dcd_int.c ****     
 263:../STLibs//STM32_USB-Host-Device_Lib_V2.1.0/Libraries/STM32_USB_OTG_Driver/src/usb_dcd_int.c ****     if (gintr_status.b.usbreset)
 264:../STLibs//STM32_USB-Host-Device_Lib_V2.1.0/Libraries/STM32_USB_OTG_Driver/src/usb_dcd_int.c ****     {
 265:../STLibs//STM32_USB-Host-Device_Lib_V2.1.0/Libraries/STM32_USB_OTG_Driver/src/usb_dcd_int.c ****       retval |= DCD_HandleUsbReset_ISR(pdev);
 266:../STLibs//STM32_USB-Host-Device_Lib_V2.1.0/Libraries/STM32_USB_OTG_Driver/src/usb_dcd_int.c ****       
 267:../STLibs//STM32_USB-Host-Device_Lib_V2.1.0/Libraries/STM32_USB_OTG_Driver/src/usb_dcd_int.c ****     }
 268:../STLibs//STM32_USB-Host-Device_Lib_V2.1.0/Libraries/STM32_USB_OTG_Driver/src/usb_dcd_int.c ****     if (gintr_status.b.enumdone)
 269:../STLibs//STM32_USB-Host-Device_Lib_V2.1.0/Libraries/STM32_USB_OTG_Driver/src/usb_dcd_int.c ****     {
 270:../STLibs//STM32_USB-Host-Device_Lib_V2.1.0/Libraries/STM32_USB_OTG_Driver/src/usb_dcd_int.c ****       retval |= DCD_HandleEnumDone_ISR(pdev);
 271:../STLibs//STM32_USB-Host-Device_Lib_V2.1.0/Libraries/STM32_USB_OTG_Driver/src/usb_dcd_int.c ****     }
 272:../STLibs//STM32_USB-Host-Device_Lib_V2.1.0/Libraries/STM32_USB_OTG_Driver/src/usb_dcd_int.c ****     
 273:../STLibs//STM32_USB-Host-Device_Lib_V2.1.0/Libraries/STM32_USB_OTG_Driver/src/usb_dcd_int.c ****     if (gintr_status.b.incomplisoin)
 274:../STLibs//STM32_USB-Host-Device_Lib_V2.1.0/Libraries/STM32_USB_OTG_Driver/src/usb_dcd_int.c ****     {
 275:../STLibs//STM32_USB-Host-Device_Lib_V2.1.0/Libraries/STM32_USB_OTG_Driver/src/usb_dcd_int.c ****       retval |= DCD_IsoINIncomplete_ISR(pdev);
 276:../STLibs//STM32_USB-Host-Device_Lib_V2.1.0/Libraries/STM32_USB_OTG_Driver/src/usb_dcd_int.c ****     }
 277:../STLibs//STM32_USB-Host-Device_Lib_V2.1.0/Libraries/STM32_USB_OTG_Driver/src/usb_dcd_int.c **** 
 278:../STLibs//STM32_USB-Host-Device_Lib_V2.1.0/Libraries/STM32_USB_OTG_Driver/src/usb_dcd_int.c ****     if (gintr_status.b.incomplisoout)
 279:../STLibs//STM32_USB-Host-Device_Lib_V2.1.0/Libraries/STM32_USB_OTG_Driver/src/usb_dcd_int.c ****     {
 280:../STLibs//STM32_USB-Host-Device_Lib_V2.1.0/Libraries/STM32_USB_OTG_Driver/src/usb_dcd_int.c ****       retval |= DCD_IsoOUTIncomplete_ISR(pdev);
 281:../STLibs//STM32_USB-Host-Device_Lib_V2.1.0/Libraries/STM32_USB_OTG_Driver/src/usb_dcd_int.c ****     }    
 282:../STLibs//STM32_USB-Host-Device_Lib_V2.1.0/Libraries/STM32_USB_OTG_Driver/src/usb_dcd_int.c **** #ifdef VBUS_SENSING_ENABLED
 283:../STLibs//STM32_USB-Host-Device_Lib_V2.1.0/Libraries/STM32_USB_OTG_Driver/src/usb_dcd_int.c ****     if (gintr_status.b.sessreqintr)
 284:../STLibs//STM32_USB-Host-Device_Lib_V2.1.0/Libraries/STM32_USB_OTG_Driver/src/usb_dcd_int.c ****     {
 285:../STLibs//STM32_USB-Host-Device_Lib_V2.1.0/Libraries/STM32_USB_OTG_Driver/src/usb_dcd_int.c ****       retval |= DCD_SessionRequest_ISR(pdev);
 286:../STLibs//STM32_USB-Host-Device_Lib_V2.1.0/Libraries/STM32_USB_OTG_Driver/src/usb_dcd_int.c ****     }
 287:../STLibs//STM32_USB-Host-Device_Lib_V2.1.0/Libraries/STM32_USB_OTG_Driver/src/usb_dcd_int.c **** 
 288:../STLibs//STM32_USB-Host-Device_Lib_V2.1.0/Libraries/STM32_USB_OTG_Driver/src/usb_dcd_int.c ****     if (gintr_status.b.otgintr)
 289:../STLibs//STM32_USB-Host-Device_Lib_V2.1.0/Libraries/STM32_USB_OTG_Driver/src/usb_dcd_int.c ****     {
 290:../STLibs//STM32_USB-Host-Device_Lib_V2.1.0/Libraries/STM32_USB_OTG_Driver/src/usb_dcd_int.c ****       retval |= DCD_OTG_ISR(pdev);
 291:../STLibs//STM32_USB-Host-Device_Lib_V2.1.0/Libraries/STM32_USB_OTG_Driver/src/usb_dcd_int.c ****     }   
 292:../STLibs//STM32_USB-Host-Device_Lib_V2.1.0/Libraries/STM32_USB_OTG_Driver/src/usb_dcd_int.c **** #endif    
 293:../STLibs//STM32_USB-Host-Device_Lib_V2.1.0/Libraries/STM32_USB_OTG_Driver/src/usb_dcd_int.c ****   }
 294:../STLibs//STM32_USB-Host-Device_Lib_V2.1.0/Libraries/STM32_USB_OTG_Driver/src/usb_dcd_int.c ****   return retval;
 295:../STLibs//STM32_USB-Host-Device_Lib_V2.1.0/Libraries/STM32_USB_OTG_Driver/src/usb_dcd_int.c **** }
  57              		.loc 1 295 0
  58 0010 05B0     		add	sp, sp, #20
  59              	.LCFI2:
  60              		.cfi_remember_state
  61              		.cfi_def_cfa_offset 36
  62              		@ sp needed
  63 0012 BDE8F08F 		pop	{r4, r5, r6, r7, r8, r9, r10, fp, pc}
  64              	.LVL3:
  65              	.L2:
  66              	.LCFI3:
  67              		.cfi_restore_state
 216:../STLibs//STM32_USB-Host-Device_Lib_V2.1.0/Libraries/STM32_USB_OTG_Driver/src/usb_dcd_int.c ****     if (!gintr_status.d32) /* avoid spurious interrupt */
  68              		.loc 1 216 0
  69 0016 2046     		mov	r0, r4
  70 0018 FFF7FEFF 		bl	USB_OTG_ReadCoreItr
  71              	.LVL4:
 217:../STLibs//STM32_USB-Host-Device_Lib_V2.1.0/Libraries/STM32_USB_OTG_Driver/src/usb_dcd_int.c ****     {
  72              		.loc 1 217 0
  73 001c 8046     		mov	r8, r0
  74 001e 0028     		cmp	r0, #0
  75 0020 F5D0     		beq	.L4
  76 0022 C0F30743 		ubfx	r3, r0, #16, #8
 222:../STLibs//STM32_USB-Host-Device_Lib_V2.1.0/Libraries/STM32_USB_OTG_Driver/src/usb_dcd_int.c ****     {
  77              		.loc 1 222 0
  78 0026 13F00800 		ands	r0, r3, #8
  79              	.LVL5:
  80 002a 0093     		str	r3, [sp]
  81 002c 0CD0     		beq	.L5
  82              	.LVL6:
  83              	.LBB31:
  84              	.LBB32:
 296:../STLibs//STM32_USB-Host-Device_Lib_V2.1.0/Libraries/STM32_USB_OTG_Driver/src/usb_dcd_int.c **** 
 297:../STLibs//STM32_USB-Host-Device_Lib_V2.1.0/Libraries/STM32_USB_OTG_Driver/src/usb_dcd_int.c **** #ifdef VBUS_SENSING_ENABLED
 298:../STLibs//STM32_USB-Host-Device_Lib_V2.1.0/Libraries/STM32_USB_OTG_Driver/src/usb_dcd_int.c **** /**
 299:../STLibs//STM32_USB-Host-Device_Lib_V2.1.0/Libraries/STM32_USB_OTG_Driver/src/usb_dcd_int.c **** * @brief  DCD_SessionRequest_ISR
 300:../STLibs//STM32_USB-Host-Device_Lib_V2.1.0/Libraries/STM32_USB_OTG_Driver/src/usb_dcd_int.c **** *         Indicates that the USB_OTG controller has detected a connection
 301:../STLibs//STM32_USB-Host-Device_Lib_V2.1.0/Libraries/STM32_USB_OTG_Driver/src/usb_dcd_int.c **** * @param  pdev: device instance
 302:../STLibs//STM32_USB-Host-Device_Lib_V2.1.0/Libraries/STM32_USB_OTG_Driver/src/usb_dcd_int.c **** * @retval status
 303:../STLibs//STM32_USB-Host-Device_Lib_V2.1.0/Libraries/STM32_USB_OTG_Driver/src/usb_dcd_int.c **** */
 304:../STLibs//STM32_USB-Host-Device_Lib_V2.1.0/Libraries/STM32_USB_OTG_Driver/src/usb_dcd_int.c **** static uint32_t DCD_SessionRequest_ISR(USB_OTG_CORE_HANDLE *pdev)
 305:../STLibs//STM32_USB-Host-Device_Lib_V2.1.0/Libraries/STM32_USB_OTG_Driver/src/usb_dcd_int.c **** {
 306:../STLibs//STM32_USB-Host-Device_Lib_V2.1.0/Libraries/STM32_USB_OTG_Driver/src/usb_dcd_int.c ****   USB_OTG_GINTSTS_TypeDef  gintsts;  
 307:../STLibs//STM32_USB-Host-Device_Lib_V2.1.0/Libraries/STM32_USB_OTG_Driver/src/usb_dcd_int.c ****   USBD_DCD_INT_fops->DevConnected (pdev);
 308:../STLibs//STM32_USB-Host-Device_Lib_V2.1.0/Libraries/STM32_USB_OTG_Driver/src/usb_dcd_int.c **** 
 309:../STLibs//STM32_USB-Host-Device_Lib_V2.1.0/Libraries/STM32_USB_OTG_Driver/src/usb_dcd_int.c ****   /* Clear interrupt */
 310:../STLibs//STM32_USB-Host-Device_Lib_V2.1.0/Libraries/STM32_USB_OTG_Driver/src/usb_dcd_int.c ****   gintsts.d32 = 0;
 311:../STLibs//STM32_USB-Host-Device_Lib_V2.1.0/Libraries/STM32_USB_OTG_Driver/src/usb_dcd_int.c ****   gintsts.b.sessreqintr = 1;
 312:../STLibs//STM32_USB-Host-Device_Lib_V2.1.0/Libraries/STM32_USB_OTG_Driver/src/usb_dcd_int.c ****   USB_OTG_WRITE_REG32 (&pdev->regs.GREGS->GINTSTS, gintsts.d32);   
 313:../STLibs//STM32_USB-Host-Device_Lib_V2.1.0/Libraries/STM32_USB_OTG_Driver/src/usb_dcd_int.c ****   return 1;
 314:../STLibs//STM32_USB-Host-Device_Lib_V2.1.0/Libraries/STM32_USB_OTG_Driver/src/usb_dcd_int.c **** }
 315:../STLibs//STM32_USB-Host-Device_Lib_V2.1.0/Libraries/STM32_USB_OTG_Driver/src/usb_dcd_int.c **** 
 316:../STLibs//STM32_USB-Host-Device_Lib_V2.1.0/Libraries/STM32_USB_OTG_Driver/src/usb_dcd_int.c **** /**
 317:../STLibs//STM32_USB-Host-Device_Lib_V2.1.0/Libraries/STM32_USB_OTG_Driver/src/usb_dcd_int.c **** * @brief  DCD_OTG_ISR
 318:../STLibs//STM32_USB-Host-Device_Lib_V2.1.0/Libraries/STM32_USB_OTG_Driver/src/usb_dcd_int.c **** *         Indicates that the USB_OTG controller has detected an OTG event:
 319:../STLibs//STM32_USB-Host-Device_Lib_V2.1.0/Libraries/STM32_USB_OTG_Driver/src/usb_dcd_int.c **** *                 used to detect the end of session i.e. disconnection
 320:../STLibs//STM32_USB-Host-Device_Lib_V2.1.0/Libraries/STM32_USB_OTG_Driver/src/usb_dcd_int.c **** * @param  pdev: device instance
 321:../STLibs//STM32_USB-Host-Device_Lib_V2.1.0/Libraries/STM32_USB_OTG_Driver/src/usb_dcd_int.c **** * @retval status
 322:../STLibs//STM32_USB-Host-Device_Lib_V2.1.0/Libraries/STM32_USB_OTG_Driver/src/usb_dcd_int.c **** */
 323:../STLibs//STM32_USB-Host-Device_Lib_V2.1.0/Libraries/STM32_USB_OTG_Driver/src/usb_dcd_int.c **** static uint32_t DCD_OTG_ISR(USB_OTG_CORE_HANDLE *pdev)
 324:../STLibs//STM32_USB-Host-Device_Lib_V2.1.0/Libraries/STM32_USB_OTG_Driver/src/usb_dcd_int.c **** {
 325:../STLibs//STM32_USB-Host-Device_Lib_V2.1.0/Libraries/STM32_USB_OTG_Driver/src/usb_dcd_int.c **** 
 326:../STLibs//STM32_USB-Host-Device_Lib_V2.1.0/Libraries/STM32_USB_OTG_Driver/src/usb_dcd_int.c ****   USB_OTG_GOTGINT_TypeDef  gotgint;
 327:../STLibs//STM32_USB-Host-Device_Lib_V2.1.0/Libraries/STM32_USB_OTG_Driver/src/usb_dcd_int.c **** 
 328:../STLibs//STM32_USB-Host-Device_Lib_V2.1.0/Libraries/STM32_USB_OTG_Driver/src/usb_dcd_int.c ****   gotgint.d32 = USB_OTG_READ_REG32(&pdev->regs.GREGS->GOTGINT);
 329:../STLibs//STM32_USB-Host-Device_Lib_V2.1.0/Libraries/STM32_USB_OTG_Driver/src/usb_dcd_int.c ****   
 330:../STLibs//STM32_USB-Host-Device_Lib_V2.1.0/Libraries/STM32_USB_OTG_Driver/src/usb_dcd_int.c ****   if (gotgint.b.sesenddet)
 331:../STLibs//STM32_USB-Host-Device_Lib_V2.1.0/Libraries/STM32_USB_OTG_Driver/src/usb_dcd_int.c ****   {
 332:../STLibs//STM32_USB-Host-Device_Lib_V2.1.0/Libraries/STM32_USB_OTG_Driver/src/usb_dcd_int.c ****     USBD_DCD_INT_fops->DevDisconnected (pdev);
 333:../STLibs//STM32_USB-Host-Device_Lib_V2.1.0/Libraries/STM32_USB_OTG_Driver/src/usb_dcd_int.c ****   }
 334:../STLibs//STM32_USB-Host-Device_Lib_V2.1.0/Libraries/STM32_USB_OTG_Driver/src/usb_dcd_int.c ****   /* Clear OTG interrupt */
 335:../STLibs//STM32_USB-Host-Device_Lib_V2.1.0/Libraries/STM32_USB_OTG_Driver/src/usb_dcd_int.c ****   USB_OTG_WRITE_REG32(&pdev->regs.GREGS->GOTGINT, gotgint.d32); 
 336:../STLibs//STM32_USB-Host-Device_Lib_V2.1.0/Libraries/STM32_USB_OTG_Driver/src/usb_dcd_int.c ****   return 1;
 337:../STLibs//STM32_USB-Host-Device_Lib_V2.1.0/Libraries/STM32_USB_OTG_Driver/src/usb_dcd_int.c **** }
 338:../STLibs//STM32_USB-Host-Device_Lib_V2.1.0/Libraries/STM32_USB_OTG_Driver/src/usb_dcd_int.c **** #endif
 339:../STLibs//STM32_USB-Host-Device_Lib_V2.1.0/Libraries/STM32_USB_OTG_Driver/src/usb_dcd_int.c **** /**
 340:../STLibs//STM32_USB-Host-Device_Lib_V2.1.0/Libraries/STM32_USB_OTG_Driver/src/usb_dcd_int.c **** * @brief  DCD_HandleResume_ISR
 341:../STLibs//STM32_USB-Host-Device_Lib_V2.1.0/Libraries/STM32_USB_OTG_Driver/src/usb_dcd_int.c **** *         Indicates that the USB_OTG controller has detected a resume or
 342:../STLibs//STM32_USB-Host-Device_Lib_V2.1.0/Libraries/STM32_USB_OTG_Driver/src/usb_dcd_int.c **** *                 remote Wake-up sequence
 343:../STLibs//STM32_USB-Host-Device_Lib_V2.1.0/Libraries/STM32_USB_OTG_Driver/src/usb_dcd_int.c **** * @param  pdev: device instance
 344:../STLibs//STM32_USB-Host-Device_Lib_V2.1.0/Libraries/STM32_USB_OTG_Driver/src/usb_dcd_int.c **** * @retval status
 345:../STLibs//STM32_USB-Host-Device_Lib_V2.1.0/Libraries/STM32_USB_OTG_Driver/src/usb_dcd_int.c **** */
 346:../STLibs//STM32_USB-Host-Device_Lib_V2.1.0/Libraries/STM32_USB_OTG_Driver/src/usb_dcd_int.c **** static uint32_t DCD_HandleResume_ISR(USB_OTG_CORE_HANDLE *pdev)
 347:../STLibs//STM32_USB-Host-Device_Lib_V2.1.0/Libraries/STM32_USB_OTG_Driver/src/usb_dcd_int.c **** {
 348:../STLibs//STM32_USB-Host-Device_Lib_V2.1.0/Libraries/STM32_USB_OTG_Driver/src/usb_dcd_int.c ****   USB_OTG_GINTSTS_TypeDef  gintsts;
 349:../STLibs//STM32_USB-Host-Device_Lib_V2.1.0/Libraries/STM32_USB_OTG_Driver/src/usb_dcd_int.c ****   USB_OTG_DCTL_TypeDef     devctl;
 350:../STLibs//STM32_USB-Host-Device_Lib_V2.1.0/Libraries/STM32_USB_OTG_Driver/src/usb_dcd_int.c ****   USB_OTG_PCGCCTL_TypeDef  power;
 351:../STLibs//STM32_USB-Host-Device_Lib_V2.1.0/Libraries/STM32_USB_OTG_Driver/src/usb_dcd_int.c ****   
 352:../STLibs//STM32_USB-Host-Device_Lib_V2.1.0/Libraries/STM32_USB_OTG_Driver/src/usb_dcd_int.c ****   if(pdev->cfg.low_power)
 353:../STLibs//STM32_USB-Host-Device_Lib_V2.1.0/Libraries/STM32_USB_OTG_Driver/src/usb_dcd_int.c ****   {
 354:../STLibs//STM32_USB-Host-Device_Lib_V2.1.0/Libraries/STM32_USB_OTG_Driver/src/usb_dcd_int.c ****     /* un-gate USB Core clock */
 355:../STLibs//STM32_USB-Host-Device_Lib_V2.1.0/Libraries/STM32_USB_OTG_Driver/src/usb_dcd_int.c ****     power.d32 = USB_OTG_READ_REG32(&pdev->regs.PCGCCTL);
 356:../STLibs//STM32_USB-Host-Device_Lib_V2.1.0/Libraries/STM32_USB_OTG_Driver/src/usb_dcd_int.c ****     power.b.gatehclk = 0;
 357:../STLibs//STM32_USB-Host-Device_Lib_V2.1.0/Libraries/STM32_USB_OTG_Driver/src/usb_dcd_int.c ****     power.b.stoppclk = 0;
 358:../STLibs//STM32_USB-Host-Device_Lib_V2.1.0/Libraries/STM32_USB_OTG_Driver/src/usb_dcd_int.c ****     USB_OTG_WRITE_REG32(pdev->regs.PCGCCTL, power.d32);
 359:../STLibs//STM32_USB-Host-Device_Lib_V2.1.0/Libraries/STM32_USB_OTG_Driver/src/usb_dcd_int.c ****   }
 360:../STLibs//STM32_USB-Host-Device_Lib_V2.1.0/Libraries/STM32_USB_OTG_Driver/src/usb_dcd_int.c ****   
 361:../STLibs//STM32_USB-Host-Device_Lib_V2.1.0/Libraries/STM32_USB_OTG_Driver/src/usb_dcd_int.c ****   /* Clear the Remote Wake-up Signaling */
 362:../STLibs//STM32_USB-Host-Device_Lib_V2.1.0/Libraries/STM32_USB_OTG_Driver/src/usb_dcd_int.c ****   devctl.d32 = 0;
 363:../STLibs//STM32_USB-Host-Device_Lib_V2.1.0/Libraries/STM32_USB_OTG_Driver/src/usb_dcd_int.c ****   devctl.b.rmtwkupsig = 1;
 364:../STLibs//STM32_USB-Host-Device_Lib_V2.1.0/Libraries/STM32_USB_OTG_Driver/src/usb_dcd_int.c ****   USB_OTG_MODIFY_REG32(&pdev->regs.DREGS->DCTL, devctl.d32, 0);
 365:../STLibs//STM32_USB-Host-Device_Lib_V2.1.0/Libraries/STM32_USB_OTG_Driver/src/usb_dcd_int.c ****   
 366:../STLibs//STM32_USB-Host-Device_Lib_V2.1.0/Libraries/STM32_USB_OTG_Driver/src/usb_dcd_int.c ****   /* Inform upper layer by the Resume Event */
 367:../STLibs//STM32_USB-Host-Device_Lib_V2.1.0/Libraries/STM32_USB_OTG_Driver/src/usb_dcd_int.c ****   USBD_DCD_INT_fops->Resume (pdev);
 368:../STLibs//STM32_USB-Host-Device_Lib_V2.1.0/Libraries/STM32_USB_OTG_Driver/src/usb_dcd_int.c ****   
 369:../STLibs//STM32_USB-Host-Device_Lib_V2.1.0/Libraries/STM32_USB_OTG_Driver/src/usb_dcd_int.c ****   /* Clear interrupt */
 370:../STLibs//STM32_USB-Host-Device_Lib_V2.1.0/Libraries/STM32_USB_OTG_Driver/src/usb_dcd_int.c ****   gintsts.d32 = 0;
 371:../STLibs//STM32_USB-Host-Device_Lib_V2.1.0/Libraries/STM32_USB_OTG_Driver/src/usb_dcd_int.c ****   gintsts.b.wkupintr = 1;
 372:../STLibs//STM32_USB-Host-Device_Lib_V2.1.0/Libraries/STM32_USB_OTG_Driver/src/usb_dcd_int.c ****   USB_OTG_WRITE_REG32 (&pdev->regs.GREGS->GINTSTS, gintsts.d32);
 373:../STLibs//STM32_USB-Host-Device_Lib_V2.1.0/Libraries/STM32_USB_OTG_Driver/src/usb_dcd_int.c ****   return 1;
 374:../STLibs//STM32_USB-Host-Device_Lib_V2.1.0/Libraries/STM32_USB_OTG_Driver/src/usb_dcd_int.c **** }
 375:../STLibs//STM32_USB-Host-Device_Lib_V2.1.0/Libraries/STM32_USB_OTG_Driver/src/usb_dcd_int.c **** 
 376:../STLibs//STM32_USB-Host-Device_Lib_V2.1.0/Libraries/STM32_USB_OTG_Driver/src/usb_dcd_int.c **** /**
 377:../STLibs//STM32_USB-Host-Device_Lib_V2.1.0/Libraries/STM32_USB_OTG_Driver/src/usb_dcd_int.c **** * @brief  USB_OTG_HandleUSBSuspend_ISR
 378:../STLibs//STM32_USB-Host-Device_Lib_V2.1.0/Libraries/STM32_USB_OTG_Driver/src/usb_dcd_int.c **** *         Indicates that SUSPEND state has been detected on the USB
 379:../STLibs//STM32_USB-Host-Device_Lib_V2.1.0/Libraries/STM32_USB_OTG_Driver/src/usb_dcd_int.c **** * @param  pdev: device instance
 380:../STLibs//STM32_USB-Host-Device_Lib_V2.1.0/Libraries/STM32_USB_OTG_Driver/src/usb_dcd_int.c **** * @retval status
 381:../STLibs//STM32_USB-Host-Device_Lib_V2.1.0/Libraries/STM32_USB_OTG_Driver/src/usb_dcd_int.c **** */
 382:../STLibs//STM32_USB-Host-Device_Lib_V2.1.0/Libraries/STM32_USB_OTG_Driver/src/usb_dcd_int.c **** static uint32_t DCD_HandleUSBSuspend_ISR(USB_OTG_CORE_HANDLE *pdev)
 383:../STLibs//STM32_USB-Host-Device_Lib_V2.1.0/Libraries/STM32_USB_OTG_Driver/src/usb_dcd_int.c **** {
 384:../STLibs//STM32_USB-Host-Device_Lib_V2.1.0/Libraries/STM32_USB_OTG_Driver/src/usb_dcd_int.c ****   USB_OTG_GINTSTS_TypeDef  gintsts;
 385:../STLibs//STM32_USB-Host-Device_Lib_V2.1.0/Libraries/STM32_USB_OTG_Driver/src/usb_dcd_int.c ****   USB_OTG_PCGCCTL_TypeDef  power;
 386:../STLibs//STM32_USB-Host-Device_Lib_V2.1.0/Libraries/STM32_USB_OTG_Driver/src/usb_dcd_int.c ****   USB_OTG_DSTS_TypeDef     dsts;
 387:../STLibs//STM32_USB-Host-Device_Lib_V2.1.0/Libraries/STM32_USB_OTG_Driver/src/usb_dcd_int.c ****   __IO uint8_t prev_status = 0;
 388:../STLibs//STM32_USB-Host-Device_Lib_V2.1.0/Libraries/STM32_USB_OTG_Driver/src/usb_dcd_int.c ****   
 389:../STLibs//STM32_USB-Host-Device_Lib_V2.1.0/Libraries/STM32_USB_OTG_Driver/src/usb_dcd_int.c ****   prev_status = pdev->dev.device_status;
 390:../STLibs//STM32_USB-Host-Device_Lib_V2.1.0/Libraries/STM32_USB_OTG_Driver/src/usb_dcd_int.c ****   USBD_DCD_INT_fops->Suspend (pdev);      
 391:../STLibs//STM32_USB-Host-Device_Lib_V2.1.0/Libraries/STM32_USB_OTG_Driver/src/usb_dcd_int.c ****   
 392:../STLibs//STM32_USB-Host-Device_Lib_V2.1.0/Libraries/STM32_USB_OTG_Driver/src/usb_dcd_int.c ****   dsts.d32 = USB_OTG_READ_REG32(&pdev->regs.DREGS->DSTS);
 393:../STLibs//STM32_USB-Host-Device_Lib_V2.1.0/Libraries/STM32_USB_OTG_Driver/src/usb_dcd_int.c ****     
 394:../STLibs//STM32_USB-Host-Device_Lib_V2.1.0/Libraries/STM32_USB_OTG_Driver/src/usb_dcd_int.c ****   /* Clear interrupt */
 395:../STLibs//STM32_USB-Host-Device_Lib_V2.1.0/Libraries/STM32_USB_OTG_Driver/src/usb_dcd_int.c ****   gintsts.d32 = 0;
 396:../STLibs//STM32_USB-Host-Device_Lib_V2.1.0/Libraries/STM32_USB_OTG_Driver/src/usb_dcd_int.c ****   gintsts.b.usbsuspend = 1;
 397:../STLibs//STM32_USB-Host-Device_Lib_V2.1.0/Libraries/STM32_USB_OTG_Driver/src/usb_dcd_int.c ****   USB_OTG_WRITE_REG32(&pdev->regs.GREGS->GINTSTS, gintsts.d32);
 398:../STLibs//STM32_USB-Host-Device_Lib_V2.1.0/Libraries/STM32_USB_OTG_Driver/src/usb_dcd_int.c ****   
 399:../STLibs//STM32_USB-Host-Device_Lib_V2.1.0/Libraries/STM32_USB_OTG_Driver/src/usb_dcd_int.c ****   if((pdev->cfg.low_power) && (dsts.b.suspsts == 1)  && 
 400:../STLibs//STM32_USB-Host-Device_Lib_V2.1.0/Libraries/STM32_USB_OTG_Driver/src/usb_dcd_int.c ****     (pdev->dev.connection_status == 1) && 
 401:../STLibs//STM32_USB-Host-Device_Lib_V2.1.0/Libraries/STM32_USB_OTG_Driver/src/usb_dcd_int.c ****     (prev_status  == USB_OTG_CONFIGURED))
 402:../STLibs//STM32_USB-Host-Device_Lib_V2.1.0/Libraries/STM32_USB_OTG_Driver/src/usb_dcd_int.c ****   {
 403:../STLibs//STM32_USB-Host-Device_Lib_V2.1.0/Libraries/STM32_USB_OTG_Driver/src/usb_dcd_int.c **** 	/*  switch-off the clocks */
 404:../STLibs//STM32_USB-Host-Device_Lib_V2.1.0/Libraries/STM32_USB_OTG_Driver/src/usb_dcd_int.c ****     power.d32 = 0;
 405:../STLibs//STM32_USB-Host-Device_Lib_V2.1.0/Libraries/STM32_USB_OTG_Driver/src/usb_dcd_int.c ****     power.b.stoppclk = 1;
 406:../STLibs//STM32_USB-Host-Device_Lib_V2.1.0/Libraries/STM32_USB_OTG_Driver/src/usb_dcd_int.c ****     USB_OTG_MODIFY_REG32(pdev->regs.PCGCCTL, 0, power.d32);  
 407:../STLibs//STM32_USB-Host-Device_Lib_V2.1.0/Libraries/STM32_USB_OTG_Driver/src/usb_dcd_int.c ****     
 408:../STLibs//STM32_USB-Host-Device_Lib_V2.1.0/Libraries/STM32_USB_OTG_Driver/src/usb_dcd_int.c ****     power.b.gatehclk = 1;
 409:../STLibs//STM32_USB-Host-Device_Lib_V2.1.0/Libraries/STM32_USB_OTG_Driver/src/usb_dcd_int.c ****     USB_OTG_MODIFY_REG32(pdev->regs.PCGCCTL, 0, power.d32);
 410:../STLibs//STM32_USB-Host-Device_Lib_V2.1.0/Libraries/STM32_USB_OTG_Driver/src/usb_dcd_int.c ****     
 411:../STLibs//STM32_USB-Host-Device_Lib_V2.1.0/Libraries/STM32_USB_OTG_Driver/src/usb_dcd_int.c ****     /* Request to enter Sleep mode after exit from current ISR */
 412:../STLibs//STM32_USB-Host-Device_Lib_V2.1.0/Libraries/STM32_USB_OTG_Driver/src/usb_dcd_int.c ****     SCB->SCR |= (SCB_SCR_SLEEPDEEP_Msk | SCB_SCR_SLEEPONEXIT_Msk);
 413:../STLibs//STM32_USB-Host-Device_Lib_V2.1.0/Libraries/STM32_USB_OTG_Driver/src/usb_dcd_int.c ****   }
 414:../STLibs//STM32_USB-Host-Device_Lib_V2.1.0/Libraries/STM32_USB_OTG_Driver/src/usb_dcd_int.c ****   return 1;
 415:../STLibs//STM32_USB-Host-Device_Lib_V2.1.0/Libraries/STM32_USB_OTG_Driver/src/usb_dcd_int.c **** }
 416:../STLibs//STM32_USB-Host-Device_Lib_V2.1.0/Libraries/STM32_USB_OTG_Driver/src/usb_dcd_int.c **** 
 417:../STLibs//STM32_USB-Host-Device_Lib_V2.1.0/Libraries/STM32_USB_OTG_Driver/src/usb_dcd_int.c **** /**
 418:../STLibs//STM32_USB-Host-Device_Lib_V2.1.0/Libraries/STM32_USB_OTG_Driver/src/usb_dcd_int.c **** * @brief  DCD_HandleInEP_ISR
 419:../STLibs//STM32_USB-Host-Device_Lib_V2.1.0/Libraries/STM32_USB_OTG_Driver/src/usb_dcd_int.c **** *         Indicates that an IN EP has a pending Interrupt
 420:../STLibs//STM32_USB-Host-Device_Lib_V2.1.0/Libraries/STM32_USB_OTG_Driver/src/usb_dcd_int.c **** * @param  pdev: device instance
 421:../STLibs//STM32_USB-Host-Device_Lib_V2.1.0/Libraries/STM32_USB_OTG_Driver/src/usb_dcd_int.c **** * @retval status
 422:../STLibs//STM32_USB-Host-Device_Lib_V2.1.0/Libraries/STM32_USB_OTG_Driver/src/usb_dcd_int.c **** */
 423:../STLibs//STM32_USB-Host-Device_Lib_V2.1.0/Libraries/STM32_USB_OTG_Driver/src/usb_dcd_int.c **** static uint32_t DCD_HandleInEP_ISR(USB_OTG_CORE_HANDLE *pdev)
 424:../STLibs//STM32_USB-Host-Device_Lib_V2.1.0/Libraries/STM32_USB_OTG_Driver/src/usb_dcd_int.c **** {
 425:../STLibs//STM32_USB-Host-Device_Lib_V2.1.0/Libraries/STM32_USB_OTG_Driver/src/usb_dcd_int.c ****   USB_OTG_DIEPINTn_TypeDef  diepint;
 426:../STLibs//STM32_USB-Host-Device_Lib_V2.1.0/Libraries/STM32_USB_OTG_Driver/src/usb_dcd_int.c ****   
 427:../STLibs//STM32_USB-Host-Device_Lib_V2.1.0/Libraries/STM32_USB_OTG_Driver/src/usb_dcd_int.c ****   uint32_t ep_intr;
 428:../STLibs//STM32_USB-Host-Device_Lib_V2.1.0/Libraries/STM32_USB_OTG_Driver/src/usb_dcd_int.c ****   uint32_t epnum = 0;
 429:../STLibs//STM32_USB-Host-Device_Lib_V2.1.0/Libraries/STM32_USB_OTG_Driver/src/usb_dcd_int.c ****   uint32_t fifoemptymsk;
 430:../STLibs//STM32_USB-Host-Device_Lib_V2.1.0/Libraries/STM32_USB_OTG_Driver/src/usb_dcd_int.c ****   diepint.d32 = 0;
 431:../STLibs//STM32_USB-Host-Device_Lib_V2.1.0/Libraries/STM32_USB_OTG_Driver/src/usb_dcd_int.c ****   ep_intr = USB_OTG_ReadDevAllInEPItr(pdev);
 432:../STLibs//STM32_USB-Host-Device_Lib_V2.1.0/Libraries/STM32_USB_OTG_Driver/src/usb_dcd_int.c ****   
 433:../STLibs//STM32_USB-Host-Device_Lib_V2.1.0/Libraries/STM32_USB_OTG_Driver/src/usb_dcd_int.c ****   while ( ep_intr )
 434:../STLibs//STM32_USB-Host-Device_Lib_V2.1.0/Libraries/STM32_USB_OTG_Driver/src/usb_dcd_int.c ****   {
 435:../STLibs//STM32_USB-Host-Device_Lib_V2.1.0/Libraries/STM32_USB_OTG_Driver/src/usb_dcd_int.c ****     if (ep_intr&0x1) /* In ITR */
 436:../STLibs//STM32_USB-Host-Device_Lib_V2.1.0/Libraries/STM32_USB_OTG_Driver/src/usb_dcd_int.c ****     {
 437:../STLibs//STM32_USB-Host-Device_Lib_V2.1.0/Libraries/STM32_USB_OTG_Driver/src/usb_dcd_int.c ****       diepint.d32 = DCD_ReadDevInEP(pdev , epnum); /* Get In ITR status */
 438:../STLibs//STM32_USB-Host-Device_Lib_V2.1.0/Libraries/STM32_USB_OTG_Driver/src/usb_dcd_int.c ****       if ( diepint.b.xfercompl )
 439:../STLibs//STM32_USB-Host-Device_Lib_V2.1.0/Libraries/STM32_USB_OTG_Driver/src/usb_dcd_int.c ****       {
 440:../STLibs//STM32_USB-Host-Device_Lib_V2.1.0/Libraries/STM32_USB_OTG_Driver/src/usb_dcd_int.c ****         fifoemptymsk = 0x1 << epnum;
 441:../STLibs//STM32_USB-Host-Device_Lib_V2.1.0/Libraries/STM32_USB_OTG_Driver/src/usb_dcd_int.c ****         USB_OTG_MODIFY_REG32(&pdev->regs.DREGS->DIEPEMPMSK, fifoemptymsk, 0);
 442:../STLibs//STM32_USB-Host-Device_Lib_V2.1.0/Libraries/STM32_USB_OTG_Driver/src/usb_dcd_int.c ****         CLEAR_IN_EP_INTR(epnum, xfercompl);
 443:../STLibs//STM32_USB-Host-Device_Lib_V2.1.0/Libraries/STM32_USB_OTG_Driver/src/usb_dcd_int.c ****         /* TX COMPLETE */
 444:../STLibs//STM32_USB-Host-Device_Lib_V2.1.0/Libraries/STM32_USB_OTG_Driver/src/usb_dcd_int.c ****         USBD_DCD_INT_fops->DataInStage(pdev , epnum);
 445:../STLibs//STM32_USB-Host-Device_Lib_V2.1.0/Libraries/STM32_USB_OTG_Driver/src/usb_dcd_int.c ****         
 446:../STLibs//STM32_USB-Host-Device_Lib_V2.1.0/Libraries/STM32_USB_OTG_Driver/src/usb_dcd_int.c ****         if (pdev->cfg.dma_enable == 1)
 447:../STLibs//STM32_USB-Host-Device_Lib_V2.1.0/Libraries/STM32_USB_OTG_Driver/src/usb_dcd_int.c ****         {
 448:../STLibs//STM32_USB-Host-Device_Lib_V2.1.0/Libraries/STM32_USB_OTG_Driver/src/usb_dcd_int.c ****           if((epnum == 0) && (pdev->dev.device_state == USB_OTG_EP0_STATUS_IN))
 449:../STLibs//STM32_USB-Host-Device_Lib_V2.1.0/Libraries/STM32_USB_OTG_Driver/src/usb_dcd_int.c ****           {
 450:../STLibs//STM32_USB-Host-Device_Lib_V2.1.0/Libraries/STM32_USB_OTG_Driver/src/usb_dcd_int.c ****             /* prepare to rx more setup packets */
 451:../STLibs//STM32_USB-Host-Device_Lib_V2.1.0/Libraries/STM32_USB_OTG_Driver/src/usb_dcd_int.c ****             USB_OTG_EP0_OutStart(pdev);
 452:../STLibs//STM32_USB-Host-Device_Lib_V2.1.0/Libraries/STM32_USB_OTG_Driver/src/usb_dcd_int.c ****           }
 453:../STLibs//STM32_USB-Host-Device_Lib_V2.1.0/Libraries/STM32_USB_OTG_Driver/src/usb_dcd_int.c ****         }           
 454:../STLibs//STM32_USB-Host-Device_Lib_V2.1.0/Libraries/STM32_USB_OTG_Driver/src/usb_dcd_int.c ****       }
 455:../STLibs//STM32_USB-Host-Device_Lib_V2.1.0/Libraries/STM32_USB_OTG_Driver/src/usb_dcd_int.c ****       if ( diepint.b.timeout )
 456:../STLibs//STM32_USB-Host-Device_Lib_V2.1.0/Libraries/STM32_USB_OTG_Driver/src/usb_dcd_int.c ****       {
 457:../STLibs//STM32_USB-Host-Device_Lib_V2.1.0/Libraries/STM32_USB_OTG_Driver/src/usb_dcd_int.c ****         CLEAR_IN_EP_INTR(epnum, timeout);
 458:../STLibs//STM32_USB-Host-Device_Lib_V2.1.0/Libraries/STM32_USB_OTG_Driver/src/usb_dcd_int.c ****       }
 459:../STLibs//STM32_USB-Host-Device_Lib_V2.1.0/Libraries/STM32_USB_OTG_Driver/src/usb_dcd_int.c ****       if (diepint.b.intktxfemp)
 460:../STLibs//STM32_USB-Host-Device_Lib_V2.1.0/Libraries/STM32_USB_OTG_Driver/src/usb_dcd_int.c ****       {
 461:../STLibs//STM32_USB-Host-Device_Lib_V2.1.0/Libraries/STM32_USB_OTG_Driver/src/usb_dcd_int.c ****         CLEAR_IN_EP_INTR(epnum, intktxfemp);
 462:../STLibs//STM32_USB-Host-Device_Lib_V2.1.0/Libraries/STM32_USB_OTG_Driver/src/usb_dcd_int.c ****       }
 463:../STLibs//STM32_USB-Host-Device_Lib_V2.1.0/Libraries/STM32_USB_OTG_Driver/src/usb_dcd_int.c ****       if (diepint.b.inepnakeff)
 464:../STLibs//STM32_USB-Host-Device_Lib_V2.1.0/Libraries/STM32_USB_OTG_Driver/src/usb_dcd_int.c ****       {
 465:../STLibs//STM32_USB-Host-Device_Lib_V2.1.0/Libraries/STM32_USB_OTG_Driver/src/usb_dcd_int.c ****         CLEAR_IN_EP_INTR(epnum, inepnakeff);
 466:../STLibs//STM32_USB-Host-Device_Lib_V2.1.0/Libraries/STM32_USB_OTG_Driver/src/usb_dcd_int.c ****       }
 467:../STLibs//STM32_USB-Host-Device_Lib_V2.1.0/Libraries/STM32_USB_OTG_Driver/src/usb_dcd_int.c ****       if ( diepint.b.epdisabled )
 468:../STLibs//STM32_USB-Host-Device_Lib_V2.1.0/Libraries/STM32_USB_OTG_Driver/src/usb_dcd_int.c ****       {
 469:../STLibs//STM32_USB-Host-Device_Lib_V2.1.0/Libraries/STM32_USB_OTG_Driver/src/usb_dcd_int.c ****         CLEAR_IN_EP_INTR(epnum, epdisabled);
 470:../STLibs//STM32_USB-Host-Device_Lib_V2.1.0/Libraries/STM32_USB_OTG_Driver/src/usb_dcd_int.c ****       }       
 471:../STLibs//STM32_USB-Host-Device_Lib_V2.1.0/Libraries/STM32_USB_OTG_Driver/src/usb_dcd_int.c ****       if (diepint.b.emptyintr)
 472:../STLibs//STM32_USB-Host-Device_Lib_V2.1.0/Libraries/STM32_USB_OTG_Driver/src/usb_dcd_int.c ****       {
 473:../STLibs//STM32_USB-Host-Device_Lib_V2.1.0/Libraries/STM32_USB_OTG_Driver/src/usb_dcd_int.c ****         
 474:../STLibs//STM32_USB-Host-Device_Lib_V2.1.0/Libraries/STM32_USB_OTG_Driver/src/usb_dcd_int.c ****         DCD_WriteEmptyTxFifo(pdev , epnum);
 475:../STLibs//STM32_USB-Host-Device_Lib_V2.1.0/Libraries/STM32_USB_OTG_Driver/src/usb_dcd_int.c ****         
 476:../STLibs//STM32_USB-Host-Device_Lib_V2.1.0/Libraries/STM32_USB_OTG_Driver/src/usb_dcd_int.c ****         CLEAR_IN_EP_INTR(epnum, emptyintr);
 477:../STLibs//STM32_USB-Host-Device_Lib_V2.1.0/Libraries/STM32_USB_OTG_Driver/src/usb_dcd_int.c ****       }
 478:../STLibs//STM32_USB-Host-Device_Lib_V2.1.0/Libraries/STM32_USB_OTG_Driver/src/usb_dcd_int.c ****     }
 479:../STLibs//STM32_USB-Host-Device_Lib_V2.1.0/Libraries/STM32_USB_OTG_Driver/src/usb_dcd_int.c ****     epnum++;
 480:../STLibs//STM32_USB-Host-Device_Lib_V2.1.0/Libraries/STM32_USB_OTG_Driver/src/usb_dcd_int.c ****     ep_intr >>= 1;
 481:../STLibs//STM32_USB-Host-Device_Lib_V2.1.0/Libraries/STM32_USB_OTG_Driver/src/usb_dcd_int.c ****   }
 482:../STLibs//STM32_USB-Host-Device_Lib_V2.1.0/Libraries/STM32_USB_OTG_Driver/src/usb_dcd_int.c ****   
 483:../STLibs//STM32_USB-Host-Device_Lib_V2.1.0/Libraries/STM32_USB_OTG_Driver/src/usb_dcd_int.c ****   return 1;
 484:../STLibs//STM32_USB-Host-Device_Lib_V2.1.0/Libraries/STM32_USB_OTG_Driver/src/usb_dcd_int.c **** }
 485:../STLibs//STM32_USB-Host-Device_Lib_V2.1.0/Libraries/STM32_USB_OTG_Driver/src/usb_dcd_int.c **** 
 486:../STLibs//STM32_USB-Host-Device_Lib_V2.1.0/Libraries/STM32_USB_OTG_Driver/src/usb_dcd_int.c **** /**
 487:../STLibs//STM32_USB-Host-Device_Lib_V2.1.0/Libraries/STM32_USB_OTG_Driver/src/usb_dcd_int.c **** * @brief  DCD_HandleOutEP_ISR
 488:../STLibs//STM32_USB-Host-Device_Lib_V2.1.0/Libraries/STM32_USB_OTG_Driver/src/usb_dcd_int.c **** *         Indicates that an OUT EP has a pending Interrupt
 489:../STLibs//STM32_USB-Host-Device_Lib_V2.1.0/Libraries/STM32_USB_OTG_Driver/src/usb_dcd_int.c **** * @param  pdev: device instance
 490:../STLibs//STM32_USB-Host-Device_Lib_V2.1.0/Libraries/STM32_USB_OTG_Driver/src/usb_dcd_int.c **** * @retval status
 491:../STLibs//STM32_USB-Host-Device_Lib_V2.1.0/Libraries/STM32_USB_OTG_Driver/src/usb_dcd_int.c **** */
 492:../STLibs//STM32_USB-Host-Device_Lib_V2.1.0/Libraries/STM32_USB_OTG_Driver/src/usb_dcd_int.c **** static uint32_t DCD_HandleOutEP_ISR(USB_OTG_CORE_HANDLE *pdev)
 493:../STLibs//STM32_USB-Host-Device_Lib_V2.1.0/Libraries/STM32_USB_OTG_Driver/src/usb_dcd_int.c **** {
 494:../STLibs//STM32_USB-Host-Device_Lib_V2.1.0/Libraries/STM32_USB_OTG_Driver/src/usb_dcd_int.c ****   uint32_t ep_intr;
 495:../STLibs//STM32_USB-Host-Device_Lib_V2.1.0/Libraries/STM32_USB_OTG_Driver/src/usb_dcd_int.c ****   USB_OTG_DOEPINTn_TypeDef  doepint;
 496:../STLibs//STM32_USB-Host-Device_Lib_V2.1.0/Libraries/STM32_USB_OTG_Driver/src/usb_dcd_int.c ****   USB_OTG_DEPXFRSIZ_TypeDef  deptsiz;
 497:../STLibs//STM32_USB-Host-Device_Lib_V2.1.0/Libraries/STM32_USB_OTG_Driver/src/usb_dcd_int.c ****   uint32_t epnum = 0;
 498:../STLibs//STM32_USB-Host-Device_Lib_V2.1.0/Libraries/STM32_USB_OTG_Driver/src/usb_dcd_int.c ****   
 499:../STLibs//STM32_USB-Host-Device_Lib_V2.1.0/Libraries/STM32_USB_OTG_Driver/src/usb_dcd_int.c ****   doepint.d32 = 0;
 500:../STLibs//STM32_USB-Host-Device_Lib_V2.1.0/Libraries/STM32_USB_OTG_Driver/src/usb_dcd_int.c ****   
 501:../STLibs//STM32_USB-Host-Device_Lib_V2.1.0/Libraries/STM32_USB_OTG_Driver/src/usb_dcd_int.c ****   /* Read in the device interrupt bits */
 502:../STLibs//STM32_USB-Host-Device_Lib_V2.1.0/Libraries/STM32_USB_OTG_Driver/src/usb_dcd_int.c ****   ep_intr = USB_OTG_ReadDevAllOutEp_itr(pdev);
  85              		.loc 1 502 0
  86 002e 2046     		mov	r0, r4
  87 0030 FFF7FEFF 		bl	USB_OTG_ReadDevAllOutEp_itr
  88              	.LVL7:
 503:../STLibs//STM32_USB-Host-Device_Lib_V2.1.0/Libraries/STM32_USB_OTG_Driver/src/usb_dcd_int.c ****   
 504:../STLibs//STM32_USB-Host-Device_Lib_V2.1.0/Libraries/STM32_USB_OTG_Driver/src/usb_dcd_int.c ****   while ( ep_intr )
 505:../STLibs//STM32_USB-Host-Device_Lib_V2.1.0/Libraries/STM32_USB_OTG_Driver/src/usb_dcd_int.c ****   {
 506:../STLibs//STM32_USB-Host-Device_Lib_V2.1.0/Libraries/STM32_USB_OTG_Driver/src/usb_dcd_int.c ****     if (ep_intr&0x1)
 507:../STLibs//STM32_USB-Host-Device_Lib_V2.1.0/Libraries/STM32_USB_OTG_Driver/src/usb_dcd_int.c ****     {
 508:../STLibs//STM32_USB-Host-Device_Lib_V2.1.0/Libraries/STM32_USB_OTG_Driver/src/usb_dcd_int.c ****       
 509:../STLibs//STM32_USB-Host-Device_Lib_V2.1.0/Libraries/STM32_USB_OTG_Driver/src/usb_dcd_int.c ****       doepint.d32 = USB_OTG_ReadDevOutEP_itr(pdev, epnum);
 510:../STLibs//STM32_USB-Host-Device_Lib_V2.1.0/Libraries/STM32_USB_OTG_Driver/src/usb_dcd_int.c ****       
 511:../STLibs//STM32_USB-Host-Device_Lib_V2.1.0/Libraries/STM32_USB_OTG_Driver/src/usb_dcd_int.c ****       /* Transfer complete */
 512:../STLibs//STM32_USB-Host-Device_Lib_V2.1.0/Libraries/STM32_USB_OTG_Driver/src/usb_dcd_int.c ****       if ( doepint.b.xfercompl )
 513:../STLibs//STM32_USB-Host-Device_Lib_V2.1.0/Libraries/STM32_USB_OTG_Driver/src/usb_dcd_int.c ****       {
 514:../STLibs//STM32_USB-Host-Device_Lib_V2.1.0/Libraries/STM32_USB_OTG_Driver/src/usb_dcd_int.c ****         /* Clear the bit in DOEPINTn for this interrupt */
 515:../STLibs//STM32_USB-Host-Device_Lib_V2.1.0/Libraries/STM32_USB_OTG_Driver/src/usb_dcd_int.c ****         CLEAR_OUT_EP_INTR(epnum, xfercompl);
 516:../STLibs//STM32_USB-Host-Device_Lib_V2.1.0/Libraries/STM32_USB_OTG_Driver/src/usb_dcd_int.c ****         if (pdev->cfg.dma_enable == 1)
 517:../STLibs//STM32_USB-Host-Device_Lib_V2.1.0/Libraries/STM32_USB_OTG_Driver/src/usb_dcd_int.c ****         {
 518:../STLibs//STM32_USB-Host-Device_Lib_V2.1.0/Libraries/STM32_USB_OTG_Driver/src/usb_dcd_int.c ****           deptsiz.d32 = USB_OTG_READ_REG32(&(pdev->regs.OUTEP_REGS[epnum]->DOEPTSIZ));
 519:../STLibs//STM32_USB-Host-Device_Lib_V2.1.0/Libraries/STM32_USB_OTG_Driver/src/usb_dcd_int.c ****           /*ToDo : handle more than one single MPS size packet */
 520:../STLibs//STM32_USB-Host-Device_Lib_V2.1.0/Libraries/STM32_USB_OTG_Driver/src/usb_dcd_int.c ****           pdev->dev.out_ep[epnum].xfer_count = pdev->dev.out_ep[epnum].maxpacket - \
 521:../STLibs//STM32_USB-Host-Device_Lib_V2.1.0/Libraries/STM32_USB_OTG_Driver/src/usb_dcd_int.c ****             deptsiz.b.xfersize;
 522:../STLibs//STM32_USB-Host-Device_Lib_V2.1.0/Libraries/STM32_USB_OTG_Driver/src/usb_dcd_int.c ****         }
 523:../STLibs//STM32_USB-Host-Device_Lib_V2.1.0/Libraries/STM32_USB_OTG_Driver/src/usb_dcd_int.c ****         /* Inform upper layer: data ready */
 524:../STLibs//STM32_USB-Host-Device_Lib_V2.1.0/Libraries/STM32_USB_OTG_Driver/src/usb_dcd_int.c ****         /* RX COMPLETE */
 525:../STLibs//STM32_USB-Host-Device_Lib_V2.1.0/Libraries/STM32_USB_OTG_Driver/src/usb_dcd_int.c ****         USBD_DCD_INT_fops->DataOutStage(pdev , epnum);
 526:../STLibs//STM32_USB-Host-Device_Lib_V2.1.0/Libraries/STM32_USB_OTG_Driver/src/usb_dcd_int.c ****         
 527:../STLibs//STM32_USB-Host-Device_Lib_V2.1.0/Libraries/STM32_USB_OTG_Driver/src/usb_dcd_int.c ****         if (pdev->cfg.dma_enable == 1)
 528:../STLibs//STM32_USB-Host-Device_Lib_V2.1.0/Libraries/STM32_USB_OTG_Driver/src/usb_dcd_int.c ****         {
 529:../STLibs//STM32_USB-Host-Device_Lib_V2.1.0/Libraries/STM32_USB_OTG_Driver/src/usb_dcd_int.c ****           if((epnum == 0) && (pdev->dev.device_state == USB_OTG_EP0_STATUS_OUT))
 530:../STLibs//STM32_USB-Host-Device_Lib_V2.1.0/Libraries/STM32_USB_OTG_Driver/src/usb_dcd_int.c ****           {
 531:../STLibs//STM32_USB-Host-Device_Lib_V2.1.0/Libraries/STM32_USB_OTG_Driver/src/usb_dcd_int.c ****             /* prepare to rx more setup packets */
 532:../STLibs//STM32_USB-Host-Device_Lib_V2.1.0/Libraries/STM32_USB_OTG_Driver/src/usb_dcd_int.c ****             USB_OTG_EP0_OutStart(pdev);
 533:../STLibs//STM32_USB-Host-Device_Lib_V2.1.0/Libraries/STM32_USB_OTG_Driver/src/usb_dcd_int.c ****           }
 534:../STLibs//STM32_USB-Host-Device_Lib_V2.1.0/Libraries/STM32_USB_OTG_Driver/src/usb_dcd_int.c ****         }        
 535:../STLibs//STM32_USB-Host-Device_Lib_V2.1.0/Libraries/STM32_USB_OTG_Driver/src/usb_dcd_int.c ****       }
 536:../STLibs//STM32_USB-Host-Device_Lib_V2.1.0/Libraries/STM32_USB_OTG_Driver/src/usb_dcd_int.c ****       /* Endpoint disable  */
 537:../STLibs//STM32_USB-Host-Device_Lib_V2.1.0/Libraries/STM32_USB_OTG_Driver/src/usb_dcd_int.c ****       if ( doepint.b.epdisabled )
 538:../STLibs//STM32_USB-Host-Device_Lib_V2.1.0/Libraries/STM32_USB_OTG_Driver/src/usb_dcd_int.c ****       {
 539:../STLibs//STM32_USB-Host-Device_Lib_V2.1.0/Libraries/STM32_USB_OTG_Driver/src/usb_dcd_int.c ****         /* Clear the bit in DOEPINTn for this interrupt */
 540:../STLibs//STM32_USB-Host-Device_Lib_V2.1.0/Libraries/STM32_USB_OTG_Driver/src/usb_dcd_int.c ****         CLEAR_OUT_EP_INTR(epnum, epdisabled);
 541:../STLibs//STM32_USB-Host-Device_Lib_V2.1.0/Libraries/STM32_USB_OTG_Driver/src/usb_dcd_int.c ****       }
 542:../STLibs//STM32_USB-Host-Device_Lib_V2.1.0/Libraries/STM32_USB_OTG_Driver/src/usb_dcd_int.c ****       /* Setup Phase Done (control EPs) */
 543:../STLibs//STM32_USB-Host-Device_Lib_V2.1.0/Libraries/STM32_USB_OTG_Driver/src/usb_dcd_int.c ****       if ( doepint.b.setup )
 544:../STLibs//STM32_USB-Host-Device_Lib_V2.1.0/Libraries/STM32_USB_OTG_Driver/src/usb_dcd_int.c ****       {
 545:../STLibs//STM32_USB-Host-Device_Lib_V2.1.0/Libraries/STM32_USB_OTG_Driver/src/usb_dcd_int.c ****         
 546:../STLibs//STM32_USB-Host-Device_Lib_V2.1.0/Libraries/STM32_USB_OTG_Driver/src/usb_dcd_int.c ****         /* inform the upper layer that a setup packet is available */
 547:../STLibs//STM32_USB-Host-Device_Lib_V2.1.0/Libraries/STM32_USB_OTG_Driver/src/usb_dcd_int.c ****         /* SETUP COMPLETE */
 548:../STLibs//STM32_USB-Host-Device_Lib_V2.1.0/Libraries/STM32_USB_OTG_Driver/src/usb_dcd_int.c ****         USBD_DCD_INT_fops->SetupStage(pdev);
  89              		.loc 1 548 0
  90 0034 DFF8BC92 		ldr	r9, .L125
 502:../STLibs//STM32_USB-Host-Device_Lib_V2.1.0/Libraries/STM32_USB_OTG_Driver/src/usb_dcd_int.c ****   
  91              		.loc 1 502 0
  92 0038 0746     		mov	r7, r0
  93              	.LVL8:
 497:../STLibs//STM32_USB-Host-Device_Lib_V2.1.0/Libraries/STM32_USB_OTG_Driver/src/usb_dcd_int.c ****   
  94              		.loc 1 497 0
  95 003a 0025     		movs	r5, #0
 540:../STLibs//STM32_USB-Host-Device_Lib_V2.1.0/Libraries/STM32_USB_OTG_Driver/src/usb_dcd_int.c ****       }
  96              		.loc 1 540 0
  97 003c 4FF0020B 		mov	fp, #2
  98              	.LVL9:
  99              	.L6:
 504:../STLibs//STM32_USB-Host-Device_Lib_V2.1.0/Libraries/STM32_USB_OTG_Driver/src/usb_dcd_int.c ****   {
 100              		.loc 1 504 0
 101 0040 002F     		cmp	r7, #0
 102 0042 40F00F81 		bne	.L15
 103              	.LVL10:
 104              	.LBE32:
 105              	.LBE31:
 224:../STLibs//STM32_USB-Host-Device_Lib_V2.1.0/Libraries/STM32_USB_OTG_Driver/src/usb_dcd_int.c ****     }    
 106              		.loc 1 224 0
 107 0046 0120     		movs	r0, #1
 108              	.L5:
 109              	.LVL11:
 227:../STLibs//STM32_USB-Host-Device_Lib_V2.1.0/Libraries/STM32_USB_OTG_Driver/src/usb_dcd_int.c ****     {
 110              		.loc 1 227 0
 111 0048 009B     		ldr	r3, [sp]
 112 004a 5907     		lsls	r1, r3, #29
 113 004c 0AD5     		bpl	.L16
 114              	.LVL12:
 115              	.LBB34:
 116              	.LBB35:
 431:../STLibs//STM32_USB-Host-Device_Lib_V2.1.0/Libraries/STM32_USB_OTG_Driver/src/usb_dcd_int.c ****   
 117              		.loc 1 431 0
 118 004e 2046     		mov	r0, r4
 119              	.LVL13:
 120 0050 FFF7FEFF 		bl	USB_OTG_ReadDevAllInEPItr
 121              	.LVL14:
 122 0054 2546     		mov	r5, r4
 123 0056 8146     		mov	r9, r0
 124              	.LVL15:
 428:../STLibs//STM32_USB-Host-Device_Lib_V2.1.0/Libraries/STM32_USB_OTG_Driver/src/usb_dcd_int.c ****   uint32_t fifoemptymsk;
 125              		.loc 1 428 0
 126 0058 0026     		movs	r6, #0
 127              	.LVL16:
 128              	.L17:
 433:../STLibs//STM32_USB-Host-Device_Lib_V2.1.0/Libraries/STM32_USB_OTG_Driver/src/usb_dcd_int.c ****   {
 129              		.loc 1 433 0
 130 005a B9F1000F 		cmp	r9, #0
 131 005e 40F04D81 		bne	.L31
 132              	.LVL17:
 133              	.LBE35:
 134              	.LBE34:
 229:../STLibs//STM32_USB-Host-Device_Lib_V2.1.0/Libraries/STM32_USB_OTG_Driver/src/usb_dcd_int.c ****     }
 135              		.loc 1 229 0
 136 0062 0120     		movs	r0, #1
 137              	.LVL18:
 138              	.L16:
 139 0064 5FFA88F7 		uxtb	r7, r8
 140              	.LVL19:
 232:../STLibs//STM32_USB-Host-Device_Lib_V2.1.0/Libraries/STM32_USB_OTG_Driver/src/usb_dcd_int.c ****     {
 141              		.loc 1 232 0
 142 0068 BD07     		lsls	r5, r7, #30
 143              	.LBB45:
 239:../STLibs//STM32_USB-Host-Device_Lib_V2.1.0/Libraries/STM32_USB_OTG_Driver/src/usb_dcd_int.c ****     }
 144              		.loc 1 239 0
 145 006a 42BF     		ittt	mi
 146 006c E368     		ldrmi	r3, [r4, #12]
 147 006e 0222     		movmi	r2, #2
 148              	.LVL20:
 149 0070 5A61     		strmi	r2, [r3, #20]
 150 0072 C8F30763 		ubfx	r3, r8, #24, #8
 151              	.LBE45:
 242:../STLibs//STM32_USB-Host-Device_Lib_V2.1.0/Libraries/STM32_USB_OTG_Driver/src/usb_dcd_int.c ****     {
 152              		.loc 1 242 0
 153 0076 1906     		lsls	r1, r3, #24
 154 0078 5FFA83F9 		uxtb	r9, r3
 155 007c 19D5     		bpl	.L33
 156              	.LVL21:
 157              	.LBB46:
 158              	.LBB47:
 352:../STLibs//STM32_USB-Host-Device_Lib_V2.1.0/Libraries/STM32_USB_OTG_Driver/src/usb_dcd_int.c ****   {
 159              		.loc 1 352 0
 160 007e A37A     		ldrb	r3, [r4, #10]	@ zero_extendqisi2
 161 0080 43B1     		cbz	r3, .L34
 355:../STLibs//STM32_USB-Host-Device_Lib_V2.1.0/Libraries/STM32_USB_OTG_Driver/src/usb_dcd_int.c ****     power.b.gatehclk = 0;
 162              		.loc 1 355 0
 163 0082 D4F80C31 		ldr	r3, [r4, #268]
 358:../STLibs//STM32_USB-Host-Device_Lib_V2.1.0/Libraries/STM32_USB_OTG_Driver/src/usb_dcd_int.c ****   }
 164              		.loc 1 358 0
 165 0086 D4F80C21 		ldr	r2, [r4, #268]
 166              	.LVL22:
 356:../STLibs//STM32_USB-Host-Device_Lib_V2.1.0/Libraries/STM32_USB_OTG_Driver/src/usb_dcd_int.c ****     power.b.stoppclk = 0;
 167              		.loc 1 356 0
 168 008a 6FF34103 		bfc	r3, #1, #1
 169              	.LVL23:
 357:../STLibs//STM32_USB-Host-Device_Lib_V2.1.0/Libraries/STM32_USB_OTG_Driver/src/usb_dcd_int.c ****     USB_OTG_WRITE_REG32(pdev->regs.PCGCCTL, power.d32);
 170              		.loc 1 357 0
 171 008e 6FF30003 		bfc	r3, #0, #1
 358:../STLibs//STM32_USB-Host-Device_Lib_V2.1.0/Libraries/STM32_USB_OTG_Driver/src/usb_dcd_int.c ****   }
 172              		.loc 1 358 0
 173 0092 1360     		str	r3, [r2]
 174              	.LVL24:
 175              	.L34:
 364:../STLibs//STM32_USB-Host-Device_Lib_V2.1.0/Libraries/STM32_USB_OTG_Driver/src/usb_dcd_int.c ****   
 176              		.loc 1 364 0
 177 0094 2269     		ldr	r2, [r4, #16]
 178              	.LVL25:
 179 0096 5368     		ldr	r3, [r2, #4]
 180              	.LVL26:
 181 0098 23F00103 		bic	r3, r3, #1
 182 009c 5360     		str	r3, [r2, #4]
 367:../STLibs//STM32_USB-Host-Device_Lib_V2.1.0/Libraries/STM32_USB_OTG_Driver/src/usb_dcd_int.c ****   
 183              		.loc 1 367 0
 184 009e 954B     		ldr	r3, .L125
 185 00a0 1B68     		ldr	r3, [r3]
 186 00a2 2046     		mov	r0, r4
 187              	.LVL27:
 188 00a4 9B69     		ldr	r3, [r3, #24]
 189 00a6 9847     		blx	r3
 190              	.LVL28:
 372:../STLibs//STM32_USB-Host-Device_Lib_V2.1.0/Libraries/STM32_USB_OTG_Driver/src/usb_dcd_int.c ****   return 1;
 191              		.loc 1 372 0
 192 00a8 E368     		ldr	r3, [r4, #12]
 193 00aa 4FF00042 		mov	r2, #-2147483648
 194              	.LVL29:
 195 00ae 5A61     		str	r2, [r3, #20]
 196              	.LVL30:
 197              	.LBE47:
 198              	.LBE46:
 244:../STLibs//STM32_USB-Host-Device_Lib_V2.1.0/Libraries/STM32_USB_OTG_Driver/src/usb_dcd_int.c ****     }
 199              		.loc 1 244 0
 200 00b0 0120     		movs	r0, #1
 201              	.LVL31:
 202              	.L33:
 203 00b2 C8F30728 		ubfx	r8, r8, #8, #8
 204              	.LVL32:
 247:../STLibs//STM32_USB-Host-Device_Lib_V2.1.0/Libraries/STM32_USB_OTG_Driver/src/usb_dcd_int.c ****     {
 205              		.loc 1 247 0
 206 00b6 18F0080F 		tst	r8, #8
 207 00ba 2DD0     		beq	.L35
 208              	.LVL33:
 209              	.LBB48:
 210              	.LBB49:
 387:../STLibs//STM32_USB-Host-Device_Lib_V2.1.0/Libraries/STM32_USB_OTG_Driver/src/usb_dcd_int.c ****   
 211              		.loc 1 387 0
 212 00bc 0023     		movs	r3, #0
 213 00be 8DF80F30 		strb	r3, [sp, #15]
 389:../STLibs//STM32_USB-Host-Device_Lib_V2.1.0/Libraries/STM32_USB_OTG_Driver/src/usb_dcd_int.c ****   USBD_DCD_INT_fops->Suspend (pdev);      
 214              		.loc 1 389 0
 215 00c2 94F81231 		ldrb	r3, [r4, #274]	@ zero_extendqisi2
 216 00c6 8DF80F30 		strb	r3, [sp, #15]
 390:../STLibs//STM32_USB-Host-Device_Lib_V2.1.0/Libraries/STM32_USB_OTG_Driver/src/usb_dcd_int.c ****   
 217              		.loc 1 390 0
 218 00ca 8A4B     		ldr	r3, .L125
 219 00cc 1B68     		ldr	r3, [r3]
 220 00ce 2046     		mov	r0, r4
 221              	.LVL34:
 222 00d0 5B69     		ldr	r3, [r3, #20]
 223 00d2 9847     		blx	r3
 224              	.LVL35:
 392:../STLibs//STM32_USB-Host-Device_Lib_V2.1.0/Libraries/STM32_USB_OTG_Driver/src/usb_dcd_int.c ****     
 225              		.loc 1 392 0
 226 00d4 2369     		ldr	r3, [r4, #16]
 397:../STLibs//STM32_USB-Host-Device_Lib_V2.1.0/Libraries/STM32_USB_OTG_Driver/src/usb_dcd_int.c ****   
 227              		.loc 1 397 0
 228 00d6 E268     		ldr	r2, [r4, #12]
 392:../STLibs//STM32_USB-Host-Device_Lib_V2.1.0/Libraries/STM32_USB_OTG_Driver/src/usb_dcd_int.c ****     
 229              		.loc 1 392 0
 230 00d8 9B68     		ldr	r3, [r3, #8]
 231              	.LVL36:
 397:../STLibs//STM32_USB-Host-Device_Lib_V2.1.0/Libraries/STM32_USB_OTG_Driver/src/usb_dcd_int.c ****   
 232              		.loc 1 397 0
 233 00da 4FF40061 		mov	r1, #2048
 234              	.LVL37:
 235 00de 5161     		str	r1, [r2, #20]
 399:../STLibs//STM32_USB-Host-Device_Lib_V2.1.0/Libraries/STM32_USB_OTG_Driver/src/usb_dcd_int.c ****     (pdev->dev.connection_status == 1) && 
 236              		.loc 1 399 0
 237 00e0 A27A     		ldrb	r2, [r4, #10]	@ zero_extendqisi2
 238 00e2 C2B1     		cbz	r2, .L36
 239 00e4 DA07     		lsls	r2, r3, #31
 240 00e6 16D5     		bpl	.L36
 241 00e8 94F81531 		ldrb	r3, [r4, #277]	@ zero_extendqisi2
 242              	.LVL38:
 243 00ec 012B     		cmp	r3, #1
 244 00ee 12D1     		bne	.L36
 401:../STLibs//STM32_USB-Host-Device_Lib_V2.1.0/Libraries/STM32_USB_OTG_Driver/src/usb_dcd_int.c ****   {
 245              		.loc 1 401 0
 246 00f0 9DF80F30 		ldrb	r3, [sp, #15]	@ zero_extendqisi2
 400:../STLibs//STM32_USB-Host-Device_Lib_V2.1.0/Libraries/STM32_USB_OTG_Driver/src/usb_dcd_int.c ****     (prev_status  == USB_OTG_CONFIGURED))
 247              		.loc 1 400 0
 248 00f4 032B     		cmp	r3, #3
 249 00f6 0ED1     		bne	.L36
 406:../STLibs//STM32_USB-Host-Device_Lib_V2.1.0/Libraries/STM32_USB_OTG_Driver/src/usb_dcd_int.c ****     
 250              		.loc 1 406 0
 251 00f8 D4F80C31 		ldr	r3, [r4, #268]
 252 00fc 1A68     		ldr	r2, [r3]
 253 00fe 42F00102 		orr	r2, r2, #1
 254 0102 1A60     		str	r2, [r3]
 409:../STLibs//STM32_USB-Host-Device_Lib_V2.1.0/Libraries/STM32_USB_OTG_Driver/src/usb_dcd_int.c ****     
 255              		.loc 1 409 0
 256 0104 1A68     		ldr	r2, [r3]
 257 0106 42F00302 		orr	r2, r2, #3
 258 010a 1A60     		str	r2, [r3]
 412:../STLibs//STM32_USB-Host-Device_Lib_V2.1.0/Libraries/STM32_USB_OTG_Driver/src/usb_dcd_int.c ****   }
 259              		.loc 1 412 0
 260 010c 7A4A     		ldr	r2, .L125+4
 261 010e 1369     		ldr	r3, [r2, #16]
 262 0110 43F00603 		orr	r3, r3, #6
 263 0114 1361     		str	r3, [r2, #16]
 264              	.L36:
 265              	.LVL39:
 266              	.LBE49:
 267              	.LBE48:
 249:../STLibs//STM32_USB-Host-Device_Lib_V2.1.0/Libraries/STM32_USB_OTG_Driver/src/usb_dcd_int.c ****     }
 268              		.loc 1 249 0
 269 0116 0120     		movs	r0, #1
 270              	.LVL40:
 271              	.L35:
 251:../STLibs//STM32_USB-Host-Device_Lib_V2.1.0/Libraries/STM32_USB_OTG_Driver/src/usb_dcd_int.c ****     {
 272              		.loc 1 251 0
 273 0118 3B07     		lsls	r3, r7, #28
 274 011a 08D5     		bpl	.L37
 275              	.LVL41:
 276              	.LBB50:
 277              	.LBB51:
 549:../STLibs//STM32_USB-Host-Device_Lib_V2.1.0/Libraries/STM32_USB_OTG_Driver/src/usb_dcd_int.c ****         CLEAR_OUT_EP_INTR(epnum, setup);
 550:../STLibs//STM32_USB-Host-Device_Lib_V2.1.0/Libraries/STM32_USB_OTG_Driver/src/usb_dcd_int.c ****       }
 551:../STLibs//STM32_USB-Host-Device_Lib_V2.1.0/Libraries/STM32_USB_OTG_Driver/src/usb_dcd_int.c ****     }
 552:../STLibs//STM32_USB-Host-Device_Lib_V2.1.0/Libraries/STM32_USB_OTG_Driver/src/usb_dcd_int.c ****     epnum++;
 553:../STLibs//STM32_USB-Host-Device_Lib_V2.1.0/Libraries/STM32_USB_OTG_Driver/src/usb_dcd_int.c ****     ep_intr >>= 1;
 554:../STLibs//STM32_USB-Host-Device_Lib_V2.1.0/Libraries/STM32_USB_OTG_Driver/src/usb_dcd_int.c ****   }
 555:../STLibs//STM32_USB-Host-Device_Lib_V2.1.0/Libraries/STM32_USB_OTG_Driver/src/usb_dcd_int.c ****   return 1;
 556:../STLibs//STM32_USB-Host-Device_Lib_V2.1.0/Libraries/STM32_USB_OTG_Driver/src/usb_dcd_int.c **** }
 557:../STLibs//STM32_USB-Host-Device_Lib_V2.1.0/Libraries/STM32_USB_OTG_Driver/src/usb_dcd_int.c **** 
 558:../STLibs//STM32_USB-Host-Device_Lib_V2.1.0/Libraries/STM32_USB_OTG_Driver/src/usb_dcd_int.c **** /**
 559:../STLibs//STM32_USB-Host-Device_Lib_V2.1.0/Libraries/STM32_USB_OTG_Driver/src/usb_dcd_int.c **** * @brief  DCD_HandleSof_ISR
 560:../STLibs//STM32_USB-Host-Device_Lib_V2.1.0/Libraries/STM32_USB_OTG_Driver/src/usb_dcd_int.c **** *         Handles the SOF Interrupts
 561:../STLibs//STM32_USB-Host-Device_Lib_V2.1.0/Libraries/STM32_USB_OTG_Driver/src/usb_dcd_int.c **** * @param  pdev: device instance
 562:../STLibs//STM32_USB-Host-Device_Lib_V2.1.0/Libraries/STM32_USB_OTG_Driver/src/usb_dcd_int.c **** * @retval status
 563:../STLibs//STM32_USB-Host-Device_Lib_V2.1.0/Libraries/STM32_USB_OTG_Driver/src/usb_dcd_int.c **** */
 564:../STLibs//STM32_USB-Host-Device_Lib_V2.1.0/Libraries/STM32_USB_OTG_Driver/src/usb_dcd_int.c **** static uint32_t DCD_HandleSof_ISR(USB_OTG_CORE_HANDLE *pdev)
 565:../STLibs//STM32_USB-Host-Device_Lib_V2.1.0/Libraries/STM32_USB_OTG_Driver/src/usb_dcd_int.c **** {
 566:../STLibs//STM32_USB-Host-Device_Lib_V2.1.0/Libraries/STM32_USB_OTG_Driver/src/usb_dcd_int.c ****   USB_OTG_GINTSTS_TypeDef  GINTSTS;
 567:../STLibs//STM32_USB-Host-Device_Lib_V2.1.0/Libraries/STM32_USB_OTG_Driver/src/usb_dcd_int.c ****   
 568:../STLibs//STM32_USB-Host-Device_Lib_V2.1.0/Libraries/STM32_USB_OTG_Driver/src/usb_dcd_int.c ****   
 569:../STLibs//STM32_USB-Host-Device_Lib_V2.1.0/Libraries/STM32_USB_OTG_Driver/src/usb_dcd_int.c ****   USBD_DCD_INT_fops->SOF(pdev);
 278              		.loc 1 569 0
 279 011c 754B     		ldr	r3, .L125
 280 011e 1B68     		ldr	r3, [r3]
 281 0120 2046     		mov	r0, r4
 282              	.LVL42:
 283 0122 DB68     		ldr	r3, [r3, #12]
 284 0124 9847     		blx	r3
 285              	.LVL43:
 570:../STLibs//STM32_USB-Host-Device_Lib_V2.1.0/Libraries/STM32_USB_OTG_Driver/src/usb_dcd_int.c ****   
 571:../STLibs//STM32_USB-Host-Device_Lib_V2.1.0/Libraries/STM32_USB_OTG_Driver/src/usb_dcd_int.c ****   /* Clear interrupt */
 572:../STLibs//STM32_USB-Host-Device_Lib_V2.1.0/Libraries/STM32_USB_OTG_Driver/src/usb_dcd_int.c ****   GINTSTS.d32 = 0;
 573:../STLibs//STM32_USB-Host-Device_Lib_V2.1.0/Libraries/STM32_USB_OTG_Driver/src/usb_dcd_int.c ****   GINTSTS.b.sofintr = 1;
 574:../STLibs//STM32_USB-Host-Device_Lib_V2.1.0/Libraries/STM32_USB_OTG_Driver/src/usb_dcd_int.c ****   USB_OTG_WRITE_REG32 (&pdev->regs.GREGS->GINTSTS, GINTSTS.d32);
 286              		.loc 1 574 0
 287 0126 E368     		ldr	r3, [r4, #12]
 288 0128 0822     		movs	r2, #8
 289              	.LVL44:
 290 012a 5A61     		str	r2, [r3, #20]
 291              	.LVL45:
 292              	.LBE51:
 293              	.LBE50:
 253:../STLibs//STM32_USB-Host-Device_Lib_V2.1.0/Libraries/STM32_USB_OTG_Driver/src/usb_dcd_int.c ****       
 294              		.loc 1 253 0
 295 012c 0120     		movs	r0, #1
 296              	.LVL46:
 297              	.L37:
 257:../STLibs//STM32_USB-Host-Device_Lib_V2.1.0/Libraries/STM32_USB_OTG_Driver/src/usb_dcd_int.c ****     {
 298              		.loc 1 257 0
 299 012e FE06     		lsls	r6, r7, #27
 300 0130 15D5     		bpl	.L38
 301              	.LVL47:
 302              	.LBB52:
 303              	.LBB53:
 575:../STLibs//STM32_USB-Host-Device_Lib_V2.1.0/Libraries/STM32_USB_OTG_Driver/src/usb_dcd_int.c ****   
 576:../STLibs//STM32_USB-Host-Device_Lib_V2.1.0/Libraries/STM32_USB_OTG_Driver/src/usb_dcd_int.c ****   return 1;
 577:../STLibs//STM32_USB-Host-Device_Lib_V2.1.0/Libraries/STM32_USB_OTG_Driver/src/usb_dcd_int.c **** }
 578:../STLibs//STM32_USB-Host-Device_Lib_V2.1.0/Libraries/STM32_USB_OTG_Driver/src/usb_dcd_int.c **** 
 579:../STLibs//STM32_USB-Host-Device_Lib_V2.1.0/Libraries/STM32_USB_OTG_Driver/src/usb_dcd_int.c **** /**
 580:../STLibs//STM32_USB-Host-Device_Lib_V2.1.0/Libraries/STM32_USB_OTG_Driver/src/usb_dcd_int.c **** * @brief  DCD_HandleRxStatusQueueLevel_ISR
 581:../STLibs//STM32_USB-Host-Device_Lib_V2.1.0/Libraries/STM32_USB_OTG_Driver/src/usb_dcd_int.c **** *         Handles the Rx Status Queue Level Interrupt
 582:../STLibs//STM32_USB-Host-Device_Lib_V2.1.0/Libraries/STM32_USB_OTG_Driver/src/usb_dcd_int.c **** * @param  pdev: device instance
 583:../STLibs//STM32_USB-Host-Device_Lib_V2.1.0/Libraries/STM32_USB_OTG_Driver/src/usb_dcd_int.c **** * @retval status
 584:../STLibs//STM32_USB-Host-Device_Lib_V2.1.0/Libraries/STM32_USB_OTG_Driver/src/usb_dcd_int.c **** */
 585:../STLibs//STM32_USB-Host-Device_Lib_V2.1.0/Libraries/STM32_USB_OTG_Driver/src/usb_dcd_int.c **** static uint32_t DCD_HandleRxStatusQueueLevel_ISR(USB_OTG_CORE_HANDLE *pdev)
 586:../STLibs//STM32_USB-Host-Device_Lib_V2.1.0/Libraries/STM32_USB_OTG_Driver/src/usb_dcd_int.c **** {
 587:../STLibs//STM32_USB-Host-Device_Lib_V2.1.0/Libraries/STM32_USB_OTG_Driver/src/usb_dcd_int.c ****   USB_OTG_GINTMSK_TypeDef  int_mask;
 588:../STLibs//STM32_USB-Host-Device_Lib_V2.1.0/Libraries/STM32_USB_OTG_Driver/src/usb_dcd_int.c ****   USB_OTG_DRXSTS_TypeDef   status;
 589:../STLibs//STM32_USB-Host-Device_Lib_V2.1.0/Libraries/STM32_USB_OTG_Driver/src/usb_dcd_int.c ****   USB_OTG_EP *ep;
 590:../STLibs//STM32_USB-Host-Device_Lib_V2.1.0/Libraries/STM32_USB_OTG_Driver/src/usb_dcd_int.c ****   
 591:../STLibs//STM32_USB-Host-Device_Lib_V2.1.0/Libraries/STM32_USB_OTG_Driver/src/usb_dcd_int.c ****   /* Disable the Rx Status Queue Level interrupt */
 592:../STLibs//STM32_USB-Host-Device_Lib_V2.1.0/Libraries/STM32_USB_OTG_Driver/src/usb_dcd_int.c ****   int_mask.d32 = 0;
 593:../STLibs//STM32_USB-Host-Device_Lib_V2.1.0/Libraries/STM32_USB_OTG_Driver/src/usb_dcd_int.c ****   int_mask.b.rxstsqlvl = 1;
 594:../STLibs//STM32_USB-Host-Device_Lib_V2.1.0/Libraries/STM32_USB_OTG_Driver/src/usb_dcd_int.c ****   USB_OTG_MODIFY_REG32( &pdev->regs.GREGS->GINTMSK, int_mask.d32, 0);
 304              		.loc 1 594 0
 305 0132 E368     		ldr	r3, [r4, #12]
 306 0134 9A69     		ldr	r2, [r3, #24]
 307              	.LVL48:
 308 0136 22F01002 		bic	r2, r2, #16
 309 013a 9A61     		str	r2, [r3, #24]
 595:../STLibs//STM32_USB-Host-Device_Lib_V2.1.0/Libraries/STM32_USB_OTG_Driver/src/usb_dcd_int.c ****   
 596:../STLibs//STM32_USB-Host-Device_Lib_V2.1.0/Libraries/STM32_USB_OTG_Driver/src/usb_dcd_int.c ****   /* Get the Status from the top of the FIFO */
 597:../STLibs//STM32_USB-Host-Device_Lib_V2.1.0/Libraries/STM32_USB_OTG_Driver/src/usb_dcd_int.c ****   status.d32 = USB_OTG_READ_REG32( &pdev->regs.GREGS->GRXSTSP );
 310              		.loc 1 597 0
 311 013c 1E6A     		ldr	r6, [r3, #32]
 598:../STLibs//STM32_USB-Host-Device_Lib_V2.1.0/Libraries/STM32_USB_OTG_Driver/src/usb_dcd_int.c ****   
 599:../STLibs//STM32_USB-Host-Device_Lib_V2.1.0/Libraries/STM32_USB_OTG_Driver/src/usb_dcd_int.c ****   ep = &pdev->dev.out_ep[status.b.epnum];
 600:../STLibs//STM32_USB-Host-Device_Lib_V2.1.0/Libraries/STM32_USB_OTG_Driver/src/usb_dcd_int.c ****   
 601:../STLibs//STM32_USB-Host-Device_Lib_V2.1.0/Libraries/STM32_USB_OTG_Driver/src/usb_dcd_int.c ****   switch (status.b.pktsts)
 312              		.loc 1 601 0
 313 013e C6F34343 		ubfx	r3, r6, #17, #4
 314 0142 022B     		cmp	r3, #2
 599:../STLibs//STM32_USB-Host-Device_Lib_V2.1.0/Libraries/STM32_USB_OTG_Driver/src/usb_dcd_int.c ****   
 315              		.loc 1 599 0
 316 0144 06F00F05 		and	r5, r6, #15
 317              	.LVL49:
 318              		.loc 1 601 0
 319 0148 00F06781 		beq	.L40
 320 014c 062B     		cmp	r3, #6
 321 014e 00F07F81 		beq	.L41
 322              	.LVL50:
 323              	.L39:
 602:../STLibs//STM32_USB-Host-Device_Lib_V2.1.0/Libraries/STM32_USB_OTG_Driver/src/usb_dcd_int.c ****   {
 603:../STLibs//STM32_USB-Host-Device_Lib_V2.1.0/Libraries/STM32_USB_OTG_Driver/src/usb_dcd_int.c ****   case STS_GOUT_NAK:
 604:../STLibs//STM32_USB-Host-Device_Lib_V2.1.0/Libraries/STM32_USB_OTG_Driver/src/usb_dcd_int.c ****     break;
 605:../STLibs//STM32_USB-Host-Device_Lib_V2.1.0/Libraries/STM32_USB_OTG_Driver/src/usb_dcd_int.c ****   case STS_DATA_UPDT:
 606:../STLibs//STM32_USB-Host-Device_Lib_V2.1.0/Libraries/STM32_USB_OTG_Driver/src/usb_dcd_int.c ****     if (status.b.bcnt)
 607:../STLibs//STM32_USB-Host-Device_Lib_V2.1.0/Libraries/STM32_USB_OTG_Driver/src/usb_dcd_int.c ****     {
 608:../STLibs//STM32_USB-Host-Device_Lib_V2.1.0/Libraries/STM32_USB_OTG_Driver/src/usb_dcd_int.c ****       USB_OTG_ReadPacket(pdev,ep->xfer_buff, status.b.bcnt);
 609:../STLibs//STM32_USB-Host-Device_Lib_V2.1.0/Libraries/STM32_USB_OTG_Driver/src/usb_dcd_int.c ****       ep->xfer_buff += status.b.bcnt;
 610:../STLibs//STM32_USB-Host-Device_Lib_V2.1.0/Libraries/STM32_USB_OTG_Driver/src/usb_dcd_int.c ****       ep->xfer_count += status.b.bcnt;
 611:../STLibs//STM32_USB-Host-Device_Lib_V2.1.0/Libraries/STM32_USB_OTG_Driver/src/usb_dcd_int.c ****     }
 612:../STLibs//STM32_USB-Host-Device_Lib_V2.1.0/Libraries/STM32_USB_OTG_Driver/src/usb_dcd_int.c ****     break;
 613:../STLibs//STM32_USB-Host-Device_Lib_V2.1.0/Libraries/STM32_USB_OTG_Driver/src/usb_dcd_int.c ****   case STS_XFER_COMP:
 614:../STLibs//STM32_USB-Host-Device_Lib_V2.1.0/Libraries/STM32_USB_OTG_Driver/src/usb_dcd_int.c ****     break;
 615:../STLibs//STM32_USB-Host-Device_Lib_V2.1.0/Libraries/STM32_USB_OTG_Driver/src/usb_dcd_int.c ****   case STS_SETUP_COMP:
 616:../STLibs//STM32_USB-Host-Device_Lib_V2.1.0/Libraries/STM32_USB_OTG_Driver/src/usb_dcd_int.c ****     break;
 617:../STLibs//STM32_USB-Host-Device_Lib_V2.1.0/Libraries/STM32_USB_OTG_Driver/src/usb_dcd_int.c ****   case STS_SETUP_UPDT:
 618:../STLibs//STM32_USB-Host-Device_Lib_V2.1.0/Libraries/STM32_USB_OTG_Driver/src/usb_dcd_int.c ****     /* Copy the setup packet received in FIFO into the setup buffer in RAM */
 619:../STLibs//STM32_USB-Host-Device_Lib_V2.1.0/Libraries/STM32_USB_OTG_Driver/src/usb_dcd_int.c ****     USB_OTG_ReadPacket(pdev , pdev->dev.setup_packet, 8);
 620:../STLibs//STM32_USB-Host-Device_Lib_V2.1.0/Libraries/STM32_USB_OTG_Driver/src/usb_dcd_int.c ****     ep->xfer_count += status.b.bcnt;
 621:../STLibs//STM32_USB-Host-Device_Lib_V2.1.0/Libraries/STM32_USB_OTG_Driver/src/usb_dcd_int.c ****     break;
 622:../STLibs//STM32_USB-Host-Device_Lib_V2.1.0/Libraries/STM32_USB_OTG_Driver/src/usb_dcd_int.c ****   default:
 623:../STLibs//STM32_USB-Host-Device_Lib_V2.1.0/Libraries/STM32_USB_OTG_Driver/src/usb_dcd_int.c ****     break;
 624:../STLibs//STM32_USB-Host-Device_Lib_V2.1.0/Libraries/STM32_USB_OTG_Driver/src/usb_dcd_int.c ****   }
 625:../STLibs//STM32_USB-Host-Device_Lib_V2.1.0/Libraries/STM32_USB_OTG_Driver/src/usb_dcd_int.c ****   
 626:../STLibs//STM32_USB-Host-Device_Lib_V2.1.0/Libraries/STM32_USB_OTG_Driver/src/usb_dcd_int.c ****   /* Enable the Rx Status Queue Level interrupt */
 627:../STLibs//STM32_USB-Host-Device_Lib_V2.1.0/Libraries/STM32_USB_OTG_Driver/src/usb_dcd_int.c ****   USB_OTG_MODIFY_REG32( &pdev->regs.GREGS->GINTMSK, 0, int_mask.d32);
 324              		.loc 1 627 0
 325 0152 E268     		ldr	r2, [r4, #12]
 326 0154 9369     		ldr	r3, [r2, #24]
 327 0156 43F01003 		orr	r3, r3, #16
 328 015a 9361     		str	r3, [r2, #24]
 329              	.LVL51:
 330              	.LBE53:
 331              	.LBE52:
 259:../STLibs//STM32_USB-Host-Device_Lib_V2.1.0/Libraries/STM32_USB_OTG_Driver/src/usb_dcd_int.c ****       
 332              		.loc 1 259 0
 333 015c 0120     		movs	r0, #1
 334              	.LVL52:
 335              	.L38:
 263:../STLibs//STM32_USB-Host-Device_Lib_V2.1.0/Libraries/STM32_USB_OTG_Driver/src/usb_dcd_int.c ****     {
 336              		.loc 1 263 0
 337 015e 18F0100F 		tst	r8, #16
 338 0162 2CD0     		beq	.L42
 339              	.LVL53:
 340              	.LBB55:
 341              	.LBB56:
 628:../STLibs//STM32_USB-Host-Device_Lib_V2.1.0/Libraries/STM32_USB_OTG_Driver/src/usb_dcd_int.c ****   
 629:../STLibs//STM32_USB-Host-Device_Lib_V2.1.0/Libraries/STM32_USB_OTG_Driver/src/usb_dcd_int.c ****   return 1;
 630:../STLibs//STM32_USB-Host-Device_Lib_V2.1.0/Libraries/STM32_USB_OTG_Driver/src/usb_dcd_int.c **** }
 631:../STLibs//STM32_USB-Host-Device_Lib_V2.1.0/Libraries/STM32_USB_OTG_Driver/src/usb_dcd_int.c **** 
 632:../STLibs//STM32_USB-Host-Device_Lib_V2.1.0/Libraries/STM32_USB_OTG_Driver/src/usb_dcd_int.c **** /**
 633:../STLibs//STM32_USB-Host-Device_Lib_V2.1.0/Libraries/STM32_USB_OTG_Driver/src/usb_dcd_int.c **** * @brief  DCD_WriteEmptyTxFifo
 634:../STLibs//STM32_USB-Host-Device_Lib_V2.1.0/Libraries/STM32_USB_OTG_Driver/src/usb_dcd_int.c **** *         check FIFO for the next packet to be loaded
 635:../STLibs//STM32_USB-Host-Device_Lib_V2.1.0/Libraries/STM32_USB_OTG_Driver/src/usb_dcd_int.c **** * @param  pdev: device instance
 636:../STLibs//STM32_USB-Host-Device_Lib_V2.1.0/Libraries/STM32_USB_OTG_Driver/src/usb_dcd_int.c **** * @retval status
 637:../STLibs//STM32_USB-Host-Device_Lib_V2.1.0/Libraries/STM32_USB_OTG_Driver/src/usb_dcd_int.c **** */
 638:../STLibs//STM32_USB-Host-Device_Lib_V2.1.0/Libraries/STM32_USB_OTG_Driver/src/usb_dcd_int.c **** static uint32_t DCD_WriteEmptyTxFifo(USB_OTG_CORE_HANDLE *pdev, uint32_t epnum)
 639:../STLibs//STM32_USB-Host-Device_Lib_V2.1.0/Libraries/STM32_USB_OTG_Driver/src/usb_dcd_int.c **** {
 640:../STLibs//STM32_USB-Host-Device_Lib_V2.1.0/Libraries/STM32_USB_OTG_Driver/src/usb_dcd_int.c ****   USB_OTG_DTXFSTSn_TypeDef  txstatus;
 641:../STLibs//STM32_USB-Host-Device_Lib_V2.1.0/Libraries/STM32_USB_OTG_Driver/src/usb_dcd_int.c ****   USB_OTG_EP *ep;
 642:../STLibs//STM32_USB-Host-Device_Lib_V2.1.0/Libraries/STM32_USB_OTG_Driver/src/usb_dcd_int.c ****   uint32_t len = 0;
 643:../STLibs//STM32_USB-Host-Device_Lib_V2.1.0/Libraries/STM32_USB_OTG_Driver/src/usb_dcd_int.c ****   uint32_t len32b;
 644:../STLibs//STM32_USB-Host-Device_Lib_V2.1.0/Libraries/STM32_USB_OTG_Driver/src/usb_dcd_int.c ****   txstatus.d32 = 0;
 645:../STLibs//STM32_USB-Host-Device_Lib_V2.1.0/Libraries/STM32_USB_OTG_Driver/src/usb_dcd_int.c ****   
 646:../STLibs//STM32_USB-Host-Device_Lib_V2.1.0/Libraries/STM32_USB_OTG_Driver/src/usb_dcd_int.c ****   ep = &pdev->dev.in_ep[epnum];    
 647:../STLibs//STM32_USB-Host-Device_Lib_V2.1.0/Libraries/STM32_USB_OTG_Driver/src/usb_dcd_int.c ****   
 648:../STLibs//STM32_USB-Host-Device_Lib_V2.1.0/Libraries/STM32_USB_OTG_Driver/src/usb_dcd_int.c ****   len = ep->xfer_len - ep->xfer_count;
 649:../STLibs//STM32_USB-Host-Device_Lib_V2.1.0/Libraries/STM32_USB_OTG_Driver/src/usb_dcd_int.c ****   
 650:../STLibs//STM32_USB-Host-Device_Lib_V2.1.0/Libraries/STM32_USB_OTG_Driver/src/usb_dcd_int.c ****   if (len > ep->maxpacket)
 651:../STLibs//STM32_USB-Host-Device_Lib_V2.1.0/Libraries/STM32_USB_OTG_Driver/src/usb_dcd_int.c ****   {
 652:../STLibs//STM32_USB-Host-Device_Lib_V2.1.0/Libraries/STM32_USB_OTG_Driver/src/usb_dcd_int.c ****     len = ep->maxpacket;
 653:../STLibs//STM32_USB-Host-Device_Lib_V2.1.0/Libraries/STM32_USB_OTG_Driver/src/usb_dcd_int.c ****   }
 654:../STLibs//STM32_USB-Host-Device_Lib_V2.1.0/Libraries/STM32_USB_OTG_Driver/src/usb_dcd_int.c ****   
 655:../STLibs//STM32_USB-Host-Device_Lib_V2.1.0/Libraries/STM32_USB_OTG_Driver/src/usb_dcd_int.c ****   len32b = (len + 3) / 4;
 656:../STLibs//STM32_USB-Host-Device_Lib_V2.1.0/Libraries/STM32_USB_OTG_Driver/src/usb_dcd_int.c ****   txstatus.d32 = USB_OTG_READ_REG32( &pdev->regs.INEP_REGS[epnum]->DTXFSTS);
 657:../STLibs//STM32_USB-Host-Device_Lib_V2.1.0/Libraries/STM32_USB_OTG_Driver/src/usb_dcd_int.c ****   
 658:../STLibs//STM32_USB-Host-Device_Lib_V2.1.0/Libraries/STM32_USB_OTG_Driver/src/usb_dcd_int.c ****   
 659:../STLibs//STM32_USB-Host-Device_Lib_V2.1.0/Libraries/STM32_USB_OTG_Driver/src/usb_dcd_int.c ****   
 660:../STLibs//STM32_USB-Host-Device_Lib_V2.1.0/Libraries/STM32_USB_OTG_Driver/src/usb_dcd_int.c ****   while  (txstatus.b.txfspcavail > len32b &&
 661:../STLibs//STM32_USB-Host-Device_Lib_V2.1.0/Libraries/STM32_USB_OTG_Driver/src/usb_dcd_int.c ****           ep->xfer_count < ep->xfer_len &&
 662:../STLibs//STM32_USB-Host-Device_Lib_V2.1.0/Libraries/STM32_USB_OTG_Driver/src/usb_dcd_int.c ****             ep->xfer_len != 0)
 663:../STLibs//STM32_USB-Host-Device_Lib_V2.1.0/Libraries/STM32_USB_OTG_Driver/src/usb_dcd_int.c ****   {
 664:../STLibs//STM32_USB-Host-Device_Lib_V2.1.0/Libraries/STM32_USB_OTG_Driver/src/usb_dcd_int.c ****     /* Write the FIFO */
 665:../STLibs//STM32_USB-Host-Device_Lib_V2.1.0/Libraries/STM32_USB_OTG_Driver/src/usb_dcd_int.c ****     len = ep->xfer_len - ep->xfer_count;
 666:../STLibs//STM32_USB-Host-Device_Lib_V2.1.0/Libraries/STM32_USB_OTG_Driver/src/usb_dcd_int.c ****     
 667:../STLibs//STM32_USB-Host-Device_Lib_V2.1.0/Libraries/STM32_USB_OTG_Driver/src/usb_dcd_int.c ****     if (len > ep->maxpacket)
 668:../STLibs//STM32_USB-Host-Device_Lib_V2.1.0/Libraries/STM32_USB_OTG_Driver/src/usb_dcd_int.c ****     {
 669:../STLibs//STM32_USB-Host-Device_Lib_V2.1.0/Libraries/STM32_USB_OTG_Driver/src/usb_dcd_int.c ****       len = ep->maxpacket;
 670:../STLibs//STM32_USB-Host-Device_Lib_V2.1.0/Libraries/STM32_USB_OTG_Driver/src/usb_dcd_int.c ****     }
 671:../STLibs//STM32_USB-Host-Device_Lib_V2.1.0/Libraries/STM32_USB_OTG_Driver/src/usb_dcd_int.c ****     len32b = (len + 3) / 4;
 672:../STLibs//STM32_USB-Host-Device_Lib_V2.1.0/Libraries/STM32_USB_OTG_Driver/src/usb_dcd_int.c ****     
 673:../STLibs//STM32_USB-Host-Device_Lib_V2.1.0/Libraries/STM32_USB_OTG_Driver/src/usb_dcd_int.c ****     USB_OTG_WritePacket (pdev , ep->xfer_buff, epnum, len);
 674:../STLibs//STM32_USB-Host-Device_Lib_V2.1.0/Libraries/STM32_USB_OTG_Driver/src/usb_dcd_int.c ****     
 675:../STLibs//STM32_USB-Host-Device_Lib_V2.1.0/Libraries/STM32_USB_OTG_Driver/src/usb_dcd_int.c ****     ep->xfer_buff  += len;
 676:../STLibs//STM32_USB-Host-Device_Lib_V2.1.0/Libraries/STM32_USB_OTG_Driver/src/usb_dcd_int.c ****     ep->xfer_count += len;
 677:../STLibs//STM32_USB-Host-Device_Lib_V2.1.0/Libraries/STM32_USB_OTG_Driver/src/usb_dcd_int.c ****     
 678:../STLibs//STM32_USB-Host-Device_Lib_V2.1.0/Libraries/STM32_USB_OTG_Driver/src/usb_dcd_int.c ****     txstatus.d32 = USB_OTG_READ_REG32(&pdev->regs.INEP_REGS[epnum]->DTXFSTS);
 679:../STLibs//STM32_USB-Host-Device_Lib_V2.1.0/Libraries/STM32_USB_OTG_Driver/src/usb_dcd_int.c ****   }
 680:../STLibs//STM32_USB-Host-Device_Lib_V2.1.0/Libraries/STM32_USB_OTG_Driver/src/usb_dcd_int.c ****   
 681:../STLibs//STM32_USB-Host-Device_Lib_V2.1.0/Libraries/STM32_USB_OTG_Driver/src/usb_dcd_int.c ****   return 1;
 682:../STLibs//STM32_USB-Host-Device_Lib_V2.1.0/Libraries/STM32_USB_OTG_Driver/src/usb_dcd_int.c **** }
 683:../STLibs//STM32_USB-Host-Device_Lib_V2.1.0/Libraries/STM32_USB_OTG_Driver/src/usb_dcd_int.c **** 
 684:../STLibs//STM32_USB-Host-Device_Lib_V2.1.0/Libraries/STM32_USB_OTG_Driver/src/usb_dcd_int.c **** /**
 685:../STLibs//STM32_USB-Host-Device_Lib_V2.1.0/Libraries/STM32_USB_OTG_Driver/src/usb_dcd_int.c **** * @brief  DCD_HandleUsbReset_ISR
 686:../STLibs//STM32_USB-Host-Device_Lib_V2.1.0/Libraries/STM32_USB_OTG_Driver/src/usb_dcd_int.c **** *         This interrupt occurs when a USB Reset is detected
 687:../STLibs//STM32_USB-Host-Device_Lib_V2.1.0/Libraries/STM32_USB_OTG_Driver/src/usb_dcd_int.c **** * @param  pdev: device instance
 688:../STLibs//STM32_USB-Host-Device_Lib_V2.1.0/Libraries/STM32_USB_OTG_Driver/src/usb_dcd_int.c **** * @retval status
 689:../STLibs//STM32_USB-Host-Device_Lib_V2.1.0/Libraries/STM32_USB_OTG_Driver/src/usb_dcd_int.c **** */
 690:../STLibs//STM32_USB-Host-Device_Lib_V2.1.0/Libraries/STM32_USB_OTG_Driver/src/usb_dcd_int.c **** static uint32_t DCD_HandleUsbReset_ISR(USB_OTG_CORE_HANDLE *pdev)
 691:../STLibs//STM32_USB-Host-Device_Lib_V2.1.0/Libraries/STM32_USB_OTG_Driver/src/usb_dcd_int.c **** {
 692:../STLibs//STM32_USB-Host-Device_Lib_V2.1.0/Libraries/STM32_USB_OTG_Driver/src/usb_dcd_int.c ****   USB_OTG_DAINT_TypeDef    daintmsk;
 693:../STLibs//STM32_USB-Host-Device_Lib_V2.1.0/Libraries/STM32_USB_OTG_Driver/src/usb_dcd_int.c ****   USB_OTG_DOEPMSK_TypeDef  doepmsk;
 694:../STLibs//STM32_USB-Host-Device_Lib_V2.1.0/Libraries/STM32_USB_OTG_Driver/src/usb_dcd_int.c ****   USB_OTG_DIEPMSK_TypeDef  diepmsk;
 695:../STLibs//STM32_USB-Host-Device_Lib_V2.1.0/Libraries/STM32_USB_OTG_Driver/src/usb_dcd_int.c ****   USB_OTG_DCFG_TypeDef     dcfg;
 696:../STLibs//STM32_USB-Host-Device_Lib_V2.1.0/Libraries/STM32_USB_OTG_Driver/src/usb_dcd_int.c ****   USB_OTG_DCTL_TypeDef     dctl;
 697:../STLibs//STM32_USB-Host-Device_Lib_V2.1.0/Libraries/STM32_USB_OTG_Driver/src/usb_dcd_int.c ****   USB_OTG_GINTSTS_TypeDef  gintsts;
 698:../STLibs//STM32_USB-Host-Device_Lib_V2.1.0/Libraries/STM32_USB_OTG_Driver/src/usb_dcd_int.c ****   uint32_t i;
 699:../STLibs//STM32_USB-Host-Device_Lib_V2.1.0/Libraries/STM32_USB_OTG_Driver/src/usb_dcd_int.c ****   
 700:../STLibs//STM32_USB-Host-Device_Lib_V2.1.0/Libraries/STM32_USB_OTG_Driver/src/usb_dcd_int.c ****   dctl.d32 = 0;
 701:../STLibs//STM32_USB-Host-Device_Lib_V2.1.0/Libraries/STM32_USB_OTG_Driver/src/usb_dcd_int.c ****   daintmsk.d32 = 0;
 702:../STLibs//STM32_USB-Host-Device_Lib_V2.1.0/Libraries/STM32_USB_OTG_Driver/src/usb_dcd_int.c ****   doepmsk.d32 = 0;
 703:../STLibs//STM32_USB-Host-Device_Lib_V2.1.0/Libraries/STM32_USB_OTG_Driver/src/usb_dcd_int.c ****   diepmsk.d32 = 0;
 704:../STLibs//STM32_USB-Host-Device_Lib_V2.1.0/Libraries/STM32_USB_OTG_Driver/src/usb_dcd_int.c ****   dcfg.d32 = 0;
 705:../STLibs//STM32_USB-Host-Device_Lib_V2.1.0/Libraries/STM32_USB_OTG_Driver/src/usb_dcd_int.c ****   gintsts.d32 = 0;
 706:../STLibs//STM32_USB-Host-Device_Lib_V2.1.0/Libraries/STM32_USB_OTG_Driver/src/usb_dcd_int.c ****   
 707:../STLibs//STM32_USB-Host-Device_Lib_V2.1.0/Libraries/STM32_USB_OTG_Driver/src/usb_dcd_int.c ****   /* Clear the Remote Wake-up Signaling */
 708:../STLibs//STM32_USB-Host-Device_Lib_V2.1.0/Libraries/STM32_USB_OTG_Driver/src/usb_dcd_int.c ****   dctl.b.rmtwkupsig = 1;
 709:../STLibs//STM32_USB-Host-Device_Lib_V2.1.0/Libraries/STM32_USB_OTG_Driver/src/usb_dcd_int.c ****   USB_OTG_MODIFY_REG32(&pdev->regs.DREGS->DCTL, dctl.d32, 0 );
 342              		.loc 1 709 0
 343 0164 2269     		ldr	r2, [r4, #16]
 344              	.LVL54:
 345 0166 5368     		ldr	r3, [r2, #4]
 346 0168 23F00103 		bic	r3, r3, #1
 347 016c 5360     		str	r3, [r2, #4]
 710:../STLibs//STM32_USB-Host-Device_Lib_V2.1.0/Libraries/STM32_USB_OTG_Driver/src/usb_dcd_int.c ****   
 711:../STLibs//STM32_USB-Host-Device_Lib_V2.1.0/Libraries/STM32_USB_OTG_Driver/src/usb_dcd_int.c ****   /* Flush the Tx FIFO */
 712:../STLibs//STM32_USB-Host-Device_Lib_V2.1.0/Libraries/STM32_USB_OTG_Driver/src/usb_dcd_int.c ****   USB_OTG_FlushTxFifo(pdev ,  0 );
 348              		.loc 1 712 0
 349 016e 0021     		movs	r1, #0
 350              	.LVL55:
 351 0170 2046     		mov	r0, r4
 352              	.LVL56:
 353 0172 FFF7FEFF 		bl	USB_OTG_FlushTxFifo
 354              	.LVL57:
 355 0176 6278     		ldrb	r2, [r4, #1]	@ zero_extendqisi2
 356 0178 04F11803 		add	r3, r4, #24
 357 017c 03EB8202 		add	r2, r3, r2, lsl #2
 713:../STLibs//STM32_USB-Host-Device_Lib_V2.1.0/Libraries/STM32_USB_OTG_Driver/src/usb_dcd_int.c ****   
 714:../STLibs//STM32_USB-Host-Device_Lib_V2.1.0/Libraries/STM32_USB_OTG_Driver/src/usb_dcd_int.c ****   for (i = 0; i < pdev->cfg.dev_endpoints ; i++)
 715:../STLibs//STM32_USB-Host-Device_Lib_V2.1.0/Libraries/STM32_USB_OTG_Driver/src/usb_dcd_int.c ****   {
 716:../STLibs//STM32_USB-Host-Device_Lib_V2.1.0/Libraries/STM32_USB_OTG_Driver/src/usb_dcd_int.c ****     USB_OTG_WRITE_REG32( &pdev->regs.INEP_REGS[i]->DIEPINT, 0xFF);
 358              		.loc 1 716 0
 359 0180 FF21     		movs	r1, #255
 360              	.LVL58:
 361              	.L43:
 714:../STLibs//STM32_USB-Host-Device_Lib_V2.1.0/Libraries/STM32_USB_OTG_Driver/src/usb_dcd_int.c ****   {
 362              		.loc 1 714 0
 363 0182 9A42     		cmp	r2, r3
 364 0184 40F07081 		bne	.L44
 717:../STLibs//STM32_USB-Host-Device_Lib_V2.1.0/Libraries/STM32_USB_OTG_Driver/src/usb_dcd_int.c ****     USB_OTG_WRITE_REG32( &pdev->regs.OUTEP_REGS[i]->DOEPINT, 0xFF);
 718:../STLibs//STM32_USB-Host-Device_Lib_V2.1.0/Libraries/STM32_USB_OTG_Driver/src/usb_dcd_int.c ****   }
 719:../STLibs//STM32_USB-Host-Device_Lib_V2.1.0/Libraries/STM32_USB_OTG_Driver/src/usb_dcd_int.c ****   USB_OTG_WRITE_REG32( &pdev->regs.DREGS->DAINT, 0xFFFFFFFF );
 365              		.loc 1 719 0
 366 0188 2369     		ldr	r3, [r4, #16]
 367 018a 4FF0FF32 		mov	r2, #-1
 368 018e 9A61     		str	r2, [r3, #24]
 720:../STLibs//STM32_USB-Host-Device_Lib_V2.1.0/Libraries/STM32_USB_OTG_Driver/src/usb_dcd_int.c ****   
 721:../STLibs//STM32_USB-Host-Device_Lib_V2.1.0/Libraries/STM32_USB_OTG_Driver/src/usb_dcd_int.c ****   daintmsk.ep.in = 1;
 369              		.loc 1 721 0
 370 0190 4FF00112 		mov	r2, #65537
 371              	.LVL59:
 722:../STLibs//STM32_USB-Host-Device_Lib_V2.1.0/Libraries/STM32_USB_OTG_Driver/src/usb_dcd_int.c ****   daintmsk.ep.out = 1;
 723:../STLibs//STM32_USB-Host-Device_Lib_V2.1.0/Libraries/STM32_USB_OTG_Driver/src/usb_dcd_int.c ****   USB_OTG_WRITE_REG32( &pdev->regs.DREGS->DAINTMSK, daintmsk.d32 );
 372              		.loc 1 723 0
 373 0194 DA61     		str	r2, [r3, #28]
 724:../STLibs//STM32_USB-Host-Device_Lib_V2.1.0/Libraries/STM32_USB_OTG_Driver/src/usb_dcd_int.c ****   
 725:../STLibs//STM32_USB-Host-Device_Lib_V2.1.0/Libraries/STM32_USB_OTG_Driver/src/usb_dcd_int.c ****   doepmsk.b.setup = 1;
 726:../STLibs//STM32_USB-Host-Device_Lib_V2.1.0/Libraries/STM32_USB_OTG_Driver/src/usb_dcd_int.c ****   doepmsk.b.xfercompl = 1;
 727:../STLibs//STM32_USB-Host-Device_Lib_V2.1.0/Libraries/STM32_USB_OTG_Driver/src/usb_dcd_int.c ****   doepmsk.b.epdisabled = 1;
 374              		.loc 1 727 0
 375 0196 0B22     		movs	r2, #11
 376              	.LVL60:
 728:../STLibs//STM32_USB-Host-Device_Lib_V2.1.0/Libraries/STM32_USB_OTG_Driver/src/usb_dcd_int.c ****   USB_OTG_WRITE_REG32( &pdev->regs.DREGS->DOEPMSK, doepmsk.d32 );
 377              		.loc 1 728 0
 378 0198 5A61     		str	r2, [r3, #20]
 729:../STLibs//STM32_USB-Host-Device_Lib_V2.1.0/Libraries/STM32_USB_OTG_Driver/src/usb_dcd_int.c **** #ifdef USB_OTG_HS_DEDICATED_EP1_ENABLED   
 730:../STLibs//STM32_USB-Host-Device_Lib_V2.1.0/Libraries/STM32_USB_OTG_Driver/src/usb_dcd_int.c ****   USB_OTG_WRITE_REG32( &pdev->regs.DREGS->DOUTEP1MSK, doepmsk.d32 );
 731:../STLibs//STM32_USB-Host-Device_Lib_V2.1.0/Libraries/STM32_USB_OTG_Driver/src/usb_dcd_int.c **** #endif
 732:../STLibs//STM32_USB-Host-Device_Lib_V2.1.0/Libraries/STM32_USB_OTG_Driver/src/usb_dcd_int.c ****   diepmsk.b.xfercompl = 1;
 733:../STLibs//STM32_USB-Host-Device_Lib_V2.1.0/Libraries/STM32_USB_OTG_Driver/src/usb_dcd_int.c ****   diepmsk.b.timeout = 1;
 734:../STLibs//STM32_USB-Host-Device_Lib_V2.1.0/Libraries/STM32_USB_OTG_Driver/src/usb_dcd_int.c ****   diepmsk.b.epdisabled = 1;
 735:../STLibs//STM32_USB-Host-Device_Lib_V2.1.0/Libraries/STM32_USB_OTG_Driver/src/usb_dcd_int.c **** 
 736:../STLibs//STM32_USB-Host-Device_Lib_V2.1.0/Libraries/STM32_USB_OTG_Driver/src/usb_dcd_int.c ****   USB_OTG_WRITE_REG32( &pdev->regs.DREGS->DIEPMSK, diepmsk.d32 );
 379              		.loc 1 736 0
 380 019a 1A61     		str	r2, [r3, #16]
 737:../STLibs//STM32_USB-Host-Device_Lib_V2.1.0/Libraries/STM32_USB_OTG_Driver/src/usb_dcd_int.c **** #ifdef USB_OTG_HS_DEDICATED_EP1_ENABLED  
 738:../STLibs//STM32_USB-Host-Device_Lib_V2.1.0/Libraries/STM32_USB_OTG_Driver/src/usb_dcd_int.c ****   USB_OTG_WRITE_REG32( &pdev->regs.DREGS->DINEP1MSK, diepmsk.d32 );
 739:../STLibs//STM32_USB-Host-Device_Lib_V2.1.0/Libraries/STM32_USB_OTG_Driver/src/usb_dcd_int.c **** #endif
 740:../STLibs//STM32_USB-Host-Device_Lib_V2.1.0/Libraries/STM32_USB_OTG_Driver/src/usb_dcd_int.c ****   /* Reset Device Address */
 741:../STLibs//STM32_USB-Host-Device_Lib_V2.1.0/Libraries/STM32_USB_OTG_Driver/src/usb_dcd_int.c ****   dcfg.d32 = USB_OTG_READ_REG32( &pdev->regs.DREGS->DCFG);
 381              		.loc 1 741 0
 382 019c 1A68     		ldr	r2, [r3]
 383              	.LVL61:
 742:../STLibs//STM32_USB-Host-Device_Lib_V2.1.0/Libraries/STM32_USB_OTG_Driver/src/usb_dcd_int.c ****   dcfg.b.devaddr = 0;
 384              		.loc 1 742 0
 385 019e 6FF30A12 		bfc	r2, #4, #7
 386              	.LVL62:
 743:../STLibs//STM32_USB-Host-Device_Lib_V2.1.0/Libraries/STM32_USB_OTG_Driver/src/usb_dcd_int.c ****   USB_OTG_WRITE_REG32( &pdev->regs.DREGS->DCFG, dcfg.d32);
 387              		.loc 1 743 0
 388 01a2 1A60     		str	r2, [r3]
 744:../STLibs//STM32_USB-Host-Device_Lib_V2.1.0/Libraries/STM32_USB_OTG_Driver/src/usb_dcd_int.c ****   
 745:../STLibs//STM32_USB-Host-Device_Lib_V2.1.0/Libraries/STM32_USB_OTG_Driver/src/usb_dcd_int.c ****   
 746:../STLibs//STM32_USB-Host-Device_Lib_V2.1.0/Libraries/STM32_USB_OTG_Driver/src/usb_dcd_int.c ****   /* setup EP0 to receive SETUP packets */
 747:../STLibs//STM32_USB-Host-Device_Lib_V2.1.0/Libraries/STM32_USB_OTG_Driver/src/usb_dcd_int.c ****   USB_OTG_EP0_OutStart(pdev);
 389              		.loc 1 747 0
 390 01a4 2046     		mov	r0, r4
 391 01a6 FFF7FEFF 		bl	USB_OTG_EP0_OutStart
 392              	.LVL63:
 748:../STLibs//STM32_USB-Host-Device_Lib_V2.1.0/Libraries/STM32_USB_OTG_Driver/src/usb_dcd_int.c ****   
 749:../STLibs//STM32_USB-Host-Device_Lib_V2.1.0/Libraries/STM32_USB_OTG_Driver/src/usb_dcd_int.c ****   /* Clear interrupt */
 750:../STLibs//STM32_USB-Host-Device_Lib_V2.1.0/Libraries/STM32_USB_OTG_Driver/src/usb_dcd_int.c ****   gintsts.d32 = 0;
 751:../STLibs//STM32_USB-Host-Device_Lib_V2.1.0/Libraries/STM32_USB_OTG_Driver/src/usb_dcd_int.c ****   gintsts.b.usbreset = 1;
 752:../STLibs//STM32_USB-Host-Device_Lib_V2.1.0/Libraries/STM32_USB_OTG_Driver/src/usb_dcd_int.c ****   USB_OTG_WRITE_REG32 (&pdev->regs.GREGS->GINTSTS, gintsts.d32);
 393              		.loc 1 752 0
 394 01aa E368     		ldr	r3, [r4, #12]
 395 01ac 4FF48052 		mov	r2, #4096
 396              	.LVL64:
 397 01b0 5A61     		str	r2, [r3, #20]
 753:../STLibs//STM32_USB-Host-Device_Lib_V2.1.0/Libraries/STM32_USB_OTG_Driver/src/usb_dcd_int.c ****   
 754:../STLibs//STM32_USB-Host-Device_Lib_V2.1.0/Libraries/STM32_USB_OTG_Driver/src/usb_dcd_int.c ****   /*Reset internal state machine */
 755:../STLibs//STM32_USB-Host-Device_Lib_V2.1.0/Libraries/STM32_USB_OTG_Driver/src/usb_dcd_int.c ****   USBD_DCD_INT_fops->Reset(pdev);
 398              		.loc 1 755 0
 399 01b2 504B     		ldr	r3, .L125
 400 01b4 1B68     		ldr	r3, [r3]
 401 01b6 2046     		mov	r0, r4
 402 01b8 1B69     		ldr	r3, [r3, #16]
 403 01ba 9847     		blx	r3
 404              	.LVL65:
 405              	.LBE56:
 406              	.LBE55:
 265:../STLibs//STM32_USB-Host-Device_Lib_V2.1.0/Libraries/STM32_USB_OTG_Driver/src/usb_dcd_int.c ****       
 407              		.loc 1 265 0
 408 01bc 0120     		movs	r0, #1
 409              	.LVL66:
 410              	.L42:
 268:../STLibs//STM32_USB-Host-Device_Lib_V2.1.0/Libraries/STM32_USB_OTG_Driver/src/usb_dcd_int.c ****     {
 411              		.loc 1 268 0
 412 01be 18F0200F 		tst	r8, #32
 413 01c2 18D0     		beq	.L45
 414              	.LVL67:
 415              	.LBB58:
 416              	.LBB59:
 756:../STLibs//STM32_USB-Host-Device_Lib_V2.1.0/Libraries/STM32_USB_OTG_Driver/src/usb_dcd_int.c ****   return 1;
 757:../STLibs//STM32_USB-Host-Device_Lib_V2.1.0/Libraries/STM32_USB_OTG_Driver/src/usb_dcd_int.c **** }
 758:../STLibs//STM32_USB-Host-Device_Lib_V2.1.0/Libraries/STM32_USB_OTG_Driver/src/usb_dcd_int.c **** 
 759:../STLibs//STM32_USB-Host-Device_Lib_V2.1.0/Libraries/STM32_USB_OTG_Driver/src/usb_dcd_int.c **** /**
 760:../STLibs//STM32_USB-Host-Device_Lib_V2.1.0/Libraries/STM32_USB_OTG_Driver/src/usb_dcd_int.c **** * @brief  DCD_HandleEnumDone_ISR
 761:../STLibs//STM32_USB-Host-Device_Lib_V2.1.0/Libraries/STM32_USB_OTG_Driver/src/usb_dcd_int.c **** *         Read the device status register and set the device speed
 762:../STLibs//STM32_USB-Host-Device_Lib_V2.1.0/Libraries/STM32_USB_OTG_Driver/src/usb_dcd_int.c **** * @param  pdev: device instance
 763:../STLibs//STM32_USB-Host-Device_Lib_V2.1.0/Libraries/STM32_USB_OTG_Driver/src/usb_dcd_int.c **** * @retval status
 764:../STLibs//STM32_USB-Host-Device_Lib_V2.1.0/Libraries/STM32_USB_OTG_Driver/src/usb_dcd_int.c **** */
 765:../STLibs//STM32_USB-Host-Device_Lib_V2.1.0/Libraries/STM32_USB_OTG_Driver/src/usb_dcd_int.c **** static uint32_t DCD_HandleEnumDone_ISR(USB_OTG_CORE_HANDLE *pdev)
 766:../STLibs//STM32_USB-Host-Device_Lib_V2.1.0/Libraries/STM32_USB_OTG_Driver/src/usb_dcd_int.c **** {
 767:../STLibs//STM32_USB-Host-Device_Lib_V2.1.0/Libraries/STM32_USB_OTG_Driver/src/usb_dcd_int.c ****   USB_OTG_GINTSTS_TypeDef  gintsts;
 768:../STLibs//STM32_USB-Host-Device_Lib_V2.1.0/Libraries/STM32_USB_OTG_Driver/src/usb_dcd_int.c ****   USB_OTG_GUSBCFG_TypeDef  gusbcfg;
 769:../STLibs//STM32_USB-Host-Device_Lib_V2.1.0/Libraries/STM32_USB_OTG_Driver/src/usb_dcd_int.c ****   
 770:../STLibs//STM32_USB-Host-Device_Lib_V2.1.0/Libraries/STM32_USB_OTG_Driver/src/usb_dcd_int.c ****   USB_OTG_EP0Activate(pdev);
 417              		.loc 1 770 0
 418 01c4 2046     		mov	r0, r4
 419              	.LVL68:
 420 01c6 FFF7FEFF 		bl	USB_OTG_EP0Activate
 421              	.LVL69:
 771:../STLibs//STM32_USB-Host-Device_Lib_V2.1.0/Libraries/STM32_USB_OTG_Driver/src/usb_dcd_int.c ****   
 772:../STLibs//STM32_USB-Host-Device_Lib_V2.1.0/Libraries/STM32_USB_OTG_Driver/src/usb_dcd_int.c ****   /* Set USB turn-around time based on device speed and PHY interface. */
 773:../STLibs//STM32_USB-Host-Device_Lib_V2.1.0/Libraries/STM32_USB_OTG_Driver/src/usb_dcd_int.c ****   gusbcfg.d32 = USB_OTG_READ_REG32(&pdev->regs.GREGS->GUSBCFG);
 422              		.loc 1 773 0
 423 01ca E368     		ldr	r3, [r4, #12]
 774:../STLibs//STM32_USB-Host-Device_Lib_V2.1.0/Libraries/STM32_USB_OTG_Driver/src/usb_dcd_int.c ****   
 775:../STLibs//STM32_USB-Host-Device_Lib_V2.1.0/Libraries/STM32_USB_OTG_Driver/src/usb_dcd_int.c ****   /* Full or High speed */
 776:../STLibs//STM32_USB-Host-Device_Lib_V2.1.0/Libraries/STM32_USB_OTG_Driver/src/usb_dcd_int.c ****   if ( USB_OTG_GetDeviceSpeed(pdev) == USB_SPEED_HIGH)
 424              		.loc 1 776 0
 425 01cc 2046     		mov	r0, r4
 773:../STLibs//STM32_USB-Host-Device_Lib_V2.1.0/Libraries/STM32_USB_OTG_Driver/src/usb_dcd_int.c ****   
 426              		.loc 1 773 0
 427 01ce DD68     		ldr	r5, [r3, #12]
 428              	.LVL70:
 429              		.loc 1 776 0
 430 01d0 FFF7FEFF 		bl	USB_OTG_GetDeviceSpeed
 431              	.LVL71:
 432 01d4 0328     		cmp	r0, #3
 433 01d6 40F04D81 		bne	.L46
 777:../STLibs//STM32_USB-Host-Device_Lib_V2.1.0/Libraries/STM32_USB_OTG_Driver/src/usb_dcd_int.c ****   {
 778:../STLibs//STM32_USB-Host-Device_Lib_V2.1.0/Libraries/STM32_USB_OTG_Driver/src/usb_dcd_int.c ****     pdev->cfg.speed            = USB_OTG_SPEED_HIGH;
 434              		.loc 1 778 0
 435 01da 0023     		movs	r3, #0
 436 01dc A370     		strb	r3, [r4, #2]
 779:../STLibs//STM32_USB-Host-Device_Lib_V2.1.0/Libraries/STM32_USB_OTG_Driver/src/usb_dcd_int.c ****     pdev->cfg.mps              = USB_OTG_HS_MAX_PACKET_SIZE ;    
 437              		.loc 1 779 0
 438 01de 4FF40073 		mov	r3, #512
 439 01e2 A380     		strh	r3, [r4, #4]	@ movhi
 780:../STLibs//STM32_USB-Host-Device_Lib_V2.1.0/Libraries/STM32_USB_OTG_Driver/src/usb_dcd_int.c ****     gusbcfg.b.usbtrdtim = 9;
 440              		.loc 1 780 0
 441 01e4 0923     		movs	r3, #9
 442              	.L124:
 781:../STLibs//STM32_USB-Host-Device_Lib_V2.1.0/Libraries/STM32_USB_OTG_Driver/src/usb_dcd_int.c ****   }
 782:../STLibs//STM32_USB-Host-Device_Lib_V2.1.0/Libraries/STM32_USB_OTG_Driver/src/usb_dcd_int.c ****   else
 783:../STLibs//STM32_USB-Host-Device_Lib_V2.1.0/Libraries/STM32_USB_OTG_Driver/src/usb_dcd_int.c ****   {
 784:../STLibs//STM32_USB-Host-Device_Lib_V2.1.0/Libraries/STM32_USB_OTG_Driver/src/usb_dcd_int.c ****     pdev->cfg.speed            = USB_OTG_SPEED_FULL;
 785:../STLibs//STM32_USB-Host-Device_Lib_V2.1.0/Libraries/STM32_USB_OTG_Driver/src/usb_dcd_int.c ****     pdev->cfg.mps              = USB_OTG_FS_MAX_PACKET_SIZE ;  
 786:../STLibs//STM32_USB-Host-Device_Lib_V2.1.0/Libraries/STM32_USB_OTG_Driver/src/usb_dcd_int.c ****     gusbcfg.b.usbtrdtim = 5;
 443              		.loc 1 786 0
 444 01e6 63F38D25 		bfi	r5, r3, #10, #4
 787:../STLibs//STM32_USB-Host-Device_Lib_V2.1.0/Libraries/STM32_USB_OTG_Driver/src/usb_dcd_int.c ****   }
 788:../STLibs//STM32_USB-Host-Device_Lib_V2.1.0/Libraries/STM32_USB_OTG_Driver/src/usb_dcd_int.c ****   
 789:../STLibs//STM32_USB-Host-Device_Lib_V2.1.0/Libraries/STM32_USB_OTG_Driver/src/usb_dcd_int.c ****   USB_OTG_WRITE_REG32(&pdev->regs.GREGS->GUSBCFG, gusbcfg.d32);
 445              		.loc 1 789 0
 446 01ea E368     		ldr	r3, [r4, #12]
 790:../STLibs//STM32_USB-Host-Device_Lib_V2.1.0/Libraries/STM32_USB_OTG_Driver/src/usb_dcd_int.c ****   
 791:../STLibs//STM32_USB-Host-Device_Lib_V2.1.0/Libraries/STM32_USB_OTG_Driver/src/usb_dcd_int.c ****   /* Clear interrupt */
 792:../STLibs//STM32_USB-Host-Device_Lib_V2.1.0/Libraries/STM32_USB_OTG_Driver/src/usb_dcd_int.c ****   gintsts.d32 = 0;
 447              		.loc 1 792 0
 448 01ec 4FF40052 		mov	r2, #8192
 449              	.LVL72:
 789:../STLibs//STM32_USB-Host-Device_Lib_V2.1.0/Libraries/STM32_USB_OTG_Driver/src/usb_dcd_int.c ****   
 450              		.loc 1 789 0
 451 01f0 DD60     		str	r5, [r3, #12]
 452              	.LBE59:
 453              	.LBE58:
 270:../STLibs//STM32_USB-Host-Device_Lib_V2.1.0/Libraries/STM32_USB_OTG_Driver/src/usb_dcd_int.c ****     }
 454              		.loc 1 270 0
 455 01f2 0120     		movs	r0, #1
 456              	.LVL73:
 457              	.LBB62:
 458              	.LBB60:
 793:../STLibs//STM32_USB-Host-Device_Lib_V2.1.0/Libraries/STM32_USB_OTG_Driver/src/usb_dcd_int.c ****   gintsts.b.enumdone = 1;
 794:../STLibs//STM32_USB-Host-Device_Lib_V2.1.0/Libraries/STM32_USB_OTG_Driver/src/usb_dcd_int.c ****   USB_OTG_WRITE_REG32( &pdev->regs.GREGS->GINTSTS, gintsts.d32 );
 459              		.loc 1 794 0
 460 01f4 5A61     		str	r2, [r3, #20]
 461              	.LVL74:
 462              	.L45:
 463              	.LBE60:
 464              	.LBE62:
 273:../STLibs//STM32_USB-Host-Device_Lib_V2.1.0/Libraries/STM32_USB_OTG_Driver/src/usb_dcd_int.c ****     {
 465              		.loc 1 273 0
 466 01f6 009B     		ldr	r3, [sp]
 467 01f8 DD06     		lsls	r5, r3, #27
 468              	.LVL75:
 469 01fa 09D5     		bpl	.L48
 470              	.LVL76:
 471              	.LBB63:
 472              	.LBB64:
 795:../STLibs//STM32_USB-Host-Device_Lib_V2.1.0/Libraries/STM32_USB_OTG_Driver/src/usb_dcd_int.c ****   return 1;
 796:../STLibs//STM32_USB-Host-Device_Lib_V2.1.0/Libraries/STM32_USB_OTG_Driver/src/usb_dcd_int.c **** }
 797:../STLibs//STM32_USB-Host-Device_Lib_V2.1.0/Libraries/STM32_USB_OTG_Driver/src/usb_dcd_int.c **** 
 798:../STLibs//STM32_USB-Host-Device_Lib_V2.1.0/Libraries/STM32_USB_OTG_Driver/src/usb_dcd_int.c **** 
 799:../STLibs//STM32_USB-Host-Device_Lib_V2.1.0/Libraries/STM32_USB_OTG_Driver/src/usb_dcd_int.c **** /**
 800:../STLibs//STM32_USB-Host-Device_Lib_V2.1.0/Libraries/STM32_USB_OTG_Driver/src/usb_dcd_int.c **** * @brief  DCD_IsoINIncomplete_ISR
 801:../STLibs//STM32_USB-Host-Device_Lib_V2.1.0/Libraries/STM32_USB_OTG_Driver/src/usb_dcd_int.c **** *         handle the ISO IN incomplete interrupt
 802:../STLibs//STM32_USB-Host-Device_Lib_V2.1.0/Libraries/STM32_USB_OTG_Driver/src/usb_dcd_int.c **** * @param  pdev: device instance
 803:../STLibs//STM32_USB-Host-Device_Lib_V2.1.0/Libraries/STM32_USB_OTG_Driver/src/usb_dcd_int.c **** * @retval status
 804:../STLibs//STM32_USB-Host-Device_Lib_V2.1.0/Libraries/STM32_USB_OTG_Driver/src/usb_dcd_int.c **** */
 805:../STLibs//STM32_USB-Host-Device_Lib_V2.1.0/Libraries/STM32_USB_OTG_Driver/src/usb_dcd_int.c **** static uint32_t DCD_IsoINIncomplete_ISR(USB_OTG_CORE_HANDLE *pdev)
 806:../STLibs//STM32_USB-Host-Device_Lib_V2.1.0/Libraries/STM32_USB_OTG_Driver/src/usb_dcd_int.c **** {
 807:../STLibs//STM32_USB-Host-Device_Lib_V2.1.0/Libraries/STM32_USB_OTG_Driver/src/usb_dcd_int.c ****   USB_OTG_GINTSTS_TypeDef gintsts;  
 808:../STLibs//STM32_USB-Host-Device_Lib_V2.1.0/Libraries/STM32_USB_OTG_Driver/src/usb_dcd_int.c ****   
 809:../STLibs//STM32_USB-Host-Device_Lib_V2.1.0/Libraries/STM32_USB_OTG_Driver/src/usb_dcd_int.c ****   gintsts.d32 = 0;
 810:../STLibs//STM32_USB-Host-Device_Lib_V2.1.0/Libraries/STM32_USB_OTG_Driver/src/usb_dcd_int.c **** 
 811:../STLibs//STM32_USB-Host-Device_Lib_V2.1.0/Libraries/STM32_USB_OTG_Driver/src/usb_dcd_int.c ****   USBD_DCD_INT_fops->IsoINIncomplete (pdev); 
 473              		.loc 1 811 0
 474 01fc 3D4B     		ldr	r3, .L125
 475 01fe 1B68     		ldr	r3, [r3]
 476 0200 2046     		mov	r0, r4
 477              	.LVL77:
 478 0202 DB69     		ldr	r3, [r3, #28]
 479 0204 9847     		blx	r3
 480              	.LVL78:
 812:../STLibs//STM32_USB-Host-Device_Lib_V2.1.0/Libraries/STM32_USB_OTG_Driver/src/usb_dcd_int.c ****   
 813:../STLibs//STM32_USB-Host-Device_Lib_V2.1.0/Libraries/STM32_USB_OTG_Driver/src/usb_dcd_int.c ****   /* Clear interrupt */
 814:../STLibs//STM32_USB-Host-Device_Lib_V2.1.0/Libraries/STM32_USB_OTG_Driver/src/usb_dcd_int.c ****   gintsts.b.incomplisoin = 1;
 815:../STLibs//STM32_USB-Host-Device_Lib_V2.1.0/Libraries/STM32_USB_OTG_Driver/src/usb_dcd_int.c ****   USB_OTG_WRITE_REG32(&pdev->regs.GREGS->GINTSTS, gintsts.d32);
 481              		.loc 1 815 0
 482 0206 E368     		ldr	r3, [r4, #12]
 483 0208 4FF48012 		mov	r2, #1048576
 484              	.LVL79:
 485 020c 5A61     		str	r2, [r3, #20]
 486              	.LVL80:
 487              	.LBE64:
 488              	.LBE63:
 275:../STLibs//STM32_USB-Host-Device_Lib_V2.1.0/Libraries/STM32_USB_OTG_Driver/src/usb_dcd_int.c ****     }
 489              		.loc 1 275 0
 490 020e 0120     		movs	r0, #1
 491              	.LVL81:
 492              	.L48:
 278:../STLibs//STM32_USB-Host-Device_Lib_V2.1.0/Libraries/STM32_USB_OTG_Driver/src/usb_dcd_int.c ****     {
 493              		.loc 1 278 0
 494 0210 009B     		ldr	r3, [sp]
 495 0212 9906     		lsls	r1, r3, #26
 496              	.LVL82:
 497 0214 09D5     		bpl	.L49
 498              	.LVL83:
 499              	.LBB65:
 500              	.LBB66:
 816:../STLibs//STM32_USB-Host-Device_Lib_V2.1.0/Libraries/STM32_USB_OTG_Driver/src/usb_dcd_int.c ****   
 817:../STLibs//STM32_USB-Host-Device_Lib_V2.1.0/Libraries/STM32_USB_OTG_Driver/src/usb_dcd_int.c ****   return 1;
 818:../STLibs//STM32_USB-Host-Device_Lib_V2.1.0/Libraries/STM32_USB_OTG_Driver/src/usb_dcd_int.c **** }
 819:../STLibs//STM32_USB-Host-Device_Lib_V2.1.0/Libraries/STM32_USB_OTG_Driver/src/usb_dcd_int.c **** 
 820:../STLibs//STM32_USB-Host-Device_Lib_V2.1.0/Libraries/STM32_USB_OTG_Driver/src/usb_dcd_int.c **** /**
 821:../STLibs//STM32_USB-Host-Device_Lib_V2.1.0/Libraries/STM32_USB_OTG_Driver/src/usb_dcd_int.c **** * @brief  DCD_IsoOUTIncomplete_ISR
 822:../STLibs//STM32_USB-Host-Device_Lib_V2.1.0/Libraries/STM32_USB_OTG_Driver/src/usb_dcd_int.c **** *         handle the ISO OUT incomplete interrupt
 823:../STLibs//STM32_USB-Host-Device_Lib_V2.1.0/Libraries/STM32_USB_OTG_Driver/src/usb_dcd_int.c **** * @param  pdev: device instance
 824:../STLibs//STM32_USB-Host-Device_Lib_V2.1.0/Libraries/STM32_USB_OTG_Driver/src/usb_dcd_int.c **** * @retval status
 825:../STLibs//STM32_USB-Host-Device_Lib_V2.1.0/Libraries/STM32_USB_OTG_Driver/src/usb_dcd_int.c **** */
 826:../STLibs//STM32_USB-Host-Device_Lib_V2.1.0/Libraries/STM32_USB_OTG_Driver/src/usb_dcd_int.c **** static uint32_t DCD_IsoOUTIncomplete_ISR(USB_OTG_CORE_HANDLE *pdev)
 827:../STLibs//STM32_USB-Host-Device_Lib_V2.1.0/Libraries/STM32_USB_OTG_Driver/src/usb_dcd_int.c **** {
 828:../STLibs//STM32_USB-Host-Device_Lib_V2.1.0/Libraries/STM32_USB_OTG_Driver/src/usb_dcd_int.c ****   USB_OTG_GINTSTS_TypeDef gintsts;  
 829:../STLibs//STM32_USB-Host-Device_Lib_V2.1.0/Libraries/STM32_USB_OTG_Driver/src/usb_dcd_int.c ****   
 830:../STLibs//STM32_USB-Host-Device_Lib_V2.1.0/Libraries/STM32_USB_OTG_Driver/src/usb_dcd_int.c ****   gintsts.d32 = 0;
 831:../STLibs//STM32_USB-Host-Device_Lib_V2.1.0/Libraries/STM32_USB_OTG_Driver/src/usb_dcd_int.c **** 
 832:../STLibs//STM32_USB-Host-Device_Lib_V2.1.0/Libraries/STM32_USB_OTG_Driver/src/usb_dcd_int.c ****   USBD_DCD_INT_fops->IsoOUTIncomplete (pdev); 
 501              		.loc 1 832 0
 502 0216 374B     		ldr	r3, .L125
 503 0218 1B68     		ldr	r3, [r3]
 504 021a 2046     		mov	r0, r4
 505              	.LVL84:
 506 021c 1B6A     		ldr	r3, [r3, #32]
 507 021e 9847     		blx	r3
 508              	.LVL85:
 833:../STLibs//STM32_USB-Host-Device_Lib_V2.1.0/Libraries/STM32_USB_OTG_Driver/src/usb_dcd_int.c ****   
 834:../STLibs//STM32_USB-Host-Device_Lib_V2.1.0/Libraries/STM32_USB_OTG_Driver/src/usb_dcd_int.c ****   /* Clear interrupt */
 835:../STLibs//STM32_USB-Host-Device_Lib_V2.1.0/Libraries/STM32_USB_OTG_Driver/src/usb_dcd_int.c ****   gintsts.b.incomplisoout = 1;
 836:../STLibs//STM32_USB-Host-Device_Lib_V2.1.0/Libraries/STM32_USB_OTG_Driver/src/usb_dcd_int.c ****   USB_OTG_WRITE_REG32(&pdev->regs.GREGS->GINTSTS, gintsts.d32);
 509              		.loc 1 836 0
 510 0220 E368     		ldr	r3, [r4, #12]
 511 0222 4FF40012 		mov	r2, #2097152
 512              	.LVL86:
 513 0226 5A61     		str	r2, [r3, #20]
 514              	.LVL87:
 515              	.LBE66:
 516              	.LBE65:
 280:../STLibs//STM32_USB-Host-Device_Lib_V2.1.0/Libraries/STM32_USB_OTG_Driver/src/usb_dcd_int.c ****     }    
 517              		.loc 1 280 0
 518 0228 0120     		movs	r0, #1
 519              	.LVL88:
 520              	.L49:
 283:../STLibs//STM32_USB-Host-Device_Lib_V2.1.0/Libraries/STM32_USB_OTG_Driver/src/usb_dcd_int.c ****     {
 521              		.loc 1 283 0
 522 022a 19F0400F 		tst	r9, #64
 523 022e 09D0     		beq	.L50
 524              	.LVL89:
 525              	.LBB67:
 526              	.LBB68:
 307:../STLibs//STM32_USB-Host-Device_Lib_V2.1.0/Libraries/STM32_USB_OTG_Driver/src/usb_dcd_int.c **** 
 527              		.loc 1 307 0
 528 0230 304B     		ldr	r3, .L125
 529 0232 1B68     		ldr	r3, [r3]
 530 0234 2046     		mov	r0, r4
 531              	.LVL90:
 532 0236 5B6A     		ldr	r3, [r3, #36]
 533 0238 9847     		blx	r3
 534              	.LVL91:
 312:../STLibs//STM32_USB-Host-Device_Lib_V2.1.0/Libraries/STM32_USB_OTG_Driver/src/usb_dcd_int.c ****   return 1;
 535              		.loc 1 312 0
 536 023a E368     		ldr	r3, [r4, #12]
 537 023c 4FF08042 		mov	r2, #1073741824
 538              	.LVL92:
 539 0240 5A61     		str	r2, [r3, #20]
 540              	.LVL93:
 541              	.LBE68:
 542              	.LBE67:
 285:../STLibs//STM32_USB-Host-Device_Lib_V2.1.0/Libraries/STM32_USB_OTG_Driver/src/usb_dcd_int.c ****     }
 543              		.loc 1 285 0
 544 0242 0120     		movs	r0, #1
 545              	.LVL94:
 546              	.L50:
 288:../STLibs//STM32_USB-Host-Device_Lib_V2.1.0/Libraries/STM32_USB_OTG_Driver/src/usb_dcd_int.c ****     {
 547              		.loc 1 288 0
 548 0244 7A07     		lsls	r2, r7, #29
 549              	.LVL95:
 550 0246 7FF5E3AE 		bpl	.L1
 551              	.LVL96:
 552              	.LBB69:
 553              	.LBB70:
 328:../STLibs//STM32_USB-Host-Device_Lib_V2.1.0/Libraries/STM32_USB_OTG_Driver/src/usb_dcd_int.c ****   
 554              		.loc 1 328 0
 555 024a E368     		ldr	r3, [r4, #12]
 556 024c 5D68     		ldr	r5, [r3, #4]
 557              	.LVL97:
 330:../STLibs//STM32_USB-Host-Device_Lib_V2.1.0/Libraries/STM32_USB_OTG_Driver/src/usb_dcd_int.c ****   {
 558              		.loc 1 330 0
 559 024e 6B07     		lsls	r3, r5, #29
 560 0250 04D5     		bpl	.L51
 332:../STLibs//STM32_USB-Host-Device_Lib_V2.1.0/Libraries/STM32_USB_OTG_Driver/src/usb_dcd_int.c ****   }
 561              		.loc 1 332 0
 562 0252 284B     		ldr	r3, .L125
 563 0254 1B68     		ldr	r3, [r3]
 564 0256 2046     		mov	r0, r4
 565              	.LVL98:
 566 0258 9B6A     		ldr	r3, [r3, #40]
 567 025a 9847     		blx	r3
 568              	.LVL99:
 569              	.L51:
 335:../STLibs//STM32_USB-Host-Device_Lib_V2.1.0/Libraries/STM32_USB_OTG_Driver/src/usb_dcd_int.c ****   return 1;
 570              		.loc 1 335 0
 571 025c E368     		ldr	r3, [r4, #12]
 572              	.LBE70:
 573              	.LBE69:
 290:../STLibs//STM32_USB-Host-Device_Lib_V2.1.0/Libraries/STM32_USB_OTG_Driver/src/usb_dcd_int.c ****     }   
 574              		.loc 1 290 0
 575 025e 0120     		movs	r0, #1
 576              	.LBB72:
 577              	.LBB71:
 335:../STLibs//STM32_USB-Host-Device_Lib_V2.1.0/Libraries/STM32_USB_OTG_Driver/src/usb_dcd_int.c ****   return 1;
 578              		.loc 1 335 0
 579 0260 5D60     		str	r5, [r3, #4]
 580              	.LVL100:
 581 0262 D5E6     		b	.L1
 582              	.LVL101:
 583              	.L15:
 584              	.LBE71:
 585              	.LBE72:
 586              	.LBB73:
 587              	.LBB33:
 506:../STLibs//STM32_USB-Host-Device_Lib_V2.1.0/Libraries/STM32_USB_OTG_Driver/src/usb_dcd_int.c ****     {
 588              		.loc 1 506 0
 589 0264 F907     		lsls	r1, r7, #31
 590 0266 1CD5     		bpl	.L8
 509:../STLibs//STM32_USB-Host-Device_Lib_V2.1.0/Libraries/STM32_USB_OTG_Driver/src/usb_dcd_int.c ****       
 591              		.loc 1 509 0
 592 0268 5FFA85FA 		uxtb	r10, r5
 593 026c 5146     		mov	r1, r10
 594 026e 2046     		mov	r0, r4
 595 0270 FFF7FEFF 		bl	USB_OTG_ReadDevOutEP_itr
 596              	.LVL102:
 512:../STLibs//STM32_USB-Host-Device_Lib_V2.1.0/Libraries/STM32_USB_OTG_Driver/src/usb_dcd_int.c ****       {
 597              		.loc 1 512 0
 598 0274 C207     		lsls	r2, r0, #31
 599 0276 17D4     		bmi	.L9
 509:../STLibs//STM32_USB-Host-Device_Lib_V2.1.0/Libraries/STM32_USB_OTG_Driver/src/usb_dcd_int.c ****       
 600              		.loc 1 509 0
 601 0278 0646     		mov	r6, r0
 602              	.LVL103:
 603              	.L10:
 537:../STLibs//STM32_USB-Host-Device_Lib_V2.1.0/Libraries/STM32_USB_OTG_Driver/src/usb_dcd_int.c ****       {
 604              		.loc 1 537 0
 605 027a B307     		lsls	r3, r6, #30
 540:../STLibs//STM32_USB-Host-Device_Lib_V2.1.0/Libraries/STM32_USB_OTG_Driver/src/usb_dcd_int.c ****       }
 606              		.loc 1 540 0
 607 027c 41BF     		itttt	mi
 608 027e 04EB8503 		addmi	r3, r4, r5, lsl #2
 609 0282 0226     		movmi	r6, #2
 610              	.LVL104:
 611 0284 5B6D     		ldrmi	r3, [r3, #84]
 612              	.LVL105:
 613 0286 C3F808B0 		strmi	fp, [r3, #8]
 543:../STLibs//STM32_USB-Host-Device_Lib_V2.1.0/Libraries/STM32_USB_OTG_Driver/src/usb_dcd_int.c ****       {
 614              		.loc 1 543 0
 615 028a 3007     		lsls	r0, r6, #28
 616 028c 09D5     		bpl	.L8
 548:../STLibs//STM32_USB-Host-Device_Lib_V2.1.0/Libraries/STM32_USB_OTG_Driver/src/usb_dcd_int.c ****         CLEAR_OUT_EP_INTR(epnum, setup);
 617              		.loc 1 548 0
 618 028e D9F80030 		ldr	r3, [r9]
 619 0292 2046     		mov	r0, r4
 620 0294 9B68     		ldr	r3, [r3, #8]
 621 0296 9847     		blx	r3
 622              	.LVL106:
 549:../STLibs//STM32_USB-Host-Device_Lib_V2.1.0/Libraries/STM32_USB_OTG_Driver/src/usb_dcd_int.c ****       }
 623              		.loc 1 549 0
 624 0298 04EB8503 		add	r3, r4, r5, lsl #2
 625 029c 0822     		movs	r2, #8
 626 029e 5B6D     		ldr	r3, [r3, #84]
 627 02a0 9A60     		str	r2, [r3, #8]
 628              	.L8:
 552:../STLibs//STM32_USB-Host-Device_Lib_V2.1.0/Libraries/STM32_USB_OTG_Driver/src/usb_dcd_int.c ****     ep_intr >>= 1;
 629              		.loc 1 552 0
 630 02a2 0135     		adds	r5, r5, #1
 631              	.LVL107:
 553:../STLibs//STM32_USB-Host-Device_Lib_V2.1.0/Libraries/STM32_USB_OTG_Driver/src/usb_dcd_int.c ****   }
 632              		.loc 1 553 0
 633 02a4 7F08     		lsrs	r7, r7, #1
 634              	.LVL108:
 635 02a6 CBE6     		b	.L6
 636              	.L9:
 637 02a8 04EB8502 		add	r2, r4, r5, lsl #2
 515:../STLibs//STM32_USB-Host-Device_Lib_V2.1.0/Libraries/STM32_USB_OTG_Driver/src/usb_dcd_int.c ****         if (pdev->cfg.dma_enable == 1)
 638              		.loc 1 515 0
 639 02ac 0126     		movs	r6, #1
 640              	.LVL109:
 641 02ae 516D     		ldr	r1, [r2, #84]
 642              	.LVL110:
 643 02b0 8E60     		str	r6, [r1, #8]
 516:../STLibs//STM32_USB-Host-Device_Lib_V2.1.0/Libraries/STM32_USB_OTG_Driver/src/usb_dcd_int.c ****         {
 644              		.loc 1 516 0
 645 02b2 E078     		ldrb	r0, [r4, #3]	@ zero_extendqisi2
 646 02b4 B042     		cmp	r0, r6
 647              	.LVL111:
 648 02b6 0AD1     		bne	.L11
 649 02b8 2420     		movs	r0, #36
 518:../STLibs//STM32_USB-Host-Device_Lib_V2.1.0/Libraries/STM32_USB_OTG_Driver/src/usb_dcd_int.c ****           /*ToDo : handle more than one single MPS size packet */
 650              		.loc 1 518 0
 651 02ba 0969     		ldr	r1, [r1, #16]
 652 02bc 00FB0522 		mla	r2, r0, r5, r2
 521:../STLibs//STM32_USB-Host-Device_Lib_V2.1.0/Libraries/STM32_USB_OTG_Driver/src/usb_dcd_int.c ****         }
 653              		.loc 1 521 0
 654 02c0 C1F31200 		ubfx	r0, r1, #0, #19
 520:../STLibs//STM32_USB-Host-Device_Lib_V2.1.0/Libraries/STM32_USB_OTG_Driver/src/usb_dcd_int.c ****             deptsiz.b.xfersize;
 655              		.loc 1 520 0
 656 02c4 D2F87C13 		ldr	r1, [r2, #892]
 657 02c8 091A     		subs	r1, r1, r0
 658 02ca C2F88C13 		str	r1, [r2, #908]
 659              	.L11:
 525:../STLibs//STM32_USB-Host-Device_Lib_V2.1.0/Libraries/STM32_USB_OTG_Driver/src/usb_dcd_int.c ****         
 660              		.loc 1 525 0
 661 02ce D9F80020 		ldr	r2, [r9]
 662 02d2 5146     		mov	r1, r10
 663 02d4 1268     		ldr	r2, [r2]
 664 02d6 2046     		mov	r0, r4
 665 02d8 9047     		blx	r2
 666              	.LVL112:
 527:../STLibs//STM32_USB-Host-Device_Lib_V2.1.0/Libraries/STM32_USB_OTG_Driver/src/usb_dcd_int.c ****         {
 667              		.loc 1 527 0
 668 02da E378     		ldrb	r3, [r4, #3]	@ zero_extendqisi2
 669 02dc 012B     		cmp	r3, #1
 670 02de CCD1     		bne	.L10
 529:../STLibs//STM32_USB-Host-Device_Lib_V2.1.0/Libraries/STM32_USB_OTG_Driver/src/usb_dcd_int.c ****           {
 671              		.loc 1 529 0
 672 02e0 002D     		cmp	r5, #0
 673 02e2 CAD1     		bne	.L10
 674 02e4 94F81131 		ldrb	r3, [r4, #273]	@ zero_extendqisi2
 675 02e8 052B     		cmp	r3, #5
 676 02ea C6D1     		bne	.L10
 532:../STLibs//STM32_USB-Host-Device_Lib_V2.1.0/Libraries/STM32_USB_OTG_Driver/src/usb_dcd_int.c ****           }
 677              		.loc 1 532 0
 678 02ec 2046     		mov	r0, r4
 679 02ee FFF7FEFF 		bl	USB_OTG_EP0_OutStart
 680              	.LVL113:
 681 02f2 C2E7     		b	.L10
 682              	.L126:
 683              		.align	2
 684              	.L125:
 685 02f4 00000000 		.word	USBD_DCD_INT_fops
 686 02f8 00ED00E0 		.word	-536810240
 687              	.LVL114:
 688              	.L31:
 689              	.LBE33:
 690              	.LBE73:
 691              	.LBB74:
 692              	.LBB44:
 435:../STLibs//STM32_USB-Host-Device_Lib_V2.1.0/Libraries/STM32_USB_OTG_Driver/src/usb_dcd_int.c ****     {
 693              		.loc 1 435 0
 694 02fc 19F0010F 		tst	r9, #1
 695 0300 6BD0     		beq	.L19
 696              	.LBB36:
 697              	.LBB37:
 837:../STLibs//STM32_USB-Host-Device_Lib_V2.1.0/Libraries/STM32_USB_OTG_Driver/src/usb_dcd_int.c ****   return 1;
 838:../STLibs//STM32_USB-Host-Device_Lib_V2.1.0/Libraries/STM32_USB_OTG_Driver/src/usb_dcd_int.c **** }
 839:../STLibs//STM32_USB-Host-Device_Lib_V2.1.0/Libraries/STM32_USB_OTG_Driver/src/usb_dcd_int.c **** /**
 840:../STLibs//STM32_USB-Host-Device_Lib_V2.1.0/Libraries/STM32_USB_OTG_Driver/src/usb_dcd_int.c **** * @brief  DCD_ReadDevInEP
 841:../STLibs//STM32_USB-Host-Device_Lib_V2.1.0/Libraries/STM32_USB_OTG_Driver/src/usb_dcd_int.c **** *         Reads ep flags
 842:../STLibs//STM32_USB-Host-Device_Lib_V2.1.0/Libraries/STM32_USB_OTG_Driver/src/usb_dcd_int.c **** * @param  pdev: device instance
 843:../STLibs//STM32_USB-Host-Device_Lib_V2.1.0/Libraries/STM32_USB_OTG_Driver/src/usb_dcd_int.c **** * @retval status
 844:../STLibs//STM32_USB-Host-Device_Lib_V2.1.0/Libraries/STM32_USB_OTG_Driver/src/usb_dcd_int.c **** */
 845:../STLibs//STM32_USB-Host-Device_Lib_V2.1.0/Libraries/STM32_USB_OTG_Driver/src/usb_dcd_int.c **** static uint32_t DCD_ReadDevInEP (USB_OTG_CORE_HANDLE *pdev, uint8_t epnum)
 846:../STLibs//STM32_USB-Host-Device_Lib_V2.1.0/Libraries/STM32_USB_OTG_Driver/src/usb_dcd_int.c **** {
 847:../STLibs//STM32_USB-Host-Device_Lib_V2.1.0/Libraries/STM32_USB_OTG_Driver/src/usb_dcd_int.c ****   uint32_t v, msk, emp;
 848:../STLibs//STM32_USB-Host-Device_Lib_V2.1.0/Libraries/STM32_USB_OTG_Driver/src/usb_dcd_int.c ****   msk = USB_OTG_READ_REG32(&pdev->regs.DREGS->DIEPMSK);
 698              		.loc 1 848 0
 699 0302 2369     		ldr	r3, [r4, #16]
 700              	.LBE37:
 701              	.LBE36:
 437:../STLibs//STM32_USB-Host-Device_Lib_V2.1.0/Libraries/STM32_USB_OTG_Driver/src/usb_dcd_int.c ****       if ( diepint.b.xfercompl )
 702              		.loc 1 437 0
 703 0304 5FFA86FA 		uxtb	r10, r6
 704              	.LVL115:
 705              	.LBB39:
 706              	.LBB38:
 707              		.loc 1 848 0
 708 0308 1969     		ldr	r1, [r3, #16]
 709              	.LVL116:
 849:../STLibs//STM32_USB-Host-Device_Lib_V2.1.0/Libraries/STM32_USB_OTG_Driver/src/usb_dcd_int.c ****   emp = USB_OTG_READ_REG32(&pdev->regs.DREGS->DIEPEMPMSK);
 710              		.loc 1 849 0
 711 030a 5F6B     		ldr	r7, [r3, #52]
 712              	.LVL117:
 850:../STLibs//STM32_USB-Host-Device_Lib_V2.1.0/Libraries/STM32_USB_OTG_Driver/src/usb_dcd_int.c ****   msk |= ((emp >> epnum) & 0x1) << 7;
 851:../STLibs//STM32_USB-Host-Device_Lib_V2.1.0/Libraries/STM32_USB_OTG_Driver/src/usb_dcd_int.c ****   v = USB_OTG_READ_REG32(&pdev->regs.INEP_REGS[epnum]->DIEPINT) & msk;
 713              		.loc 1 851 0
 714 030c 04EB8A02 		add	r2, r4, r10, lsl #2
 850:../STLibs//STM32_USB-Host-Device_Lib_V2.1.0/Libraries/STM32_USB_OTG_Driver/src/usb_dcd_int.c ****   msk |= ((emp >> epnum) & 0x1) << 7;
 715              		.loc 1 850 0
 716 0310 27FA0AF7 		lsr	r7, r7, r10
 717              	.LVL118:
 718              		.loc 1 851 0
 719 0314 9269     		ldr	r2, [r2, #24]
 850:../STLibs//STM32_USB-Host-Device_Lib_V2.1.0/Libraries/STM32_USB_OTG_Driver/src/usb_dcd_int.c ****   msk |= ((emp >> epnum) & 0x1) << 7;
 720              		.loc 1 850 0
 721 0316 FF01     		lsls	r7, r7, #7
 722              		.loc 1 851 0
 723 0318 9268     		ldr	r2, [r2, #8]
 850:../STLibs//STM32_USB-Host-Device_Lib_V2.1.0/Libraries/STM32_USB_OTG_Driver/src/usb_dcd_int.c ****   msk |= ((emp >> epnum) & 0x1) << 7;
 724              		.loc 1 850 0
 725 031a FFB2     		uxtb	r7, r7
 726 031c 0F43     		orrs	r7, r7, r1
 727              		.loc 1 851 0
 728 031e 1740     		ands	r7, r7, r2
 729              	.LVL119:
 730              	.LBE38:
 731              	.LBE39:
 438:../STLibs//STM32_USB-Host-Device_Lib_V2.1.0/Libraries/STM32_USB_OTG_Driver/src/usb_dcd_int.c ****       {
 732              		.loc 1 438 0
 733 0320 FA07     		lsls	r2, r7, #31
 734 0322 1BD5     		bpl	.L21
 735              	.LVL120:
 441:../STLibs//STM32_USB-Host-Device_Lib_V2.1.0/Libraries/STM32_USB_OTG_Driver/src/usb_dcd_int.c ****         CLEAR_IN_EP_INTR(epnum, xfercompl);
 736              		.loc 1 441 0
 737 0324 5A6B     		ldr	r2, [r3, #52]
 440:../STLibs//STM32_USB-Host-Device_Lib_V2.1.0/Libraries/STM32_USB_OTG_Driver/src/usb_dcd_int.c ****         USB_OTG_MODIFY_REG32(&pdev->regs.DREGS->DIEPEMPMSK, fifoemptymsk, 0);
 738              		.loc 1 440 0
 739 0326 0121     		movs	r1, #1
 740 0328 B140     		lsls	r1, r1, r6
 741              	.LVL121:
 441:../STLibs//STM32_USB-Host-Device_Lib_V2.1.0/Libraries/STM32_USB_OTG_Driver/src/usb_dcd_int.c ****         CLEAR_IN_EP_INTR(epnum, xfercompl);
 742              		.loc 1 441 0
 743 032a 22EA0102 		bic	r2, r2, r1
 744 032e 5A63     		str	r2, [r3, #52]
 442:../STLibs//STM32_USB-Host-Device_Lib_V2.1.0/Libraries/STM32_USB_OTG_Driver/src/usb_dcd_int.c ****         /* TX COMPLETE */
 745              		.loc 1 442 0
 746 0330 04EB8603 		add	r3, r4, r6, lsl #2
 747 0334 0127     		movs	r7, #1
 748              	.LVL122:
 749 0336 9B69     		ldr	r3, [r3, #24]
 750 0338 9F60     		str	r7, [r3, #8]
 444:../STLibs//STM32_USB-Host-Device_Lib_V2.1.0/Libraries/STM32_USB_OTG_Driver/src/usb_dcd_int.c ****         
 751              		.loc 1 444 0
 752 033a 514B     		ldr	r3, .L127
 753 033c 1B68     		ldr	r3, [r3]
 754 033e 5146     		mov	r1, r10
 755              	.LVL123:
 756 0340 5B68     		ldr	r3, [r3, #4]
 757 0342 2046     		mov	r0, r4
 758 0344 9847     		blx	r3
 759              	.LVL124:
 446:../STLibs//STM32_USB-Host-Device_Lib_V2.1.0/Libraries/STM32_USB_OTG_Driver/src/usb_dcd_int.c ****         {
 760              		.loc 1 446 0
 761 0346 E378     		ldrb	r3, [r4, #3]	@ zero_extendqisi2
 762 0348 BB42     		cmp	r3, r7
 763 034a 07D1     		bne	.L21
 448:../STLibs//STM32_USB-Host-Device_Lib_V2.1.0/Libraries/STM32_USB_OTG_Driver/src/usb_dcd_int.c ****           {
 764              		.loc 1 448 0
 765 034c 36B9     		cbnz	r6, .L21
 766 034e 94F81131 		ldrb	r3, [r4, #273]	@ zero_extendqisi2
 767 0352 042B     		cmp	r3, #4
 768 0354 02D1     		bne	.L21
 451:../STLibs//STM32_USB-Host-Device_Lib_V2.1.0/Libraries/STM32_USB_OTG_Driver/src/usb_dcd_int.c ****           }
 769              		.loc 1 451 0
 770 0356 2046     		mov	r0, r4
 771 0358 FFF7FEFF 		bl	USB_OTG_EP0_OutStart
 772              	.LVL125:
 773              	.L21:
 455:../STLibs//STM32_USB-Host-Device_Lib_V2.1.0/Libraries/STM32_USB_OTG_Driver/src/usb_dcd_int.c ****       {
 774              		.loc 1 455 0
 775 035c 3807     		lsls	r0, r7, #28
 457:../STLibs//STM32_USB-Host-Device_Lib_V2.1.0/Libraries/STM32_USB_OTG_Driver/src/usb_dcd_int.c ****       }
 776              		.loc 1 457 0
 777 035e 41BF     		itttt	mi
 778 0360 04EB8603 		addmi	r3, r4, r6, lsl #2
 779 0364 0827     		movmi	r7, #8
 780              	.LVL126:
 781 0366 9B69     		ldrmi	r3, [r3, #24]
 782              	.LVL127:
 783 0368 9F60     		strmi	r7, [r3, #8]
 459:../STLibs//STM32_USB-Host-Device_Lib_V2.1.0/Libraries/STM32_USB_OTG_Driver/src/usb_dcd_int.c ****       {
 784              		.loc 1 459 0
 785 036a F906     		lsls	r1, r7, #27
 461:../STLibs//STM32_USB-Host-Device_Lib_V2.1.0/Libraries/STM32_USB_OTG_Driver/src/usb_dcd_int.c ****       }
 786              		.loc 1 461 0
 787 036c 41BF     		itttt	mi
 788 036e 04EB8603 		addmi	r3, r4, r6, lsl #2
 789 0372 1027     		movmi	r7, #16
 790              	.LVL128:
 791 0374 9B69     		ldrmi	r3, [r3, #24]
 792              	.LVL129:
 793 0376 9F60     		strmi	r7, [r3, #8]
 463:../STLibs//STM32_USB-Host-Device_Lib_V2.1.0/Libraries/STM32_USB_OTG_Driver/src/usb_dcd_int.c ****       {
 794              		.loc 1 463 0
 795 0378 7A06     		lsls	r2, r7, #25
 465:../STLibs//STM32_USB-Host-Device_Lib_V2.1.0/Libraries/STM32_USB_OTG_Driver/src/usb_dcd_int.c ****       }
 796              		.loc 1 465 0
 797 037a 41BF     		itttt	mi
 798 037c 04EB8603 		addmi	r3, r4, r6, lsl #2
 799 0380 4027     		movmi	r7, #64
 800              	.LVL130:
 801 0382 9B69     		ldrmi	r3, [r3, #24]
 802              	.LVL131:
 803 0384 9F60     		strmi	r7, [r3, #8]
 467:../STLibs//STM32_USB-Host-Device_Lib_V2.1.0/Libraries/STM32_USB_OTG_Driver/src/usb_dcd_int.c ****       {
 804              		.loc 1 467 0
 805 0386 BB07     		lsls	r3, r7, #30
 469:../STLibs//STM32_USB-Host-Device_Lib_V2.1.0/Libraries/STM32_USB_OTG_Driver/src/usb_dcd_int.c ****       }       
 806              		.loc 1 469 0
 807 0388 41BF     		itttt	mi
 808 038a 04EB8603 		addmi	r3, r4, r6, lsl #2
 809 038e 0227     		movmi	r7, #2
 810              	.LVL132:
 811 0390 9B69     		ldrmi	r3, [r3, #24]
 812              	.LVL133:
 813 0392 9F60     		strmi	r7, [r3, #8]
 471:../STLibs//STM32_USB-Host-Device_Lib_V2.1.0/Libraries/STM32_USB_OTG_Driver/src/usb_dcd_int.c ****       {
 814              		.loc 1 471 0
 815 0394 3F06     		lsls	r7, r7, #24
 816              	.LVL134:
 817 0396 20D5     		bpl	.L19
 818              	.LVL135:
 819              	.LBB40:
 820              	.LBB41:
 648:../STLibs//STM32_USB-Host-Device_Lib_V2.1.0/Libraries/STM32_USB_OTG_Driver/src/usb_dcd_int.c ****   
 821              		.loc 1 648 0
 822 0398 D5F83421 		ldr	r2, [r5, #308]
 823 039c D5F83031 		ldr	r3, [r5, #304]
 824 03a0 9B1A     		subs	r3, r3, r2
 825              	.LVL136:
 655:../STLibs//STM32_USB-Host-Device_Lib_V2.1.0/Libraries/STM32_USB_OTG_Driver/src/usb_dcd_int.c ****   txstatus.d32 = USB_OTG_READ_REG32( &pdev->regs.INEP_REGS[epnum]->DTXFSTS);
 826              		.loc 1 655 0
 827 03a2 D5F82421 		ldr	r2, [r5, #292]
 828 03a6 9342     		cmp	r3, r2
 829 03a8 28BF     		it	cs
 830 03aa 1346     		movcs	r3, r2
 831              	.LVL137:
 832 03ac 0333     		adds	r3, r3, #3
 833 03ae 9B08     		lsrs	r3, r3, #2
 834 03b0 0193     		str	r3, [sp, #4]
 835              	.LVL138:
 836 03b2 04EB860B 		add	fp, r4, r6, lsl #2
 837              	.LVL139:
 838              	.L122:
 678:../STLibs//STM32_USB-Host-Device_Lib_V2.1.0/Libraries/STM32_USB_OTG_Driver/src/usb_dcd_int.c ****   }
 839              		.loc 1 678 0
 840 03b6 DBF81830 		ldr	r3, [fp, #24]
 660:../STLibs//STM32_USB-Host-Device_Lib_V2.1.0/Libraries/STM32_USB_OTG_Driver/src/usb_dcd_int.c ****           ep->xfer_count < ep->xfer_len &&
 841              		.loc 1 660 0
 842 03ba 019A     		ldr	r2, [sp, #4]
 678:../STLibs//STM32_USB-Host-Device_Lib_V2.1.0/Libraries/STM32_USB_OTG_Driver/src/usb_dcd_int.c ****   }
 843              		.loc 1 678 0
 844 03bc 9B69     		ldr	r3, [r3, #24]
 845              	.LVL140:
 660:../STLibs//STM32_USB-Host-Device_Lib_V2.1.0/Libraries/STM32_USB_OTG_Driver/src/usb_dcd_int.c ****           ep->xfer_count < ep->xfer_len &&
 846              		.loc 1 660 0
 847 03be 9BB2     		uxth	r3, r3
 848              	.LVL141:
 849 03c0 9342     		cmp	r3, r2
 850 03c2 06D9     		bls	.L29
 661:../STLibs//STM32_USB-Host-Device_Lib_V2.1.0/Libraries/STM32_USB_OTG_Driver/src/usb_dcd_int.c ****             ep->xfer_len != 0)
 851              		.loc 1 661 0
 852 03c4 D5F83431 		ldr	r3, [r5, #308]
 853              	.LVL142:
 854 03c8 D5F83071 		ldr	r7, [r5, #304]
 660:../STLibs//STM32_USB-Host-Device_Lib_V2.1.0/Libraries/STM32_USB_OTG_Driver/src/usb_dcd_int.c ****           ep->xfer_count < ep->xfer_len &&
 855              		.loc 1 660 0
 856 03cc 9F42     		cmp	r7, r3
 857 03ce 00D9     		bls	.L29
 661:../STLibs//STM32_USB-Host-Device_Lib_V2.1.0/Libraries/STM32_USB_OTG_Driver/src/usb_dcd_int.c ****             ep->xfer_len != 0)
 858              		.loc 1 661 0
 859 03d0 47B9     		cbnz	r7, .L30
 860              	.LVL143:
 861              	.L29:
 862              	.LBE41:
 863              	.LBE40:
 476:../STLibs//STM32_USB-Host-Device_Lib_V2.1.0/Libraries/STM32_USB_OTG_Driver/src/usb_dcd_int.c ****       }
 864              		.loc 1 476 0
 865 03d2 DBF81830 		ldr	r3, [fp, #24]
 866              	.LVL144:
 867 03d6 8027     		movs	r7, #128
 868              	.LVL145:
 869 03d8 9F60     		str	r7, [r3, #8]
 870              	.LVL146:
 871              	.L19:
 479:../STLibs//STM32_USB-Host-Device_Lib_V2.1.0/Libraries/STM32_USB_OTG_Driver/src/usb_dcd_int.c ****     ep_intr >>= 1;
 872              		.loc 1 479 0
 873 03da 0136     		adds	r6, r6, #1
 874              	.LVL147:
 480:../STLibs//STM32_USB-Host-Device_Lib_V2.1.0/Libraries/STM32_USB_OTG_Driver/src/usb_dcd_int.c ****   }
 875              		.loc 1 480 0
 876 03dc 4FEA5909 		lsr	r9, r9, #1
 877              	.LVL148:
 878 03e0 2835     		adds	r5, r5, #40
 879 03e2 3AE6     		b	.L17
 880              	.LVL149:
 881              	.L30:
 882              	.LBB43:
 883              	.LBB42:
 665:../STLibs//STM32_USB-Host-Device_Lib_V2.1.0/Libraries/STM32_USB_OTG_Driver/src/usb_dcd_int.c ****     
 884              		.loc 1 665 0
 885 03e4 FF1A     		subs	r7, r7, r3
 886              	.LVL150:
 887 03e6 D5F82431 		ldr	r3, [r5, #292]
 673:../STLibs//STM32_USB-Host-Device_Lib_V2.1.0/Libraries/STM32_USB_OTG_Driver/src/usb_dcd_int.c ****     
 888              		.loc 1 673 0
 889 03ea D5F82811 		ldr	r1, [r5, #296]
 890 03ee 9F42     		cmp	r7, r3
 891 03f0 28BF     		it	cs
 892 03f2 1F46     		movcs	r7, r3
 893              	.LVL151:
 671:../STLibs//STM32_USB-Host-Device_Lib_V2.1.0/Libraries/STM32_USB_OTG_Driver/src/usb_dcd_int.c ****     
 894              		.loc 1 671 0
 895 03f4 FB1C     		adds	r3, r7, #3
 896 03f6 9B08     		lsrs	r3, r3, #2
 897 03f8 0193     		str	r3, [sp, #4]
 898              	.LVL152:
 673:../STLibs//STM32_USB-Host-Device_Lib_V2.1.0/Libraries/STM32_USB_OTG_Driver/src/usb_dcd_int.c ****     
 899              		.loc 1 673 0
 900 03fa 5246     		mov	r2, r10
 901 03fc BBB2     		uxth	r3, r7
 902              	.LVL153:
 903 03fe 2046     		mov	r0, r4
 904 0400 FFF7FEFF 		bl	USB_OTG_WritePacket
 905              	.LVL154:
 675:../STLibs//STM32_USB-Host-Device_Lib_V2.1.0/Libraries/STM32_USB_OTG_Driver/src/usb_dcd_int.c ****     ep->xfer_count += len;
 906              		.loc 1 675 0
 907 0404 D5F82831 		ldr	r3, [r5, #296]
 908 0408 3B44     		add	r3, r3, r7
 909 040a C5F82831 		str	r3, [r5, #296]
 676:../STLibs//STM32_USB-Host-Device_Lib_V2.1.0/Libraries/STM32_USB_OTG_Driver/src/usb_dcd_int.c ****     
 910              		.loc 1 676 0
 911 040e D5F83431 		ldr	r3, [r5, #308]
 912 0412 1F44     		add	r7, r7, r3
 913              	.LVL155:
 914 0414 C5F83471 		str	r7, [r5, #308]
 915 0418 CDE7     		b	.L122
 916              	.LVL156:
 917              	.L40:
 918              	.LBE42:
 919              	.LBE43:
 920              	.LBE44:
 921              	.LBE74:
 922              	.LBB75:
 923              	.LBB54:
 606:../STLibs//STM32_USB-Host-Device_Lib_V2.1.0/Libraries/STM32_USB_OTG_Driver/src/usb_dcd_int.c ****     {
 924              		.loc 1 606 0
 925 041a 47F6F073 		movw	r3, #32752
 926 041e 3342     		tst	r3, r6
 927 0420 3FF497AE 		beq	.L39
 608:../STLibs//STM32_USB-Host-Device_Lib_V2.1.0/Libraries/STM32_USB_OTG_Driver/src/usb_dcd_int.c ****       ep->xfer_buff += status.b.bcnt;
 928              		.loc 1 608 0
 929 0424 2823     		movs	r3, #40
 930 0426 03FB0545 		mla	r5, r3, r5, r4
 931              	.LVL157:
 932 042a C6F30A16 		ubfx	r6, r6, #4, #11
 933              	.LVL158:
 934 042e 3246     		mov	r2, r6
 935 0430 D5F88013 		ldr	r1, [r5, #896]
 936              	.LVL159:
 937 0434 2046     		mov	r0, r4
 938              	.LVL160:
 939 0436 FFF7FEFF 		bl	USB_OTG_ReadPacket
 940              	.LVL161:
 609:../STLibs//STM32_USB-Host-Device_Lib_V2.1.0/Libraries/STM32_USB_OTG_Driver/src/usb_dcd_int.c ****       ep->xfer_count += status.b.bcnt;
 941              		.loc 1 609 0
 942 043a D5F88033 		ldr	r3, [r5, #896]
 943 043e 3344     		add	r3, r3, r6
 944 0440 C5F88033 		str	r3, [r5, #896]
 945              	.L123:
 620:../STLibs//STM32_USB-Host-Device_Lib_V2.1.0/Libraries/STM32_USB_OTG_Driver/src/usb_dcd_int.c ****     break;
 946              		.loc 1 620 0
 947 0444 D5F88C33 		ldr	r3, [r5, #908]
 948 0448 1E44     		add	r6, r6, r3
 949 044a C5F88C63 		str	r6, [r5, #908]
 950 044e 80E6     		b	.L39
 951              	.LVL162:
 952              	.L41:
 619:../STLibs//STM32_USB-Host-Device_Lib_V2.1.0/Libraries/STM32_USB_OTG_Driver/src/usb_dcd_int.c ****     ep->xfer_count += status.b.bcnt;
 953              		.loc 1 619 0
 954 0450 0822     		movs	r2, #8
 955 0452 04F2CC51 		addw	r1, r4, #1484
 956              	.LVL163:
 957 0456 2046     		mov	r0, r4
 958              	.LVL164:
 959 0458 FFF7FEFF 		bl	USB_OTG_ReadPacket
 960              	.LVL165:
 620:../STLibs//STM32_USB-Host-Device_Lib_V2.1.0/Libraries/STM32_USB_OTG_Driver/src/usb_dcd_int.c ****     break;
 961              		.loc 1 620 0
 962 045c 2823     		movs	r3, #40
 963 045e 03FB0545 		mla	r5, r3, r5, r4
 964              	.LVL166:
 965 0462 C6F30A16 		ubfx	r6, r6, #4, #11
 966              	.LVL167:
 967 0466 EDE7     		b	.L123
 968              	.LVL168:
 969              	.L44:
 970              	.LBE54:
 971              	.LBE75:
 972              	.LBB76:
 973              	.LBB57:
 716:../STLibs//STM32_USB-Host-Device_Lib_V2.1.0/Libraries/STM32_USB_OTG_Driver/src/usb_dcd_int.c ****     USB_OTG_WRITE_REG32( &pdev->regs.OUTEP_REGS[i]->DOEPINT, 0xFF);
 974              		.loc 1 716 0
 975 0468 53F8040B 		ldr	r0, [r3], #4
 976 046c 8160     		str	r1, [r0, #8]
 717:../STLibs//STM32_USB-Host-Device_Lib_V2.1.0/Libraries/STM32_USB_OTG_Driver/src/usb_dcd_int.c ****   }
 977              		.loc 1 717 0
 978 046e 986B     		ldr	r0, [r3, #56]
 979 0470 8160     		str	r1, [r0, #8]
 980 0472 86E6     		b	.L43
 981              	.LVL169:
 982              	.L46:
 983              	.LBE57:
 984              	.LBE76:
 985              	.LBB77:
 986              	.LBB61:
 784:../STLibs//STM32_USB-Host-Device_Lib_V2.1.0/Libraries/STM32_USB_OTG_Driver/src/usb_dcd_int.c ****     pdev->cfg.mps              = USB_OTG_FS_MAX_PACKET_SIZE ;  
 987              		.loc 1 784 0
 988 0474 0123     		movs	r3, #1
 989 0476 A370     		strb	r3, [r4, #2]
 785:../STLibs//STM32_USB-Host-Device_Lib_V2.1.0/Libraries/STM32_USB_OTG_Driver/src/usb_dcd_int.c ****     gusbcfg.b.usbtrdtim = 5;
 990              		.loc 1 785 0
 991 0478 4023     		movs	r3, #64
 992 047a A380     		strh	r3, [r4, #4]	@ movhi
 786:../STLibs//STM32_USB-Host-Device_Lib_V2.1.0/Libraries/STM32_USB_OTG_Driver/src/usb_dcd_int.c ****   }
 993              		.loc 1 786 0
 994 047c 0523     		movs	r3, #5
 995 047e B2E6     		b	.L124
 996              	.L128:
 997              		.align	2
 998              	.L127:
 999 0480 00000000 		.word	USBD_DCD_INT_fops
 1000              	.LBE61:
 1001              	.LBE77:
 1002              		.cfi_endproc
 1003              	.LFE110:
 1005              	.Letext0:
 1006              		.file 2 "/opt/gcc-arm-none-eabi-7-2017-q4-major/arm-none-eabi/include/machine/_default_types.h"
 1007              		.file 3 "/opt/gcc-arm-none-eabi-7-2017-q4-major/arm-none-eabi/include/sys/_stdint.h"
 1008              		.file 4 "../STLibs//STM32F4xx_DSP_StdPeriph_Lib_V1.0.1/Libraries/CMSIS/Include/core_cm4.h"
 1009              		.file 5 "../STLibs//STM32F4xx_DSP_StdPeriph_Lib_V1.0.1/Libraries/CMSIS/Device/ST/STM32F4xx/Include
 1010              		.file 6 "../STLibs//STM32_USB-Host-Device_Lib_V2.1.0/Libraries/STM32_USB_OTG_Driver/inc/usb_regs.h
 1011              		.file 7 "../STLibs//STM32_USB-Host-Device_Lib_V2.1.0/Libraries/STM32_USB_OTG_Driver/inc/usb_core.h
 1012              		.file 8 "../STLibs//STM32_USB-Host-Device_Lib_V2.1.0/Libraries/STM32_USB_OTG_Driver/inc/usb_dcd_in
 1013              		.file 9 "../STLibs//STM32_USB-Host-Device_Lib_V2.1.0/Libraries/STM32_USB_OTG_Driver/inc/usb_define