   1              		.cpu cortex-m4
   2              		.eabi_attribute 27, 1
   3              		.eabi_attribute 20, 1
   4              		.eabi_attribute 21, 1
   5              		.eabi_attribute 23, 3
   6              		.eabi_attribute 24, 1
   7              		.eabi_attribute 25, 1
   8              		.eabi_attribute 26, 1
   9              		.eabi_attribute 30, 4
  10              		.eabi_attribute 34, 1
  11              		.eabi_attribute 18, 4
  12              		.file	"usb_core.c"
  13              		.text
  14              	.Ltext0:
  15              		.cfi_sections	.debug_frame
  16              		.align	1
  17              		.syntax unified
  18              		.thumb
  19              		.thumb_func
  20              		.fpu fpv4-sp-d16
  22              	USB_OTG_CoreReset.isra.1:
  23              	.LFB147:
  24              		.file 1 "../STLibs//STM32_USB-Host-Device_Lib_V2.1.0/Libraries/STM32_USB_OTG_Driver/src/usb_core.c
   1:../STLibs//STM32_USB-Host-Device_Lib_V2.1.0/Libraries/STM32_USB_OTG_Driver/src/usb_core.c **** /**
   2:../STLibs//STM32_USB-Host-Device_Lib_V2.1.0/Libraries/STM32_USB_OTG_Driver/src/usb_core.c ****   ******************************************************************************
   3:../STLibs//STM32_USB-Host-Device_Lib_V2.1.0/Libraries/STM32_USB_OTG_Driver/src/usb_core.c ****   * @file    usb_core.c
   4:../STLibs//STM32_USB-Host-Device_Lib_V2.1.0/Libraries/STM32_USB_OTG_Driver/src/usb_core.c ****   * @author  MCD Application Team
   5:../STLibs//STM32_USB-Host-Device_Lib_V2.1.0/Libraries/STM32_USB_OTG_Driver/src/usb_core.c ****   * @version V2.1.0
   6:../STLibs//STM32_USB-Host-Device_Lib_V2.1.0/Libraries/STM32_USB_OTG_Driver/src/usb_core.c ****   * @date    19-March-2012
   7:../STLibs//STM32_USB-Host-Device_Lib_V2.1.0/Libraries/STM32_USB_OTG_Driver/src/usb_core.c ****   * @brief   USB-OTG Core Layer
   8:../STLibs//STM32_USB-Host-Device_Lib_V2.1.0/Libraries/STM32_USB_OTG_Driver/src/usb_core.c ****   ******************************************************************************
   9:../STLibs//STM32_USB-Host-Device_Lib_V2.1.0/Libraries/STM32_USB_OTG_Driver/src/usb_core.c ****   * @attention
  10:../STLibs//STM32_USB-Host-Device_Lib_V2.1.0/Libraries/STM32_USB_OTG_Driver/src/usb_core.c ****   *
  11:../STLibs//STM32_USB-Host-Device_Lib_V2.1.0/Libraries/STM32_USB_OTG_Driver/src/usb_core.c ****   * <h2><center>&copy; COPYRIGHT 2012 STMicroelectronics</center></h2>
  12:../STLibs//STM32_USB-Host-Device_Lib_V2.1.0/Libraries/STM32_USB_OTG_Driver/src/usb_core.c ****   *
  13:../STLibs//STM32_USB-Host-Device_Lib_V2.1.0/Libraries/STM32_USB_OTG_Driver/src/usb_core.c ****   * Licensed under MCD-ST Liberty SW License Agreement V2, (the "License");
  14:../STLibs//STM32_USB-Host-Device_Lib_V2.1.0/Libraries/STM32_USB_OTG_Driver/src/usb_core.c ****   * You may not use this file except in compliance with the License.
  15:../STLibs//STM32_USB-Host-Device_Lib_V2.1.0/Libraries/STM32_USB_OTG_Driver/src/usb_core.c ****   * You may obtain a copy of the License at:
  16:../STLibs//STM32_USB-Host-Device_Lib_V2.1.0/Libraries/STM32_USB_OTG_Driver/src/usb_core.c ****   *
  17:../STLibs//STM32_USB-Host-Device_Lib_V2.1.0/Libraries/STM32_USB_OTG_Driver/src/usb_core.c ****   *        http://www.st.com/software_license_agreement_liberty_v2
  18:../STLibs//STM32_USB-Host-Device_Lib_V2.1.0/Libraries/STM32_USB_OTG_Driver/src/usb_core.c ****   *
  19:../STLibs//STM32_USB-Host-Device_Lib_V2.1.0/Libraries/STM32_USB_OTG_Driver/src/usb_core.c ****   * Unless required by applicable law or agreed to in writing, software 
  20:../STLibs//STM32_USB-Host-Device_Lib_V2.1.0/Libraries/STM32_USB_OTG_Driver/src/usb_core.c ****   * distributed under the License is distributed on an "AS IS" BASIS, 
  21:../STLibs//STM32_USB-Host-Device_Lib_V2.1.0/Libraries/STM32_USB_OTG_Driver/src/usb_core.c ****   * WITHOUT WARRANTIES OR CONDITIONS OF ANY KIND, either express or implied.
  22:../STLibs//STM32_USB-Host-Device_Lib_V2.1.0/Libraries/STM32_USB_OTG_Driver/src/usb_core.c ****   * See the License for the specific language governing permissions and
  23:../STLibs//STM32_USB-Host-Device_Lib_V2.1.0/Libraries/STM32_USB_OTG_Driver/src/usb_core.c ****   * limitations under the License.
  24:../STLibs//STM32_USB-Host-Device_Lib_V2.1.0/Libraries/STM32_USB_OTG_Driver/src/usb_core.c ****   *
  25:../STLibs//STM32_USB-Host-Device_Lib_V2.1.0/Libraries/STM32_USB_OTG_Driver/src/usb_core.c ****   ******************************************************************************
  26:../STLibs//STM32_USB-Host-Device_Lib_V2.1.0/Libraries/STM32_USB_OTG_Driver/src/usb_core.c ****   */
  27:../STLibs//STM32_USB-Host-Device_Lib_V2.1.0/Libraries/STM32_USB_OTG_Driver/src/usb_core.c **** 
  28:../STLibs//STM32_USB-Host-Device_Lib_V2.1.0/Libraries/STM32_USB_OTG_Driver/src/usb_core.c **** /* Includes ------------------------------------------------------------------*/
  29:../STLibs//STM32_USB-Host-Device_Lib_V2.1.0/Libraries/STM32_USB_OTG_Driver/src/usb_core.c **** #include "usb_core.h"
  30:../STLibs//STM32_USB-Host-Device_Lib_V2.1.0/Libraries/STM32_USB_OTG_Driver/src/usb_core.c **** #include "usb_bsp.h"
  31:../STLibs//STM32_USB-Host-Device_Lib_V2.1.0/Libraries/STM32_USB_OTG_Driver/src/usb_core.c **** 
  32:../STLibs//STM32_USB-Host-Device_Lib_V2.1.0/Libraries/STM32_USB_OTG_Driver/src/usb_core.c **** 
  33:../STLibs//STM32_USB-Host-Device_Lib_V2.1.0/Libraries/STM32_USB_OTG_Driver/src/usb_core.c **** /** @addtogroup USB_OTG_DRIVER
  34:../STLibs//STM32_USB-Host-Device_Lib_V2.1.0/Libraries/STM32_USB_OTG_Driver/src/usb_core.c **** * @{
  35:../STLibs//STM32_USB-Host-Device_Lib_V2.1.0/Libraries/STM32_USB_OTG_Driver/src/usb_core.c **** */
  36:../STLibs//STM32_USB-Host-Device_Lib_V2.1.0/Libraries/STM32_USB_OTG_Driver/src/usb_core.c **** 
  37:../STLibs//STM32_USB-Host-Device_Lib_V2.1.0/Libraries/STM32_USB_OTG_Driver/src/usb_core.c **** /** @defgroup USB_CORE 
  38:../STLibs//STM32_USB-Host-Device_Lib_V2.1.0/Libraries/STM32_USB_OTG_Driver/src/usb_core.c **** * @brief This file includes the USB-OTG Core Layer
  39:../STLibs//STM32_USB-Host-Device_Lib_V2.1.0/Libraries/STM32_USB_OTG_Driver/src/usb_core.c **** * @{
  40:../STLibs//STM32_USB-Host-Device_Lib_V2.1.0/Libraries/STM32_USB_OTG_Driver/src/usb_core.c **** */
  41:../STLibs//STM32_USB-Host-Device_Lib_V2.1.0/Libraries/STM32_USB_OTG_Driver/src/usb_core.c **** 
  42:../STLibs//STM32_USB-Host-Device_Lib_V2.1.0/Libraries/STM32_USB_OTG_Driver/src/usb_core.c **** 
  43:../STLibs//STM32_USB-Host-Device_Lib_V2.1.0/Libraries/STM32_USB_OTG_Driver/src/usb_core.c **** /** @defgroup USB_CORE_Private_Defines
  44:../STLibs//STM32_USB-Host-Device_Lib_V2.1.0/Libraries/STM32_USB_OTG_Driver/src/usb_core.c **** * @{
  45:../STLibs//STM32_USB-Host-Device_Lib_V2.1.0/Libraries/STM32_USB_OTG_Driver/src/usb_core.c **** */ 
  46:../STLibs//STM32_USB-Host-Device_Lib_V2.1.0/Libraries/STM32_USB_OTG_Driver/src/usb_core.c **** 
  47:../STLibs//STM32_USB-Host-Device_Lib_V2.1.0/Libraries/STM32_USB_OTG_Driver/src/usb_core.c **** /**
  48:../STLibs//STM32_USB-Host-Device_Lib_V2.1.0/Libraries/STM32_USB_OTG_Driver/src/usb_core.c **** * @}
  49:../STLibs//STM32_USB-Host-Device_Lib_V2.1.0/Libraries/STM32_USB_OTG_Driver/src/usb_core.c **** */ 
  50:../STLibs//STM32_USB-Host-Device_Lib_V2.1.0/Libraries/STM32_USB_OTG_Driver/src/usb_core.c **** 
  51:../STLibs//STM32_USB-Host-Device_Lib_V2.1.0/Libraries/STM32_USB_OTG_Driver/src/usb_core.c **** 
  52:../STLibs//STM32_USB-Host-Device_Lib_V2.1.0/Libraries/STM32_USB_OTG_Driver/src/usb_core.c **** /** @defgroup USB_CORE_Private_TypesDefinitions
  53:../STLibs//STM32_USB-Host-Device_Lib_V2.1.0/Libraries/STM32_USB_OTG_Driver/src/usb_core.c **** * @{
  54:../STLibs//STM32_USB-Host-Device_Lib_V2.1.0/Libraries/STM32_USB_OTG_Driver/src/usb_core.c **** */ 
  55:../STLibs//STM32_USB-Host-Device_Lib_V2.1.0/Libraries/STM32_USB_OTG_Driver/src/usb_core.c **** /**
  56:../STLibs//STM32_USB-Host-Device_Lib_V2.1.0/Libraries/STM32_USB_OTG_Driver/src/usb_core.c **** * @}
  57:../STLibs//STM32_USB-Host-Device_Lib_V2.1.0/Libraries/STM32_USB_OTG_Driver/src/usb_core.c **** */ 
  58:../STLibs//STM32_USB-Host-Device_Lib_V2.1.0/Libraries/STM32_USB_OTG_Driver/src/usb_core.c **** 
  59:../STLibs//STM32_USB-Host-Device_Lib_V2.1.0/Libraries/STM32_USB_OTG_Driver/src/usb_core.c **** 
  60:../STLibs//STM32_USB-Host-Device_Lib_V2.1.0/Libraries/STM32_USB_OTG_Driver/src/usb_core.c **** 
  61:../STLibs//STM32_USB-Host-Device_Lib_V2.1.0/Libraries/STM32_USB_OTG_Driver/src/usb_core.c **** /** @defgroup USB_CORE_Private_Macros
  62:../STLibs//STM32_USB-Host-Device_Lib_V2.1.0/Libraries/STM32_USB_OTG_Driver/src/usb_core.c **** * @{
  63:../STLibs//STM32_USB-Host-Device_Lib_V2.1.0/Libraries/STM32_USB_OTG_Driver/src/usb_core.c **** */ 
  64:../STLibs//STM32_USB-Host-Device_Lib_V2.1.0/Libraries/STM32_USB_OTG_Driver/src/usb_core.c **** /**
  65:../STLibs//STM32_USB-Host-Device_Lib_V2.1.0/Libraries/STM32_USB_OTG_Driver/src/usb_core.c **** * @}
  66:../STLibs//STM32_USB-Host-Device_Lib_V2.1.0/Libraries/STM32_USB_OTG_Driver/src/usb_core.c **** */ 
  67:../STLibs//STM32_USB-Host-Device_Lib_V2.1.0/Libraries/STM32_USB_OTG_Driver/src/usb_core.c **** 
  68:../STLibs//STM32_USB-Host-Device_Lib_V2.1.0/Libraries/STM32_USB_OTG_Driver/src/usb_core.c **** 
  69:../STLibs//STM32_USB-Host-Device_Lib_V2.1.0/Libraries/STM32_USB_OTG_Driver/src/usb_core.c **** /** @defgroup USB_CORE_Private_Variables
  70:../STLibs//STM32_USB-Host-Device_Lib_V2.1.0/Libraries/STM32_USB_OTG_Driver/src/usb_core.c **** * @{
  71:../STLibs//STM32_USB-Host-Device_Lib_V2.1.0/Libraries/STM32_USB_OTG_Driver/src/usb_core.c **** */ 
  72:../STLibs//STM32_USB-Host-Device_Lib_V2.1.0/Libraries/STM32_USB_OTG_Driver/src/usb_core.c **** /**
  73:../STLibs//STM32_USB-Host-Device_Lib_V2.1.0/Libraries/STM32_USB_OTG_Driver/src/usb_core.c **** * @}
  74:../STLibs//STM32_USB-Host-Device_Lib_V2.1.0/Libraries/STM32_USB_OTG_Driver/src/usb_core.c **** */ 
  75:../STLibs//STM32_USB-Host-Device_Lib_V2.1.0/Libraries/STM32_USB_OTG_Driver/src/usb_core.c **** 
  76:../STLibs//STM32_USB-Host-Device_Lib_V2.1.0/Libraries/STM32_USB_OTG_Driver/src/usb_core.c **** 
  77:../STLibs//STM32_USB-Host-Device_Lib_V2.1.0/Libraries/STM32_USB_OTG_Driver/src/usb_core.c **** /** @defgroup USB_CORE_Private_FunctionPrototypes
  78:../STLibs//STM32_USB-Host-Device_Lib_V2.1.0/Libraries/STM32_USB_OTG_Driver/src/usb_core.c **** * @{
  79:../STLibs//STM32_USB-Host-Device_Lib_V2.1.0/Libraries/STM32_USB_OTG_Driver/src/usb_core.c **** */ 
  80:../STLibs//STM32_USB-Host-Device_Lib_V2.1.0/Libraries/STM32_USB_OTG_Driver/src/usb_core.c **** /**
  81:../STLibs//STM32_USB-Host-Device_Lib_V2.1.0/Libraries/STM32_USB_OTG_Driver/src/usb_core.c **** * @}
  82:../STLibs//STM32_USB-Host-Device_Lib_V2.1.0/Libraries/STM32_USB_OTG_Driver/src/usb_core.c **** */ 
  83:../STLibs//STM32_USB-Host-Device_Lib_V2.1.0/Libraries/STM32_USB_OTG_Driver/src/usb_core.c **** 
  84:../STLibs//STM32_USB-Host-Device_Lib_V2.1.0/Libraries/STM32_USB_OTG_Driver/src/usb_core.c **** 
  85:../STLibs//STM32_USB-Host-Device_Lib_V2.1.0/Libraries/STM32_USB_OTG_Driver/src/usb_core.c **** /** @defgroup USB_CORE_Private_Functions
  86:../STLibs//STM32_USB-Host-Device_Lib_V2.1.0/Libraries/STM32_USB_OTG_Driver/src/usb_core.c **** * @{
  87:../STLibs//STM32_USB-Host-Device_Lib_V2.1.0/Libraries/STM32_USB_OTG_Driver/src/usb_core.c **** */ 
  88:../STLibs//STM32_USB-Host-Device_Lib_V2.1.0/Libraries/STM32_USB_OTG_Driver/src/usb_core.c **** 
  89:../STLibs//STM32_USB-Host-Device_Lib_V2.1.0/Libraries/STM32_USB_OTG_Driver/src/usb_core.c **** /**
  90:../STLibs//STM32_USB-Host-Device_Lib_V2.1.0/Libraries/STM32_USB_OTG_Driver/src/usb_core.c **** * @brief  USB_OTG_EnableCommonInt
  91:../STLibs//STM32_USB-Host-Device_Lib_V2.1.0/Libraries/STM32_USB_OTG_Driver/src/usb_core.c **** *         Initializes the commmon interrupts, used in both device and modes
  92:../STLibs//STM32_USB-Host-Device_Lib_V2.1.0/Libraries/STM32_USB_OTG_Driver/src/usb_core.c **** * @param  pdev : Selected device
  93:../STLibs//STM32_USB-Host-Device_Lib_V2.1.0/Libraries/STM32_USB_OTG_Driver/src/usb_core.c **** * @retval None
  94:../STLibs//STM32_USB-Host-Device_Lib_V2.1.0/Libraries/STM32_USB_OTG_Driver/src/usb_core.c **** */
  95:../STLibs//STM32_USB-Host-Device_Lib_V2.1.0/Libraries/STM32_USB_OTG_Driver/src/usb_core.c **** static void USB_OTG_EnableCommonInt(USB_OTG_CORE_HANDLE *pdev)
  96:../STLibs//STM32_USB-Host-Device_Lib_V2.1.0/Libraries/STM32_USB_OTG_Driver/src/usb_core.c **** {
  97:../STLibs//STM32_USB-Host-Device_Lib_V2.1.0/Libraries/STM32_USB_OTG_Driver/src/usb_core.c ****   USB_OTG_GINTMSK_TypeDef  int_mask;
  98:../STLibs//STM32_USB-Host-Device_Lib_V2.1.0/Libraries/STM32_USB_OTG_Driver/src/usb_core.c ****   
  99:../STLibs//STM32_USB-Host-Device_Lib_V2.1.0/Libraries/STM32_USB_OTG_Driver/src/usb_core.c ****   int_mask.d32 = 0;
 100:../STLibs//STM32_USB-Host-Device_Lib_V2.1.0/Libraries/STM32_USB_OTG_Driver/src/usb_core.c ****   /* Clear any pending USB_OTG Interrupts */
 101:../STLibs//STM32_USB-Host-Device_Lib_V2.1.0/Libraries/STM32_USB_OTG_Driver/src/usb_core.c **** #ifndef USE_OTG_MODE
 102:../STLibs//STM32_USB-Host-Device_Lib_V2.1.0/Libraries/STM32_USB_OTG_Driver/src/usb_core.c ****   USB_OTG_WRITE_REG32( &pdev->regs.GREGS->GOTGINT, 0xFFFFFFFF);
 103:../STLibs//STM32_USB-Host-Device_Lib_V2.1.0/Libraries/STM32_USB_OTG_Driver/src/usb_core.c **** #endif
 104:../STLibs//STM32_USB-Host-Device_Lib_V2.1.0/Libraries/STM32_USB_OTG_Driver/src/usb_core.c ****   /* Clear any pending interrupts */
 105:../STLibs//STM32_USB-Host-Device_Lib_V2.1.0/Libraries/STM32_USB_OTG_Driver/src/usb_core.c ****   USB_OTG_WRITE_REG32( &pdev->regs.GREGS->GINTSTS, 0xBFFFFFFF);
 106:../STLibs//STM32_USB-Host-Device_Lib_V2.1.0/Libraries/STM32_USB_OTG_Driver/src/usb_core.c ****   /* Enable the interrupts in the INTMSK */
 107:../STLibs//STM32_USB-Host-Device_Lib_V2.1.0/Libraries/STM32_USB_OTG_Driver/src/usb_core.c ****   int_mask.b.wkupintr = 1;
 108:../STLibs//STM32_USB-Host-Device_Lib_V2.1.0/Libraries/STM32_USB_OTG_Driver/src/usb_core.c ****   int_mask.b.usbsuspend = 1; 
 109:../STLibs//STM32_USB-Host-Device_Lib_V2.1.0/Libraries/STM32_USB_OTG_Driver/src/usb_core.c ****   
 110:../STLibs//STM32_USB-Host-Device_Lib_V2.1.0/Libraries/STM32_USB_OTG_Driver/src/usb_core.c **** #ifdef USE_OTG_MODE
 111:../STLibs//STM32_USB-Host-Device_Lib_V2.1.0/Libraries/STM32_USB_OTG_Driver/src/usb_core.c ****   int_mask.b.otgintr = 1;
 112:../STLibs//STM32_USB-Host-Device_Lib_V2.1.0/Libraries/STM32_USB_OTG_Driver/src/usb_core.c ****   int_mask.b.sessreqintr = 1;
 113:../STLibs//STM32_USB-Host-Device_Lib_V2.1.0/Libraries/STM32_USB_OTG_Driver/src/usb_core.c ****   int_mask.b.conidstschng = 1;
 114:../STLibs//STM32_USB-Host-Device_Lib_V2.1.0/Libraries/STM32_USB_OTG_Driver/src/usb_core.c **** #endif
 115:../STLibs//STM32_USB-Host-Device_Lib_V2.1.0/Libraries/STM32_USB_OTG_Driver/src/usb_core.c ****   USB_OTG_WRITE_REG32( &pdev->regs.GREGS->GINTMSK, int_mask.d32);
 116:../STLibs//STM32_USB-Host-Device_Lib_V2.1.0/Libraries/STM32_USB_OTG_Driver/src/usb_core.c **** }
 117:../STLibs//STM32_USB-Host-Device_Lib_V2.1.0/Libraries/STM32_USB_OTG_Driver/src/usb_core.c **** 
 118:../STLibs//STM32_USB-Host-Device_Lib_V2.1.0/Libraries/STM32_USB_OTG_Driver/src/usb_core.c **** /**
 119:../STLibs//STM32_USB-Host-Device_Lib_V2.1.0/Libraries/STM32_USB_OTG_Driver/src/usb_core.c **** * @brief  USB_OTG_CoreReset : Soft reset of the core
 120:../STLibs//STM32_USB-Host-Device_Lib_V2.1.0/Libraries/STM32_USB_OTG_Driver/src/usb_core.c **** * @param  pdev : Selected device
 121:../STLibs//STM32_USB-Host-Device_Lib_V2.1.0/Libraries/STM32_USB_OTG_Driver/src/usb_core.c **** * @retval USB_OTG_STS : status
 122:../STLibs//STM32_USB-Host-Device_Lib_V2.1.0/Libraries/STM32_USB_OTG_Driver/src/usb_core.c **** */
 123:../STLibs//STM32_USB-Host-Device_Lib_V2.1.0/Libraries/STM32_USB_OTG_Driver/src/usb_core.c **** static USB_OTG_STS USB_OTG_CoreReset(USB_OTG_CORE_HANDLE *pdev)
  25              		.loc 1 123 0
  26              		.cfi_startproc
  27              		@ args = 0, pretend = 0, frame = 8
  28              		@ frame_needed = 0, uses_anonymous_args = 0
  29              	.LVL0:
  30 0000 37B5     		push	{r0, r1, r2, r4, r5, lr}
  31              	.LCFI0:
  32              		.cfi_def_cfa_offset 24
  33              		.cfi_offset 4, -12
  34              		.cfi_offset 5, -8
  35              		.cfi_offset 14, -4
 124:../STLibs//STM32_USB-Host-Device_Lib_V2.1.0/Libraries/STM32_USB_OTG_Driver/src/usb_core.c **** {
 125:../STLibs//STM32_USB-Host-Device_Lib_V2.1.0/Libraries/STM32_USB_OTG_Driver/src/usb_core.c ****   USB_OTG_STS status = USB_OTG_OK;
 126:../STLibs//STM32_USB-Host-Device_Lib_V2.1.0/Libraries/STM32_USB_OTG_Driver/src/usb_core.c ****   __IO USB_OTG_GRSTCTL_TypeDef  greset;
 127:../STLibs//STM32_USB-Host-Device_Lib_V2.1.0/Libraries/STM32_USB_OTG_Driver/src/usb_core.c ****   uint32_t count = 0;
 128:../STLibs//STM32_USB-Host-Device_Lib_V2.1.0/Libraries/STM32_USB_OTG_Driver/src/usb_core.c ****   
 129:../STLibs//STM32_USB-Host-Device_Lib_V2.1.0/Libraries/STM32_USB_OTG_Driver/src/usb_core.c ****   greset.d32 = 0;
  36              		.loc 1 129 0
  37 0002 0023     		movs	r3, #0
  38 0004 104C     		ldr	r4, .L17
  39 0006 0193     		str	r3, [sp, #4]
 123:../STLibs//STM32_USB-Host-Device_Lib_V2.1.0/Libraries/STM32_USB_OTG_Driver/src/usb_core.c **** {
  40              		.loc 1 123 0
  41 0008 0546     		mov	r5, r0
  42              	.LVL1:
  43              	.L3:
 130:../STLibs//STM32_USB-Host-Device_Lib_V2.1.0/Libraries/STM32_USB_OTG_Driver/src/usb_core.c ****   /* Wait for AHB master IDLE state. */
 131:../STLibs//STM32_USB-Host-Device_Lib_V2.1.0/Libraries/STM32_USB_OTG_Driver/src/usb_core.c ****   do
 132:../STLibs//STM32_USB-Host-Device_Lib_V2.1.0/Libraries/STM32_USB_OTG_Driver/src/usb_core.c ****   {
 133:../STLibs//STM32_USB-Host-Device_Lib_V2.1.0/Libraries/STM32_USB_OTG_Driver/src/usb_core.c ****     USB_OTG_BSP_uDelay(3);
  44              		.loc 1 133 0
  45 000a 0320     		movs	r0, #3
  46 000c FFF7FEFF 		bl	USB_OTG_BSP_uDelay
  47              	.LVL2:
 134:../STLibs//STM32_USB-Host-Device_Lib_V2.1.0/Libraries/STM32_USB_OTG_Driver/src/usb_core.c ****     greset.d32 = USB_OTG_READ_REG32(&pdev->regs.GREGS->GRSTCTL);
  48              		.loc 1 134 0
  49 0010 2B68     		ldr	r3, [r5]
 135:../STLibs//STM32_USB-Host-Device_Lib_V2.1.0/Libraries/STM32_USB_OTG_Driver/src/usb_core.c ****     if (++count > 200000)
  50              		.loc 1 135 0
  51 0012 013C     		subs	r4, r4, #1
  52              	.LVL3:
 134:../STLibs//STM32_USB-Host-Device_Lib_V2.1.0/Libraries/STM32_USB_OTG_Driver/src/usb_core.c ****     greset.d32 = USB_OTG_READ_REG32(&pdev->regs.GREGS->GRSTCTL);
  53              		.loc 1 134 0
  54 0014 1A69     		ldr	r2, [r3, #16]
  55 0016 0192     		str	r2, [sp, #4]
  56              	.LVL4:
  57              		.loc 1 135 0
  58 0018 13D0     		beq	.L2
  59              	.LVL5:
 136:../STLibs//STM32_USB-Host-Device_Lib_V2.1.0/Libraries/STM32_USB_OTG_Driver/src/usb_core.c ****     {
 137:../STLibs//STM32_USB-Host-Device_Lib_V2.1.0/Libraries/STM32_USB_OTG_Driver/src/usb_core.c ****       return USB_OTG_OK;
 138:../STLibs//STM32_USB-Host-Device_Lib_V2.1.0/Libraries/STM32_USB_OTG_Driver/src/usb_core.c ****     }
 139:../STLibs//STM32_USB-Host-Device_Lib_V2.1.0/Libraries/STM32_USB_OTG_Driver/src/usb_core.c ****   }
 140:../STLibs//STM32_USB-Host-Device_Lib_V2.1.0/Libraries/STM32_USB_OTG_Driver/src/usb_core.c ****   while (greset.b.ahbidle == 0);
  60              		.loc 1 140 0
  61 001a 019A     		ldr	r2, [sp, #4]
  62 001c 002A     		cmp	r2, #0
  63 001e F4DA     		bge	.L3
  64              	.LVL6:
 141:../STLibs//STM32_USB-Host-Device_Lib_V2.1.0/Libraries/STM32_USB_OTG_Driver/src/usb_core.c ****   /* Core Soft Reset */
 142:../STLibs//STM32_USB-Host-Device_Lib_V2.1.0/Libraries/STM32_USB_OTG_Driver/src/usb_core.c ****   count = 0;
 143:../STLibs//STM32_USB-Host-Device_Lib_V2.1.0/Libraries/STM32_USB_OTG_Driver/src/usb_core.c ****   greset.b.csftrst = 1;
  65              		.loc 1 143 0
  66 0020 019A     		ldr	r2, [sp, #4]
  67 0022 42F00102 		orr	r2, r2, #1
  68 0026 0192     		str	r2, [sp, #4]
 144:../STLibs//STM32_USB-Host-Device_Lib_V2.1.0/Libraries/STM32_USB_OTG_Driver/src/usb_core.c ****   USB_OTG_WRITE_REG32(&pdev->regs.GREGS->GRSTCTL, greset.d32 );
  69              		.loc 1 144 0
  70 0028 019A     		ldr	r2, [sp, #4]
  71 002a 1A61     		str	r2, [r3, #16]
  72 002c 064A     		ldr	r2, .L17
  73              	.LVL7:
  74              	.L5:
 145:../STLibs//STM32_USB-Host-Device_Lib_V2.1.0/Libraries/STM32_USB_OTG_Driver/src/usb_core.c ****   do
 146:../STLibs//STM32_USB-Host-Device_Lib_V2.1.0/Libraries/STM32_USB_OTG_Driver/src/usb_core.c ****   {
 147:../STLibs//STM32_USB-Host-Device_Lib_V2.1.0/Libraries/STM32_USB_OTG_Driver/src/usb_core.c ****     greset.d32 = USB_OTG_READ_REG32(&pdev->regs.GREGS->GRSTCTL);
  75              		.loc 1 147 0
  76 002e 1969     		ldr	r1, [r3, #16]
  77 0030 0191     		str	r1, [sp, #4]
  78              	.LVL8:
 148:../STLibs//STM32_USB-Host-Device_Lib_V2.1.0/Libraries/STM32_USB_OTG_Driver/src/usb_core.c ****     if (++count > 200000)
  79              		.loc 1 148 0
  80 0032 013A     		subs	r2, r2, #1
  81              	.LVL9:
  82 0034 02D0     		beq	.L4
  83              	.LVL10:
 149:../STLibs//STM32_USB-Host-Device_Lib_V2.1.0/Libraries/STM32_USB_OTG_Driver/src/usb_core.c ****     {
 150:../STLibs//STM32_USB-Host-Device_Lib_V2.1.0/Libraries/STM32_USB_OTG_Driver/src/usb_core.c ****       break;
 151:../STLibs//STM32_USB-Host-Device_Lib_V2.1.0/Libraries/STM32_USB_OTG_Driver/src/usb_core.c ****     }
 152:../STLibs//STM32_USB-Host-Device_Lib_V2.1.0/Libraries/STM32_USB_OTG_Driver/src/usb_core.c ****   }
 153:../STLibs//STM32_USB-Host-Device_Lib_V2.1.0/Libraries/STM32_USB_OTG_Driver/src/usb_core.c ****   while (greset.b.csftrst == 1);
  84              		.loc 1 153 0
  85 0036 0199     		ldr	r1, [sp, #4]
  86 0038 C907     		lsls	r1, r1, #31
  87 003a F8D4     		bmi	.L5
  88              	.LVL11:
  89              	.L4:
 154:../STLibs//STM32_USB-Host-Device_Lib_V2.1.0/Libraries/STM32_USB_OTG_Driver/src/usb_core.c ****   /* Wait for 3 PHY Clocks*/
 155:../STLibs//STM32_USB-Host-Device_Lib_V2.1.0/Libraries/STM32_USB_OTG_Driver/src/usb_core.c ****   USB_OTG_BSP_uDelay(3);
  90              		.loc 1 155 0
  91 003c 0320     		movs	r0, #3
  92 003e FFF7FEFF 		bl	USB_OTG_BSP_uDelay
  93              	.LVL12:
  94              	.L2:
 156:../STLibs//STM32_USB-Host-Device_Lib_V2.1.0/Libraries/STM32_USB_OTG_Driver/src/usb_core.c ****   return status;
 157:../STLibs//STM32_USB-Host-Device_Lib_V2.1.0/Libraries/STM32_USB_OTG_Driver/src/usb_core.c **** }
  95              		.loc 1 157 0
  96 0042 0020     		movs	r0, #0
  97 0044 03B0     		add	sp, sp, #12
  98              	.LCFI1:
  99              		.cfi_def_cfa_offset 12
 100              		@ sp needed
 101 0046 30BD     		pop	{r4, r5, pc}
 102              	.L18:
 103              		.align	2
 104              	.L17:
 105 0048 410D0300 		.word	200001
 106              		.cfi_endproc
 107              	.LFE147:
 109              		.align	1
 110              		.global	USB_OTG_WritePacket
 111              		.syntax unified
 112              		.thumb
 113              		.thumb_func
 114              		.fpu fpv4-sp-d16
 116              	USB_OTG_WritePacket:
 117              	.LFB112:
 158:../STLibs//STM32_USB-Host-Device_Lib_V2.1.0/Libraries/STM32_USB_OTG_Driver/src/usb_core.c **** 
 159:../STLibs//STM32_USB-Host-Device_Lib_V2.1.0/Libraries/STM32_USB_OTG_Driver/src/usb_core.c **** /**
 160:../STLibs//STM32_USB-Host-Device_Lib_V2.1.0/Libraries/STM32_USB_OTG_Driver/src/usb_core.c **** * @brief  USB_OTG_WritePacket : Writes a packet into the Tx FIFO associated 
 161:../STLibs//STM32_USB-Host-Device_Lib_V2.1.0/Libraries/STM32_USB_OTG_Driver/src/usb_core.c **** *         with the EP
 162:../STLibs//STM32_USB-Host-Device_Lib_V2.1.0/Libraries/STM32_USB_OTG_Driver/src/usb_core.c **** * @param  pdev : Selected device
 163:../STLibs//STM32_USB-Host-Device_Lib_V2.1.0/Libraries/STM32_USB_OTG_Driver/src/usb_core.c **** * @param  src : source pointer
 164:../STLibs//STM32_USB-Host-Device_Lib_V2.1.0/Libraries/STM32_USB_OTG_Driver/src/usb_core.c **** * @param  ch_ep_num : end point number
 165:../STLibs//STM32_USB-Host-Device_Lib_V2.1.0/Libraries/STM32_USB_OTG_Driver/src/usb_core.c **** * @param  bytes : No. of bytes
 166:../STLibs//STM32_USB-Host-Device_Lib_V2.1.0/Libraries/STM32_USB_OTG_Driver/src/usb_core.c **** * @retval USB_OTG_STS : status
 167:../STLibs//STM32_USB-Host-Device_Lib_V2.1.0/Libraries/STM32_USB_OTG_Driver/src/usb_core.c **** */
 168:../STLibs//STM32_USB-Host-Device_Lib_V2.1.0/Libraries/STM32_USB_OTG_Driver/src/usb_core.c **** USB_OTG_STS USB_OTG_WritePacket(USB_OTG_CORE_HANDLE *pdev, 
 169:../STLibs//STM32_USB-Host-Device_Lib_V2.1.0/Libraries/STM32_USB_OTG_Driver/src/usb_core.c ****                                 uint8_t             *src, 
 170:../STLibs//STM32_USB-Host-Device_Lib_V2.1.0/Libraries/STM32_USB_OTG_Driver/src/usb_core.c ****                                 uint8_t             ch_ep_num, 
 171:../STLibs//STM32_USB-Host-Device_Lib_V2.1.0/Libraries/STM32_USB_OTG_Driver/src/usb_core.c ****                                 uint16_t            len)
 172:../STLibs//STM32_USB-Host-Device_Lib_V2.1.0/Libraries/STM32_USB_OTG_Driver/src/usb_core.c **** {
 118              		.loc 1 172 0
 119              		.cfi_startproc
 120              		@ args = 0, pretend = 0, frame = 0
 121              		@ frame_needed = 0, uses_anonymous_args = 0
 122              	.LVL13:
 123 004c 10B5     		push	{r4, lr}
 124              	.LCFI2:
 125              		.cfi_def_cfa_offset 8
 126              		.cfi_offset 4, -8
 127              		.cfi_offset 14, -4
 173:../STLibs//STM32_USB-Host-Device_Lib_V2.1.0/Libraries/STM32_USB_OTG_Driver/src/usb_core.c ****   USB_OTG_STS status = USB_OTG_OK;
 174:../STLibs//STM32_USB-Host-Device_Lib_V2.1.0/Libraries/STM32_USB_OTG_Driver/src/usb_core.c ****   if (pdev->cfg.dma_enable == 0)
 128              		.loc 1 174 0
 129 004e C478     		ldrb	r4, [r0, #3]	@ zero_extendqisi2
 130 0050 44B9     		cbnz	r4, .L24
 131              	.LVL14:
 132              	.LBB11:
 133              	.LBB12:
 134              	.LBB13:
 175:../STLibs//STM32_USB-Host-Device_Lib_V2.1.0/Libraries/STM32_USB_OTG_Driver/src/usb_core.c ****   {
 176:../STLibs//STM32_USB-Host-Device_Lib_V2.1.0/Libraries/STM32_USB_OTG_Driver/src/usb_core.c ****     uint32_t count32b= 0 , i= 0;
 177:../STLibs//STM32_USB-Host-Device_Lib_V2.1.0/Libraries/STM32_USB_OTG_Driver/src/usb_core.c ****     __IO uint32_t *fifo;
 178:../STLibs//STM32_USB-Host-Device_Lib_V2.1.0/Libraries/STM32_USB_OTG_Driver/src/usb_core.c ****     
 179:../STLibs//STM32_USB-Host-Device_Lib_V2.1.0/Libraries/STM32_USB_OTG_Driver/src/usb_core.c ****     count32b =  (len + 3) / 4;
 180:../STLibs//STM32_USB-Host-Device_Lib_V2.1.0/Libraries/STM32_USB_OTG_Driver/src/usb_core.c ****     fifo = pdev->regs.DFIFO[ch_ep_num];
 135              		.loc 1 180 0
 136 0052 00EB8200 		add	r0, r0, r2, lsl #2
 137              	.LVL15:
 179:../STLibs//STM32_USB-Host-Device_Lib_V2.1.0/Libraries/STM32_USB_OTG_Driver/src/usb_core.c ****     fifo = pdev->regs.DFIFO[ch_ep_num];
 138              		.loc 1 179 0
 139 0056 0333     		adds	r3, r3, #3
 140              	.LVL16:
 141              		.loc 1 180 0
 142 0058 D0F8D000 		ldr	r0, [r0, #208]
 179:../STLibs//STM32_USB-Host-Device_Lib_V2.1.0/Libraries/STM32_USB_OTG_Driver/src/usb_core.c ****     fifo = pdev->regs.DFIFO[ch_ep_num];
 143              		.loc 1 179 0
 144 005c 9B10     		asrs	r3, r3, #2
 145              	.LVL17:
 181:../STLibs//STM32_USB-Host-Device_Lib_V2.1.0/Libraries/STM32_USB_OTG_Driver/src/usb_core.c ****     for (i = 0; i < count32b; i++, src+=4)
 146              		.loc 1 181 0
 147 005e 2246     		mov	r2, r4
 148              	.LVL18:
 149              	.L21:
 150 0060 9342     		cmp	r3, r2
 151 0062 01D1     		bne	.L22
 152              	.LVL19:
 153              	.L24:
 154              	.LBE13:
 155              	.LBE12:
 156              	.LBE11:
 182:../STLibs//STM32_USB-Host-Device_Lib_V2.1.0/Libraries/STM32_USB_OTG_Driver/src/usb_core.c ****     {
 183:../STLibs//STM32_USB-Host-Device_Lib_V2.1.0/Libraries/STM32_USB_OTG_Driver/src/usb_core.c ****       USB_OTG_WRITE_REG32( fifo, *((__packed uint32_t *)src) );
 184:../STLibs//STM32_USB-Host-Device_Lib_V2.1.0/Libraries/STM32_USB_OTG_Driver/src/usb_core.c ****     }
 185:../STLibs//STM32_USB-Host-Device_Lib_V2.1.0/Libraries/STM32_USB_OTG_Driver/src/usb_core.c ****   }
 186:../STLibs//STM32_USB-Host-Device_Lib_V2.1.0/Libraries/STM32_USB_OTG_Driver/src/usb_core.c ****   return status;
 187:../STLibs//STM32_USB-Host-Device_Lib_V2.1.0/Libraries/STM32_USB_OTG_Driver/src/usb_core.c **** }
 157              		.loc 1 187 0
 158 0064 0020     		movs	r0, #0
 159 0066 10BD     		pop	{r4, pc}
 160              	.LVL20:
 161              	.L22:
 162              	.LBB16:
 163              	.LBB15:
 164              	.LBB14:
 183:../STLibs//STM32_USB-Host-Device_Lib_V2.1.0/Libraries/STM32_USB_OTG_Driver/src/usb_core.c ****     }
 165              		.loc 1 183 0
 166 0068 51F82240 		ldr	r4, [r1, r2, lsl #2]
 167 006c 0460     		str	r4, [r0]
 181:../STLibs//STM32_USB-Host-Device_Lib_V2.1.0/Libraries/STM32_USB_OTG_Driver/src/usb_core.c ****     for (i = 0; i < count32b; i++, src+=4)
 168              		.loc 1 181 0
 169 006e 0132     		adds	r2, r2, #1
 170              	.LVL21:
 171 0070 F6E7     		b	.L21
 172              	.LBE14:
 173              	.LBE15:
 174              	.LBE16:
 175              		.cfi_endproc
 176              	.LFE112:
 178              		.align	1
 179              		.global	USB_OTG_ReadPacket
 180              		.syntax unified
 181              		.thumb
 182              		.thumb_func
 183              		.fpu fpv4-sp-d16
 185              	USB_OTG_ReadPacket:
 186              	.LFB113:
 188:../STLibs//STM32_USB-Host-Device_Lib_V2.1.0/Libraries/STM32_USB_OTG_Driver/src/usb_core.c **** 
 189:../STLibs//STM32_USB-Host-Device_Lib_V2.1.0/Libraries/STM32_USB_OTG_Driver/src/usb_core.c **** 
 190:../STLibs//STM32_USB-Host-Device_Lib_V2.1.0/Libraries/STM32_USB_OTG_Driver/src/usb_core.c **** /**
 191:../STLibs//STM32_USB-Host-Device_Lib_V2.1.0/Libraries/STM32_USB_OTG_Driver/src/usb_core.c **** * @brief  USB_OTG_ReadPacket : Reads a packet from the Rx FIFO
 192:../STLibs//STM32_USB-Host-Device_Lib_V2.1.0/Libraries/STM32_USB_OTG_Driver/src/usb_core.c **** * @param  pdev : Selected device
 193:../STLibs//STM32_USB-Host-Device_Lib_V2.1.0/Libraries/STM32_USB_OTG_Driver/src/usb_core.c **** * @param  dest : Destination Pointer
 194:../STLibs//STM32_USB-Host-Device_Lib_V2.1.0/Libraries/STM32_USB_OTG_Driver/src/usb_core.c **** * @param  bytes : No. of bytes
 195:../STLibs//STM32_USB-Host-Device_Lib_V2.1.0/Libraries/STM32_USB_OTG_Driver/src/usb_core.c **** * @retval None
 196:../STLibs//STM32_USB-Host-Device_Lib_V2.1.0/Libraries/STM32_USB_OTG_Driver/src/usb_core.c **** */
 197:../STLibs//STM32_USB-Host-Device_Lib_V2.1.0/Libraries/STM32_USB_OTG_Driver/src/usb_core.c **** void *USB_OTG_ReadPacket(USB_OTG_CORE_HANDLE *pdev, 
 198:../STLibs//STM32_USB-Host-Device_Lib_V2.1.0/Libraries/STM32_USB_OTG_Driver/src/usb_core.c ****                          uint8_t *dest, 
 199:../STLibs//STM32_USB-Host-Device_Lib_V2.1.0/Libraries/STM32_USB_OTG_Driver/src/usb_core.c ****                          uint16_t len)
 200:../STLibs//STM32_USB-Host-Device_Lib_V2.1.0/Libraries/STM32_USB_OTG_Driver/src/usb_core.c **** {
 187              		.loc 1 200 0
 188              		.cfi_startproc
 189              		@ args = 0, pretend = 0, frame = 0
 190              		@ frame_needed = 0, uses_anonymous_args = 0
 191              	.LVL22:
 192 0072 10B5     		push	{r4, lr}
 193              	.LCFI3:
 194              		.cfi_def_cfa_offset 8
 195              		.cfi_offset 4, -8
 196              		.cfi_offset 14, -4
 201:../STLibs//STM32_USB-Host-Device_Lib_V2.1.0/Libraries/STM32_USB_OTG_Driver/src/usb_core.c ****   uint32_t i=0;
 202:../STLibs//STM32_USB-Host-Device_Lib_V2.1.0/Libraries/STM32_USB_OTG_Driver/src/usb_core.c ****   uint32_t count32b = (len + 3) / 4;
 197              		.loc 1 202 0
 198 0074 0332     		adds	r2, r2, #3
 199              	.LVL23:
 203:../STLibs//STM32_USB-Host-Device_Lib_V2.1.0/Libraries/STM32_USB_OTG_Driver/src/usb_core.c ****   
 204:../STLibs//STM32_USB-Host-Device_Lib_V2.1.0/Libraries/STM32_USB_OTG_Driver/src/usb_core.c ****   __IO uint32_t *fifo = pdev->regs.DFIFO[0];
 200              		.loc 1 204 0
 201 0076 D0F8D030 		ldr	r3, [r0, #208]
 202:../STLibs//STM32_USB-Host-Device_Lib_V2.1.0/Libraries/STM32_USB_OTG_Driver/src/usb_core.c ****   
 202              		.loc 1 202 0
 203 007a 9210     		asrs	r2, r2, #2
 204              	.LVL24:
 205:../STLibs//STM32_USB-Host-Device_Lib_V2.1.0/Libraries/STM32_USB_OTG_Driver/src/usb_core.c ****   
 206:../STLibs//STM32_USB-Host-Device_Lib_V2.1.0/Libraries/STM32_USB_OTG_Driver/src/usb_core.c ****   for ( i = 0; i < count32b; i++, dest += 4 )
 205              		.loc 1 206 0
 206 007c 0020     		movs	r0, #0
 207              	.LVL25:
 208              	.L26:
 209              		.loc 1 206 0 is_stmt 0 discriminator 1
 210 007e 9042     		cmp	r0, r2
 211 0080 02D1     		bne	.L27
 207:../STLibs//STM32_USB-Host-Device_Lib_V2.1.0/Libraries/STM32_USB_OTG_Driver/src/usb_core.c ****   {
 208:../STLibs//STM32_USB-Host-Device_Lib_V2.1.0/Libraries/STM32_USB_OTG_Driver/src/usb_core.c ****     *(__packed uint32_t *)dest = USB_OTG_READ_REG32(fifo);
 209:../STLibs//STM32_USB-Host-Device_Lib_V2.1.0/Libraries/STM32_USB_OTG_Driver/src/usb_core.c ****     
 210:../STLibs//STM32_USB-Host-Device_Lib_V2.1.0/Libraries/STM32_USB_OTG_Driver/src/usb_core.c ****   }
 211:../STLibs//STM32_USB-Host-Device_Lib_V2.1.0/Libraries/STM32_USB_OTG_Driver/src/usb_core.c ****   return ((void *)dest);
 212:../STLibs//STM32_USB-Host-Device_Lib_V2.1.0/Libraries/STM32_USB_OTG_Driver/src/usb_core.c **** }
 212              		.loc 1 212 0 is_stmt 1
 213 0082 01EB8000 		add	r0, r1, r0, lsl #2
 214              	.LVL26:
 215 0086 10BD     		pop	{r4, pc}
 216              	.LVL27:
 217              	.L27:
 208:../STLibs//STM32_USB-Host-Device_Lib_V2.1.0/Libraries/STM32_USB_OTG_Driver/src/usb_core.c ****     
 218              		.loc 1 208 0 discriminator 3
 219 0088 1C68     		ldr	r4, [r3]
 220 008a 41F82040 		str	r4, [r1, r0, lsl #2]
 206:../STLibs//STM32_USB-Host-Device_Lib_V2.1.0/Libraries/STM32_USB_OTG_Driver/src/usb_core.c ****   {
 221              		.loc 1 206 0 discriminator 3
 222 008e 0130     		adds	r0, r0, #1
 223              	.LVL28:
 224 0090 F5E7     		b	.L26
 225              		.cfi_endproc
 226              	.LFE113:
 228              		.align	1
 229              		.global	USB_OTG_SelectCore
 230              		.syntax unified
 231              		.thumb
 232              		.thumb_func
 233              		.fpu fpv4-sp-d16
 235              	USB_OTG_SelectCore:
 236              	.LFB114:
 213:../STLibs//STM32_USB-Host-Device_Lib_V2.1.0/Libraries/STM32_USB_OTG_Driver/src/usb_core.c **** 
 214:../STLibs//STM32_USB-Host-Device_Lib_V2.1.0/Libraries/STM32_USB_OTG_Driver/src/usb_core.c **** /**
 215:../STLibs//STM32_USB-Host-Device_Lib_V2.1.0/Libraries/STM32_USB_OTG_Driver/src/usb_core.c **** * @brief  USB_OTG_SelectCore 
 216:../STLibs//STM32_USB-Host-Device_Lib_V2.1.0/Libraries/STM32_USB_OTG_Driver/src/usb_core.c **** *         Initialize core registers address.
 217:../STLibs//STM32_USB-Host-Device_Lib_V2.1.0/Libraries/STM32_USB_OTG_Driver/src/usb_core.c **** * @param  pdev : Selected device
 218:../STLibs//STM32_USB-Host-Device_Lib_V2.1.0/Libraries/STM32_USB_OTG_Driver/src/usb_core.c **** * @param  coreID : USB OTG Core ID
 219:../STLibs//STM32_USB-Host-Device_Lib_V2.1.0/Libraries/STM32_USB_OTG_Driver/src/usb_core.c **** * @retval USB_OTG_STS : status
 220:../STLibs//STM32_USB-Host-Device_Lib_V2.1.0/Libraries/STM32_USB_OTG_Driver/src/usb_core.c **** */
 221:../STLibs//STM32_USB-Host-Device_Lib_V2.1.0/Libraries/STM32_USB_OTG_Driver/src/usb_core.c **** USB_OTG_STS USB_OTG_SelectCore(USB_OTG_CORE_HANDLE *pdev, 
 222:../STLibs//STM32_USB-Host-Device_Lib_V2.1.0/Libraries/STM32_USB_OTG_Driver/src/usb_core.c ****                                USB_OTG_CORE_ID_TypeDef coreID)
 223:../STLibs//STM32_USB-Host-Device_Lib_V2.1.0/Libraries/STM32_USB_OTG_Driver/src/usb_core.c **** {
 237              		.loc 1 223 0
 238              		.cfi_startproc
 239              		@ args = 0, pretend = 0, frame = 0
 240              		@ frame_needed = 0, uses_anonymous_args = 0
 241              	.LVL29:
 224:../STLibs//STM32_USB-Host-Device_Lib_V2.1.0/Libraries/STM32_USB_OTG_Driver/src/usb_core.c ****   uint32_t i , baseAddress = 0;
 225:../STLibs//STM32_USB-Host-Device_Lib_V2.1.0/Libraries/STM32_USB_OTG_Driver/src/usb_core.c ****   USB_OTG_STS status = USB_OTG_OK;
 226:../STLibs//STM32_USB-Host-Device_Lib_V2.1.0/Libraries/STM32_USB_OTG_Driver/src/usb_core.c ****   
 227:../STLibs//STM32_USB-Host-Device_Lib_V2.1.0/Libraries/STM32_USB_OTG_Driver/src/usb_core.c ****   pdev->cfg.dma_enable       = 0;
 228:../STLibs//STM32_USB-Host-Device_Lib_V2.1.0/Libraries/STM32_USB_OTG_Driver/src/usb_core.c ****   
 229:../STLibs//STM32_USB-Host-Device_Lib_V2.1.0/Libraries/STM32_USB_OTG_Driver/src/usb_core.c ****   /* at startup the core is in FS mode */
 230:../STLibs//STM32_USB-Host-Device_Lib_V2.1.0/Libraries/STM32_USB_OTG_Driver/src/usb_core.c ****   pdev->cfg.speed            = USB_OTG_SPEED_FULL;
 242              		.loc 1 230 0
 243 0092 0123     		movs	r3, #1
 223:../STLibs//STM32_USB-Host-Device_Lib_V2.1.0/Libraries/STM32_USB_OTG_Driver/src/usb_core.c ****   uint32_t i , baseAddress = 0;
 244              		.loc 1 223 0
 245 0094 30B5     		push	{r4, r5, lr}
 246              	.LCFI4:
 247              		.cfi_def_cfa_offset 12
 248              		.cfi_offset 4, -12
 249              		.cfi_offset 5, -8
 250              		.cfi_offset 14, -4
 231:../STLibs//STM32_USB-Host-Device_Lib_V2.1.0/Libraries/STM32_USB_OTG_Driver/src/usb_core.c ****   pdev->cfg.mps              = USB_OTG_FS_MAX_PACKET_SIZE ;    
 232:../STLibs//STM32_USB-Host-Device_Lib_V2.1.0/Libraries/STM32_USB_OTG_Driver/src/usb_core.c ****   
 233:../STLibs//STM32_USB-Host-Device_Lib_V2.1.0/Libraries/STM32_USB_OTG_Driver/src/usb_core.c ****   /* initialize device cfg following its address */
 234:../STLibs//STM32_USB-Host-Device_Lib_V2.1.0/Libraries/STM32_USB_OTG_Driver/src/usb_core.c ****   if (coreID == USB_OTG_FS_CORE_ID)
 251              		.loc 1 234 0
 252 0096 0129     		cmp	r1, #1
 230:../STLibs//STM32_USB-Host-Device_Lib_V2.1.0/Libraries/STM32_USB_OTG_Driver/src/usb_core.c ****   pdev->cfg.mps              = USB_OTG_FS_MAX_PACKET_SIZE ;    
 253              		.loc 1 230 0
 254 0098 4380     		strh	r3, [r0, #2]	@ movhi
 227:../STLibs//STM32_USB-Host-Device_Lib_V2.1.0/Libraries/STM32_USB_OTG_Driver/src/usb_core.c ****   
 255              		.loc 1 227 0
 256 009a 4FF04003 		mov	r3, #64
 257 009e 8380     		strh	r3, [r0, #4]	@ movhi
 258              		.loc 1 234 0
 259 00a0 39D1     		bne	.L29
 260              	.LVL30:
 235:../STLibs//STM32_USB-Host-Device_Lib_V2.1.0/Libraries/STM32_USB_OTG_Driver/src/usb_core.c ****   {
 236:../STLibs//STM32_USB-Host-Device_Lib_V2.1.0/Libraries/STM32_USB_OTG_Driver/src/usb_core.c ****     baseAddress                = USB_OTG_FS_BASE_ADDR;
 237:../STLibs//STM32_USB-Host-Device_Lib_V2.1.0/Libraries/STM32_USB_OTG_Driver/src/usb_core.c ****     pdev->cfg.coreID           = USB_OTG_FS_CORE_ID;
 238:../STLibs//STM32_USB-Host-Device_Lib_V2.1.0/Libraries/STM32_USB_OTG_Driver/src/usb_core.c ****     pdev->cfg.host_channels    = 8 ;
 261              		.loc 1 238 0
 262 00a2 4FF48163 		mov	r3, #1032
 263 00a6 0380     		strh	r3, [r0]	@ movhi
 239:../STLibs//STM32_USB-Host-Device_Lib_V2.1.0/Libraries/STM32_USB_OTG_Driver/src/usb_core.c ****     pdev->cfg.dev_endpoints    = 4 ;
 240:../STLibs//STM32_USB-Host-Device_Lib_V2.1.0/Libraries/STM32_USB_OTG_Driver/src/usb_core.c ****     pdev->cfg.TotalFifoSize    = 320; /* in 32-bits */
 264              		.loc 1 240 0
 265 00a8 4FF4A073 		mov	r3, #320
 266 00ac C380     		strh	r3, [r0, #6]	@ movhi
 241:../STLibs//STM32_USB-Host-Device_Lib_V2.1.0/Libraries/STM32_USB_OTG_Driver/src/usb_core.c ****     pdev->cfg.phy_itface       = USB_OTG_EMBEDDED_PHY;     
 267              		.loc 1 241 0
 268 00ae 0223     		movs	r3, #2
 269 00b0 0372     		strb	r3, [r0, #8]
 237:../STLibs//STM32_USB-Host-Device_Lib_V2.1.0/Libraries/STM32_USB_OTG_Driver/src/usb_core.c ****     pdev->cfg.host_channels    = 8 ;
 270              		.loc 1 237 0
 271 00b2 C172     		strb	r1, [r0, #11]
 236:../STLibs//STM32_USB-Host-Device_Lib_V2.1.0/Libraries/STM32_USB_OTG_Driver/src/usb_core.c ****     pdev->cfg.coreID           = USB_OTG_FS_CORE_ID;
 272              		.loc 1 236 0
 273 00b4 4FF0A043 		mov	r3, #1342177280
 274              	.LVL31:
 275              	.L30:
 242:../STLibs//STM32_USB-Host-Device_Lib_V2.1.0/Libraries/STM32_USB_OTG_Driver/src/usb_core.c ****     
 243:../STLibs//STM32_USB-Host-Device_Lib_V2.1.0/Libraries/STM32_USB_OTG_Driver/src/usb_core.c **** #ifdef USB_OTG_FS_SOF_OUTPUT_ENABLED    
 244:../STLibs//STM32_USB-Host-Device_Lib_V2.1.0/Libraries/STM32_USB_OTG_Driver/src/usb_core.c ****     pdev->cfg.Sof_output       = 1;    
 245:../STLibs//STM32_USB-Host-Device_Lib_V2.1.0/Libraries/STM32_USB_OTG_Driver/src/usb_core.c **** #endif 
 246:../STLibs//STM32_USB-Host-Device_Lib_V2.1.0/Libraries/STM32_USB_OTG_Driver/src/usb_core.c ****     
 247:../STLibs//STM32_USB-Host-Device_Lib_V2.1.0/Libraries/STM32_USB_OTG_Driver/src/usb_core.c **** #ifdef USB_OTG_FS_LOW_PWR_MGMT_SUPPORT    
 248:../STLibs//STM32_USB-Host-Device_Lib_V2.1.0/Libraries/STM32_USB_OTG_Driver/src/usb_core.c ****     pdev->cfg.low_power        = 1;    
 249:../STLibs//STM32_USB-Host-Device_Lib_V2.1.0/Libraries/STM32_USB_OTG_Driver/src/usb_core.c **** #endif     
 250:../STLibs//STM32_USB-Host-Device_Lib_V2.1.0/Libraries/STM32_USB_OTG_Driver/src/usb_core.c ****   }
 251:../STLibs//STM32_USB-Host-Device_Lib_V2.1.0/Libraries/STM32_USB_OTG_Driver/src/usb_core.c ****   else if (coreID == USB_OTG_HS_CORE_ID)
 252:../STLibs//STM32_USB-Host-Device_Lib_V2.1.0/Libraries/STM32_USB_OTG_Driver/src/usb_core.c ****   {
 253:../STLibs//STM32_USB-Host-Device_Lib_V2.1.0/Libraries/STM32_USB_OTG_Driver/src/usb_core.c ****     baseAddress                = USB_OTG_HS_BASE_ADDR;
 254:../STLibs//STM32_USB-Host-Device_Lib_V2.1.0/Libraries/STM32_USB_OTG_Driver/src/usb_core.c ****     pdev->cfg.coreID           = USB_OTG_HS_CORE_ID;    
 255:../STLibs//STM32_USB-Host-Device_Lib_V2.1.0/Libraries/STM32_USB_OTG_Driver/src/usb_core.c ****     pdev->cfg.host_channels    = 12 ;
 256:../STLibs//STM32_USB-Host-Device_Lib_V2.1.0/Libraries/STM32_USB_OTG_Driver/src/usb_core.c ****     pdev->cfg.dev_endpoints    = 6 ;
 257:../STLibs//STM32_USB-Host-Device_Lib_V2.1.0/Libraries/STM32_USB_OTG_Driver/src/usb_core.c ****     pdev->cfg.TotalFifoSize    = 1280;/* in 32-bits */
 258:../STLibs//STM32_USB-Host-Device_Lib_V2.1.0/Libraries/STM32_USB_OTG_Driver/src/usb_core.c ****     
 259:../STLibs//STM32_USB-Host-Device_Lib_V2.1.0/Libraries/STM32_USB_OTG_Driver/src/usb_core.c **** #ifdef USB_OTG_ULPI_PHY_ENABLED
 260:../STLibs//STM32_USB-Host-Device_Lib_V2.1.0/Libraries/STM32_USB_OTG_Driver/src/usb_core.c ****     pdev->cfg.phy_itface       = USB_OTG_ULPI_PHY;
 261:../STLibs//STM32_USB-Host-Device_Lib_V2.1.0/Libraries/STM32_USB_OTG_Driver/src/usb_core.c **** #else    
 262:../STLibs//STM32_USB-Host-Device_Lib_V2.1.0/Libraries/STM32_USB_OTG_Driver/src/usb_core.c **** #ifdef USB_OTG_EMBEDDED_PHY_ENABLED
 263:../STLibs//STM32_USB-Host-Device_Lib_V2.1.0/Libraries/STM32_USB_OTG_Driver/src/usb_core.c ****     pdev->cfg.phy_itface       = USB_OTG_EMBEDDED_PHY;
 264:../STLibs//STM32_USB-Host-Device_Lib_V2.1.0/Libraries/STM32_USB_OTG_Driver/src/usb_core.c **** #endif  
 265:../STLibs//STM32_USB-Host-Device_Lib_V2.1.0/Libraries/STM32_USB_OTG_Driver/src/usb_core.c **** #endif      
 266:../STLibs//STM32_USB-Host-Device_Lib_V2.1.0/Libraries/STM32_USB_OTG_Driver/src/usb_core.c ****     
 267:../STLibs//STM32_USB-Host-Device_Lib_V2.1.0/Libraries/STM32_USB_OTG_Driver/src/usb_core.c **** #ifdef USB_OTG_HS_INTERNAL_DMA_ENABLED    
 268:../STLibs//STM32_USB-Host-Device_Lib_V2.1.0/Libraries/STM32_USB_OTG_Driver/src/usb_core.c ****     pdev->cfg.dma_enable       = 1;    
 269:../STLibs//STM32_USB-Host-Device_Lib_V2.1.0/Libraries/STM32_USB_OTG_Driver/src/usb_core.c **** #endif
 270:../STLibs//STM32_USB-Host-Device_Lib_V2.1.0/Libraries/STM32_USB_OTG_Driver/src/usb_core.c ****     
 271:../STLibs//STM32_USB-Host-Device_Lib_V2.1.0/Libraries/STM32_USB_OTG_Driver/src/usb_core.c **** #ifdef USB_OTG_HS_SOF_OUTPUT_ENABLED    
 272:../STLibs//STM32_USB-Host-Device_Lib_V2.1.0/Libraries/STM32_USB_OTG_Driver/src/usb_core.c ****     pdev->cfg.Sof_output       = 1;    
 273:../STLibs//STM32_USB-Host-Device_Lib_V2.1.0/Libraries/STM32_USB_OTG_Driver/src/usb_core.c **** #endif 
 274:../STLibs//STM32_USB-Host-Device_Lib_V2.1.0/Libraries/STM32_USB_OTG_Driver/src/usb_core.c ****     
 275:../STLibs//STM32_USB-Host-Device_Lib_V2.1.0/Libraries/STM32_USB_OTG_Driver/src/usb_core.c **** #ifdef USB_OTG_HS_LOW_PWR_MGMT_SUPPORT    
 276:../STLibs//STM32_USB-Host-Device_Lib_V2.1.0/Libraries/STM32_USB_OTG_Driver/src/usb_core.c ****     pdev->cfg.low_power        = 1;    
 277:../STLibs//STM32_USB-Host-Device_Lib_V2.1.0/Libraries/STM32_USB_OTG_Driver/src/usb_core.c **** #endif 
 278:../STLibs//STM32_USB-Host-Device_Lib_V2.1.0/Libraries/STM32_USB_OTG_Driver/src/usb_core.c ****     
 279:../STLibs//STM32_USB-Host-Device_Lib_V2.1.0/Libraries/STM32_USB_OTG_Driver/src/usb_core.c ****   }
 280:../STLibs//STM32_USB-Host-Device_Lib_V2.1.0/Libraries/STM32_USB_OTG_Driver/src/usb_core.c ****   
 281:../STLibs//STM32_USB-Host-Device_Lib_V2.1.0/Libraries/STM32_USB_OTG_Driver/src/usb_core.c ****   pdev->regs.GREGS = (USB_OTG_GREGS *)(baseAddress + \
 282:../STLibs//STM32_USB-Host-Device_Lib_V2.1.0/Libraries/STM32_USB_OTG_Driver/src/usb_core.c ****     USB_OTG_CORE_GLOBAL_REGS_OFFSET);
 283:../STLibs//STM32_USB-Host-Device_Lib_V2.1.0/Libraries/STM32_USB_OTG_Driver/src/usb_core.c ****   pdev->regs.DREGS =  (USB_OTG_DREGS  *)  (baseAddress + \
 276              		.loc 1 283 0
 277 00b8 03F50062 		add	r2, r3, #2048
 278 00bc 4478     		ldrb	r4, [r0, #1]	@ zero_extendqisi2
 279 00be 0261     		str	r2, [r0, #16]
 280              	.LVL32:
 281 00c0 00F11802 		add	r2, r0, #24
 281:../STLibs//STM32_USB-Host-Device_Lib_V2.1.0/Libraries/STM32_USB_OTG_Driver/src/usb_core.c ****     USB_OTG_CORE_GLOBAL_REGS_OFFSET);
 282              		.loc 1 281 0
 283 00c4 C360     		str	r3, [r0, #12]
 284 00c6 03F51061 		add	r1, r3, #2304
 285              	.LVL33:
 286 00ca 02EB8404 		add	r4, r2, r4, lsl #2
 287              	.LVL34:
 288              	.L31:
 284:../STLibs//STM32_USB-Host-Device_Lib_V2.1.0/Libraries/STM32_USB_OTG_Driver/src/usb_core.c ****     USB_OTG_DEV_GLOBAL_REG_OFFSET);
 285:../STLibs//STM32_USB-Host-Device_Lib_V2.1.0/Libraries/STM32_USB_OTG_Driver/src/usb_core.c ****   
 286:../STLibs//STM32_USB-Host-Device_Lib_V2.1.0/Libraries/STM32_USB_OTG_Driver/src/usb_core.c ****   for (i = 0; i < pdev->cfg.dev_endpoints; i++)
 289              		.loc 1 286 0 discriminator 1
 290 00ce A242     		cmp	r2, r4
 291 00d0 2DD1     		bne	.L32
 287:../STLibs//STM32_USB-Host-Device_Lib_V2.1.0/Libraries/STM32_USB_OTG_Driver/src/usb_core.c ****   {
 288:../STLibs//STM32_USB-Host-Device_Lib_V2.1.0/Libraries/STM32_USB_OTG_Driver/src/usb_core.c ****     pdev->regs.INEP_REGS[i]  = (USB_OTG_INEPREGS *)  \
 289:../STLibs//STM32_USB-Host-Device_Lib_V2.1.0/Libraries/STM32_USB_OTG_Driver/src/usb_core.c ****       (baseAddress + USB_OTG_DEV_IN_EP_REG_OFFSET + \
 290:../STLibs//STM32_USB-Host-Device_Lib_V2.1.0/Libraries/STM32_USB_OTG_Driver/src/usb_core.c ****         (i * USB_OTG_EP_REG_OFFSET));
 291:../STLibs//STM32_USB-Host-Device_Lib_V2.1.0/Libraries/STM32_USB_OTG_Driver/src/usb_core.c ****     pdev->regs.OUTEP_REGS[i] = (USB_OTG_OUTEPREGS *) \
 292:../STLibs//STM32_USB-Host-Device_Lib_V2.1.0/Libraries/STM32_USB_OTG_Driver/src/usb_core.c ****       (baseAddress + USB_OTG_DEV_OUT_EP_REG_OFFSET + \
 293:../STLibs//STM32_USB-Host-Device_Lib_V2.1.0/Libraries/STM32_USB_OTG_Driver/src/usb_core.c ****         (i * USB_OTG_EP_REG_OFFSET));
 294:../STLibs//STM32_USB-Host-Device_Lib_V2.1.0/Libraries/STM32_USB_OTG_Driver/src/usb_core.c ****   }
 295:../STLibs//STM32_USB-Host-Device_Lib_V2.1.0/Libraries/STM32_USB_OTG_Driver/src/usb_core.c ****   pdev->regs.HREGS = (USB_OTG_HREGS *)(baseAddress + \
 292              		.loc 1 295 0
 293 00d2 03F58062 		add	r2, r3, #1024
 294 00d6 4261     		str	r2, [r0, #20]
 296:../STLibs//STM32_USB-Host-Device_Lib_V2.1.0/Libraries/STM32_USB_OTG_Driver/src/usb_core.c ****     USB_OTG_HOST_GLOBAL_REG_OFFSET);
 297:../STLibs//STM32_USB-Host-Device_Lib_V2.1.0/Libraries/STM32_USB_OTG_Driver/src/usb_core.c ****   pdev->regs.HPRT0 = (uint32_t *)(baseAddress + USB_OTG_HOST_PORT_REGS_OFFSET);
 298:../STLibs//STM32_USB-Host-Device_Lib_V2.1.0/Libraries/STM32_USB_OTG_Driver/src/usb_core.c ****   
 299:../STLibs//STM32_USB-Host-Device_Lib_V2.1.0/Libraries/STM32_USB_OTG_Driver/src/usb_core.c ****   for (i = 0; i < pdev->cfg.host_channels; i++)
 295              		.loc 1 299 0
 296 00d8 0446     		mov	r4, r0
 297:../STLibs//STM32_USB-Host-Device_Lib_V2.1.0/Libraries/STM32_USB_OTG_Driver/src/usb_core.c ****   
 297              		.loc 1 297 0
 298 00da 03F58862 		add	r2, r3, #1088
 299 00de C0F8CC20 		str	r2, [r0, #204]
 300              	.LVL35:
 301              		.loc 1 299 0
 302 00e2 14F8902B 		ldrb	r2, [r4], #144	@ zero_extendqisi2
 303 00e6 03EB4215 		add	r5, r3, r2, lsl #5
 304 00ea 03F5A061 		add	r1, r3, #1280
 305 00ee 05F5A065 		add	r5, r5, #1280
 306              	.LVL36:
 307              	.L33:
 308              		.loc 1 299 0 is_stmt 0 discriminator 1
 309 00f2 A942     		cmp	r1, r5
 310 00f4 22D1     		bne	.L34
 311 00f6 03EB0232 		add	r2, r3, r2, lsl #12
 312 00fa 03F58051 		add	r1, r3, #4096
 313 00fe 00F1D004 		add	r4, r0, #208
 314 0102 02F58052 		add	r2, r2, #4096
 315              	.L35:
 300:../STLibs//STM32_USB-Host-Device_Lib_V2.1.0/Libraries/STM32_USB_OTG_Driver/src/usb_core.c ****   {
 301:../STLibs//STM32_USB-Host-Device_Lib_V2.1.0/Libraries/STM32_USB_OTG_Driver/src/usb_core.c ****     pdev->regs.HC_REGS[i] = (USB_OTG_HC_REGS *)(baseAddress + \
 302:../STLibs//STM32_USB-Host-Device_Lib_V2.1.0/Libraries/STM32_USB_OTG_Driver/src/usb_core.c ****       USB_OTG_HOST_CHAN_REGS_OFFSET + \
 303:../STLibs//STM32_USB-Host-Device_Lib_V2.1.0/Libraries/STM32_USB_OTG_Driver/src/usb_core.c ****         (i * USB_OTG_CHAN_REGS_OFFSET));
 304:../STLibs//STM32_USB-Host-Device_Lib_V2.1.0/Libraries/STM32_USB_OTG_Driver/src/usb_core.c ****   }
 305:../STLibs//STM32_USB-Host-Device_Lib_V2.1.0/Libraries/STM32_USB_OTG_Driver/src/usb_core.c ****   for (i = 0; i < pdev->cfg.host_channels; i++)
 316              		.loc 1 305 0 is_stmt 1 discriminator 1
 317 0106 9142     		cmp	r1, r2
 318 0108 1CD1     		bne	.L36
 306:../STLibs//STM32_USB-Host-Device_Lib_V2.1.0/Libraries/STM32_USB_OTG_Driver/src/usb_core.c ****   {
 307:../STLibs//STM32_USB-Host-Device_Lib_V2.1.0/Libraries/STM32_USB_OTG_Driver/src/usb_core.c ****     pdev->regs.DFIFO[i] = (uint32_t *)(baseAddress + USB_OTG_DATA_FIFO_OFFSET +\
 308:../STLibs//STM32_USB-Host-Device_Lib_V2.1.0/Libraries/STM32_USB_OTG_Driver/src/usb_core.c ****       (i * USB_OTG_DATA_FIFO_SIZE));
 309:../STLibs//STM32_USB-Host-Device_Lib_V2.1.0/Libraries/STM32_USB_OTG_Driver/src/usb_core.c ****   }
 310:../STLibs//STM32_USB-Host-Device_Lib_V2.1.0/Libraries/STM32_USB_OTG_Driver/src/usb_core.c ****   pdev->regs.PCGCCTL = (uint32_t *)(baseAddress + USB_OTG_PCGCCTL_OFFSET);
 319              		.loc 1 310 0
 320 010a 03F56063 		add	r3, r3, #3584
 321              	.LVL37:
 322 010e C0F80C31 		str	r3, [r0, #268]
 311:../STLibs//STM32_USB-Host-Device_Lib_V2.1.0/Libraries/STM32_USB_OTG_Driver/src/usb_core.c ****   
 312:../STLibs//STM32_USB-Host-Device_Lib_V2.1.0/Libraries/STM32_USB_OTG_Driver/src/usb_core.c ****   return status;
 313:../STLibs//STM32_USB-Host-Device_Lib_V2.1.0/Libraries/STM32_USB_OTG_Driver/src/usb_core.c **** }
 323              		.loc 1 313 0
 324 0112 0020     		movs	r0, #0
 325              	.LVL38:
 326 0114 30BD     		pop	{r4, r5, pc}
 327              	.LVL39:
 328              	.L29:
 251:../STLibs//STM32_USB-Host-Device_Lib_V2.1.0/Libraries/STM32_USB_OTG_Driver/src/usb_core.c ****   {
 329              		.loc 1 251 0
 330 0116 41B9     		cbnz	r1, .L37
 331              	.LVL40:
 255:../STLibs//STM32_USB-Host-Device_Lib_V2.1.0/Libraries/STM32_USB_OTG_Driver/src/usb_core.c ****     pdev->cfg.dev_endpoints    = 6 ;
 332              		.loc 1 255 0
 333 0118 40F20C63 		movw	r3, #1548
 334 011c 0380     		strh	r3, [r0]	@ movhi
 257:../STLibs//STM32_USB-Host-Device_Lib_V2.1.0/Libraries/STM32_USB_OTG_Driver/src/usb_core.c ****     
 335              		.loc 1 257 0
 336 011e 4FF4A063 		mov	r3, #1280
 337 0122 C380     		strh	r3, [r0, #6]	@ movhi
 254:../STLibs//STM32_USB-Host-Device_Lib_V2.1.0/Libraries/STM32_USB_OTG_Driver/src/usb_core.c ****     pdev->cfg.host_channels    = 12 ;
 338              		.loc 1 254 0
 339 0124 C172     		strb	r1, [r0, #11]
 253:../STLibs//STM32_USB-Host-Device_Lib_V2.1.0/Libraries/STM32_USB_OTG_Driver/src/usb_core.c ****     pdev->cfg.coreID           = USB_OTG_HS_CORE_ID;    
 340              		.loc 1 253 0
 341 0126 0A4B     		ldr	r3, .L38
 342 0128 C6E7     		b	.L30
 343              	.LVL41:
 344              	.L37:
 224:../STLibs//STM32_USB-Host-Device_Lib_V2.1.0/Libraries/STM32_USB_OTG_Driver/src/usb_core.c ****   USB_OTG_STS status = USB_OTG_OK;
 345              		.loc 1 224 0
 346 012a 0023     		movs	r3, #0
 347 012c C4E7     		b	.L30
 348              	.LVL42:
 349              	.L32:
 288:../STLibs//STM32_USB-Host-Device_Lib_V2.1.0/Libraries/STM32_USB_OTG_Driver/src/usb_core.c ****       (baseAddress + USB_OTG_DEV_IN_EP_REG_OFFSET + \
 350              		.loc 1 288 0 discriminator 3
 351 012e 42F8041B 		str	r1, [r2], #4
 291:../STLibs//STM32_USB-Host-Device_Lib_V2.1.0/Libraries/STM32_USB_OTG_Driver/src/usb_core.c ****       (baseAddress + USB_OTG_DEV_OUT_EP_REG_OFFSET + \
 352              		.loc 1 291 0 discriminator 3
 353 0132 01F50075 		add	r5, r1, #512
 354 0136 9563     		str	r5, [r2, #56]
 355 0138 2031     		adds	r1, r1, #32
 356 013a C8E7     		b	.L31
 357              	.L34:
 301:../STLibs//STM32_USB-Host-Device_Lib_V2.1.0/Libraries/STM32_USB_OTG_Driver/src/usb_core.c ****       USB_OTG_HOST_CHAN_REGS_OFFSET + \
 358              		.loc 1 301 0 discriminator 3
 359 013c 44F8041B 		str	r1, [r4], #4
 360 0140 2031     		adds	r1, r1, #32
 361 0142 D6E7     		b	.L33
 362              	.L36:
 307:../STLibs//STM32_USB-Host-Device_Lib_V2.1.0/Libraries/STM32_USB_OTG_Driver/src/usb_core.c ****       (i * USB_OTG_DATA_FIFO_SIZE));
 363              		.loc 1 307 0 discriminator 3
 364 0144 44F8041B 		str	r1, [r4], #4
 365 0148 01F58051 		add	r1, r1, #4096
 366 014c DBE7     		b	.L35
 367              	.L39:
 368 014e 00BF     		.align	2
 369              	.L38:
 370 0150 00000440 		.word	1074003968
 371              		.cfi_endproc
 372              	.LFE114:
 374              		.align	1
 375              		.global	USB_OTG_CoreInit
 376              		.syntax unified
 377              		.thumb
 378              		.thumb_func
 379              		.fpu fpv4-sp-d16
 381              	USB_OTG_CoreInit:
 382              	.LFB115:
 314:../STLibs//STM32_USB-Host-Device_Lib_V2.1.0/Libraries/STM32_USB_OTG_Driver/src/usb_core.c **** 
 315:../STLibs//STM32_USB-Host-Device_Lib_V2.1.0/Libraries/STM32_USB_OTG_Driver/src/usb_core.c **** 
 316:../STLibs//STM32_USB-Host-Device_Lib_V2.1.0/Libraries/STM32_USB_OTG_Driver/src/usb_core.c **** /**
 317:../STLibs//STM32_USB-Host-Device_Lib_V2.1.0/Libraries/STM32_USB_OTG_Driver/src/usb_core.c **** * @brief  USB_OTG_CoreInit
 318:../STLibs//STM32_USB-Host-Device_Lib_V2.1.0/Libraries/STM32_USB_OTG_Driver/src/usb_core.c **** *         Initializes the USB_OTG controller registers and prepares the core
 319:../STLibs//STM32_USB-Host-Device_Lib_V2.1.0/Libraries/STM32_USB_OTG_Driver/src/usb_core.c **** *         device mode or host mode operation.
 320:../STLibs//STM32_USB-Host-Device_Lib_V2.1.0/Libraries/STM32_USB_OTG_Driver/src/usb_core.c **** * @param  pdev : Selected device
 321:../STLibs//STM32_USB-Host-Device_Lib_V2.1.0/Libraries/STM32_USB_OTG_Driver/src/usb_core.c **** * @retval USB_OTG_STS : status
 322:../STLibs//STM32_USB-Host-Device_Lib_V2.1.0/Libraries/STM32_USB_OTG_Driver/src/usb_core.c **** */
 323:../STLibs//STM32_USB-Host-Device_Lib_V2.1.0/Libraries/STM32_USB_OTG_Driver/src/usb_core.c **** USB_OTG_STS USB_OTG_CoreInit(USB_OTG_CORE_HANDLE *pdev)
 324:../STLibs//STM32_USB-Host-Device_Lib_V2.1.0/Libraries/STM32_USB_OTG_Driver/src/usb_core.c **** {
 383              		.loc 1 324 0
 384              		.cfi_startproc
 385              		@ args = 0, pretend = 0, frame = 0
 386              		@ frame_needed = 0, uses_anonymous_args = 0
 387              	.LVL43:
 388 0154 38B5     		push	{r3, r4, r5, lr}
 389              	.LCFI5:
 390              		.cfi_def_cfa_offset 16
 391              		.cfi_offset 3, -16
 392              		.cfi_offset 4, -12
 393              		.cfi_offset 5, -8
 394              		.cfi_offset 14, -4
 395              		.loc 1 324 0
 396 0156 0546     		mov	r5, r0
 325:../STLibs//STM32_USB-Host-Device_Lib_V2.1.0/Libraries/STM32_USB_OTG_Driver/src/usb_core.c ****   USB_OTG_STS status = USB_OTG_OK;
 326:../STLibs//STM32_USB-Host-Device_Lib_V2.1.0/Libraries/STM32_USB_OTG_Driver/src/usb_core.c ****   USB_OTG_GUSBCFG_TypeDef  usbcfg;
 327:../STLibs//STM32_USB-Host-Device_Lib_V2.1.0/Libraries/STM32_USB_OTG_Driver/src/usb_core.c ****   USB_OTG_GCCFG_TypeDef    gccfg;
 328:../STLibs//STM32_USB-Host-Device_Lib_V2.1.0/Libraries/STM32_USB_OTG_Driver/src/usb_core.c ****   USB_OTG_GAHBCFG_TypeDef  ahbcfg;
 329:../STLibs//STM32_USB-Host-Device_Lib_V2.1.0/Libraries/STM32_USB_OTG_Driver/src/usb_core.c ****   
 330:../STLibs//STM32_USB-Host-Device_Lib_V2.1.0/Libraries/STM32_USB_OTG_Driver/src/usb_core.c ****   usbcfg.d32 = 0;
 331:../STLibs//STM32_USB-Host-Device_Lib_V2.1.0/Libraries/STM32_USB_OTG_Driver/src/usb_core.c ****   gccfg.d32 = 0;
 332:../STLibs//STM32_USB-Host-Device_Lib_V2.1.0/Libraries/STM32_USB_OTG_Driver/src/usb_core.c ****   ahbcfg.d32 = 0;
 397              		.loc 1 332 0
 398 0158 0024     		movs	r4, #0
 399              	.LVL44:
 333:../STLibs//STM32_USB-Host-Device_Lib_V2.1.0/Libraries/STM32_USB_OTG_Driver/src/usb_core.c ****   
 334:../STLibs//STM32_USB-Host-Device_Lib_V2.1.0/Libraries/STM32_USB_OTG_Driver/src/usb_core.c ****   
 335:../STLibs//STM32_USB-Host-Device_Lib_V2.1.0/Libraries/STM32_USB_OTG_Driver/src/usb_core.c ****   
 336:../STLibs//STM32_USB-Host-Device_Lib_V2.1.0/Libraries/STM32_USB_OTG_Driver/src/usb_core.c ****   if (pdev->cfg.phy_itface == USB_OTG_ULPI_PHY)
 400              		.loc 1 336 0
 401 015a 2B7A     		ldrb	r3, [r5, #8]	@ zero_extendqisi2
 402 015c 50F80C2F 		ldr	r2, [r0, #12]!
 403              	.LVL45:
 404 0160 012B     		cmp	r3, #1
 405 0162 2AD1     		bne	.L41
 337:../STLibs//STM32_USB-Host-Device_Lib_V2.1.0/Libraries/STM32_USB_OTG_Driver/src/usb_core.c ****   {
 338:../STLibs//STM32_USB-Host-Device_Lib_V2.1.0/Libraries/STM32_USB_OTG_Driver/src/usb_core.c ****     gccfg.d32 = USB_OTG_READ_REG32(&pdev->regs.GREGS->GCCFG);
 406              		.loc 1 338 0
 407 0164 936B     		ldr	r3, [r2, #56]
 408              	.LVL46:
 339:../STLibs//STM32_USB-Host-Device_Lib_V2.1.0/Libraries/STM32_USB_OTG_Driver/src/usb_core.c ****     gccfg.b.pwdn = 0;
 340:../STLibs//STM32_USB-Host-Device_Lib_V2.1.0/Libraries/STM32_USB_OTG_Driver/src/usb_core.c ****     
 341:../STLibs//STM32_USB-Host-Device_Lib_V2.1.0/Libraries/STM32_USB_OTG_Driver/src/usb_core.c ****     if (pdev->cfg.Sof_output)
 409              		.loc 1 341 0
 410 0166 697A     		ldrb	r1, [r5, #9]	@ zero_extendqisi2
 411              	.LVL47:
 339:../STLibs//STM32_USB-Host-Device_Lib_V2.1.0/Libraries/STM32_USB_OTG_Driver/src/usb_core.c ****     gccfg.b.pwdn = 0;
 412              		.loc 1 339 0
 413 0168 64F31043 		bfi	r3, r4, #16, #1
 414              		.loc 1 341 0
 415 016c 09B1     		cbz	r1, .L42
 342:../STLibs//STM32_USB-Host-Device_Lib_V2.1.0/Libraries/STM32_USB_OTG_Driver/src/usb_core.c ****     {
 343:../STLibs//STM32_USB-Host-Device_Lib_V2.1.0/Libraries/STM32_USB_OTG_Driver/src/usb_core.c ****       gccfg.b.sofouten = 1;   
 416              		.loc 1 343 0
 417 016e 43F48013 		orr	r3, r3, #1048576
 418              	.LVL48:
 419              	.L42:
 344:../STLibs//STM32_USB-Host-Device_Lib_V2.1.0/Libraries/STM32_USB_OTG_Driver/src/usb_core.c ****     }
 345:../STLibs//STM32_USB-Host-Device_Lib_V2.1.0/Libraries/STM32_USB_OTG_Driver/src/usb_core.c ****     USB_OTG_WRITE_REG32 (&pdev->regs.GREGS->GCCFG, gccfg.d32);
 420              		.loc 1 345 0
 421 0172 9363     		str	r3, [r2, #56]
 346:../STLibs//STM32_USB-Host-Device_Lib_V2.1.0/Libraries/STM32_USB_OTG_Driver/src/usb_core.c ****     
 347:../STLibs//STM32_USB-Host-Device_Lib_V2.1.0/Libraries/STM32_USB_OTG_Driver/src/usb_core.c ****     /* Init The ULPI Interface */
 348:../STLibs//STM32_USB-Host-Device_Lib_V2.1.0/Libraries/STM32_USB_OTG_Driver/src/usb_core.c ****     usbcfg.d32 = 0;
 349:../STLibs//STM32_USB-Host-Device_Lib_V2.1.0/Libraries/STM32_USB_OTG_Driver/src/usb_core.c ****     usbcfg.d32 = USB_OTG_READ_REG32(&pdev->regs.GREGS->GUSBCFG);
 422              		.loc 1 349 0
 423 0174 D368     		ldr	r3, [r2, #12]
 424              	.LVL49:
 350:../STLibs//STM32_USB-Host-Device_Lib_V2.1.0/Libraries/STM32_USB_OTG_Driver/src/usb_core.c ****     
 351:../STLibs//STM32_USB-Host-Device_Lib_V2.1.0/Libraries/STM32_USB_OTG_Driver/src/usb_core.c ****     usbcfg.b.physel            = 0; /* HS Interface */
 425              		.loc 1 351 0
 426 0176 6FF38613 		bfc	r3, #6, #1
 427              	.LVL50:
 352:../STLibs//STM32_USB-Host-Device_Lib_V2.1.0/Libraries/STM32_USB_OTG_Driver/src/usb_core.c **** #ifdef USB_OTG_INTERNAL_VBUS_ENABLED
 353:../STLibs//STM32_USB-Host-Device_Lib_V2.1.0/Libraries/STM32_USB_OTG_Driver/src/usb_core.c ****     usbcfg.b.ulpi_ext_vbus_drv = 0; /* Use internal VBUS */
 354:../STLibs//STM32_USB-Host-Device_Lib_V2.1.0/Libraries/STM32_USB_OTG_Driver/src/usb_core.c **** #else
 355:../STLibs//STM32_USB-Host-Device_Lib_V2.1.0/Libraries/STM32_USB_OTG_Driver/src/usb_core.c **** #ifdef USB_OTG_EXTERNAL_VBUS_ENABLED    
 356:../STLibs//STM32_USB-Host-Device_Lib_V2.1.0/Libraries/STM32_USB_OTG_Driver/src/usb_core.c ****     usbcfg.b.ulpi_ext_vbus_drv = 1; /* Use external VBUS */
 357:../STLibs//STM32_USB-Host-Device_Lib_V2.1.0/Libraries/STM32_USB_OTG_Driver/src/usb_core.c **** #endif
 358:../STLibs//STM32_USB-Host-Device_Lib_V2.1.0/Libraries/STM32_USB_OTG_Driver/src/usb_core.c **** #endif 
 359:../STLibs//STM32_USB-Host-Device_Lib_V2.1.0/Libraries/STM32_USB_OTG_Driver/src/usb_core.c ****     usbcfg.b.term_sel_dl_pulse = 0; /* Data line pulsing using utmi_txvalid */    
 428              		.loc 1 359 0
 429 017a 6FF39653 		bfc	r3, #22, #1
 360:../STLibs//STM32_USB-Host-Device_Lib_V2.1.0/Libraries/STM32_USB_OTG_Driver/src/usb_core.c ****     
 361:../STLibs//STM32_USB-Host-Device_Lib_V2.1.0/Libraries/STM32_USB_OTG_Driver/src/usb_core.c ****     usbcfg.b.ulpi_fsls = 0;
 430              		.loc 1 361 0
 431 017e 6FF35143 		bfc	r3, #17, #1
 362:../STLibs//STM32_USB-Host-Device_Lib_V2.1.0/Libraries/STM32_USB_OTG_Driver/src/usb_core.c ****     usbcfg.b.ulpi_clk_sus_m = 0;
 432              		.loc 1 362 0
 433 0182 6FF3D343 		bfc	r3, #19, #1
 363:../STLibs//STM32_USB-Host-Device_Lib_V2.1.0/Libraries/STM32_USB_OTG_Driver/src/usb_core.c ****     USB_OTG_WRITE_REG32 (&pdev->regs.GREGS->GUSBCFG, usbcfg.d32);
 434              		.loc 1 363 0
 435 0186 D360     		str	r3, [r2, #12]
 364:../STLibs//STM32_USB-Host-Device_Lib_V2.1.0/Libraries/STM32_USB_OTG_Driver/src/usb_core.c ****     
 365:../STLibs//STM32_USB-Host-Device_Lib_V2.1.0/Libraries/STM32_USB_OTG_Driver/src/usb_core.c ****     /* Reset after a PHY select  */
 366:../STLibs//STM32_USB-Host-Device_Lib_V2.1.0/Libraries/STM32_USB_OTG_Driver/src/usb_core.c ****     USB_OTG_CoreReset(pdev);
 436              		.loc 1 366 0
 437 0188 FFF73AFF 		bl	USB_OTG_CoreReset.isra.1
 438              	.LVL51:
 367:../STLibs//STM32_USB-Host-Device_Lib_V2.1.0/Libraries/STM32_USB_OTG_Driver/src/usb_core.c ****     
 368:../STLibs//STM32_USB-Host-Device_Lib_V2.1.0/Libraries/STM32_USB_OTG_Driver/src/usb_core.c ****     if(pdev->cfg.dma_enable == 1)
 439              		.loc 1 368 0
 440 018c EB78     		ldrb	r3, [r5, #3]	@ zero_extendqisi2
 441 018e 012B     		cmp	r3, #1
 442 0190 06D1     		bne	.L43
 369:../STLibs//STM32_USB-Host-Device_Lib_V2.1.0/Libraries/STM32_USB_OTG_Driver/src/usb_core.c ****     {
 370:../STLibs//STM32_USB-Host-Device_Lib_V2.1.0/Libraries/STM32_USB_OTG_Driver/src/usb_core.c ****       
 371:../STLibs//STM32_USB-Host-Device_Lib_V2.1.0/Libraries/STM32_USB_OTG_Driver/src/usb_core.c ****       ahbcfg.b.hburstlen = 5; /* 64 x 32-bits*/
 443              		.loc 1 371 0
 444 0192 0523     		movs	r3, #5
 445 0194 63F34404 		bfi	r4, r3, #1, #4
 372:../STLibs//STM32_USB-Host-Device_Lib_V2.1.0/Libraries/STM32_USB_OTG_Driver/src/usb_core.c ****       ahbcfg.b.dmaenable = 1;
 373:../STLibs//STM32_USB-Host-Device_Lib_V2.1.0/Libraries/STM32_USB_OTG_Driver/src/usb_core.c ****       USB_OTG_WRITE_REG32(&pdev->regs.GREGS->GAHBCFG, ahbcfg.d32);
 446              		.loc 1 373 0
 447 0198 EB68     		ldr	r3, [r5, #12]
 372:../STLibs//STM32_USB-Host-Device_Lib_V2.1.0/Libraries/STM32_USB_OTG_Driver/src/usb_core.c ****       ahbcfg.b.dmaenable = 1;
 448              		.loc 1 372 0
 449 019a 44F02004 		orr	r4, r4, #32
 450              	.LVL52:
 451              		.loc 1 373 0
 452 019e 9C60     		str	r4, [r3, #8]
 453              	.L43:
 374:../STLibs//STM32_USB-Host-Device_Lib_V2.1.0/Libraries/STM32_USB_OTG_Driver/src/usb_core.c ****       
 375:../STLibs//STM32_USB-Host-Device_Lib_V2.1.0/Libraries/STM32_USB_OTG_Driver/src/usb_core.c ****     }    
 376:../STLibs//STM32_USB-Host-Device_Lib_V2.1.0/Libraries/STM32_USB_OTG_Driver/src/usb_core.c ****   }
 377:../STLibs//STM32_USB-Host-Device_Lib_V2.1.0/Libraries/STM32_USB_OTG_Driver/src/usb_core.c ****   else /* FS interface (embedded Phy) */
 378:../STLibs//STM32_USB-Host-Device_Lib_V2.1.0/Libraries/STM32_USB_OTG_Driver/src/usb_core.c ****   {
 379:../STLibs//STM32_USB-Host-Device_Lib_V2.1.0/Libraries/STM32_USB_OTG_Driver/src/usb_core.c ****     
 380:../STLibs//STM32_USB-Host-Device_Lib_V2.1.0/Libraries/STM32_USB_OTG_Driver/src/usb_core.c ****     usbcfg.d32 = USB_OTG_READ_REG32(&pdev->regs.GREGS->GUSBCFG);;
 381:../STLibs//STM32_USB-Host-Device_Lib_V2.1.0/Libraries/STM32_USB_OTG_Driver/src/usb_core.c ****     usbcfg.b.physel  = 1; /* FS Interface */
 382:../STLibs//STM32_USB-Host-Device_Lib_V2.1.0/Libraries/STM32_USB_OTG_Driver/src/usb_core.c ****     USB_OTG_WRITE_REG32 (&pdev->regs.GREGS->GUSBCFG, usbcfg.d32);
 383:../STLibs//STM32_USB-Host-Device_Lib_V2.1.0/Libraries/STM32_USB_OTG_Driver/src/usb_core.c ****     /* Reset after a PHY select and set Host mode */
 384:../STLibs//STM32_USB-Host-Device_Lib_V2.1.0/Libraries/STM32_USB_OTG_Driver/src/usb_core.c ****     USB_OTG_CoreReset(pdev);
 385:../STLibs//STM32_USB-Host-Device_Lib_V2.1.0/Libraries/STM32_USB_OTG_Driver/src/usb_core.c ****     /* Deactivate the power down*/
 386:../STLibs//STM32_USB-Host-Device_Lib_V2.1.0/Libraries/STM32_USB_OTG_Driver/src/usb_core.c ****     gccfg.d32 = 0;
 387:../STLibs//STM32_USB-Host-Device_Lib_V2.1.0/Libraries/STM32_USB_OTG_Driver/src/usb_core.c ****     gccfg.b.pwdn = 1;
 388:../STLibs//STM32_USB-Host-Device_Lib_V2.1.0/Libraries/STM32_USB_OTG_Driver/src/usb_core.c ****     
 389:../STLibs//STM32_USB-Host-Device_Lib_V2.1.0/Libraries/STM32_USB_OTG_Driver/src/usb_core.c ****     gccfg.b.vbussensingA = 1 ;
 390:../STLibs//STM32_USB-Host-Device_Lib_V2.1.0/Libraries/STM32_USB_OTG_Driver/src/usb_core.c ****     gccfg.b.vbussensingB = 1 ;     
 391:../STLibs//STM32_USB-Host-Device_Lib_V2.1.0/Libraries/STM32_USB_OTG_Driver/src/usb_core.c **** #ifndef VBUS_SENSING_ENABLED
 392:../STLibs//STM32_USB-Host-Device_Lib_V2.1.0/Libraries/STM32_USB_OTG_Driver/src/usb_core.c ****     gccfg.b.disablevbussensing = 1; 
 393:../STLibs//STM32_USB-Host-Device_Lib_V2.1.0/Libraries/STM32_USB_OTG_Driver/src/usb_core.c **** #endif    
 394:../STLibs//STM32_USB-Host-Device_Lib_V2.1.0/Libraries/STM32_USB_OTG_Driver/src/usb_core.c ****     
 395:../STLibs//STM32_USB-Host-Device_Lib_V2.1.0/Libraries/STM32_USB_OTG_Driver/src/usb_core.c ****     if(pdev->cfg.Sof_output)
 396:../STLibs//STM32_USB-Host-Device_Lib_V2.1.0/Libraries/STM32_USB_OTG_Driver/src/usb_core.c ****     {
 397:../STLibs//STM32_USB-Host-Device_Lib_V2.1.0/Libraries/STM32_USB_OTG_Driver/src/usb_core.c ****       gccfg.b.sofouten = 1;  
 398:../STLibs//STM32_USB-Host-Device_Lib_V2.1.0/Libraries/STM32_USB_OTG_Driver/src/usb_core.c ****     }
 399:../STLibs//STM32_USB-Host-Device_Lib_V2.1.0/Libraries/STM32_USB_OTG_Driver/src/usb_core.c ****     
 400:../STLibs//STM32_USB-Host-Device_Lib_V2.1.0/Libraries/STM32_USB_OTG_Driver/src/usb_core.c ****     USB_OTG_WRITE_REG32 (&pdev->regs.GREGS->GCCFG, gccfg.d32);
 401:../STLibs//STM32_USB-Host-Device_Lib_V2.1.0/Libraries/STM32_USB_OTG_Driver/src/usb_core.c ****     USB_OTG_BSP_mDelay(20);
 402:../STLibs//STM32_USB-Host-Device_Lib_V2.1.0/Libraries/STM32_USB_OTG_Driver/src/usb_core.c ****   }
 403:../STLibs//STM32_USB-Host-Device_Lib_V2.1.0/Libraries/STM32_USB_OTG_Driver/src/usb_core.c ****   /* case the HS core is working in FS mode */
 404:../STLibs//STM32_USB-Host-Device_Lib_V2.1.0/Libraries/STM32_USB_OTG_Driver/src/usb_core.c ****   if(pdev->cfg.dma_enable == 1)
 454              		.loc 1 404 0
 455 01a0 EB78     		ldrb	r3, [r5, #3]	@ zero_extendqisi2
 456 01a2 012B     		cmp	r3, #1
 457 01a4 07D1     		bne	.L45
 405:../STLibs//STM32_USB-Host-Device_Lib_V2.1.0/Libraries/STM32_USB_OTG_Driver/src/usb_core.c ****   {
 406:../STLibs//STM32_USB-Host-Device_Lib_V2.1.0/Libraries/STM32_USB_OTG_Driver/src/usb_core.c ****     
 407:../STLibs//STM32_USB-Host-Device_Lib_V2.1.0/Libraries/STM32_USB_OTG_Driver/src/usb_core.c ****     ahbcfg.d32 = USB_OTG_READ_REG32(&pdev->regs.GREGS->GAHBCFG);
 458              		.loc 1 407 0
 459 01a6 EB68     		ldr	r3, [r5, #12]
 460 01a8 9C68     		ldr	r4, [r3, #8]
 461              	.LVL53:
 408:../STLibs//STM32_USB-Host-Device_Lib_V2.1.0/Libraries/STM32_USB_OTG_Driver/src/usb_core.c ****     ahbcfg.b.hburstlen = 5; /* 64 x 32-bits*/
 462              		.loc 1 408 0
 463 01aa 0522     		movs	r2, #5
 464 01ac 62F34404 		bfi	r4, r2, #1, #4
 465              	.LVL54:
 409:../STLibs//STM32_USB-Host-Device_Lib_V2.1.0/Libraries/STM32_USB_OTG_Driver/src/usb_core.c ****     ahbcfg.b.dmaenable = 1;
 466              		.loc 1 409 0
 467 01b0 44F02004 		orr	r4, r4, #32
 468              	.LVL55:
 410:../STLibs//STM32_USB-Host-Device_Lib_V2.1.0/Libraries/STM32_USB_OTG_Driver/src/usb_core.c ****     USB_OTG_WRITE_REG32(&pdev->regs.GREGS->GAHBCFG, ahbcfg.d32);
 469              		.loc 1 410 0
 470 01b4 9C60     		str	r4, [r3, #8]
 471              	.L45:
 411:../STLibs//STM32_USB-Host-Device_Lib_V2.1.0/Libraries/STM32_USB_OTG_Driver/src/usb_core.c ****     
 412:../STLibs//STM32_USB-Host-Device_Lib_V2.1.0/Libraries/STM32_USB_OTG_Driver/src/usb_core.c ****   }
 413:../STLibs//STM32_USB-Host-Device_Lib_V2.1.0/Libraries/STM32_USB_OTG_Driver/src/usb_core.c ****   /* initialize OTG features */
 414:../STLibs//STM32_USB-Host-Device_Lib_V2.1.0/Libraries/STM32_USB_OTG_Driver/src/usb_core.c **** #ifdef  USE_OTG_MODE
 415:../STLibs//STM32_USB-Host-Device_Lib_V2.1.0/Libraries/STM32_USB_OTG_Driver/src/usb_core.c ****   usbcfg.d32 = USB_OTG_READ_REG32(&pdev->regs.GREGS->GUSBCFG);
 416:../STLibs//STM32_USB-Host-Device_Lib_V2.1.0/Libraries/STM32_USB_OTG_Driver/src/usb_core.c ****   usbcfg.b.hnpcap = 1;
 417:../STLibs//STM32_USB-Host-Device_Lib_V2.1.0/Libraries/STM32_USB_OTG_Driver/src/usb_core.c ****   usbcfg.b.srpcap = 1;
 418:../STLibs//STM32_USB-Host-Device_Lib_V2.1.0/Libraries/STM32_USB_OTG_Driver/src/usb_core.c ****   USB_OTG_WRITE_REG32(&pdev->regs.GREGS->GUSBCFG, usbcfg.d32);
 419:../STLibs//STM32_USB-Host-Device_Lib_V2.1.0/Libraries/STM32_USB_OTG_Driver/src/usb_core.c ****   USB_OTG_EnableCommonInt(pdev);
 420:../STLibs//STM32_USB-Host-Device_Lib_V2.1.0/Libraries/STM32_USB_OTG_Driver/src/usb_core.c **** #endif
 421:../STLibs//STM32_USB-Host-Device_Lib_V2.1.0/Libraries/STM32_USB_OTG_Driver/src/usb_core.c ****   return status;
 422:../STLibs//STM32_USB-Host-Device_Lib_V2.1.0/Libraries/STM32_USB_OTG_Driver/src/usb_core.c **** }
 472              		.loc 1 422 0
 473 01b6 0020     		movs	r0, #0
 474 01b8 38BD     		pop	{r3, r4, r5, pc}
 475              	.LVL56:
 476              	.L41:
 380:../STLibs//STM32_USB-Host-Device_Lib_V2.1.0/Libraries/STM32_USB_OTG_Driver/src/usb_core.c ****     usbcfg.b.physel  = 1; /* FS Interface */
 477              		.loc 1 380 0
 478 01ba D368     		ldr	r3, [r2, #12]
 381:../STLibs//STM32_USB-Host-Device_Lib_V2.1.0/Libraries/STM32_USB_OTG_Driver/src/usb_core.c ****     USB_OTG_WRITE_REG32 (&pdev->regs.GREGS->GUSBCFG, usbcfg.d32);
 479              		.loc 1 381 0
 480 01bc 43F04003 		orr	r3, r3, #64
 481              	.LVL57:
 382:../STLibs//STM32_USB-Host-Device_Lib_V2.1.0/Libraries/STM32_USB_OTG_Driver/src/usb_core.c ****     /* Reset after a PHY select and set Host mode */
 482              		.loc 1 382 0
 483 01c0 D360     		str	r3, [r2, #12]
 384:../STLibs//STM32_USB-Host-Device_Lib_V2.1.0/Libraries/STM32_USB_OTG_Driver/src/usb_core.c ****     /* Deactivate the power down*/
 484              		.loc 1 384 0
 485 01c2 FFF71DFF 		bl	USB_OTG_CoreReset.isra.1
 486              	.LVL58:
 395:../STLibs//STM32_USB-Host-Device_Lib_V2.1.0/Libraries/STM32_USB_OTG_Driver/src/usb_core.c ****     {
 487              		.loc 1 395 0
 488 01c6 6B7A     		ldrb	r3, [r5, #9]	@ zero_extendqisi2
 400:../STLibs//STM32_USB-Host-Device_Lib_V2.1.0/Libraries/STM32_USB_OTG_Driver/src/usb_core.c ****     USB_OTG_BSP_mDelay(20);
 489              		.loc 1 400 0
 490 01c8 EA68     		ldr	r2, [r5, #12]
 397:../STLibs//STM32_USB-Host-Device_Lib_V2.1.0/Libraries/STM32_USB_OTG_Driver/src/usb_core.c ****     }
 491              		.loc 1 397 0
 492 01ca 002B     		cmp	r3, #0
 493 01cc 0CBF     		ite	eq
 494 01ce 4FF45023 		moveq	r3, #851968
 495 01d2 4FF4E813 		movne	r3, #1900544
 496              	.LVL59:
 400:../STLibs//STM32_USB-Host-Device_Lib_V2.1.0/Libraries/STM32_USB_OTG_Driver/src/usb_core.c ****     USB_OTG_BSP_mDelay(20);
 497              		.loc 1 400 0
 498 01d6 9363     		str	r3, [r2, #56]
 401:../STLibs//STM32_USB-Host-Device_Lib_V2.1.0/Libraries/STM32_USB_OTG_Driver/src/usb_core.c ****   }
 499              		.loc 1 401 0
 500 01d8 1420     		movs	r0, #20
 501 01da FFF7FEFF 		bl	USB_OTG_BSP_mDelay
 502              	.LVL60:
 503 01de DFE7     		b	.L43
 504              		.cfi_endproc
 505              	.LFE115:
 507              		.align	1
 508              		.global	USB_OTG_EnableGlobalInt
 509              		.syntax unified
 510              		.thumb
 511              		.thumb_func
 512              		.fpu fpv4-sp-d16
 514              	USB_OTG_EnableGlobalInt:
 515              	.LFB116:
 423:../STLibs//STM32_USB-Host-Device_Lib_V2.1.0/Libraries/STM32_USB_OTG_Driver/src/usb_core.c **** /**
 424:../STLibs//STM32_USB-Host-Device_Lib_V2.1.0/Libraries/STM32_USB_OTG_Driver/src/usb_core.c **** * @brief  USB_OTG_EnableGlobalInt
 425:../STLibs//STM32_USB-Host-Device_Lib_V2.1.0/Libraries/STM32_USB_OTG_Driver/src/usb_core.c **** *         Enables the controller's Global Int in the AHB Config reg
 426:../STLibs//STM32_USB-Host-Device_Lib_V2.1.0/Libraries/STM32_USB_OTG_Driver/src/usb_core.c **** * @param  pdev : Selected device
 427:../STLibs//STM32_USB-Host-Device_Lib_V2.1.0/Libraries/STM32_USB_OTG_Driver/src/usb_core.c **** * @retval USB_OTG_STS : status
 428:../STLibs//STM32_USB-Host-Device_Lib_V2.1.0/Libraries/STM32_USB_OTG_Driver/src/usb_core.c **** */
 429:../STLibs//STM32_USB-Host-Device_Lib_V2.1.0/Libraries/STM32_USB_OTG_Driver/src/usb_core.c **** USB_OTG_STS USB_OTG_EnableGlobalInt(USB_OTG_CORE_HANDLE *pdev)
 430:../STLibs//STM32_USB-Host-Device_Lib_V2.1.0/Libraries/STM32_USB_OTG_Driver/src/usb_core.c **** {
 516              		.loc 1 430 0
 517              		.cfi_startproc
 518              		@ args = 0, pretend = 0, frame = 0
 519              		@ frame_needed = 0, uses_anonymous_args = 0
 520              		@ link register save eliminated.
 521              	.LVL61:
 431:../STLibs//STM32_USB-Host-Device_Lib_V2.1.0/Libraries/STM32_USB_OTG_Driver/src/usb_core.c ****   USB_OTG_STS status = USB_OTG_OK;
 432:../STLibs//STM32_USB-Host-Device_Lib_V2.1.0/Libraries/STM32_USB_OTG_Driver/src/usb_core.c ****   USB_OTG_GAHBCFG_TypeDef  ahbcfg;
 433:../STLibs//STM32_USB-Host-Device_Lib_V2.1.0/Libraries/STM32_USB_OTG_Driver/src/usb_core.c ****   
 434:../STLibs//STM32_USB-Host-Device_Lib_V2.1.0/Libraries/STM32_USB_OTG_Driver/src/usb_core.c ****   ahbcfg.d32 = 0;
 435:../STLibs//STM32_USB-Host-Device_Lib_V2.1.0/Libraries/STM32_USB_OTG_Driver/src/usb_core.c ****   ahbcfg.b.glblintrmsk = 1; /* Enable interrupts */
 436:../STLibs//STM32_USB-Host-Device_Lib_V2.1.0/Libraries/STM32_USB_OTG_Driver/src/usb_core.c ****   USB_OTG_MODIFY_REG32(&pdev->regs.GREGS->GAHBCFG, 0, ahbcfg.d32);
 522              		.loc 1 436 0
 523 01e0 C268     		ldr	r2, [r0, #12]
 524 01e2 9368     		ldr	r3, [r2, #8]
 525 01e4 43F00103 		orr	r3, r3, #1
 526 01e8 9360     		str	r3, [r2, #8]
 437:../STLibs//STM32_USB-Host-Device_Lib_V2.1.0/Libraries/STM32_USB_OTG_Driver/src/usb_core.c ****   return status;
 438:../STLibs//STM32_USB-Host-Device_Lib_V2.1.0/Libraries/STM32_USB_OTG_Driver/src/usb_core.c **** }
 527              		.loc 1 438 0
 528 01ea 0020     		movs	r0, #0
 529              	.LVL62:
 530 01ec 7047     		bx	lr
 531              		.cfi_endproc
 532              	.LFE116:
 534              		.align	1
 535              		.global	USB_OTG_DisableGlobalInt
 536              		.syntax unified
 537              		.thumb
 538              		.thumb_func
 539              		.fpu fpv4-sp-d16
 541              	USB_OTG_DisableGlobalInt:
 542              	.LFB117:
 439:../STLibs//STM32_USB-Host-Device_Lib_V2.1.0/Libraries/STM32_USB_OTG_Driver/src/usb_core.c **** 
 440:../STLibs//STM32_USB-Host-Device_Lib_V2.1.0/Libraries/STM32_USB_OTG_Driver/src/usb_core.c **** 
 441:../STLibs//STM32_USB-Host-Device_Lib_V2.1.0/Libraries/STM32_USB_OTG_Driver/src/usb_core.c **** /**
 442:../STLibs//STM32_USB-Host-Device_Lib_V2.1.0/Libraries/STM32_USB_OTG_Driver/src/usb_core.c **** * @brief  USB_OTG_DisableGlobalInt
 443:../STLibs//STM32_USB-Host-Device_Lib_V2.1.0/Libraries/STM32_USB_OTG_Driver/src/usb_core.c **** *         Enables the controller's Global Int in the AHB Config reg
 444:../STLibs//STM32_USB-Host-Device_Lib_V2.1.0/Libraries/STM32_USB_OTG_Driver/src/usb_core.c **** * @param  pdev : Selected device
 445:../STLibs//STM32_USB-Host-Device_Lib_V2.1.0/Libraries/STM32_USB_OTG_Driver/src/usb_core.c **** * @retval USB_OTG_STS : status
 446:../STLibs//STM32_USB-Host-Device_Lib_V2.1.0/Libraries/STM32_USB_OTG_Driver/src/usb_core.c **** */
 447:../STLibs//STM32_USB-Host-Device_Lib_V2.1.0/Libraries/STM32_USB_OTG_Driver/src/usb_core.c **** USB_OTG_STS USB_OTG_DisableGlobalInt(USB_OTG_CORE_HANDLE *pdev)
 448:../STLibs//STM32_USB-Host-Device_Lib_V2.1.0/Libraries/STM32_USB_OTG_Driver/src/usb_core.c **** {
 543              		.loc 1 448 0
 544              		.cfi_startproc
 545              		@ args = 0, pretend = 0, frame = 0
 546              		@ frame_needed = 0, uses_anonymous_args = 0
 547              		@ link register save eliminated.
 548              	.LVL63:
 449:../STLibs//STM32_USB-Host-Device_Lib_V2.1.0/Libraries/STM32_USB_OTG_Driver/src/usb_core.c ****   USB_OTG_STS status = USB_OTG_OK;
 450:../STLibs//STM32_USB-Host-Device_Lib_V2.1.0/Libraries/STM32_USB_OTG_Driver/src/usb_core.c ****   USB_OTG_GAHBCFG_TypeDef  ahbcfg;
 451:../STLibs//STM32_USB-Host-Device_Lib_V2.1.0/Libraries/STM32_USB_OTG_Driver/src/usb_core.c ****   ahbcfg.d32 = 0;
 452:../STLibs//STM32_USB-Host-Device_Lib_V2.1.0/Libraries/STM32_USB_OTG_Driver/src/usb_core.c ****   ahbcfg.b.glblintrmsk = 1; /* Enable interrupts */
 453:../STLibs//STM32_USB-Host-Device_Lib_V2.1.0/Libraries/STM32_USB_OTG_Driver/src/usb_core.c ****   USB_OTG_MODIFY_REG32(&pdev->regs.GREGS->GAHBCFG, ahbcfg.d32, 0);
 549              		.loc 1 453 0
 550 01ee C268     		ldr	r2, [r0, #12]
 551 01f0 9368     		ldr	r3, [r2, #8]
 552 01f2 23F00103 		bic	r3, r3, #1
 553 01f6 9360     		str	r3, [r2, #8]
 454:../STLibs//STM32_USB-Host-Device_Lib_V2.1.0/Libraries/STM32_USB_OTG_Driver/src/usb_core.c ****   return status;
 455:../STLibs//STM32_USB-Host-Device_Lib_V2.1.0/Libraries/STM32_USB_OTG_Driver/src/usb_core.c **** }
 554              		.loc 1 455 0
 555 01f8 0020     		movs	r0, #0
 556              	.LVL64:
 557 01fa 7047     		bx	lr
 558              		.cfi_endproc
 559              	.LFE117:
 561              		.align	1
 562              		.global	USB_OTG_FlushTxFifo
 563              		.syntax unified
 564              		.thumb
 565              		.thumb_func
 566              		.fpu fpv4-sp-d16
 568              	USB_OTG_FlushTxFifo:
 569              	.LFB118:
 456:../STLibs//STM32_USB-Host-Device_Lib_V2.1.0/Libraries/STM32_USB_OTG_Driver/src/usb_core.c **** 
 457:../STLibs//STM32_USB-Host-Device_Lib_V2.1.0/Libraries/STM32_USB_OTG_Driver/src/usb_core.c **** 
 458:../STLibs//STM32_USB-Host-Device_Lib_V2.1.0/Libraries/STM32_USB_OTG_Driver/src/usb_core.c **** /**
 459:../STLibs//STM32_USB-Host-Device_Lib_V2.1.0/Libraries/STM32_USB_OTG_Driver/src/usb_core.c **** * @brief  USB_OTG_FlushTxFifo : Flush a Tx FIFO
 460:../STLibs//STM32_USB-Host-Device_Lib_V2.1.0/Libraries/STM32_USB_OTG_Driver/src/usb_core.c **** * @param  pdev : Selected device
 461:../STLibs//STM32_USB-Host-Device_Lib_V2.1.0/Libraries/STM32_USB_OTG_Driver/src/usb_core.c **** * @param  num : FO num
 462:../STLibs//STM32_USB-Host-Device_Lib_V2.1.0/Libraries/STM32_USB_OTG_Driver/src/usb_core.c **** * @retval USB_OTG_STS : status
 463:../STLibs//STM32_USB-Host-Device_Lib_V2.1.0/Libraries/STM32_USB_OTG_Driver/src/usb_core.c **** */
 464:../STLibs//STM32_USB-Host-Device_Lib_V2.1.0/Libraries/STM32_USB_OTG_Driver/src/usb_core.c **** USB_OTG_STS USB_OTG_FlushTxFifo (USB_OTG_CORE_HANDLE *pdev , uint32_t num )
 465:../STLibs//STM32_USB-Host-Device_Lib_V2.1.0/Libraries/STM32_USB_OTG_Driver/src/usb_core.c **** {
 570              		.loc 1 465 0
 571              		.cfi_startproc
 572              		@ args = 0, pretend = 0, frame = 8
 573              		@ frame_needed = 0, uses_anonymous_args = 0
 574              	.LVL65:
 575 01fc 07B5     		push	{r0, r1, r2, lr}
 576              	.LCFI6:
 577              		.cfi_def_cfa_offset 16
 578              		.cfi_offset 14, -4
 466:../STLibs//STM32_USB-Host-Device_Lib_V2.1.0/Libraries/STM32_USB_OTG_Driver/src/usb_core.c ****   USB_OTG_STS status = USB_OTG_OK;
 467:../STLibs//STM32_USB-Host-Device_Lib_V2.1.0/Libraries/STM32_USB_OTG_Driver/src/usb_core.c ****   __IO USB_OTG_GRSTCTL_TypeDef  greset;
 468:../STLibs//STM32_USB-Host-Device_Lib_V2.1.0/Libraries/STM32_USB_OTG_Driver/src/usb_core.c ****   
 469:../STLibs//STM32_USB-Host-Device_Lib_V2.1.0/Libraries/STM32_USB_OTG_Driver/src/usb_core.c ****   uint32_t count = 0;
 470:../STLibs//STM32_USB-Host-Device_Lib_V2.1.0/Libraries/STM32_USB_OTG_Driver/src/usb_core.c ****   greset.d32 = 0;
 579              		.loc 1 470 0
 580 01fe 0023     		movs	r3, #0
 581 0200 0193     		str	r3, [sp, #4]
 471:../STLibs//STM32_USB-Host-Device_Lib_V2.1.0/Libraries/STM32_USB_OTG_Driver/src/usb_core.c ****   greset.b.txfflsh = 1;
 582              		.loc 1 471 0
 583 0202 019B     		ldr	r3, [sp, #4]
 584 0204 43F02003 		orr	r3, r3, #32
 585 0208 0193     		str	r3, [sp, #4]
 472:../STLibs//STM32_USB-Host-Device_Lib_V2.1.0/Libraries/STM32_USB_OTG_Driver/src/usb_core.c ****   greset.b.txfnum  = num;
 586              		.loc 1 472 0
 587 020a 019B     		ldr	r3, [sp, #4]
 588 020c 61F38A13 		bfi	r3, r1, #6, #5
 589 0210 0193     		str	r3, [sp, #4]
 473:../STLibs//STM32_USB-Host-Device_Lib_V2.1.0/Libraries/STM32_USB_OTG_Driver/src/usb_core.c ****   USB_OTG_WRITE_REG32( &pdev->regs.GREGS->GRSTCTL, greset.d32 );
 590              		.loc 1 473 0
 591 0212 C268     		ldr	r2, [r0, #12]
 592 0214 019B     		ldr	r3, [sp, #4]
 593 0216 1361     		str	r3, [r2, #16]
 594 0218 074B     		ldr	r3, .L62
 595              	.LVL66:
 596              	.L55:
 474:../STLibs//STM32_USB-Host-Device_Lib_V2.1.0/Libraries/STM32_USB_OTG_Driver/src/usb_core.c ****   do
 475:../STLibs//STM32_USB-Host-Device_Lib_V2.1.0/Libraries/STM32_USB_OTG_Driver/src/usb_core.c ****   {
 476:../STLibs//STM32_USB-Host-Device_Lib_V2.1.0/Libraries/STM32_USB_OTG_Driver/src/usb_core.c ****     greset.d32 = USB_OTG_READ_REG32( &pdev->regs.GREGS->GRSTCTL);
 597              		.loc 1 476 0
 598 021a 1169     		ldr	r1, [r2, #16]
 599 021c 0191     		str	r1, [sp, #4]
 600              	.LVL67:
 477:../STLibs//STM32_USB-Host-Device_Lib_V2.1.0/Libraries/STM32_USB_OTG_Driver/src/usb_core.c ****     if (++count > 200000)
 601              		.loc 1 477 0
 602 021e 013B     		subs	r3, r3, #1
 603              	.LVL68:
 604 0220 02D0     		beq	.L54
 605              	.LVL69:
 478:../STLibs//STM32_USB-Host-Device_Lib_V2.1.0/Libraries/STM32_USB_OTG_Driver/src/usb_core.c ****     {
 479:../STLibs//STM32_USB-Host-Device_Lib_V2.1.0/Libraries/STM32_USB_OTG_Driver/src/usb_core.c ****       break;
 480:../STLibs//STM32_USB-Host-Device_Lib_V2.1.0/Libraries/STM32_USB_OTG_Driver/src/usb_core.c ****     }
 481:../STLibs//STM32_USB-Host-Device_Lib_V2.1.0/Libraries/STM32_USB_OTG_Driver/src/usb_core.c ****   }
 482:../STLibs//STM32_USB-Host-Device_Lib_V2.1.0/Libraries/STM32_USB_OTG_Driver/src/usb_core.c ****   while (greset.b.txfflsh == 1);
 606              		.loc 1 482 0
 607 0222 0199     		ldr	r1, [sp, #4]
 608 0224 8906     		lsls	r1, r1, #26
 609 0226 F8D4     		bmi	.L55
 610              	.LVL70:
 611              	.L54:
 483:../STLibs//STM32_USB-Host-Device_Lib_V2.1.0/Libraries/STM32_USB_OTG_Driver/src/usb_core.c ****   /* Wait for 3 PHY Clocks*/
 484:../STLibs//STM32_USB-Host-Device_Lib_V2.1.0/Libraries/STM32_USB_OTG_Driver/src/usb_core.c ****   USB_OTG_BSP_uDelay(3);
 612              		.loc 1 484 0
 613 0228 0320     		movs	r0, #3
 614              	.LVL71:
 615 022a FFF7FEFF 		bl	USB_OTG_BSP_uDelay
 616              	.LVL72:
 485:../STLibs//STM32_USB-Host-Device_Lib_V2.1.0/Libraries/STM32_USB_OTG_Driver/src/usb_core.c ****   return status;
 486:../STLibs//STM32_USB-Host-Device_Lib_V2.1.0/Libraries/STM32_USB_OTG_Driver/src/usb_core.c **** }
 617              		.loc 1 486 0
 618 022e 0020     		movs	r0, #0
 619 0230 03B0     		add	sp, sp, #12
 620              	.LCFI7:
 621              		.cfi_def_cfa_offset 4
 622              		@ sp needed
 623 0232 5DF804FB 		ldr	pc, [sp], #4
 624              	.L63:
 625 0236 00BF     		.align	2
 626              	.L62:
 627 0238 410D0300 		.word	200001
 628              		.cfi_endproc
 629              	.LFE118:
 631              		.align	1
 632              		.global	USB_OTG_FlushRxFifo
 633              		.syntax unified
 634              		.thumb
 635              		.thumb_func
 636              		.fpu fpv4-sp-d16
 638              	USB_OTG_FlushRxFifo:
 639              	.LFB119:
 487:../STLibs//STM32_USB-Host-Device_Lib_V2.1.0/Libraries/STM32_USB_OTG_Driver/src/usb_core.c **** 
 488:../STLibs//STM32_USB-Host-Device_Lib_V2.1.0/Libraries/STM32_USB_OTG_Driver/src/usb_core.c **** 
 489:../STLibs//STM32_USB-Host-Device_Lib_V2.1.0/Libraries/STM32_USB_OTG_Driver/src/usb_core.c **** /**
 490:../STLibs//STM32_USB-Host-Device_Lib_V2.1.0/Libraries/STM32_USB_OTG_Driver/src/usb_core.c **** * @brief  USB_OTG_FlushRxFifo : Flush a Rx FIFO
 491:../STLibs//STM32_USB-Host-Device_Lib_V2.1.0/Libraries/STM32_USB_OTG_Driver/src/usb_core.c **** * @param  pdev : Selected device
 492:../STLibs//STM32_USB-Host-Device_Lib_V2.1.0/Libraries/STM32_USB_OTG_Driver/src/usb_core.c **** * @retval USB_OTG_STS : status
 493:../STLibs//STM32_USB-Host-Device_Lib_V2.1.0/Libraries/STM32_USB_OTG_Driver/src/usb_core.c **** */
 494:../STLibs//STM32_USB-Host-Device_Lib_V2.1.0/Libraries/STM32_USB_OTG_Driver/src/usb_core.c **** USB_OTG_STS USB_OTG_FlushRxFifo( USB_OTG_CORE_HANDLE *pdev )
 495:../STLibs//STM32_USB-Host-Device_Lib_V2.1.0/Libraries/STM32_USB_OTG_Driver/src/usb_core.c **** {
 640              		.loc 1 495 0
 641              		.cfi_startproc
 642              		@ args = 0, pretend = 0, frame = 8
 643              		@ frame_needed = 0, uses_anonymous_args = 0
 644              	.LVL73:
 645 023c 07B5     		push	{r0, r1, r2, lr}
 646              	.LCFI8:
 647              		.cfi_def_cfa_offset 16
 648              		.cfi_offset 14, -4
 496:../STLibs//STM32_USB-Host-Device_Lib_V2.1.0/Libraries/STM32_USB_OTG_Driver/src/usb_core.c ****   USB_OTG_STS status = USB_OTG_OK;
 497:../STLibs//STM32_USB-Host-Device_Lib_V2.1.0/Libraries/STM32_USB_OTG_Driver/src/usb_core.c ****   __IO USB_OTG_GRSTCTL_TypeDef  greset;
 498:../STLibs//STM32_USB-Host-Device_Lib_V2.1.0/Libraries/STM32_USB_OTG_Driver/src/usb_core.c ****   uint32_t count = 0;
 499:../STLibs//STM32_USB-Host-Device_Lib_V2.1.0/Libraries/STM32_USB_OTG_Driver/src/usb_core.c ****   
 500:../STLibs//STM32_USB-Host-Device_Lib_V2.1.0/Libraries/STM32_USB_OTG_Driver/src/usb_core.c ****   greset.d32 = 0;
 649              		.loc 1 500 0
 650 023e 0023     		movs	r3, #0
 651 0240 0193     		str	r3, [sp, #4]
 501:../STLibs//STM32_USB-Host-Device_Lib_V2.1.0/Libraries/STM32_USB_OTG_Driver/src/usb_core.c ****   greset.b.rxfflsh = 1;
 652              		.loc 1 501 0
 653 0242 019B     		ldr	r3, [sp, #4]
 654 0244 43F01003 		orr	r3, r3, #16
 655 0248 0193     		str	r3, [sp, #4]
 502:../STLibs//STM32_USB-Host-Device_Lib_V2.1.0/Libraries/STM32_USB_OTG_Driver/src/usb_core.c ****   USB_OTG_WRITE_REG32( &pdev->regs.GREGS->GRSTCTL, greset.d32 );
 656              		.loc 1 502 0
 657 024a C268     		ldr	r2, [r0, #12]
 658 024c 019B     		ldr	r3, [sp, #4]
 659 024e 1361     		str	r3, [r2, #16]
 660 0250 074B     		ldr	r3, .L73
 661              	.LVL74:
 662              	.L66:
 503:../STLibs//STM32_USB-Host-Device_Lib_V2.1.0/Libraries/STM32_USB_OTG_Driver/src/usb_core.c ****   do
 504:../STLibs//STM32_USB-Host-Device_Lib_V2.1.0/Libraries/STM32_USB_OTG_Driver/src/usb_core.c ****   {
 505:../STLibs//STM32_USB-Host-Device_Lib_V2.1.0/Libraries/STM32_USB_OTG_Driver/src/usb_core.c ****     greset.d32 = USB_OTG_READ_REG32( &pdev->regs.GREGS->GRSTCTL);
 663              		.loc 1 505 0
 664 0252 1169     		ldr	r1, [r2, #16]
 665 0254 0191     		str	r1, [sp, #4]
 666              	.LVL75:
 506:../STLibs//STM32_USB-Host-Device_Lib_V2.1.0/Libraries/STM32_USB_OTG_Driver/src/usb_core.c ****     if (++count > 200000)
 667              		.loc 1 506 0
 668 0256 013B     		subs	r3, r3, #1
 669              	.LVL76:
 670 0258 02D0     		beq	.L65
 671              	.LVL77:
 507:../STLibs//STM32_USB-Host-Device_Lib_V2.1.0/Libraries/STM32_USB_OTG_Driver/src/usb_core.c ****     {
 508:../STLibs//STM32_USB-Host-Device_Lib_V2.1.0/Libraries/STM32_USB_OTG_Driver/src/usb_core.c ****       break;
 509:../STLibs//STM32_USB-Host-Device_Lib_V2.1.0/Libraries/STM32_USB_OTG_Driver/src/usb_core.c ****     }
 510:../STLibs//STM32_USB-Host-Device_Lib_V2.1.0/Libraries/STM32_USB_OTG_Driver/src/usb_core.c ****   }
 511:../STLibs//STM32_USB-Host-Device_Lib_V2.1.0/Libraries/STM32_USB_OTG_Driver/src/usb_core.c ****   while (greset.b.rxfflsh == 1);
 672              		.loc 1 511 0
 673 025a 0199     		ldr	r1, [sp, #4]
 674 025c C906     		lsls	r1, r1, #27
 675 025e F8D4     		bmi	.L66
 676              	.LVL78:
 677              	.L65:
 512:../STLibs//STM32_USB-Host-Device_Lib_V2.1.0/Libraries/STM32_USB_OTG_Driver/src/usb_core.c ****   /* Wait for 3 PHY Clocks*/
 513:../STLibs//STM32_USB-Host-Device_Lib_V2.1.0/Libraries/STM32_USB_OTG_Driver/src/usb_core.c ****   USB_OTG_BSP_uDelay(3);
 678              		.loc 1 513 0
 679 0260 0320     		movs	r0, #3
 680              	.LVL79:
 681 0262 FFF7FEFF 		bl	USB_OTG_BSP_uDelay
 682              	.LVL80:
 514:../STLibs//STM32_USB-Host-Device_Lib_V2.1.0/Libraries/STM32_USB_OTG_Driver/src/usb_core.c ****   return status;
 515:../STLibs//STM32_USB-Host-Device_Lib_V2.1.0/Libraries/STM32_USB_OTG_Driver/src/usb_core.c **** }
 683              		.loc 1 515 0
 684 0266 0020     		movs	r0, #0
 685 0268 03B0     		add	sp, sp, #12
 686              	.LCFI9:
 687              		.cfi_def_cfa_offset 4
 688              		@ sp needed
 689 026a 5DF804FB 		ldr	pc, [sp], #4
 690              	.L74:
 691 026e 00BF     		.align	2
 692              	.L73:
 693 0270 410D0300 		.word	200001
 694              		.cfi_endproc
 695              	.LFE119:
 697              		.align	1
 698              		.global	USB_OTG_SetCurrentMode
 699              		.syntax unified
 700              		.thumb
 701              		.thumb_func
 702              		.fpu fpv4-sp-d16
 704              	USB_OTG_SetCurrentMode:
 705              	.LFB120:
 516:../STLibs//STM32_USB-Host-Device_Lib_V2.1.0/Libraries/STM32_USB_OTG_Driver/src/usb_core.c **** 
 517:../STLibs//STM32_USB-Host-Device_Lib_V2.1.0/Libraries/STM32_USB_OTG_Driver/src/usb_core.c **** 
 518:../STLibs//STM32_USB-Host-Device_Lib_V2.1.0/Libraries/STM32_USB_OTG_Driver/src/usb_core.c **** /**
 519:../STLibs//STM32_USB-Host-Device_Lib_V2.1.0/Libraries/STM32_USB_OTG_Driver/src/usb_core.c **** * @brief  USB_OTG_SetCurrentMode : Set ID line
 520:../STLibs//STM32_USB-Host-Device_Lib_V2.1.0/Libraries/STM32_USB_OTG_Driver/src/usb_core.c **** * @param  pdev : Selected device
 521:../STLibs//STM32_USB-Host-Device_Lib_V2.1.0/Libraries/STM32_USB_OTG_Driver/src/usb_core.c **** * @param  mode :  (Host/device)
 522:../STLibs//STM32_USB-Host-Device_Lib_V2.1.0/Libraries/STM32_USB_OTG_Driver/src/usb_core.c **** * @retval USB_OTG_STS : status
 523:../STLibs//STM32_USB-Host-Device_Lib_V2.1.0/Libraries/STM32_USB_OTG_Driver/src/usb_core.c **** */
 524:../STLibs//STM32_USB-Host-Device_Lib_V2.1.0/Libraries/STM32_USB_OTG_Driver/src/usb_core.c **** USB_OTG_STS USB_OTG_SetCurrentMode(USB_OTG_CORE_HANDLE *pdev , uint8_t mode)
 525:../STLibs//STM32_USB-Host-Device_Lib_V2.1.0/Libraries/STM32_USB_OTG_Driver/src/usb_core.c **** {
 706              		.loc 1 525 0
 707              		.cfi_startproc
 708              		@ args = 0, pretend = 0, frame = 0
 709              		@ frame_needed = 0, uses_anonymous_args = 0
 710              	.LVL81:
 526:../STLibs//STM32_USB-Host-Device_Lib_V2.1.0/Libraries/STM32_USB_OTG_Driver/src/usb_core.c ****   USB_OTG_STS status = USB_OTG_OK;
 527:../STLibs//STM32_USB-Host-Device_Lib_V2.1.0/Libraries/STM32_USB_OTG_Driver/src/usb_core.c ****   USB_OTG_GUSBCFG_TypeDef  usbcfg;
 528:../STLibs//STM32_USB-Host-Device_Lib_V2.1.0/Libraries/STM32_USB_OTG_Driver/src/usb_core.c ****   
 529:../STLibs//STM32_USB-Host-Device_Lib_V2.1.0/Libraries/STM32_USB_OTG_Driver/src/usb_core.c ****   usbcfg.d32 = USB_OTG_READ_REG32(&pdev->regs.GREGS->GUSBCFG);
 711              		.loc 1 529 0
 712 0274 C268     		ldr	r2, [r0, #12]
 525:../STLibs//STM32_USB-Host-Device_Lib_V2.1.0/Libraries/STM32_USB_OTG_Driver/src/usb_core.c ****   USB_OTG_STS status = USB_OTG_OK;
 713              		.loc 1 525 0
 714 0276 08B5     		push	{r3, lr}
 715              	.LCFI10:
 716              		.cfi_def_cfa_offset 8
 717              		.cfi_offset 3, -8
 718              		.cfi_offset 14, -4
 719              		.loc 1 529 0
 720 0278 D368     		ldr	r3, [r2, #12]
 721              	.LVL82:
 530:../STLibs//STM32_USB-Host-Device_Lib_V2.1.0/Libraries/STM32_USB_OTG_Driver/src/usb_core.c ****   
 531:../STLibs//STM32_USB-Host-Device_Lib_V2.1.0/Libraries/STM32_USB_OTG_Driver/src/usb_core.c ****   usbcfg.b.force_host = 0;
 532:../STLibs//STM32_USB-Host-Device_Lib_V2.1.0/Libraries/STM32_USB_OTG_Driver/src/usb_core.c ****   usbcfg.b.force_dev = 0;
 533:../STLibs//STM32_USB-Host-Device_Lib_V2.1.0/Libraries/STM32_USB_OTG_Driver/src/usb_core.c ****   
 534:../STLibs//STM32_USB-Host-Device_Lib_V2.1.0/Libraries/STM32_USB_OTG_Driver/src/usb_core.c ****   if ( mode == HOST_MODE)
 722              		.loc 1 534 0
 723 027a 0129     		cmp	r1, #1
 531:../STLibs//STM32_USB-Host-Device_Lib_V2.1.0/Libraries/STM32_USB_OTG_Driver/src/usb_core.c ****   usbcfg.b.force_dev = 0;
 724              		.loc 1 531 0
 725 027c 6FF35D73 		bfc	r3, #29, #1
 532:../STLibs//STM32_USB-Host-Device_Lib_V2.1.0/Libraries/STM32_USB_OTG_Driver/src/usb_core.c ****   
 726              		.loc 1 532 0
 727 0280 6FF39E73 		bfc	r3, #30, #1
 728              		.loc 1 534 0
 729 0284 07D1     		bne	.L76
 535:../STLibs//STM32_USB-Host-Device_Lib_V2.1.0/Libraries/STM32_USB_OTG_Driver/src/usb_core.c ****   {
 536:../STLibs//STM32_USB-Host-Device_Lib_V2.1.0/Libraries/STM32_USB_OTG_Driver/src/usb_core.c ****     usbcfg.b.force_host = 1;
 730              		.loc 1 536 0
 731 0286 43F00053 		orr	r3, r3, #536870912
 732              	.LVL83:
 733              	.L77:
 537:../STLibs//STM32_USB-Host-Device_Lib_V2.1.0/Libraries/STM32_USB_OTG_Driver/src/usb_core.c ****   }
 538:../STLibs//STM32_USB-Host-Device_Lib_V2.1.0/Libraries/STM32_USB_OTG_Driver/src/usb_core.c ****   else if ( mode == DEVICE_MODE)
 539:../STLibs//STM32_USB-Host-Device_Lib_V2.1.0/Libraries/STM32_USB_OTG_Driver/src/usb_core.c ****   {
 540:../STLibs//STM32_USB-Host-Device_Lib_V2.1.0/Libraries/STM32_USB_OTG_Driver/src/usb_core.c ****     usbcfg.b.force_dev = 1;
 541:../STLibs//STM32_USB-Host-Device_Lib_V2.1.0/Libraries/STM32_USB_OTG_Driver/src/usb_core.c ****   }
 542:../STLibs//STM32_USB-Host-Device_Lib_V2.1.0/Libraries/STM32_USB_OTG_Driver/src/usb_core.c ****   
 543:../STLibs//STM32_USB-Host-Device_Lib_V2.1.0/Libraries/STM32_USB_OTG_Driver/src/usb_core.c ****   USB_OTG_WRITE_REG32(&pdev->regs.GREGS->GUSBCFG, usbcfg.d32);
 734              		.loc 1 543 0
 735 028a D360     		str	r3, [r2, #12]
 544:../STLibs//STM32_USB-Host-Device_Lib_V2.1.0/Libraries/STM32_USB_OTG_Driver/src/usb_core.c ****   USB_OTG_BSP_mDelay(50);
 736              		.loc 1 544 0
 737 028c 3220     		movs	r0, #50
 738              	.LVL84:
 739 028e FFF7FEFF 		bl	USB_OTG_BSP_mDelay
 740              	.LVL85:
 545:../STLibs//STM32_USB-Host-Device_Lib_V2.1.0/Libraries/STM32_USB_OTG_Driver/src/usb_core.c ****   return status;
 546:../STLibs//STM32_USB-Host-Device_Lib_V2.1.0/Libraries/STM32_USB_OTG_Driver/src/usb_core.c **** }
 741              		.loc 1 546 0
 742 0292 0020     		movs	r0, #0
 743 0294 08BD     		pop	{r3, pc}
 744              	.LVL86:
 745              	.L76:
 538:../STLibs//STM32_USB-Host-Device_Lib_V2.1.0/Libraries/STM32_USB_OTG_Driver/src/usb_core.c ****   {
 746              		.loc 1 538 0
 747 0296 0029     		cmp	r1, #0
 748 0298 F7D1     		bne	.L77
 540:../STLibs//STM32_USB-Host-Device_Lib_V2.1.0/Libraries/STM32_USB_OTG_Driver/src/usb_core.c ****   }
 749              		.loc 1 540 0
 750 029a 43F08043 		orr	r3, r3, #1073741824
 751              	.LVL87:
 752 029e F4E7     		b	.L77
 753              		.cfi_endproc
 754              	.LFE120:
 756              		.align	1
 757              		.global	USB_OTG_GetMode
 758              		.syntax unified
 759              		.thumb
 760              		.thumb_func
 761              		.fpu fpv4-sp-d16
 763              	USB_OTG_GetMode:
 764              	.LFB121:
 547:../STLibs//STM32_USB-Host-Device_Lib_V2.1.0/Libraries/STM32_USB_OTG_Driver/src/usb_core.c **** 
 548:../STLibs//STM32_USB-Host-Device_Lib_V2.1.0/Libraries/STM32_USB_OTG_Driver/src/usb_core.c **** 
 549:../STLibs//STM32_USB-Host-Device_Lib_V2.1.0/Libraries/STM32_USB_OTG_Driver/src/usb_core.c **** /**
 550:../STLibs//STM32_USB-Host-Device_Lib_V2.1.0/Libraries/STM32_USB_OTG_Driver/src/usb_core.c **** * @brief  USB_OTG_GetMode : Get current mode
 551:../STLibs//STM32_USB-Host-Device_Lib_V2.1.0/Libraries/STM32_USB_OTG_Driver/src/usb_core.c **** * @param  pdev : Selected device
 552:../STLibs//STM32_USB-Host-Device_Lib_V2.1.0/Libraries/STM32_USB_OTG_Driver/src/usb_core.c **** * @retval current mode
 553:../STLibs//STM32_USB-Host-Device_Lib_V2.1.0/Libraries/STM32_USB_OTG_Driver/src/usb_core.c **** */
 554:../STLibs//STM32_USB-Host-Device_Lib_V2.1.0/Libraries/STM32_USB_OTG_Driver/src/usb_core.c **** uint32_t USB_OTG_GetMode(USB_OTG_CORE_HANDLE *pdev)
 555:../STLibs//STM32_USB-Host-Device_Lib_V2.1.0/Libraries/STM32_USB_OTG_Driver/src/usb_core.c **** {
 765              		.loc 1 555 0
 766              		.cfi_startproc
 767              		@ args = 0, pretend = 0, frame = 0
 768              		@ frame_needed = 0, uses_anonymous_args = 0
 769              		@ link register save eliminated.
 770              	.LVL88:
 556:../STLibs//STM32_USB-Host-Device_Lib_V2.1.0/Libraries/STM32_USB_OTG_Driver/src/usb_core.c ****   return (USB_OTG_READ_REG32(&pdev->regs.GREGS->GINTSTS ) & 0x1);
 771              		.loc 1 556 0
 772 02a0 C368     		ldr	r3, [r0, #12]
 773 02a2 5869     		ldr	r0, [r3, #20]
 774              	.LVL89:
 557:../STLibs//STM32_USB-Host-Device_Lib_V2.1.0/Libraries/STM32_USB_OTG_Driver/src/usb_core.c **** }
 775              		.loc 1 557 0
 776 02a4 00F00100 		and	r0, r0, #1
 777 02a8 7047     		bx	lr
 778              		.cfi_endproc
 779              	.LFE121:
 781              		.align	1
 782              		.global	USB_OTG_IsDeviceMode
 783              		.syntax unified
 784              		.thumb
 785              		.thumb_func
 786              		.fpu fpv4-sp-d16
 788              	USB_OTG_IsDeviceMode:
 789              	.LFB122:
 558:../STLibs//STM32_USB-Host-Device_Lib_V2.1.0/Libraries/STM32_USB_OTG_Driver/src/usb_core.c **** 
 559:../STLibs//STM32_USB-Host-Device_Lib_V2.1.0/Libraries/STM32_USB_OTG_Driver/src/usb_core.c **** 
 560:../STLibs//STM32_USB-Host-Device_Lib_V2.1.0/Libraries/STM32_USB_OTG_Driver/src/usb_core.c **** /**
 561:../STLibs//STM32_USB-Host-Device_Lib_V2.1.0/Libraries/STM32_USB_OTG_Driver/src/usb_core.c **** * @brief  USB_OTG_IsDeviceMode : Check if it is device mode
 562:../STLibs//STM32_USB-Host-Device_Lib_V2.1.0/Libraries/STM32_USB_OTG_Driver/src/usb_core.c **** * @param  pdev : Selected device
 563:../STLibs//STM32_USB-Host-Device_Lib_V2.1.0/Libraries/STM32_USB_OTG_Driver/src/usb_core.c **** * @retval num_in_ep
 564:../STLibs//STM32_USB-Host-Device_Lib_V2.1.0/Libraries/STM32_USB_OTG_Driver/src/usb_core.c **** */
 565:../STLibs//STM32_USB-Host-Device_Lib_V2.1.0/Libraries/STM32_USB_OTG_Driver/src/usb_core.c **** uint8_t USB_OTG_IsDeviceMode(USB_OTG_CORE_HANDLE *pdev)
 566:../STLibs//STM32_USB-Host-Device_Lib_V2.1.0/Libraries/STM32_USB_OTG_Driver/src/usb_core.c **** {
 790              		.loc 1 566 0
 791              		.cfi_startproc
 792              		@ args = 0, pretend = 0, frame = 0
 793              		@ frame_needed = 0, uses_anonymous_args = 0
 794              		@ link register save eliminated.
 795              	.LVL90:
 796              	.LBB17:
 797              	.LBB18:
 556:../STLibs//STM32_USB-Host-Device_Lib_V2.1.0/Libraries/STM32_USB_OTG_Driver/src/usb_core.c **** }
 798              		.loc 1 556 0
 799 02aa C368     		ldr	r3, [r0, #12]
 800 02ac 5869     		ldr	r0, [r3, #20]
 801              	.LVL91:
 802              	.LBE18:
 803              	.LBE17:
 567:../STLibs//STM32_USB-Host-Device_Lib_V2.1.0/Libraries/STM32_USB_OTG_Driver/src/usb_core.c ****   return (USB_OTG_GetMode(pdev) != HOST_MODE);
 804              		.loc 1 567 0
 805 02ae C043     		mvns	r0, r0
 568:../STLibs//STM32_USB-Host-Device_Lib_V2.1.0/Libraries/STM32_USB_OTG_Driver/src/usb_core.c **** }
 806              		.loc 1 568 0
 807 02b0 00F00100 		and	r0, r0, #1
 808 02b4 7047     		bx	lr
 809              		.cfi_endproc
 810              	.LFE122:
 812              		.align	1
 813              		.global	USB_OTG_IsHostMode
 814              		.syntax unified
 815              		.thumb
 816              		.thumb_func
 817              		.fpu fpv4-sp-d16
 819              	USB_OTG_IsHostMode:
 820              	.LFB123:
 569:../STLibs//STM32_USB-Host-Device_Lib_V2.1.0/Libraries/STM32_USB_OTG_Driver/src/usb_core.c **** 
 570:../STLibs//STM32_USB-Host-Device_Lib_V2.1.0/Libraries/STM32_USB_OTG_Driver/src/usb_core.c **** 
 571:../STLibs//STM32_USB-Host-Device_Lib_V2.1.0/Libraries/STM32_USB_OTG_Driver/src/usb_core.c **** /**
 572:../STLibs//STM32_USB-Host-Device_Lib_V2.1.0/Libraries/STM32_USB_OTG_Driver/src/usb_core.c **** * @brief  USB_OTG_IsHostMode : Check if it is host mode
 573:../STLibs//STM32_USB-Host-Device_Lib_V2.1.0/Libraries/STM32_USB_OTG_Driver/src/usb_core.c **** * @param  pdev : Selected device
 574:../STLibs//STM32_USB-Host-Device_Lib_V2.1.0/Libraries/STM32_USB_OTG_Driver/src/usb_core.c **** * @retval num_in_ep
 575:../STLibs//STM32_USB-Host-Device_Lib_V2.1.0/Libraries/STM32_USB_OTG_Driver/src/usb_core.c **** */
 576:../STLibs//STM32_USB-Host-Device_Lib_V2.1.0/Libraries/STM32_USB_OTG_Driver/src/usb_core.c **** uint8_t USB_OTG_IsHostMode(USB_OTG_CORE_HANDLE *pdev)
 577:../STLibs//STM32_USB-Host-Device_Lib_V2.1.0/Libraries/STM32_USB_OTG_Driver/src/usb_core.c **** {
 821              		.loc 1 577 0
 822              		.cfi_startproc
 823              		@ args = 0, pretend = 0, frame = 0
 824              		@ frame_needed = 0, uses_anonymous_args = 0
 825              		@ link register save eliminated.
 826              	.LVL92:
 827              	.LBB19:
 828              	.LBB20:
 556:../STLibs//STM32_USB-Host-Device_Lib_V2.1.0/Libraries/STM32_USB_OTG_Driver/src/usb_core.c **** }
 829              		.loc 1 556 0
 830 02b6 C368     		ldr	r3, [r0, #12]
 831 02b8 5869     		ldr	r0, [r3, #20]
 832              	.LVL93:
 833              	.LBE20:
 834              	.LBE19:
 578:../STLibs//STM32_USB-Host-Device_Lib_V2.1.0/Libraries/STM32_USB_OTG_Driver/src/usb_core.c ****   return (USB_OTG_GetMode(pdev) == HOST_MODE);
 579:../STLibs//STM32_USB-Host-Device_Lib_V2.1.0/Libraries/STM32_USB_OTG_Driver/src/usb_core.c **** }
 835              		.loc 1 579 0
 836 02ba 00F00100 		and	r0, r0, #1
 837 02be 7047     		bx	lr
 838              		.cfi_endproc
 839              	.LFE123:
 841              		.align	1
 842              		.global	USB_OTG_ReadCoreItr
 843              		.syntax unified
 844              		.thumb
 845              		.thumb_func
 846              		.fpu fpv4-sp-d16
 848              	USB_OTG_ReadCoreItr:
 849              	.LFB124:
 580:../STLibs//STM32_USB-Host-Device_Lib_V2.1.0/Libraries/STM32_USB_OTG_Driver/src/usb_core.c **** 
 581:../STLibs//STM32_USB-Host-Device_Lib_V2.1.0/Libraries/STM32_USB_OTG_Driver/src/usb_core.c **** 
 582:../STLibs//STM32_USB-Host-Device_Lib_V2.1.0/Libraries/STM32_USB_OTG_Driver/src/usb_core.c **** /**
 583:../STLibs//STM32_USB-Host-Device_Lib_V2.1.0/Libraries/STM32_USB_OTG_Driver/src/usb_core.c **** * @brief  USB_OTG_ReadCoreItr : returns the Core Interrupt register
 584:../STLibs//STM32_USB-Host-Device_Lib_V2.1.0/Libraries/STM32_USB_OTG_Driver/src/usb_core.c **** * @param  pdev : Selected device
 585:../STLibs//STM32_USB-Host-Device_Lib_V2.1.0/Libraries/STM32_USB_OTG_Driver/src/usb_core.c **** * @retval Status
 586:../STLibs//STM32_USB-Host-Device_Lib_V2.1.0/Libraries/STM32_USB_OTG_Driver/src/usb_core.c **** */
 587:../STLibs//STM32_USB-Host-Device_Lib_V2.1.0/Libraries/STM32_USB_OTG_Driver/src/usb_core.c **** uint32_t USB_OTG_ReadCoreItr(USB_OTG_CORE_HANDLE *pdev)
 588:../STLibs//STM32_USB-Host-Device_Lib_V2.1.0/Libraries/STM32_USB_OTG_Driver/src/usb_core.c **** {
 850              		.loc 1 588 0
 851              		.cfi_startproc
 852              		@ args = 0, pretend = 0, frame = 0
 853              		@ frame_needed = 0, uses_anonymous_args = 0
 854              		@ link register save eliminated.
 855              	.LVL94:
 589:../STLibs//STM32_USB-Host-Device_Lib_V2.1.0/Libraries/STM32_USB_OTG_Driver/src/usb_core.c ****   uint32_t v = 0;
 590:../STLibs//STM32_USB-Host-Device_Lib_V2.1.0/Libraries/STM32_USB_OTG_Driver/src/usb_core.c ****   v = USB_OTG_READ_REG32(&pdev->regs.GREGS->GINTSTS);
 856              		.loc 1 590 0
 857 02c0 C368     		ldr	r3, [r0, #12]
 858 02c2 5869     		ldr	r0, [r3, #20]
 859              	.LVL95:
 591:../STLibs//STM32_USB-Host-Device_Lib_V2.1.0/Libraries/STM32_USB_OTG_Driver/src/usb_core.c ****   v &= USB_OTG_READ_REG32(&pdev->regs.GREGS->GINTMSK);
 860              		.loc 1 591 0
 861 02c4 9B69     		ldr	r3, [r3, #24]
 862              	.LVL96:
 592:../STLibs//STM32_USB-Host-Device_Lib_V2.1.0/Libraries/STM32_USB_OTG_Driver/src/usb_core.c ****   return v;
 593:../STLibs//STM32_USB-Host-Device_Lib_V2.1.0/Libraries/STM32_USB_OTG_Driver/src/usb_core.c **** }
 863              		.loc 1 593 0
 864 02c6 1840     		ands	r0, r0, r3
 865              	.LVL97:
 866 02c8 7047     		bx	lr
 867              		.cfi_endproc
 868              	.LFE124:
 870              		.align	1
 871              		.global	USB_OTG_ReadOtgItr
 872              		.syntax unified
 873              		.thumb
 874              		.thumb_func
 875              		.fpu fpv4-sp-d16
 877              	USB_OTG_ReadOtgItr:
 878              	.LFB125:
 594:../STLibs//STM32_USB-Host-Device_Lib_V2.1.0/Libraries/STM32_USB_OTG_Driver/src/usb_core.c **** 
 595:../STLibs//STM32_USB-Host-Device_Lib_V2.1.0/Libraries/STM32_USB_OTG_Driver/src/usb_core.c **** 
 596:../STLibs//STM32_USB-Host-Device_Lib_V2.1.0/Libraries/STM32_USB_OTG_Driver/src/usb_core.c **** /**
 597:../STLibs//STM32_USB-Host-Device_Lib_V2.1.0/Libraries/STM32_USB_OTG_Driver/src/usb_core.c **** * @brief  USB_OTG_ReadOtgItr : returns the USB_OTG Interrupt register
 598:../STLibs//STM32_USB-Host-Device_Lib_V2.1.0/Libraries/STM32_USB_OTG_Driver/src/usb_core.c **** * @param  pdev : Selected device
 599:../STLibs//STM32_USB-Host-Device_Lib_V2.1.0/Libraries/STM32_USB_OTG_Driver/src/usb_core.c **** * @retval Status
 600:../STLibs//STM32_USB-Host-Device_Lib_V2.1.0/Libraries/STM32_USB_OTG_Driver/src/usb_core.c **** */
 601:../STLibs//STM32_USB-Host-Device_Lib_V2.1.0/Libraries/STM32_USB_OTG_Driver/src/usb_core.c **** uint32_t USB_OTG_ReadOtgItr (USB_OTG_CORE_HANDLE *pdev)
 602:../STLibs//STM32_USB-Host-Device_Lib_V2.1.0/Libraries/STM32_USB_OTG_Driver/src/usb_core.c **** {
 879              		.loc 1 602 0
 880              		.cfi_startproc
 881              		@ args = 0, pretend = 0, frame = 0
 882              		@ frame_needed = 0, uses_anonymous_args = 0
 883              		@ link register save eliminated.
 884              	.LVL98:
 603:../STLibs//STM32_USB-Host-Device_Lib_V2.1.0/Libraries/STM32_USB_OTG_Driver/src/usb_core.c ****   return (USB_OTG_READ_REG32 (&pdev->regs.GREGS->GOTGINT));
 885              		.loc 1 603 0
 886 02ca C368     		ldr	r3, [r0, #12]
 887 02cc 5868     		ldr	r0, [r3, #4]
 888              	.LVL99:
 604:../STLibs//STM32_USB-Host-Device_Lib_V2.1.0/Libraries/STM32_USB_OTG_Driver/src/usb_core.c **** }
 889              		.loc 1 604 0
 890 02ce 7047     		bx	lr
 891              		.cfi_endproc
 892              	.LFE125:
 894              		.align	1
 895              		.global	USB_OTG_InitDevSpeed
 896              		.syntax unified
 897              		.thumb
 898              		.thumb_func
 899              		.fpu fpv4-sp-d16
 901              	USB_OTG_InitDevSpeed:
 902              	.LFB126:
 605:../STLibs//STM32_USB-Host-Device_Lib_V2.1.0/Libraries/STM32_USB_OTG_Driver/src/usb_core.c **** 
 606:../STLibs//STM32_USB-Host-Device_Lib_V2.1.0/Libraries/STM32_USB_OTG_Driver/src/usb_core.c **** #ifdef USE_HOST_MODE
 607:../STLibs//STM32_USB-Host-Device_Lib_V2.1.0/Libraries/STM32_USB_OTG_Driver/src/usb_core.c **** /**
 608:../STLibs//STM32_USB-Host-Device_Lib_V2.1.0/Libraries/STM32_USB_OTG_Driver/src/usb_core.c **** * @brief  USB_OTG_CoreInitHost : Initializes USB_OTG controller for host mode
 609:../STLibs//STM32_USB-Host-Device_Lib_V2.1.0/Libraries/STM32_USB_OTG_Driver/src/usb_core.c **** * @param  pdev : Selected device
 610:../STLibs//STM32_USB-Host-Device_Lib_V2.1.0/Libraries/STM32_USB_OTG_Driver/src/usb_core.c **** * @retval status
 611:../STLibs//STM32_USB-Host-Device_Lib_V2.1.0/Libraries/STM32_USB_OTG_Driver/src/usb_core.c **** */
 612:../STLibs//STM32_USB-Host-Device_Lib_V2.1.0/Libraries/STM32_USB_OTG_Driver/src/usb_core.c **** USB_OTG_STS USB_OTG_CoreInitHost(USB_OTG_CORE_HANDLE *pdev)
 613:../STLibs//STM32_USB-Host-Device_Lib_V2.1.0/Libraries/STM32_USB_OTG_Driver/src/usb_core.c **** {
 614:../STLibs//STM32_USB-Host-Device_Lib_V2.1.0/Libraries/STM32_USB_OTG_Driver/src/usb_core.c ****   USB_OTG_STS                     status = USB_OTG_OK;
 615:../STLibs//STM32_USB-Host-Device_Lib_V2.1.0/Libraries/STM32_USB_OTG_Driver/src/usb_core.c ****   USB_OTG_FSIZ_TypeDef            nptxfifosize;
 616:../STLibs//STM32_USB-Host-Device_Lib_V2.1.0/Libraries/STM32_USB_OTG_Driver/src/usb_core.c ****   USB_OTG_FSIZ_TypeDef            ptxfifosize;  
 617:../STLibs//STM32_USB-Host-Device_Lib_V2.1.0/Libraries/STM32_USB_OTG_Driver/src/usb_core.c ****   USB_OTG_HCFG_TypeDef            hcfg;
 618:../STLibs//STM32_USB-Host-Device_Lib_V2.1.0/Libraries/STM32_USB_OTG_Driver/src/usb_core.c ****   
 619:../STLibs//STM32_USB-Host-Device_Lib_V2.1.0/Libraries/STM32_USB_OTG_Driver/src/usb_core.c **** #ifdef USE_OTG_MODE
 620:../STLibs//STM32_USB-Host-Device_Lib_V2.1.0/Libraries/STM32_USB_OTG_Driver/src/usb_core.c ****   USB_OTG_OTGCTL_TypeDef          gotgctl;
 621:../STLibs//STM32_USB-Host-Device_Lib_V2.1.0/Libraries/STM32_USB_OTG_Driver/src/usb_core.c **** #endif
 622:../STLibs//STM32_USB-Host-Device_Lib_V2.1.0/Libraries/STM32_USB_OTG_Driver/src/usb_core.c ****   
 623:../STLibs//STM32_USB-Host-Device_Lib_V2.1.0/Libraries/STM32_USB_OTG_Driver/src/usb_core.c ****   uint32_t                        i = 0;
 624:../STLibs//STM32_USB-Host-Device_Lib_V2.1.0/Libraries/STM32_USB_OTG_Driver/src/usb_core.c ****   
 625:../STLibs//STM32_USB-Host-Device_Lib_V2.1.0/Libraries/STM32_USB_OTG_Driver/src/usb_core.c ****   nptxfifosize.d32 = 0;  
 626:../STLibs//STM32_USB-Host-Device_Lib_V2.1.0/Libraries/STM32_USB_OTG_Driver/src/usb_core.c ****   ptxfifosize.d32 = 0;
 627:../STLibs//STM32_USB-Host-Device_Lib_V2.1.0/Libraries/STM32_USB_OTG_Driver/src/usb_core.c **** #ifdef USE_OTG_MODE
 628:../STLibs//STM32_USB-Host-Device_Lib_V2.1.0/Libraries/STM32_USB_OTG_Driver/src/usb_core.c ****   gotgctl.d32 = 0;
 629:../STLibs//STM32_USB-Host-Device_Lib_V2.1.0/Libraries/STM32_USB_OTG_Driver/src/usb_core.c **** #endif
 630:../STLibs//STM32_USB-Host-Device_Lib_V2.1.0/Libraries/STM32_USB_OTG_Driver/src/usb_core.c ****   hcfg.d32 = 0;
 631:../STLibs//STM32_USB-Host-Device_Lib_V2.1.0/Libraries/STM32_USB_OTG_Driver/src/usb_core.c ****   
 632:../STLibs//STM32_USB-Host-Device_Lib_V2.1.0/Libraries/STM32_USB_OTG_Driver/src/usb_core.c ****   
 633:../STLibs//STM32_USB-Host-Device_Lib_V2.1.0/Libraries/STM32_USB_OTG_Driver/src/usb_core.c ****   /* configure charge pump IO */
 634:../STLibs//STM32_USB-Host-Device_Lib_V2.1.0/Libraries/STM32_USB_OTG_Driver/src/usb_core.c ****   USB_OTG_BSP_ConfigVBUS(pdev);
 635:../STLibs//STM32_USB-Host-Device_Lib_V2.1.0/Libraries/STM32_USB_OTG_Driver/src/usb_core.c ****   
 636:../STLibs//STM32_USB-Host-Device_Lib_V2.1.0/Libraries/STM32_USB_OTG_Driver/src/usb_core.c ****   /* Restart the Phy Clock */
 637:../STLibs//STM32_USB-Host-Device_Lib_V2.1.0/Libraries/STM32_USB_OTG_Driver/src/usb_core.c ****   USB_OTG_WRITE_REG32(pdev->regs.PCGCCTL, 0);
 638:../STLibs//STM32_USB-Host-Device_Lib_V2.1.0/Libraries/STM32_USB_OTG_Driver/src/usb_core.c ****   
 639:../STLibs//STM32_USB-Host-Device_Lib_V2.1.0/Libraries/STM32_USB_OTG_Driver/src/usb_core.c ****   /* Initialize Host Configuration Register */
 640:../STLibs//STM32_USB-Host-Device_Lib_V2.1.0/Libraries/STM32_USB_OTG_Driver/src/usb_core.c ****   if (pdev->cfg.phy_itface == USB_OTG_ULPI_PHY)
 641:../STLibs//STM32_USB-Host-Device_Lib_V2.1.0/Libraries/STM32_USB_OTG_Driver/src/usb_core.c ****   {
 642:../STLibs//STM32_USB-Host-Device_Lib_V2.1.0/Libraries/STM32_USB_OTG_Driver/src/usb_core.c ****     USB_OTG_InitFSLSPClkSel(pdev , HCFG_30_60_MHZ); 
 643:../STLibs//STM32_USB-Host-Device_Lib_V2.1.0/Libraries/STM32_USB_OTG_Driver/src/usb_core.c ****   }
 644:../STLibs//STM32_USB-Host-Device_Lib_V2.1.0/Libraries/STM32_USB_OTG_Driver/src/usb_core.c ****   else
 645:../STLibs//STM32_USB-Host-Device_Lib_V2.1.0/Libraries/STM32_USB_OTG_Driver/src/usb_core.c ****   {
 646:../STLibs//STM32_USB-Host-Device_Lib_V2.1.0/Libraries/STM32_USB_OTG_Driver/src/usb_core.c ****     USB_OTG_InitFSLSPClkSel(pdev , HCFG_48_MHZ); 
 647:../STLibs//STM32_USB-Host-Device_Lib_V2.1.0/Libraries/STM32_USB_OTG_Driver/src/usb_core.c ****   }
 648:../STLibs//STM32_USB-Host-Device_Lib_V2.1.0/Libraries/STM32_USB_OTG_Driver/src/usb_core.c ****   USB_OTG_ResetPort(pdev);
 649:../STLibs//STM32_USB-Host-Device_Lib_V2.1.0/Libraries/STM32_USB_OTG_Driver/src/usb_core.c ****   
 650:../STLibs//STM32_USB-Host-Device_Lib_V2.1.0/Libraries/STM32_USB_OTG_Driver/src/usb_core.c ****   hcfg.d32 = USB_OTG_READ_REG32(&pdev->regs.HREGS->HCFG);
 651:../STLibs//STM32_USB-Host-Device_Lib_V2.1.0/Libraries/STM32_USB_OTG_Driver/src/usb_core.c ****   hcfg.b.fslssupp = 0;
 652:../STLibs//STM32_USB-Host-Device_Lib_V2.1.0/Libraries/STM32_USB_OTG_Driver/src/usb_core.c ****   USB_OTG_WRITE_REG32(&pdev->regs.HREGS->HCFG, hcfg.d32);
 653:../STLibs//STM32_USB-Host-Device_Lib_V2.1.0/Libraries/STM32_USB_OTG_Driver/src/usb_core.c ****   
 654:../STLibs//STM32_USB-Host-Device_Lib_V2.1.0/Libraries/STM32_USB_OTG_Driver/src/usb_core.c ****   /* Configure data FIFO sizes */
 655:../STLibs//STM32_USB-Host-Device_Lib_V2.1.0/Libraries/STM32_USB_OTG_Driver/src/usb_core.c ****   /* Rx FIFO */
 656:../STLibs//STM32_USB-Host-Device_Lib_V2.1.0/Libraries/STM32_USB_OTG_Driver/src/usb_core.c **** #ifdef USB_OTG_FS_CORE
 657:../STLibs//STM32_USB-Host-Device_Lib_V2.1.0/Libraries/STM32_USB_OTG_Driver/src/usb_core.c ****   if(pdev->cfg.coreID == USB_OTG_FS_CORE_ID)
 658:../STLibs//STM32_USB-Host-Device_Lib_V2.1.0/Libraries/STM32_USB_OTG_Driver/src/usb_core.c ****   {
 659:../STLibs//STM32_USB-Host-Device_Lib_V2.1.0/Libraries/STM32_USB_OTG_Driver/src/usb_core.c ****     /* set Rx FIFO size */
 660:../STLibs//STM32_USB-Host-Device_Lib_V2.1.0/Libraries/STM32_USB_OTG_Driver/src/usb_core.c ****     USB_OTG_WRITE_REG32(&pdev->regs.GREGS->GRXFSIZ, RX_FIFO_FS_SIZE);
 661:../STLibs//STM32_USB-Host-Device_Lib_V2.1.0/Libraries/STM32_USB_OTG_Driver/src/usb_core.c ****     nptxfifosize.b.startaddr = RX_FIFO_FS_SIZE;   
 662:../STLibs//STM32_USB-Host-Device_Lib_V2.1.0/Libraries/STM32_USB_OTG_Driver/src/usb_core.c ****     nptxfifosize.b.depth = TXH_NP_FS_FIFOSIZ;  
 663:../STLibs//STM32_USB-Host-Device_Lib_V2.1.0/Libraries/STM32_USB_OTG_Driver/src/usb_core.c ****     USB_OTG_WRITE_REG32(&pdev->regs.GREGS->DIEPTXF0_HNPTXFSIZ, nptxfifosize.d32);
 664:../STLibs//STM32_USB-Host-Device_Lib_V2.1.0/Libraries/STM32_USB_OTG_Driver/src/usb_core.c ****     
 665:../STLibs//STM32_USB-Host-Device_Lib_V2.1.0/Libraries/STM32_USB_OTG_Driver/src/usb_core.c ****     ptxfifosize.b.startaddr = RX_FIFO_FS_SIZE + TXH_NP_FS_FIFOSIZ;
 666:../STLibs//STM32_USB-Host-Device_Lib_V2.1.0/Libraries/STM32_USB_OTG_Driver/src/usb_core.c ****     ptxfifosize.b.depth     = TXH_P_FS_FIFOSIZ;
 667:../STLibs//STM32_USB-Host-Device_Lib_V2.1.0/Libraries/STM32_USB_OTG_Driver/src/usb_core.c ****     USB_OTG_WRITE_REG32(&pdev->regs.GREGS->HPTXFSIZ, ptxfifosize.d32);      
 668:../STLibs//STM32_USB-Host-Device_Lib_V2.1.0/Libraries/STM32_USB_OTG_Driver/src/usb_core.c ****   }
 669:../STLibs//STM32_USB-Host-Device_Lib_V2.1.0/Libraries/STM32_USB_OTG_Driver/src/usb_core.c **** #endif
 670:../STLibs//STM32_USB-Host-Device_Lib_V2.1.0/Libraries/STM32_USB_OTG_Driver/src/usb_core.c **** #ifdef USB_OTG_HS_CORE  
 671:../STLibs//STM32_USB-Host-Device_Lib_V2.1.0/Libraries/STM32_USB_OTG_Driver/src/usb_core.c ****   if (pdev->cfg.coreID == USB_OTG_HS_CORE_ID)
 672:../STLibs//STM32_USB-Host-Device_Lib_V2.1.0/Libraries/STM32_USB_OTG_Driver/src/usb_core.c ****   {
 673:../STLibs//STM32_USB-Host-Device_Lib_V2.1.0/Libraries/STM32_USB_OTG_Driver/src/usb_core.c ****     /* set Rx FIFO size */
 674:../STLibs//STM32_USB-Host-Device_Lib_V2.1.0/Libraries/STM32_USB_OTG_Driver/src/usb_core.c ****     USB_OTG_WRITE_REG32(&pdev->regs.GREGS->GRXFSIZ, RX_FIFO_HS_SIZE);
 675:../STLibs//STM32_USB-Host-Device_Lib_V2.1.0/Libraries/STM32_USB_OTG_Driver/src/usb_core.c ****     nptxfifosize.b.startaddr = RX_FIFO_HS_SIZE;   
 676:../STLibs//STM32_USB-Host-Device_Lib_V2.1.0/Libraries/STM32_USB_OTG_Driver/src/usb_core.c ****     nptxfifosize.b.depth = TXH_NP_HS_FIFOSIZ;  
 677:../STLibs//STM32_USB-Host-Device_Lib_V2.1.0/Libraries/STM32_USB_OTG_Driver/src/usb_core.c ****     USB_OTG_WRITE_REG32(&pdev->regs.GREGS->DIEPTXF0_HNPTXFSIZ, nptxfifosize.d32);
 678:../STLibs//STM32_USB-Host-Device_Lib_V2.1.0/Libraries/STM32_USB_OTG_Driver/src/usb_core.c ****     
 679:../STLibs//STM32_USB-Host-Device_Lib_V2.1.0/Libraries/STM32_USB_OTG_Driver/src/usb_core.c ****     ptxfifosize.b.startaddr = RX_FIFO_HS_SIZE + TXH_NP_HS_FIFOSIZ;
 680:../STLibs//STM32_USB-Host-Device_Lib_V2.1.0/Libraries/STM32_USB_OTG_Driver/src/usb_core.c ****     ptxfifosize.b.depth     = TXH_P_HS_FIFOSIZ;
 681:../STLibs//STM32_USB-Host-Device_Lib_V2.1.0/Libraries/STM32_USB_OTG_Driver/src/usb_core.c ****     USB_OTG_WRITE_REG32(&pdev->regs.GREGS->HPTXFSIZ, ptxfifosize.d32);      
 682:../STLibs//STM32_USB-Host-Device_Lib_V2.1.0/Libraries/STM32_USB_OTG_Driver/src/usb_core.c ****   }
 683:../STLibs//STM32_USB-Host-Device_Lib_V2.1.0/Libraries/STM32_USB_OTG_Driver/src/usb_core.c **** #endif  
 684:../STLibs//STM32_USB-Host-Device_Lib_V2.1.0/Libraries/STM32_USB_OTG_Driver/src/usb_core.c ****   
 685:../STLibs//STM32_USB-Host-Device_Lib_V2.1.0/Libraries/STM32_USB_OTG_Driver/src/usb_core.c **** #ifdef USE_OTG_MODE
 686:../STLibs//STM32_USB-Host-Device_Lib_V2.1.0/Libraries/STM32_USB_OTG_Driver/src/usb_core.c ****   /* Clear Host Set HNP Enable in the USB_OTG Control Register */
 687:../STLibs//STM32_USB-Host-Device_Lib_V2.1.0/Libraries/STM32_USB_OTG_Driver/src/usb_core.c ****   gotgctl.b.hstsethnpen = 1;
 688:../STLibs//STM32_USB-Host-Device_Lib_V2.1.0/Libraries/STM32_USB_OTG_Driver/src/usb_core.c ****   USB_OTG_MODIFY_REG32( &pdev->regs.GREGS->GOTGCTL, gotgctl.d32, 0);
 689:../STLibs//STM32_USB-Host-Device_Lib_V2.1.0/Libraries/STM32_USB_OTG_Driver/src/usb_core.c **** #endif
 690:../STLibs//STM32_USB-Host-Device_Lib_V2.1.0/Libraries/STM32_USB_OTG_Driver/src/usb_core.c ****   
 691:../STLibs//STM32_USB-Host-Device_Lib_V2.1.0/Libraries/STM32_USB_OTG_Driver/src/usb_core.c ****   /* Make sure the FIFOs are flushed. */
 692:../STLibs//STM32_USB-Host-Device_Lib_V2.1.0/Libraries/STM32_USB_OTG_Driver/src/usb_core.c ****   USB_OTG_FlushTxFifo(pdev, 0x10 );         /* all Tx FIFOs */
 693:../STLibs//STM32_USB-Host-Device_Lib_V2.1.0/Libraries/STM32_USB_OTG_Driver/src/usb_core.c ****   USB_OTG_FlushRxFifo(pdev);
 694:../STLibs//STM32_USB-Host-Device_Lib_V2.1.0/Libraries/STM32_USB_OTG_Driver/src/usb_core.c ****   
 695:../STLibs//STM32_USB-Host-Device_Lib_V2.1.0/Libraries/STM32_USB_OTG_Driver/src/usb_core.c ****   
 696:../STLibs//STM32_USB-Host-Device_Lib_V2.1.0/Libraries/STM32_USB_OTG_Driver/src/usb_core.c ****   /* Clear all pending HC Interrupts */
 697:../STLibs//STM32_USB-Host-Device_Lib_V2.1.0/Libraries/STM32_USB_OTG_Driver/src/usb_core.c ****   for (i = 0; i < pdev->cfg.host_channels; i++)
 698:../STLibs//STM32_USB-Host-Device_Lib_V2.1.0/Libraries/STM32_USB_OTG_Driver/src/usb_core.c ****   {
 699:../STLibs//STM32_USB-Host-Device_Lib_V2.1.0/Libraries/STM32_USB_OTG_Driver/src/usb_core.c ****     USB_OTG_WRITE_REG32( &pdev->regs.HC_REGS[i]->HCINT, 0xFFFFFFFF );
 700:../STLibs//STM32_USB-Host-Device_Lib_V2.1.0/Libraries/STM32_USB_OTG_Driver/src/usb_core.c ****     USB_OTG_WRITE_REG32( &pdev->regs.HC_REGS[i]->HCINTMSK, 0 );
 701:../STLibs//STM32_USB-Host-Device_Lib_V2.1.0/Libraries/STM32_USB_OTG_Driver/src/usb_core.c ****   }
 702:../STLibs//STM32_USB-Host-Device_Lib_V2.1.0/Libraries/STM32_USB_OTG_Driver/src/usb_core.c **** #ifndef USE_OTG_MODE
 703:../STLibs//STM32_USB-Host-Device_Lib_V2.1.0/Libraries/STM32_USB_OTG_Driver/src/usb_core.c ****   USB_OTG_DriveVbus(pdev, 1);
 704:../STLibs//STM32_USB-Host-Device_Lib_V2.1.0/Libraries/STM32_USB_OTG_Driver/src/usb_core.c **** #endif
 705:../STLibs//STM32_USB-Host-Device_Lib_V2.1.0/Libraries/STM32_USB_OTG_Driver/src/usb_core.c ****   
 706:../STLibs//STM32_USB-Host-Device_Lib_V2.1.0/Libraries/STM32_USB_OTG_Driver/src/usb_core.c ****   USB_OTG_EnableHostInt(pdev);
 707:../STLibs//STM32_USB-Host-Device_Lib_V2.1.0/Libraries/STM32_USB_OTG_Driver/src/usb_core.c ****   return status;
 708:../STLibs//STM32_USB-Host-Device_Lib_V2.1.0/Libraries/STM32_USB_OTG_Driver/src/usb_core.c **** }
 709:../STLibs//STM32_USB-Host-Device_Lib_V2.1.0/Libraries/STM32_USB_OTG_Driver/src/usb_core.c **** 
 710:../STLibs//STM32_USB-Host-Device_Lib_V2.1.0/Libraries/STM32_USB_OTG_Driver/src/usb_core.c **** /**
 711:../STLibs//STM32_USB-Host-Device_Lib_V2.1.0/Libraries/STM32_USB_OTG_Driver/src/usb_core.c **** * @brief  USB_OTG_IsEvenFrame 
 712:../STLibs//STM32_USB-Host-Device_Lib_V2.1.0/Libraries/STM32_USB_OTG_Driver/src/usb_core.c **** *         This function returns the frame number for sof packet
 713:../STLibs//STM32_USB-Host-Device_Lib_V2.1.0/Libraries/STM32_USB_OTG_Driver/src/usb_core.c **** * @param  pdev : Selected device
 714:../STLibs//STM32_USB-Host-Device_Lib_V2.1.0/Libraries/STM32_USB_OTG_Driver/src/usb_core.c **** * @retval Frame number
 715:../STLibs//STM32_USB-Host-Device_Lib_V2.1.0/Libraries/STM32_USB_OTG_Driver/src/usb_core.c **** */
 716:../STLibs//STM32_USB-Host-Device_Lib_V2.1.0/Libraries/STM32_USB_OTG_Driver/src/usb_core.c **** uint8_t USB_OTG_IsEvenFrame (USB_OTG_CORE_HANDLE *pdev) 
 717:../STLibs//STM32_USB-Host-Device_Lib_V2.1.0/Libraries/STM32_USB_OTG_Driver/src/usb_core.c **** {
 718:../STLibs//STM32_USB-Host-Device_Lib_V2.1.0/Libraries/STM32_USB_OTG_Driver/src/usb_core.c ****   return !(USB_OTG_READ_REG32(&pdev->regs.HREGS->HFNUM) & 0x1);
 719:../STLibs//STM32_USB-Host-Device_Lib_V2.1.0/Libraries/STM32_USB_OTG_Driver/src/usb_core.c **** }
 720:../STLibs//STM32_USB-Host-Device_Lib_V2.1.0/Libraries/STM32_USB_OTG_Driver/src/usb_core.c **** 
 721:../STLibs//STM32_USB-Host-Device_Lib_V2.1.0/Libraries/STM32_USB_OTG_Driver/src/usb_core.c **** /**
 722:../STLibs//STM32_USB-Host-Device_Lib_V2.1.0/Libraries/STM32_USB_OTG_Driver/src/usb_core.c **** * @brief  USB_OTG_DriveVbus : set/reset vbus
 723:../STLibs//STM32_USB-Host-Device_Lib_V2.1.0/Libraries/STM32_USB_OTG_Driver/src/usb_core.c **** * @param  pdev : Selected device
 724:../STLibs//STM32_USB-Host-Device_Lib_V2.1.0/Libraries/STM32_USB_OTG_Driver/src/usb_core.c **** * @param  state : VBUS state
 725:../STLibs//STM32_USB-Host-Device_Lib_V2.1.0/Libraries/STM32_USB_OTG_Driver/src/usb_core.c **** * @retval None
 726:../STLibs//STM32_USB-Host-Device_Lib_V2.1.0/Libraries/STM32_USB_OTG_Driver/src/usb_core.c **** */
 727:../STLibs//STM32_USB-Host-Device_Lib_V2.1.0/Libraries/STM32_USB_OTG_Driver/src/usb_core.c **** void USB_OTG_DriveVbus (USB_OTG_CORE_HANDLE *pdev, uint8_t state)
 728:../STLibs//STM32_USB-Host-Device_Lib_V2.1.0/Libraries/STM32_USB_OTG_Driver/src/usb_core.c **** {
 729:../STLibs//STM32_USB-Host-Device_Lib_V2.1.0/Libraries/STM32_USB_OTG_Driver/src/usb_core.c ****   USB_OTG_HPRT0_TypeDef     hprt0;
 730:../STLibs//STM32_USB-Host-Device_Lib_V2.1.0/Libraries/STM32_USB_OTG_Driver/src/usb_core.c ****   
 731:../STLibs//STM32_USB-Host-Device_Lib_V2.1.0/Libraries/STM32_USB_OTG_Driver/src/usb_core.c ****   hprt0.d32 = 0;
 732:../STLibs//STM32_USB-Host-Device_Lib_V2.1.0/Libraries/STM32_USB_OTG_Driver/src/usb_core.c ****   
 733:../STLibs//STM32_USB-Host-Device_Lib_V2.1.0/Libraries/STM32_USB_OTG_Driver/src/usb_core.c ****   /* enable disable the external charge pump */
 734:../STLibs//STM32_USB-Host-Device_Lib_V2.1.0/Libraries/STM32_USB_OTG_Driver/src/usb_core.c ****   USB_OTG_BSP_DriveVBUS(pdev, state);
 735:../STLibs//STM32_USB-Host-Device_Lib_V2.1.0/Libraries/STM32_USB_OTG_Driver/src/usb_core.c ****   
 736:../STLibs//STM32_USB-Host-Device_Lib_V2.1.0/Libraries/STM32_USB_OTG_Driver/src/usb_core.c ****   /* Turn on the Host port power. */
 737:../STLibs//STM32_USB-Host-Device_Lib_V2.1.0/Libraries/STM32_USB_OTG_Driver/src/usb_core.c ****   hprt0.d32 = USB_OTG_ReadHPRT0(pdev);
 738:../STLibs//STM32_USB-Host-Device_Lib_V2.1.0/Libraries/STM32_USB_OTG_Driver/src/usb_core.c ****   if ((hprt0.b.prtpwr == 0 ) && (state == 1 ))
 739:../STLibs//STM32_USB-Host-Device_Lib_V2.1.0/Libraries/STM32_USB_OTG_Driver/src/usb_core.c ****   {
 740:../STLibs//STM32_USB-Host-Device_Lib_V2.1.0/Libraries/STM32_USB_OTG_Driver/src/usb_core.c ****     hprt0.b.prtpwr = 1;
 741:../STLibs//STM32_USB-Host-Device_Lib_V2.1.0/Libraries/STM32_USB_OTG_Driver/src/usb_core.c ****     USB_OTG_WRITE_REG32(pdev->regs.HPRT0, hprt0.d32);
 742:../STLibs//STM32_USB-Host-Device_Lib_V2.1.0/Libraries/STM32_USB_OTG_Driver/src/usb_core.c ****   }
 743:../STLibs//STM32_USB-Host-Device_Lib_V2.1.0/Libraries/STM32_USB_OTG_Driver/src/usb_core.c ****   if ((hprt0.b.prtpwr == 1 ) && (state == 0 ))
 744:../STLibs//STM32_USB-Host-Device_Lib_V2.1.0/Libraries/STM32_USB_OTG_Driver/src/usb_core.c ****   {
 745:../STLibs//STM32_USB-Host-Device_Lib_V2.1.0/Libraries/STM32_USB_OTG_Driver/src/usb_core.c ****     hprt0.b.prtpwr = 0;
 746:../STLibs//STM32_USB-Host-Device_Lib_V2.1.0/Libraries/STM32_USB_OTG_Driver/src/usb_core.c ****     USB_OTG_WRITE_REG32(pdev->regs.HPRT0, hprt0.d32);
 747:../STLibs//STM32_USB-Host-Device_Lib_V2.1.0/Libraries/STM32_USB_OTG_Driver/src/usb_core.c ****   }
 748:../STLibs//STM32_USB-Host-Device_Lib_V2.1.0/Libraries/STM32_USB_OTG_Driver/src/usb_core.c ****   
 749:../STLibs//STM32_USB-Host-Device_Lib_V2.1.0/Libraries/STM32_USB_OTG_Driver/src/usb_core.c ****   USB_OTG_BSP_mDelay(200);
 750:../STLibs//STM32_USB-Host-Device_Lib_V2.1.0/Libraries/STM32_USB_OTG_Driver/src/usb_core.c **** }
 751:../STLibs//STM32_USB-Host-Device_Lib_V2.1.0/Libraries/STM32_USB_OTG_Driver/src/usb_core.c **** /**
 752:../STLibs//STM32_USB-Host-Device_Lib_V2.1.0/Libraries/STM32_USB_OTG_Driver/src/usb_core.c **** * @brief  USB_OTG_EnableHostInt: Enables the Host mode interrupts
 753:../STLibs//STM32_USB-Host-Device_Lib_V2.1.0/Libraries/STM32_USB_OTG_Driver/src/usb_core.c **** * @param  pdev : Selected device
 754:../STLibs//STM32_USB-Host-Device_Lib_V2.1.0/Libraries/STM32_USB_OTG_Driver/src/usb_core.c **** * @retval USB_OTG_STS : status
 755:../STLibs//STM32_USB-Host-Device_Lib_V2.1.0/Libraries/STM32_USB_OTG_Driver/src/usb_core.c **** */
 756:../STLibs//STM32_USB-Host-Device_Lib_V2.1.0/Libraries/STM32_USB_OTG_Driver/src/usb_core.c **** USB_OTG_STS USB_OTG_EnableHostInt(USB_OTG_CORE_HANDLE *pdev)
 757:../STLibs//STM32_USB-Host-Device_Lib_V2.1.0/Libraries/STM32_USB_OTG_Driver/src/usb_core.c **** {
 758:../STLibs//STM32_USB-Host-Device_Lib_V2.1.0/Libraries/STM32_USB_OTG_Driver/src/usb_core.c ****   USB_OTG_STS       status = USB_OTG_OK;
 759:../STLibs//STM32_USB-Host-Device_Lib_V2.1.0/Libraries/STM32_USB_OTG_Driver/src/usb_core.c ****   USB_OTG_GINTMSK_TypeDef  intmsk;
 760:../STLibs//STM32_USB-Host-Device_Lib_V2.1.0/Libraries/STM32_USB_OTG_Driver/src/usb_core.c ****   intmsk.d32 = 0;
 761:../STLibs//STM32_USB-Host-Device_Lib_V2.1.0/Libraries/STM32_USB_OTG_Driver/src/usb_core.c ****   /* Disable all interrupts. */
 762:../STLibs//STM32_USB-Host-Device_Lib_V2.1.0/Libraries/STM32_USB_OTG_Driver/src/usb_core.c ****   USB_OTG_WRITE_REG32(&pdev->regs.GREGS->GINTMSK, 0);
 763:../STLibs//STM32_USB-Host-Device_Lib_V2.1.0/Libraries/STM32_USB_OTG_Driver/src/usb_core.c ****   
 764:../STLibs//STM32_USB-Host-Device_Lib_V2.1.0/Libraries/STM32_USB_OTG_Driver/src/usb_core.c ****   /* Clear any pending interrupts. */
 765:../STLibs//STM32_USB-Host-Device_Lib_V2.1.0/Libraries/STM32_USB_OTG_Driver/src/usb_core.c ****   USB_OTG_WRITE_REG32(&pdev->regs.GREGS->GINTSTS, 0xFFFFFFFF);
 766:../STLibs//STM32_USB-Host-Device_Lib_V2.1.0/Libraries/STM32_USB_OTG_Driver/src/usb_core.c ****   
 767:../STLibs//STM32_USB-Host-Device_Lib_V2.1.0/Libraries/STM32_USB_OTG_Driver/src/usb_core.c ****   /* Enable the common interrupts */
 768:../STLibs//STM32_USB-Host-Device_Lib_V2.1.0/Libraries/STM32_USB_OTG_Driver/src/usb_core.c ****   USB_OTG_EnableCommonInt(pdev);
 769:../STLibs//STM32_USB-Host-Device_Lib_V2.1.0/Libraries/STM32_USB_OTG_Driver/src/usb_core.c ****   
 770:../STLibs//STM32_USB-Host-Device_Lib_V2.1.0/Libraries/STM32_USB_OTG_Driver/src/usb_core.c ****   if (pdev->cfg.dma_enable == 0)
 771:../STLibs//STM32_USB-Host-Device_Lib_V2.1.0/Libraries/STM32_USB_OTG_Driver/src/usb_core.c ****   {  
 772:../STLibs//STM32_USB-Host-Device_Lib_V2.1.0/Libraries/STM32_USB_OTG_Driver/src/usb_core.c ****     intmsk.b.rxstsqlvl  = 1;
 773:../STLibs//STM32_USB-Host-Device_Lib_V2.1.0/Libraries/STM32_USB_OTG_Driver/src/usb_core.c ****   }  
 774:../STLibs//STM32_USB-Host-Device_Lib_V2.1.0/Libraries/STM32_USB_OTG_Driver/src/usb_core.c ****   intmsk.b.portintr   = 1;
 775:../STLibs//STM32_USB-Host-Device_Lib_V2.1.0/Libraries/STM32_USB_OTG_Driver/src/usb_core.c ****   intmsk.b.hcintr     = 1;
 776:../STLibs//STM32_USB-Host-Device_Lib_V2.1.0/Libraries/STM32_USB_OTG_Driver/src/usb_core.c ****   intmsk.b.disconnect = 1;  
 777:../STLibs//STM32_USB-Host-Device_Lib_V2.1.0/Libraries/STM32_USB_OTG_Driver/src/usb_core.c ****   intmsk.b.sofintr    = 1;  
 778:../STLibs//STM32_USB-Host-Device_Lib_V2.1.0/Libraries/STM32_USB_OTG_Driver/src/usb_core.c ****   intmsk.b.incomplisoout  = 1; 
 779:../STLibs//STM32_USB-Host-Device_Lib_V2.1.0/Libraries/STM32_USB_OTG_Driver/src/usb_core.c ****   USB_OTG_MODIFY_REG32(&pdev->regs.GREGS->GINTMSK, intmsk.d32, intmsk.d32);
 780:../STLibs//STM32_USB-Host-Device_Lib_V2.1.0/Libraries/STM32_USB_OTG_Driver/src/usb_core.c ****   return status;
 781:../STLibs//STM32_USB-Host-Device_Lib_V2.1.0/Libraries/STM32_USB_OTG_Driver/src/usb_core.c **** }
 782:../STLibs//STM32_USB-Host-Device_Lib_V2.1.0/Libraries/STM32_USB_OTG_Driver/src/usb_core.c **** 
 783:../STLibs//STM32_USB-Host-Device_Lib_V2.1.0/Libraries/STM32_USB_OTG_Driver/src/usb_core.c **** /**
 784:../STLibs//STM32_USB-Host-Device_Lib_V2.1.0/Libraries/STM32_USB_OTG_Driver/src/usb_core.c **** * @brief  USB_OTG_InitFSLSPClkSel : Initializes the FSLSPClkSel field of the 
 785:../STLibs//STM32_USB-Host-Device_Lib_V2.1.0/Libraries/STM32_USB_OTG_Driver/src/usb_core.c **** *         HCFG register on the PHY type
 786:../STLibs//STM32_USB-Host-Device_Lib_V2.1.0/Libraries/STM32_USB_OTG_Driver/src/usb_core.c **** * @param  pdev : Selected device
 787:../STLibs//STM32_USB-Host-Device_Lib_V2.1.0/Libraries/STM32_USB_OTG_Driver/src/usb_core.c **** * @param  freq : clock frequency
 788:../STLibs//STM32_USB-Host-Device_Lib_V2.1.0/Libraries/STM32_USB_OTG_Driver/src/usb_core.c **** * @retval None
 789:../STLibs//STM32_USB-Host-Device_Lib_V2.1.0/Libraries/STM32_USB_OTG_Driver/src/usb_core.c **** */
 790:../STLibs//STM32_USB-Host-Device_Lib_V2.1.0/Libraries/STM32_USB_OTG_Driver/src/usb_core.c **** void USB_OTG_InitFSLSPClkSel(USB_OTG_CORE_HANDLE *pdev , uint8_t freq)
 791:../STLibs//STM32_USB-Host-Device_Lib_V2.1.0/Libraries/STM32_USB_OTG_Driver/src/usb_core.c **** {
 792:../STLibs//STM32_USB-Host-Device_Lib_V2.1.0/Libraries/STM32_USB_OTG_Driver/src/usb_core.c ****   USB_OTG_HCFG_TypeDef   hcfg;
 793:../STLibs//STM32_USB-Host-Device_Lib_V2.1.0/Libraries/STM32_USB_OTG_Driver/src/usb_core.c ****   
 794:../STLibs//STM32_USB-Host-Device_Lib_V2.1.0/Libraries/STM32_USB_OTG_Driver/src/usb_core.c ****   hcfg.d32 = USB_OTG_READ_REG32(&pdev->regs.HREGS->HCFG);
 795:../STLibs//STM32_USB-Host-Device_Lib_V2.1.0/Libraries/STM32_USB_OTG_Driver/src/usb_core.c ****   hcfg.b.fslspclksel = freq;
 796:../STLibs//STM32_USB-Host-Device_Lib_V2.1.0/Libraries/STM32_USB_OTG_Driver/src/usb_core.c ****   USB_OTG_WRITE_REG32(&pdev->regs.HREGS->HCFG, hcfg.d32);
 797:../STLibs//STM32_USB-Host-Device_Lib_V2.1.0/Libraries/STM32_USB_OTG_Driver/src/usb_core.c **** }
 798:../STLibs//STM32_USB-Host-Device_Lib_V2.1.0/Libraries/STM32_USB_OTG_Driver/src/usb_core.c **** 
 799:../STLibs//STM32_USB-Host-Device_Lib_V2.1.0/Libraries/STM32_USB_OTG_Driver/src/usb_core.c **** 
 800:../STLibs//STM32_USB-Host-Device_Lib_V2.1.0/Libraries/STM32_USB_OTG_Driver/src/usb_core.c **** /**
 801:../STLibs//STM32_USB-Host-Device_Lib_V2.1.0/Libraries/STM32_USB_OTG_Driver/src/usb_core.c **** * @brief  USB_OTG_ReadHPRT0 : Reads HPRT0 to modify later
 802:../STLibs//STM32_USB-Host-Device_Lib_V2.1.0/Libraries/STM32_USB_OTG_Driver/src/usb_core.c **** * @param  pdev : Selected device
 803:../STLibs//STM32_USB-Host-Device_Lib_V2.1.0/Libraries/STM32_USB_OTG_Driver/src/usb_core.c **** * @retval HPRT0 value
 804:../STLibs//STM32_USB-Host-Device_Lib_V2.1.0/Libraries/STM32_USB_OTG_Driver/src/usb_core.c **** */
 805:../STLibs//STM32_USB-Host-Device_Lib_V2.1.0/Libraries/STM32_USB_OTG_Driver/src/usb_core.c **** uint32_t USB_OTG_ReadHPRT0(USB_OTG_CORE_HANDLE *pdev)
 806:../STLibs//STM32_USB-Host-Device_Lib_V2.1.0/Libraries/STM32_USB_OTG_Driver/src/usb_core.c **** {
 807:../STLibs//STM32_USB-Host-Device_Lib_V2.1.0/Libraries/STM32_USB_OTG_Driver/src/usb_core.c ****   USB_OTG_HPRT0_TypeDef  hprt0;
 808:../STLibs//STM32_USB-Host-Device_Lib_V2.1.0/Libraries/STM32_USB_OTG_Driver/src/usb_core.c ****   
 809:../STLibs//STM32_USB-Host-Device_Lib_V2.1.0/Libraries/STM32_USB_OTG_Driver/src/usb_core.c ****   hprt0.d32 = USB_OTG_READ_REG32(pdev->regs.HPRT0);
 810:../STLibs//STM32_USB-Host-Device_Lib_V2.1.0/Libraries/STM32_USB_OTG_Driver/src/usb_core.c ****   hprt0.b.prtena = 0;
 811:../STLibs//STM32_USB-Host-Device_Lib_V2.1.0/Libraries/STM32_USB_OTG_Driver/src/usb_core.c ****   hprt0.b.prtconndet = 0;
 812:../STLibs//STM32_USB-Host-Device_Lib_V2.1.0/Libraries/STM32_USB_OTG_Driver/src/usb_core.c ****   hprt0.b.prtenchng = 0;
 813:../STLibs//STM32_USB-Host-Device_Lib_V2.1.0/Libraries/STM32_USB_OTG_Driver/src/usb_core.c ****   hprt0.b.prtovrcurrchng = 0;
 814:../STLibs//STM32_USB-Host-Device_Lib_V2.1.0/Libraries/STM32_USB_OTG_Driver/src/usb_core.c ****   return hprt0.d32;
 815:../STLibs//STM32_USB-Host-Device_Lib_V2.1.0/Libraries/STM32_USB_OTG_Driver/src/usb_core.c **** }
 816:../STLibs//STM32_USB-Host-Device_Lib_V2.1.0/Libraries/STM32_USB_OTG_Driver/src/usb_core.c **** 
 817:../STLibs//STM32_USB-Host-Device_Lib_V2.1.0/Libraries/STM32_USB_OTG_Driver/src/usb_core.c **** 
 818:../STLibs//STM32_USB-Host-Device_Lib_V2.1.0/Libraries/STM32_USB_OTG_Driver/src/usb_core.c **** /**
 819:../STLibs//STM32_USB-Host-Device_Lib_V2.1.0/Libraries/STM32_USB_OTG_Driver/src/usb_core.c **** * @brief  USB_OTG_ReadHostAllChannels_intr : Register PCD Callbacks
 820:../STLibs//STM32_USB-Host-Device_Lib_V2.1.0/Libraries/STM32_USB_OTG_Driver/src/usb_core.c **** * @param  pdev : Selected device
 821:../STLibs//STM32_USB-Host-Device_Lib_V2.1.0/Libraries/STM32_USB_OTG_Driver/src/usb_core.c **** * @retval Status
 822:../STLibs//STM32_USB-Host-Device_Lib_V2.1.0/Libraries/STM32_USB_OTG_Driver/src/usb_core.c **** */
 823:../STLibs//STM32_USB-Host-Device_Lib_V2.1.0/Libraries/STM32_USB_OTG_Driver/src/usb_core.c **** uint32_t USB_OTG_ReadHostAllChannels_intr (USB_OTG_CORE_HANDLE *pdev)
 824:../STLibs//STM32_USB-Host-Device_Lib_V2.1.0/Libraries/STM32_USB_OTG_Driver/src/usb_core.c **** {
 825:../STLibs//STM32_USB-Host-Device_Lib_V2.1.0/Libraries/STM32_USB_OTG_Driver/src/usb_core.c ****   return (USB_OTG_READ_REG32 (&pdev->regs.HREGS->HAINT));
 826:../STLibs//STM32_USB-Host-Device_Lib_V2.1.0/Libraries/STM32_USB_OTG_Driver/src/usb_core.c **** }
 827:../STLibs//STM32_USB-Host-Device_Lib_V2.1.0/Libraries/STM32_USB_OTG_Driver/src/usb_core.c **** 
 828:../STLibs//STM32_USB-Host-Device_Lib_V2.1.0/Libraries/STM32_USB_OTG_Driver/src/usb_core.c **** 
 829:../STLibs//STM32_USB-Host-Device_Lib_V2.1.0/Libraries/STM32_USB_OTG_Driver/src/usb_core.c **** /**
 830:../STLibs//STM32_USB-Host-Device_Lib_V2.1.0/Libraries/STM32_USB_OTG_Driver/src/usb_core.c **** * @brief  USB_OTG_ResetPort : Reset Host Port
 831:../STLibs//STM32_USB-Host-Device_Lib_V2.1.0/Libraries/STM32_USB_OTG_Driver/src/usb_core.c **** * @param  pdev : Selected device
 832:../STLibs//STM32_USB-Host-Device_Lib_V2.1.0/Libraries/STM32_USB_OTG_Driver/src/usb_core.c **** * @retval status
 833:../STLibs//STM32_USB-Host-Device_Lib_V2.1.0/Libraries/STM32_USB_OTG_Driver/src/usb_core.c **** * @note : (1)The application must wait at least 10 ms (+ 10 ms security)
 834:../STLibs//STM32_USB-Host-Device_Lib_V2.1.0/Libraries/STM32_USB_OTG_Driver/src/usb_core.c **** *   before clearing the reset bit.
 835:../STLibs//STM32_USB-Host-Device_Lib_V2.1.0/Libraries/STM32_USB_OTG_Driver/src/usb_core.c **** */
 836:../STLibs//STM32_USB-Host-Device_Lib_V2.1.0/Libraries/STM32_USB_OTG_Driver/src/usb_core.c **** uint32_t USB_OTG_ResetPort(USB_OTG_CORE_HANDLE *pdev)
 837:../STLibs//STM32_USB-Host-Device_Lib_V2.1.0/Libraries/STM32_USB_OTG_Driver/src/usb_core.c **** {
 838:../STLibs//STM32_USB-Host-Device_Lib_V2.1.0/Libraries/STM32_USB_OTG_Driver/src/usb_core.c ****   USB_OTG_HPRT0_TypeDef  hprt0;
 839:../STLibs//STM32_USB-Host-Device_Lib_V2.1.0/Libraries/STM32_USB_OTG_Driver/src/usb_core.c ****   
 840:../STLibs//STM32_USB-Host-Device_Lib_V2.1.0/Libraries/STM32_USB_OTG_Driver/src/usb_core.c ****   hprt0.d32 = USB_OTG_ReadHPRT0(pdev);
 841:../STLibs//STM32_USB-Host-Device_Lib_V2.1.0/Libraries/STM32_USB_OTG_Driver/src/usb_core.c ****   hprt0.b.prtrst = 1;
 842:../STLibs//STM32_USB-Host-Device_Lib_V2.1.0/Libraries/STM32_USB_OTG_Driver/src/usb_core.c ****   USB_OTG_WRITE_REG32(pdev->regs.HPRT0, hprt0.d32);
 843:../STLibs//STM32_USB-Host-Device_Lib_V2.1.0/Libraries/STM32_USB_OTG_Driver/src/usb_core.c ****   USB_OTG_BSP_mDelay (10);                                /* See Note #1 */
 844:../STLibs//STM32_USB-Host-Device_Lib_V2.1.0/Libraries/STM32_USB_OTG_Driver/src/usb_core.c ****   hprt0.b.prtrst = 0;
 845:../STLibs//STM32_USB-Host-Device_Lib_V2.1.0/Libraries/STM32_USB_OTG_Driver/src/usb_core.c ****   USB_OTG_WRITE_REG32(pdev->regs.HPRT0, hprt0.d32);
 846:../STLibs//STM32_USB-Host-Device_Lib_V2.1.0/Libraries/STM32_USB_OTG_Driver/src/usb_core.c ****   USB_OTG_BSP_mDelay (20);   
 847:../STLibs//STM32_USB-Host-Device_Lib_V2.1.0/Libraries/STM32_USB_OTG_Driver/src/usb_core.c ****   return 1;
 848:../STLibs//STM32_USB-Host-Device_Lib_V2.1.0/Libraries/STM32_USB_OTG_Driver/src/usb_core.c **** }
 849:../STLibs//STM32_USB-Host-Device_Lib_V2.1.0/Libraries/STM32_USB_OTG_Driver/src/usb_core.c **** 
 850:../STLibs//STM32_USB-Host-Device_Lib_V2.1.0/Libraries/STM32_USB_OTG_Driver/src/usb_core.c **** 
 851:../STLibs//STM32_USB-Host-Device_Lib_V2.1.0/Libraries/STM32_USB_OTG_Driver/src/usb_core.c **** /**
 852:../STLibs//STM32_USB-Host-Device_Lib_V2.1.0/Libraries/STM32_USB_OTG_Driver/src/usb_core.c **** * @brief  USB_OTG_HC_Init : Prepares a host channel for transferring packets
 853:../STLibs//STM32_USB-Host-Device_Lib_V2.1.0/Libraries/STM32_USB_OTG_Driver/src/usb_core.c **** * @param  pdev : Selected device
 854:../STLibs//STM32_USB-Host-Device_Lib_V2.1.0/Libraries/STM32_USB_OTG_Driver/src/usb_core.c **** * @param  hc_num : channel number
 855:../STLibs//STM32_USB-Host-Device_Lib_V2.1.0/Libraries/STM32_USB_OTG_Driver/src/usb_core.c **** * @retval USB_OTG_STS : status
 856:../STLibs//STM32_USB-Host-Device_Lib_V2.1.0/Libraries/STM32_USB_OTG_Driver/src/usb_core.c **** */
 857:../STLibs//STM32_USB-Host-Device_Lib_V2.1.0/Libraries/STM32_USB_OTG_Driver/src/usb_core.c **** USB_OTG_STS USB_OTG_HC_Init(USB_OTG_CORE_HANDLE *pdev , uint8_t hc_num)
 858:../STLibs//STM32_USB-Host-Device_Lib_V2.1.0/Libraries/STM32_USB_OTG_Driver/src/usb_core.c **** {
 859:../STLibs//STM32_USB-Host-Device_Lib_V2.1.0/Libraries/STM32_USB_OTG_Driver/src/usb_core.c ****   USB_OTG_STS status = USB_OTG_OK;
 860:../STLibs//STM32_USB-Host-Device_Lib_V2.1.0/Libraries/STM32_USB_OTG_Driver/src/usb_core.c ****   uint32_t intr_enable = 0;
 861:../STLibs//STM32_USB-Host-Device_Lib_V2.1.0/Libraries/STM32_USB_OTG_Driver/src/usb_core.c ****   USB_OTG_HCINTMSK_TypeDef  hcintmsk;
 862:../STLibs//STM32_USB-Host-Device_Lib_V2.1.0/Libraries/STM32_USB_OTG_Driver/src/usb_core.c ****   USB_OTG_GINTMSK_TypeDef    gintmsk;
 863:../STLibs//STM32_USB-Host-Device_Lib_V2.1.0/Libraries/STM32_USB_OTG_Driver/src/usb_core.c ****   USB_OTG_HCCHAR_TypeDef     hcchar;
 864:../STLibs//STM32_USB-Host-Device_Lib_V2.1.0/Libraries/STM32_USB_OTG_Driver/src/usb_core.c ****   USB_OTG_HCINTn_TypeDef     hcint;
 865:../STLibs//STM32_USB-Host-Device_Lib_V2.1.0/Libraries/STM32_USB_OTG_Driver/src/usb_core.c ****   
 866:../STLibs//STM32_USB-Host-Device_Lib_V2.1.0/Libraries/STM32_USB_OTG_Driver/src/usb_core.c ****   
 867:../STLibs//STM32_USB-Host-Device_Lib_V2.1.0/Libraries/STM32_USB_OTG_Driver/src/usb_core.c ****   gintmsk.d32 = 0;
 868:../STLibs//STM32_USB-Host-Device_Lib_V2.1.0/Libraries/STM32_USB_OTG_Driver/src/usb_core.c ****   hcintmsk.d32 = 0;
 869:../STLibs//STM32_USB-Host-Device_Lib_V2.1.0/Libraries/STM32_USB_OTG_Driver/src/usb_core.c ****   hcchar.d32 = 0;
 870:../STLibs//STM32_USB-Host-Device_Lib_V2.1.0/Libraries/STM32_USB_OTG_Driver/src/usb_core.c ****   
 871:../STLibs//STM32_USB-Host-Device_Lib_V2.1.0/Libraries/STM32_USB_OTG_Driver/src/usb_core.c ****   /* Clear old interrupt conditions for this host channel. */
 872:../STLibs//STM32_USB-Host-Device_Lib_V2.1.0/Libraries/STM32_USB_OTG_Driver/src/usb_core.c ****   hcint.d32 = 0xFFFFFFFF;
 873:../STLibs//STM32_USB-Host-Device_Lib_V2.1.0/Libraries/STM32_USB_OTG_Driver/src/usb_core.c ****   USB_OTG_WRITE_REG32(&pdev->regs.HC_REGS[hc_num]->HCINT, hcint.d32);
 874:../STLibs//STM32_USB-Host-Device_Lib_V2.1.0/Libraries/STM32_USB_OTG_Driver/src/usb_core.c ****   
 875:../STLibs//STM32_USB-Host-Device_Lib_V2.1.0/Libraries/STM32_USB_OTG_Driver/src/usb_core.c ****   /* Enable channel interrupts required for this transfer. */
 876:../STLibs//STM32_USB-Host-Device_Lib_V2.1.0/Libraries/STM32_USB_OTG_Driver/src/usb_core.c ****   hcintmsk.d32 = 0;
 877:../STLibs//STM32_USB-Host-Device_Lib_V2.1.0/Libraries/STM32_USB_OTG_Driver/src/usb_core.c ****   
 878:../STLibs//STM32_USB-Host-Device_Lib_V2.1.0/Libraries/STM32_USB_OTG_Driver/src/usb_core.c ****   if (pdev->cfg.dma_enable == 1)
 879:../STLibs//STM32_USB-Host-Device_Lib_V2.1.0/Libraries/STM32_USB_OTG_Driver/src/usb_core.c ****   {
 880:../STLibs//STM32_USB-Host-Device_Lib_V2.1.0/Libraries/STM32_USB_OTG_Driver/src/usb_core.c ****     hcintmsk.b.ahberr = 1;
 881:../STLibs//STM32_USB-Host-Device_Lib_V2.1.0/Libraries/STM32_USB_OTG_Driver/src/usb_core.c ****   }
 882:../STLibs//STM32_USB-Host-Device_Lib_V2.1.0/Libraries/STM32_USB_OTG_Driver/src/usb_core.c ****   
 883:../STLibs//STM32_USB-Host-Device_Lib_V2.1.0/Libraries/STM32_USB_OTG_Driver/src/usb_core.c ****   switch (pdev->host.hc[hc_num].ep_type) 
 884:../STLibs//STM32_USB-Host-Device_Lib_V2.1.0/Libraries/STM32_USB_OTG_Driver/src/usb_core.c ****   {
 885:../STLibs//STM32_USB-Host-Device_Lib_V2.1.0/Libraries/STM32_USB_OTG_Driver/src/usb_core.c ****   case EP_TYPE_CTRL:
 886:../STLibs//STM32_USB-Host-Device_Lib_V2.1.0/Libraries/STM32_USB_OTG_Driver/src/usb_core.c ****   case EP_TYPE_BULK:
 887:../STLibs//STM32_USB-Host-Device_Lib_V2.1.0/Libraries/STM32_USB_OTG_Driver/src/usb_core.c ****     hcintmsk.b.xfercompl = 1;
 888:../STLibs//STM32_USB-Host-Device_Lib_V2.1.0/Libraries/STM32_USB_OTG_Driver/src/usb_core.c ****     hcintmsk.b.stall = 1;
 889:../STLibs//STM32_USB-Host-Device_Lib_V2.1.0/Libraries/STM32_USB_OTG_Driver/src/usb_core.c ****     hcintmsk.b.xacterr = 1;
 890:../STLibs//STM32_USB-Host-Device_Lib_V2.1.0/Libraries/STM32_USB_OTG_Driver/src/usb_core.c ****     hcintmsk.b.datatglerr = 1;
 891:../STLibs//STM32_USB-Host-Device_Lib_V2.1.0/Libraries/STM32_USB_OTG_Driver/src/usb_core.c ****     hcintmsk.b.nak = 1;  
 892:../STLibs//STM32_USB-Host-Device_Lib_V2.1.0/Libraries/STM32_USB_OTG_Driver/src/usb_core.c ****     if (pdev->host.hc[hc_num].ep_is_in) 
 893:../STLibs//STM32_USB-Host-Device_Lib_V2.1.0/Libraries/STM32_USB_OTG_Driver/src/usb_core.c ****     {
 894:../STLibs//STM32_USB-Host-Device_Lib_V2.1.0/Libraries/STM32_USB_OTG_Driver/src/usb_core.c ****       hcintmsk.b.bblerr = 1;
 895:../STLibs//STM32_USB-Host-Device_Lib_V2.1.0/Libraries/STM32_USB_OTG_Driver/src/usb_core.c ****     } 
 896:../STLibs//STM32_USB-Host-Device_Lib_V2.1.0/Libraries/STM32_USB_OTG_Driver/src/usb_core.c ****     else 
 897:../STLibs//STM32_USB-Host-Device_Lib_V2.1.0/Libraries/STM32_USB_OTG_Driver/src/usb_core.c ****     {
 898:../STLibs//STM32_USB-Host-Device_Lib_V2.1.0/Libraries/STM32_USB_OTG_Driver/src/usb_core.c ****       hcintmsk.b.nyet = 1;
 899:../STLibs//STM32_USB-Host-Device_Lib_V2.1.0/Libraries/STM32_USB_OTG_Driver/src/usb_core.c ****       if (pdev->host.hc[hc_num].do_ping) 
 900:../STLibs//STM32_USB-Host-Device_Lib_V2.1.0/Libraries/STM32_USB_OTG_Driver/src/usb_core.c ****       {
 901:../STLibs//STM32_USB-Host-Device_Lib_V2.1.0/Libraries/STM32_USB_OTG_Driver/src/usb_core.c ****         hcintmsk.b.ack = 1;
 902:../STLibs//STM32_USB-Host-Device_Lib_V2.1.0/Libraries/STM32_USB_OTG_Driver/src/usb_core.c ****       }
 903:../STLibs//STM32_USB-Host-Device_Lib_V2.1.0/Libraries/STM32_USB_OTG_Driver/src/usb_core.c ****     }
 904:../STLibs//STM32_USB-Host-Device_Lib_V2.1.0/Libraries/STM32_USB_OTG_Driver/src/usb_core.c ****     break;
 905:../STLibs//STM32_USB-Host-Device_Lib_V2.1.0/Libraries/STM32_USB_OTG_Driver/src/usb_core.c ****   case EP_TYPE_INTR:
 906:../STLibs//STM32_USB-Host-Device_Lib_V2.1.0/Libraries/STM32_USB_OTG_Driver/src/usb_core.c ****     hcintmsk.b.xfercompl = 1;
 907:../STLibs//STM32_USB-Host-Device_Lib_V2.1.0/Libraries/STM32_USB_OTG_Driver/src/usb_core.c ****     hcintmsk.b.nak = 1;
 908:../STLibs//STM32_USB-Host-Device_Lib_V2.1.0/Libraries/STM32_USB_OTG_Driver/src/usb_core.c ****     hcintmsk.b.stall = 1;
 909:../STLibs//STM32_USB-Host-Device_Lib_V2.1.0/Libraries/STM32_USB_OTG_Driver/src/usb_core.c ****     hcintmsk.b.xacterr = 1;
 910:../STLibs//STM32_USB-Host-Device_Lib_V2.1.0/Libraries/STM32_USB_OTG_Driver/src/usb_core.c ****     hcintmsk.b.datatglerr = 1;
 911:../STLibs//STM32_USB-Host-Device_Lib_V2.1.0/Libraries/STM32_USB_OTG_Driver/src/usb_core.c ****     hcintmsk.b.frmovrun = 1;
 912:../STLibs//STM32_USB-Host-Device_Lib_V2.1.0/Libraries/STM32_USB_OTG_Driver/src/usb_core.c ****     
 913:../STLibs//STM32_USB-Host-Device_Lib_V2.1.0/Libraries/STM32_USB_OTG_Driver/src/usb_core.c ****     if (pdev->host.hc[hc_num].ep_is_in) 
 914:../STLibs//STM32_USB-Host-Device_Lib_V2.1.0/Libraries/STM32_USB_OTG_Driver/src/usb_core.c ****     {
 915:../STLibs//STM32_USB-Host-Device_Lib_V2.1.0/Libraries/STM32_USB_OTG_Driver/src/usb_core.c ****       hcintmsk.b.bblerr = 1;
 916:../STLibs//STM32_USB-Host-Device_Lib_V2.1.0/Libraries/STM32_USB_OTG_Driver/src/usb_core.c ****     }
 917:../STLibs//STM32_USB-Host-Device_Lib_V2.1.0/Libraries/STM32_USB_OTG_Driver/src/usb_core.c ****     
 918:../STLibs//STM32_USB-Host-Device_Lib_V2.1.0/Libraries/STM32_USB_OTG_Driver/src/usb_core.c ****     break;
 919:../STLibs//STM32_USB-Host-Device_Lib_V2.1.0/Libraries/STM32_USB_OTG_Driver/src/usb_core.c ****   case EP_TYPE_ISOC:
 920:../STLibs//STM32_USB-Host-Device_Lib_V2.1.0/Libraries/STM32_USB_OTG_Driver/src/usb_core.c ****     hcintmsk.b.xfercompl = 1;
 921:../STLibs//STM32_USB-Host-Device_Lib_V2.1.0/Libraries/STM32_USB_OTG_Driver/src/usb_core.c ****     hcintmsk.b.frmovrun = 1;
 922:../STLibs//STM32_USB-Host-Device_Lib_V2.1.0/Libraries/STM32_USB_OTG_Driver/src/usb_core.c ****     hcintmsk.b.ack = 1;
 923:../STLibs//STM32_USB-Host-Device_Lib_V2.1.0/Libraries/STM32_USB_OTG_Driver/src/usb_core.c ****     
 924:../STLibs//STM32_USB-Host-Device_Lib_V2.1.0/Libraries/STM32_USB_OTG_Driver/src/usb_core.c ****     if (pdev->host.hc[hc_num].ep_is_in) 
 925:../STLibs//STM32_USB-Host-Device_Lib_V2.1.0/Libraries/STM32_USB_OTG_Driver/src/usb_core.c ****     {
 926:../STLibs//STM32_USB-Host-Device_Lib_V2.1.0/Libraries/STM32_USB_OTG_Driver/src/usb_core.c ****       hcintmsk.b.xacterr = 1;
 927:../STLibs//STM32_USB-Host-Device_Lib_V2.1.0/Libraries/STM32_USB_OTG_Driver/src/usb_core.c ****       hcintmsk.b.bblerr = 1;
 928:../STLibs//STM32_USB-Host-Device_Lib_V2.1.0/Libraries/STM32_USB_OTG_Driver/src/usb_core.c ****     }
 929:../STLibs//STM32_USB-Host-Device_Lib_V2.1.0/Libraries/STM32_USB_OTG_Driver/src/usb_core.c ****     break;
 930:../STLibs//STM32_USB-Host-Device_Lib_V2.1.0/Libraries/STM32_USB_OTG_Driver/src/usb_core.c ****   }
 931:../STLibs//STM32_USB-Host-Device_Lib_V2.1.0/Libraries/STM32_USB_OTG_Driver/src/usb_core.c ****   
 932:../STLibs//STM32_USB-Host-Device_Lib_V2.1.0/Libraries/STM32_USB_OTG_Driver/src/usb_core.c ****   
 933:../STLibs//STM32_USB-Host-Device_Lib_V2.1.0/Libraries/STM32_USB_OTG_Driver/src/usb_core.c ****   USB_OTG_WRITE_REG32(&pdev->regs.HC_REGS[hc_num]->HCINTMSK, hcintmsk.d32);
 934:../STLibs//STM32_USB-Host-Device_Lib_V2.1.0/Libraries/STM32_USB_OTG_Driver/src/usb_core.c ****   
 935:../STLibs//STM32_USB-Host-Device_Lib_V2.1.0/Libraries/STM32_USB_OTG_Driver/src/usb_core.c ****   
 936:../STLibs//STM32_USB-Host-Device_Lib_V2.1.0/Libraries/STM32_USB_OTG_Driver/src/usb_core.c ****   /* Enable the top level host channel interrupt. */
 937:../STLibs//STM32_USB-Host-Device_Lib_V2.1.0/Libraries/STM32_USB_OTG_Driver/src/usb_core.c ****   intr_enable = (1 << hc_num);
 938:../STLibs//STM32_USB-Host-Device_Lib_V2.1.0/Libraries/STM32_USB_OTG_Driver/src/usb_core.c ****   USB_OTG_MODIFY_REG32(&pdev->regs.HREGS->HAINTMSK, 0, intr_enable);
 939:../STLibs//STM32_USB-Host-Device_Lib_V2.1.0/Libraries/STM32_USB_OTG_Driver/src/usb_core.c ****   
 940:../STLibs//STM32_USB-Host-Device_Lib_V2.1.0/Libraries/STM32_USB_OTG_Driver/src/usb_core.c ****   /* Make sure host channel interrupts are enabled. */
 941:../STLibs//STM32_USB-Host-Device_Lib_V2.1.0/Libraries/STM32_USB_OTG_Driver/src/usb_core.c ****   gintmsk.b.hcintr = 1;
 942:../STLibs//STM32_USB-Host-Device_Lib_V2.1.0/Libraries/STM32_USB_OTG_Driver/src/usb_core.c ****   USB_OTG_MODIFY_REG32(&pdev->regs.GREGS->GINTMSK, 0, gintmsk.d32);
 943:../STLibs//STM32_USB-Host-Device_Lib_V2.1.0/Libraries/STM32_USB_OTG_Driver/src/usb_core.c ****   
 944:../STLibs//STM32_USB-Host-Device_Lib_V2.1.0/Libraries/STM32_USB_OTG_Driver/src/usb_core.c ****   /* Program the HCCHAR register */
 945:../STLibs//STM32_USB-Host-Device_Lib_V2.1.0/Libraries/STM32_USB_OTG_Driver/src/usb_core.c ****   hcchar.d32 = 0;
 946:../STLibs//STM32_USB-Host-Device_Lib_V2.1.0/Libraries/STM32_USB_OTG_Driver/src/usb_core.c ****   hcchar.b.devaddr = pdev->host.hc[hc_num].dev_addr;
 947:../STLibs//STM32_USB-Host-Device_Lib_V2.1.0/Libraries/STM32_USB_OTG_Driver/src/usb_core.c ****   hcchar.b.epnum   = pdev->host.hc[hc_num].ep_num;
 948:../STLibs//STM32_USB-Host-Device_Lib_V2.1.0/Libraries/STM32_USB_OTG_Driver/src/usb_core.c ****   hcchar.b.epdir   = pdev->host.hc[hc_num].ep_is_in;
 949:../STLibs//STM32_USB-Host-Device_Lib_V2.1.0/Libraries/STM32_USB_OTG_Driver/src/usb_core.c ****   hcchar.b.lspddev = (pdev->host.hc[hc_num].speed == HPRT0_PRTSPD_LOW_SPEED);
 950:../STLibs//STM32_USB-Host-Device_Lib_V2.1.0/Libraries/STM32_USB_OTG_Driver/src/usb_core.c ****   hcchar.b.eptype  = pdev->host.hc[hc_num].ep_type;
 951:../STLibs//STM32_USB-Host-Device_Lib_V2.1.0/Libraries/STM32_USB_OTG_Driver/src/usb_core.c ****   hcchar.b.mps     = pdev->host.hc[hc_num].max_packet;
 952:../STLibs//STM32_USB-Host-Device_Lib_V2.1.0/Libraries/STM32_USB_OTG_Driver/src/usb_core.c ****   if (pdev->host.hc[hc_num].ep_type == HCCHAR_INTR)
 953:../STLibs//STM32_USB-Host-Device_Lib_V2.1.0/Libraries/STM32_USB_OTG_Driver/src/usb_core.c ****   {
 954:../STLibs//STM32_USB-Host-Device_Lib_V2.1.0/Libraries/STM32_USB_OTG_Driver/src/usb_core.c ****     hcchar.b.oddfrm  = 1;
 955:../STLibs//STM32_USB-Host-Device_Lib_V2.1.0/Libraries/STM32_USB_OTG_Driver/src/usb_core.c ****   }
 956:../STLibs//STM32_USB-Host-Device_Lib_V2.1.0/Libraries/STM32_USB_OTG_Driver/src/usb_core.c ****   USB_OTG_WRITE_REG32(&pdev->regs.HC_REGS[hc_num]->HCCHAR, hcchar.d32);
 957:../STLibs//STM32_USB-Host-Device_Lib_V2.1.0/Libraries/STM32_USB_OTG_Driver/src/usb_core.c ****   return status;
 958:../STLibs//STM32_USB-Host-Device_Lib_V2.1.0/Libraries/STM32_USB_OTG_Driver/src/usb_core.c **** }
 959:../STLibs//STM32_USB-Host-Device_Lib_V2.1.0/Libraries/STM32_USB_OTG_Driver/src/usb_core.c **** 
 960:../STLibs//STM32_USB-Host-Device_Lib_V2.1.0/Libraries/STM32_USB_OTG_Driver/src/usb_core.c **** 
 961:../STLibs//STM32_USB-Host-Device_Lib_V2.1.0/Libraries/STM32_USB_OTG_Driver/src/usb_core.c **** /**
 962:../STLibs//STM32_USB-Host-Device_Lib_V2.1.0/Libraries/STM32_USB_OTG_Driver/src/usb_core.c **** * @brief  USB_OTG_HC_StartXfer : Start transfer
 963:../STLibs//STM32_USB-Host-Device_Lib_V2.1.0/Libraries/STM32_USB_OTG_Driver/src/usb_core.c **** * @param  pdev : Selected device
 964:../STLibs//STM32_USB-Host-Device_Lib_V2.1.0/Libraries/STM32_USB_OTG_Driver/src/usb_core.c **** * @param  hc_num : channel number
 965:../STLibs//STM32_USB-Host-Device_Lib_V2.1.0/Libraries/STM32_USB_OTG_Driver/src/usb_core.c **** * @retval USB_OTG_STS : status
 966:../STLibs//STM32_USB-Host-Device_Lib_V2.1.0/Libraries/STM32_USB_OTG_Driver/src/usb_core.c **** */
 967:../STLibs//STM32_USB-Host-Device_Lib_V2.1.0/Libraries/STM32_USB_OTG_Driver/src/usb_core.c **** USB_OTG_STS USB_OTG_HC_StartXfer(USB_OTG_CORE_HANDLE *pdev , uint8_t hc_num)
 968:../STLibs//STM32_USB-Host-Device_Lib_V2.1.0/Libraries/STM32_USB_OTG_Driver/src/usb_core.c **** {
 969:../STLibs//STM32_USB-Host-Device_Lib_V2.1.0/Libraries/STM32_USB_OTG_Driver/src/usb_core.c ****   USB_OTG_STS status = USB_OTG_OK;
 970:../STLibs//STM32_USB-Host-Device_Lib_V2.1.0/Libraries/STM32_USB_OTG_Driver/src/usb_core.c ****   USB_OTG_HCCHAR_TypeDef   hcchar;
 971:../STLibs//STM32_USB-Host-Device_Lib_V2.1.0/Libraries/STM32_USB_OTG_Driver/src/usb_core.c ****   USB_OTG_HCTSIZn_TypeDef  hctsiz;
 972:../STLibs//STM32_USB-Host-Device_Lib_V2.1.0/Libraries/STM32_USB_OTG_Driver/src/usb_core.c ****   USB_OTG_HNPTXSTS_TypeDef hnptxsts; 
 973:../STLibs//STM32_USB-Host-Device_Lib_V2.1.0/Libraries/STM32_USB_OTG_Driver/src/usb_core.c ****   USB_OTG_HPTXSTS_TypeDef  hptxsts; 
 974:../STLibs//STM32_USB-Host-Device_Lib_V2.1.0/Libraries/STM32_USB_OTG_Driver/src/usb_core.c ****   USB_OTG_GINTMSK_TypeDef  intmsk;
 975:../STLibs//STM32_USB-Host-Device_Lib_V2.1.0/Libraries/STM32_USB_OTG_Driver/src/usb_core.c ****   uint16_t                 len_words = 0;   
 976:../STLibs//STM32_USB-Host-Device_Lib_V2.1.0/Libraries/STM32_USB_OTG_Driver/src/usb_core.c ****   
 977:../STLibs//STM32_USB-Host-Device_Lib_V2.1.0/Libraries/STM32_USB_OTG_Driver/src/usb_core.c ****   uint16_t num_packets;
 978:../STLibs//STM32_USB-Host-Device_Lib_V2.1.0/Libraries/STM32_USB_OTG_Driver/src/usb_core.c ****   uint16_t max_hc_pkt_count;
 979:../STLibs//STM32_USB-Host-Device_Lib_V2.1.0/Libraries/STM32_USB_OTG_Driver/src/usb_core.c ****   
 980:../STLibs//STM32_USB-Host-Device_Lib_V2.1.0/Libraries/STM32_USB_OTG_Driver/src/usb_core.c ****   max_hc_pkt_count = 256;
 981:../STLibs//STM32_USB-Host-Device_Lib_V2.1.0/Libraries/STM32_USB_OTG_Driver/src/usb_core.c ****   hctsiz.d32 = 0;
 982:../STLibs//STM32_USB-Host-Device_Lib_V2.1.0/Libraries/STM32_USB_OTG_Driver/src/usb_core.c ****   hcchar.d32 = 0;
 983:../STLibs//STM32_USB-Host-Device_Lib_V2.1.0/Libraries/STM32_USB_OTG_Driver/src/usb_core.c ****   intmsk.d32 = 0;
 984:../STLibs//STM32_USB-Host-Device_Lib_V2.1.0/Libraries/STM32_USB_OTG_Driver/src/usb_core.c ****   
 985:../STLibs//STM32_USB-Host-Device_Lib_V2.1.0/Libraries/STM32_USB_OTG_Driver/src/usb_core.c ****   /* Compute the expected number of packets associated to the transfer */
 986:../STLibs//STM32_USB-Host-Device_Lib_V2.1.0/Libraries/STM32_USB_OTG_Driver/src/usb_core.c ****   if (pdev->host.hc[hc_num].xfer_len > 0)
 987:../STLibs//STM32_USB-Host-Device_Lib_V2.1.0/Libraries/STM32_USB_OTG_Driver/src/usb_core.c ****   {
 988:../STLibs//STM32_USB-Host-Device_Lib_V2.1.0/Libraries/STM32_USB_OTG_Driver/src/usb_core.c ****     num_packets = (pdev->host.hc[hc_num].xfer_len + \
 989:../STLibs//STM32_USB-Host-Device_Lib_V2.1.0/Libraries/STM32_USB_OTG_Driver/src/usb_core.c ****       pdev->host.hc[hc_num].max_packet - 1) / pdev->host.hc[hc_num].max_packet;
 990:../STLibs//STM32_USB-Host-Device_Lib_V2.1.0/Libraries/STM32_USB_OTG_Driver/src/usb_core.c ****     
 991:../STLibs//STM32_USB-Host-Device_Lib_V2.1.0/Libraries/STM32_USB_OTG_Driver/src/usb_core.c ****     if (num_packets > max_hc_pkt_count)
 992:../STLibs//STM32_USB-Host-Device_Lib_V2.1.0/Libraries/STM32_USB_OTG_Driver/src/usb_core.c ****     {
 993:../STLibs//STM32_USB-Host-Device_Lib_V2.1.0/Libraries/STM32_USB_OTG_Driver/src/usb_core.c ****       num_packets = max_hc_pkt_count;
 994:../STLibs//STM32_USB-Host-Device_Lib_V2.1.0/Libraries/STM32_USB_OTG_Driver/src/usb_core.c ****       pdev->host.hc[hc_num].xfer_len = num_packets * \
 995:../STLibs//STM32_USB-Host-Device_Lib_V2.1.0/Libraries/STM32_USB_OTG_Driver/src/usb_core.c ****         pdev->host.hc[hc_num].max_packet;
 996:../STLibs//STM32_USB-Host-Device_Lib_V2.1.0/Libraries/STM32_USB_OTG_Driver/src/usb_core.c ****     }
 997:../STLibs//STM32_USB-Host-Device_Lib_V2.1.0/Libraries/STM32_USB_OTG_Driver/src/usb_core.c ****   }
 998:../STLibs//STM32_USB-Host-Device_Lib_V2.1.0/Libraries/STM32_USB_OTG_Driver/src/usb_core.c ****   else
 999:../STLibs//STM32_USB-Host-Device_Lib_V2.1.0/Libraries/STM32_USB_OTG_Driver/src/usb_core.c ****   {
1000:../STLibs//STM32_USB-Host-Device_Lib_V2.1.0/Libraries/STM32_USB_OTG_Driver/src/usb_core.c ****     num_packets = 1;
1001:../STLibs//STM32_USB-Host-Device_Lib_V2.1.0/Libraries/STM32_USB_OTG_Driver/src/usb_core.c ****   }
1002:../STLibs//STM32_USB-Host-Device_Lib_V2.1.0/Libraries/STM32_USB_OTG_Driver/src/usb_core.c ****   if (pdev->host.hc[hc_num].ep_is_in)
1003:../STLibs//STM32_USB-Host-Device_Lib_V2.1.0/Libraries/STM32_USB_OTG_Driver/src/usb_core.c ****   {
1004:../STLibs//STM32_USB-Host-Device_Lib_V2.1.0/Libraries/STM32_USB_OTG_Driver/src/usb_core.c ****     pdev->host.hc[hc_num].xfer_len = num_packets * \
1005:../STLibs//STM32_USB-Host-Device_Lib_V2.1.0/Libraries/STM32_USB_OTG_Driver/src/usb_core.c ****       pdev->host.hc[hc_num].max_packet;
1006:../STLibs//STM32_USB-Host-Device_Lib_V2.1.0/Libraries/STM32_USB_OTG_Driver/src/usb_core.c ****   }
1007:../STLibs//STM32_USB-Host-Device_Lib_V2.1.0/Libraries/STM32_USB_OTG_Driver/src/usb_core.c ****   /* Initialize the HCTSIZn register */
1008:../STLibs//STM32_USB-Host-Device_Lib_V2.1.0/Libraries/STM32_USB_OTG_Driver/src/usb_core.c ****   hctsiz.b.xfersize = pdev->host.hc[hc_num].xfer_len;
1009:../STLibs//STM32_USB-Host-Device_Lib_V2.1.0/Libraries/STM32_USB_OTG_Driver/src/usb_core.c ****   hctsiz.b.pktcnt = num_packets;
1010:../STLibs//STM32_USB-Host-Device_Lib_V2.1.0/Libraries/STM32_USB_OTG_Driver/src/usb_core.c ****   hctsiz.b.pid = pdev->host.hc[hc_num].data_pid;
1011:../STLibs//STM32_USB-Host-Device_Lib_V2.1.0/Libraries/STM32_USB_OTG_Driver/src/usb_core.c ****   USB_OTG_WRITE_REG32(&pdev->regs.HC_REGS[hc_num]->HCTSIZ, hctsiz.d32);
1012:../STLibs//STM32_USB-Host-Device_Lib_V2.1.0/Libraries/STM32_USB_OTG_Driver/src/usb_core.c ****   
1013:../STLibs//STM32_USB-Host-Device_Lib_V2.1.0/Libraries/STM32_USB_OTG_Driver/src/usb_core.c ****   if (pdev->cfg.dma_enable == 1)
1014:../STLibs//STM32_USB-Host-Device_Lib_V2.1.0/Libraries/STM32_USB_OTG_Driver/src/usb_core.c ****   {
1015:../STLibs//STM32_USB-Host-Device_Lib_V2.1.0/Libraries/STM32_USB_OTG_Driver/src/usb_core.c ****     USB_OTG_WRITE_REG32(&pdev->regs.HC_REGS[hc_num]->HCDMA, (unsigned int)pdev->host.hc[hc_num].xfe
1016:../STLibs//STM32_USB-Host-Device_Lib_V2.1.0/Libraries/STM32_USB_OTG_Driver/src/usb_core.c ****   }
1017:../STLibs//STM32_USB-Host-Device_Lib_V2.1.0/Libraries/STM32_USB_OTG_Driver/src/usb_core.c ****   
1018:../STLibs//STM32_USB-Host-Device_Lib_V2.1.0/Libraries/STM32_USB_OTG_Driver/src/usb_core.c ****   
1019:../STLibs//STM32_USB-Host-Device_Lib_V2.1.0/Libraries/STM32_USB_OTG_Driver/src/usb_core.c ****   hcchar.d32 = USB_OTG_READ_REG32(&pdev->regs.HC_REGS[hc_num]->HCCHAR);
1020:../STLibs//STM32_USB-Host-Device_Lib_V2.1.0/Libraries/STM32_USB_OTG_Driver/src/usb_core.c ****   hcchar.b.oddfrm = USB_OTG_IsEvenFrame(pdev);
1021:../STLibs//STM32_USB-Host-Device_Lib_V2.1.0/Libraries/STM32_USB_OTG_Driver/src/usb_core.c ****   
1022:../STLibs//STM32_USB-Host-Device_Lib_V2.1.0/Libraries/STM32_USB_OTG_Driver/src/usb_core.c ****   /* Set host channel enable */
1023:../STLibs//STM32_USB-Host-Device_Lib_V2.1.0/Libraries/STM32_USB_OTG_Driver/src/usb_core.c ****   hcchar.b.chen = 1;
1024:../STLibs//STM32_USB-Host-Device_Lib_V2.1.0/Libraries/STM32_USB_OTG_Driver/src/usb_core.c ****   hcchar.b.chdis = 0;
1025:../STLibs//STM32_USB-Host-Device_Lib_V2.1.0/Libraries/STM32_USB_OTG_Driver/src/usb_core.c ****   USB_OTG_WRITE_REG32(&pdev->regs.HC_REGS[hc_num]->HCCHAR, hcchar.d32);
1026:../STLibs//STM32_USB-Host-Device_Lib_V2.1.0/Libraries/STM32_USB_OTG_Driver/src/usb_core.c ****   
1027:../STLibs//STM32_USB-Host-Device_Lib_V2.1.0/Libraries/STM32_USB_OTG_Driver/src/usb_core.c ****   if (pdev->cfg.dma_enable == 0) /* Slave mode */
1028:../STLibs//STM32_USB-Host-Device_Lib_V2.1.0/Libraries/STM32_USB_OTG_Driver/src/usb_core.c ****   {  
1029:../STLibs//STM32_USB-Host-Device_Lib_V2.1.0/Libraries/STM32_USB_OTG_Driver/src/usb_core.c ****     if((pdev->host.hc[hc_num].ep_is_in == 0) && 
1030:../STLibs//STM32_USB-Host-Device_Lib_V2.1.0/Libraries/STM32_USB_OTG_Driver/src/usb_core.c ****        (pdev->host.hc[hc_num].xfer_len > 0))
1031:../STLibs//STM32_USB-Host-Device_Lib_V2.1.0/Libraries/STM32_USB_OTG_Driver/src/usb_core.c ****     {
1032:../STLibs//STM32_USB-Host-Device_Lib_V2.1.0/Libraries/STM32_USB_OTG_Driver/src/usb_core.c ****       switch(pdev->host.hc[hc_num].ep_type) 
1033:../STLibs//STM32_USB-Host-Device_Lib_V2.1.0/Libraries/STM32_USB_OTG_Driver/src/usb_core.c ****       {
1034:../STLibs//STM32_USB-Host-Device_Lib_V2.1.0/Libraries/STM32_USB_OTG_Driver/src/usb_core.c ****         /* Non periodic transfer */
1035:../STLibs//STM32_USB-Host-Device_Lib_V2.1.0/Libraries/STM32_USB_OTG_Driver/src/usb_core.c ****       case EP_TYPE_CTRL:
1036:../STLibs//STM32_USB-Host-Device_Lib_V2.1.0/Libraries/STM32_USB_OTG_Driver/src/usb_core.c ****       case EP_TYPE_BULK:
1037:../STLibs//STM32_USB-Host-Device_Lib_V2.1.0/Libraries/STM32_USB_OTG_Driver/src/usb_core.c ****         
1038:../STLibs//STM32_USB-Host-Device_Lib_V2.1.0/Libraries/STM32_USB_OTG_Driver/src/usb_core.c ****         hnptxsts.d32 = USB_OTG_READ_REG32(&pdev->regs.GREGS->HNPTXSTS);
1039:../STLibs//STM32_USB-Host-Device_Lib_V2.1.0/Libraries/STM32_USB_OTG_Driver/src/usb_core.c ****         len_words = (pdev->host.hc[hc_num].xfer_len + 3) / 4;
1040:../STLibs//STM32_USB-Host-Device_Lib_V2.1.0/Libraries/STM32_USB_OTG_Driver/src/usb_core.c ****         
1041:../STLibs//STM32_USB-Host-Device_Lib_V2.1.0/Libraries/STM32_USB_OTG_Driver/src/usb_core.c ****         /* check if there is enough space in FIFO space */
1042:../STLibs//STM32_USB-Host-Device_Lib_V2.1.0/Libraries/STM32_USB_OTG_Driver/src/usb_core.c ****         if(len_words > hnptxsts.b.nptxfspcavail)
1043:../STLibs//STM32_USB-Host-Device_Lib_V2.1.0/Libraries/STM32_USB_OTG_Driver/src/usb_core.c ****         {
1044:../STLibs//STM32_USB-Host-Device_Lib_V2.1.0/Libraries/STM32_USB_OTG_Driver/src/usb_core.c ****           /* need to process data in nptxfempty interrupt */
1045:../STLibs//STM32_USB-Host-Device_Lib_V2.1.0/Libraries/STM32_USB_OTG_Driver/src/usb_core.c ****           intmsk.b.nptxfempty = 1;
1046:../STLibs//STM32_USB-Host-Device_Lib_V2.1.0/Libraries/STM32_USB_OTG_Driver/src/usb_core.c ****           USB_OTG_MODIFY_REG32( &pdev->regs.GREGS->GINTMSK, 0, intmsk.d32);  
1047:../STLibs//STM32_USB-Host-Device_Lib_V2.1.0/Libraries/STM32_USB_OTG_Driver/src/usb_core.c ****         }
1048:../STLibs//STM32_USB-Host-Device_Lib_V2.1.0/Libraries/STM32_USB_OTG_Driver/src/usb_core.c ****         
1049:../STLibs//STM32_USB-Host-Device_Lib_V2.1.0/Libraries/STM32_USB_OTG_Driver/src/usb_core.c ****         break;
1050:../STLibs//STM32_USB-Host-Device_Lib_V2.1.0/Libraries/STM32_USB_OTG_Driver/src/usb_core.c ****         /* Periodic transfer */
1051:../STLibs//STM32_USB-Host-Device_Lib_V2.1.0/Libraries/STM32_USB_OTG_Driver/src/usb_core.c ****       case EP_TYPE_INTR:
1052:../STLibs//STM32_USB-Host-Device_Lib_V2.1.0/Libraries/STM32_USB_OTG_Driver/src/usb_core.c ****       case EP_TYPE_ISOC:
1053:../STLibs//STM32_USB-Host-Device_Lib_V2.1.0/Libraries/STM32_USB_OTG_Driver/src/usb_core.c ****         hptxsts.d32 = USB_OTG_READ_REG32(&pdev->regs.HREGS->HPTXSTS);
1054:../STLibs//STM32_USB-Host-Device_Lib_V2.1.0/Libraries/STM32_USB_OTG_Driver/src/usb_core.c ****         len_words = (pdev->host.hc[hc_num].xfer_len + 3) / 4;
1055:../STLibs//STM32_USB-Host-Device_Lib_V2.1.0/Libraries/STM32_USB_OTG_Driver/src/usb_core.c ****         /* check if there is enough space in FIFO space */
1056:../STLibs//STM32_USB-Host-Device_Lib_V2.1.0/Libraries/STM32_USB_OTG_Driver/src/usb_core.c ****         if(len_words > hptxsts.b.ptxfspcavail) /* split the transfer */
1057:../STLibs//STM32_USB-Host-Device_Lib_V2.1.0/Libraries/STM32_USB_OTG_Driver/src/usb_core.c ****         {
1058:../STLibs//STM32_USB-Host-Device_Lib_V2.1.0/Libraries/STM32_USB_OTG_Driver/src/usb_core.c ****           /* need to process data in ptxfempty interrupt */
1059:../STLibs//STM32_USB-Host-Device_Lib_V2.1.0/Libraries/STM32_USB_OTG_Driver/src/usb_core.c ****           intmsk.b.ptxfempty = 1;
1060:../STLibs//STM32_USB-Host-Device_Lib_V2.1.0/Libraries/STM32_USB_OTG_Driver/src/usb_core.c ****           USB_OTG_MODIFY_REG32( &pdev->regs.GREGS->GINTMSK, 0, intmsk.d32);  
1061:../STLibs//STM32_USB-Host-Device_Lib_V2.1.0/Libraries/STM32_USB_OTG_Driver/src/usb_core.c ****         }
1062:../STLibs//STM32_USB-Host-Device_Lib_V2.1.0/Libraries/STM32_USB_OTG_Driver/src/usb_core.c ****         break;
1063:../STLibs//STM32_USB-Host-Device_Lib_V2.1.0/Libraries/STM32_USB_OTG_Driver/src/usb_core.c ****         
1064:../STLibs//STM32_USB-Host-Device_Lib_V2.1.0/Libraries/STM32_USB_OTG_Driver/src/usb_core.c ****       default:
1065:../STLibs//STM32_USB-Host-Device_Lib_V2.1.0/Libraries/STM32_USB_OTG_Driver/src/usb_core.c ****         break;
1066:../STLibs//STM32_USB-Host-Device_Lib_V2.1.0/Libraries/STM32_USB_OTG_Driver/src/usb_core.c ****       }
1067:../STLibs//STM32_USB-Host-Device_Lib_V2.1.0/Libraries/STM32_USB_OTG_Driver/src/usb_core.c ****       
1068:../STLibs//STM32_USB-Host-Device_Lib_V2.1.0/Libraries/STM32_USB_OTG_Driver/src/usb_core.c ****       /* Write packet into the Tx FIFO. */
1069:../STLibs//STM32_USB-Host-Device_Lib_V2.1.0/Libraries/STM32_USB_OTG_Driver/src/usb_core.c ****       USB_OTG_WritePacket(pdev, 
1070:../STLibs//STM32_USB-Host-Device_Lib_V2.1.0/Libraries/STM32_USB_OTG_Driver/src/usb_core.c ****                           pdev->host.hc[hc_num].xfer_buff , 
1071:../STLibs//STM32_USB-Host-Device_Lib_V2.1.0/Libraries/STM32_USB_OTG_Driver/src/usb_core.c ****                           hc_num, pdev->host.hc[hc_num].xfer_len);
1072:../STLibs//STM32_USB-Host-Device_Lib_V2.1.0/Libraries/STM32_USB_OTG_Driver/src/usb_core.c ****     }
1073:../STLibs//STM32_USB-Host-Device_Lib_V2.1.0/Libraries/STM32_USB_OTG_Driver/src/usb_core.c ****   }
1074:../STLibs//STM32_USB-Host-Device_Lib_V2.1.0/Libraries/STM32_USB_OTG_Driver/src/usb_core.c ****   return status;
1075:../STLibs//STM32_USB-Host-Device_Lib_V2.1.0/Libraries/STM32_USB_OTG_Driver/src/usb_core.c **** }
1076:../STLibs//STM32_USB-Host-Device_Lib_V2.1.0/Libraries/STM32_USB_OTG_Driver/src/usb_core.c **** 
1077:../STLibs//STM32_USB-Host-Device_Lib_V2.1.0/Libraries/STM32_USB_OTG_Driver/src/usb_core.c **** 
1078:../STLibs//STM32_USB-Host-Device_Lib_V2.1.0/Libraries/STM32_USB_OTG_Driver/src/usb_core.c **** /**
1079:../STLibs//STM32_USB-Host-Device_Lib_V2.1.0/Libraries/STM32_USB_OTG_Driver/src/usb_core.c **** * @brief  USB_OTG_HC_Halt : Halt channel
1080:../STLibs//STM32_USB-Host-Device_Lib_V2.1.0/Libraries/STM32_USB_OTG_Driver/src/usb_core.c **** * @param  pdev : Selected device
1081:../STLibs//STM32_USB-Host-Device_Lib_V2.1.0/Libraries/STM32_USB_OTG_Driver/src/usb_core.c **** * @param  hc_num : channel number
1082:../STLibs//STM32_USB-Host-Device_Lib_V2.1.0/Libraries/STM32_USB_OTG_Driver/src/usb_core.c **** * @retval USB_OTG_STS : status
1083:../STLibs//STM32_USB-Host-Device_Lib_V2.1.0/Libraries/STM32_USB_OTG_Driver/src/usb_core.c **** */
1084:../STLibs//STM32_USB-Host-Device_Lib_V2.1.0/Libraries/STM32_USB_OTG_Driver/src/usb_core.c **** USB_OTG_STS USB_OTG_HC_Halt(USB_OTG_CORE_HANDLE *pdev , uint8_t hc_num)
1085:../STLibs//STM32_USB-Host-Device_Lib_V2.1.0/Libraries/STM32_USB_OTG_Driver/src/usb_core.c **** {
1086:../STLibs//STM32_USB-Host-Device_Lib_V2.1.0/Libraries/STM32_USB_OTG_Driver/src/usb_core.c ****   USB_OTG_STS status = USB_OTG_OK;
1087:../STLibs//STM32_USB-Host-Device_Lib_V2.1.0/Libraries/STM32_USB_OTG_Driver/src/usb_core.c ****   USB_OTG_HNPTXSTS_TypeDef            nptxsts;
1088:../STLibs//STM32_USB-Host-Device_Lib_V2.1.0/Libraries/STM32_USB_OTG_Driver/src/usb_core.c ****   USB_OTG_HPTXSTS_TypeDef             hptxsts;
1089:../STLibs//STM32_USB-Host-Device_Lib_V2.1.0/Libraries/STM32_USB_OTG_Driver/src/usb_core.c ****   USB_OTG_HCCHAR_TypeDef              hcchar;
1090:../STLibs//STM32_USB-Host-Device_Lib_V2.1.0/Libraries/STM32_USB_OTG_Driver/src/usb_core.c ****   
1091:../STLibs//STM32_USB-Host-Device_Lib_V2.1.0/Libraries/STM32_USB_OTG_Driver/src/usb_core.c ****   nptxsts.d32 = 0;
1092:../STLibs//STM32_USB-Host-Device_Lib_V2.1.0/Libraries/STM32_USB_OTG_Driver/src/usb_core.c ****   hptxsts.d32 = 0;
1093:../STLibs//STM32_USB-Host-Device_Lib_V2.1.0/Libraries/STM32_USB_OTG_Driver/src/usb_core.c ****   hcchar.d32 = USB_OTG_READ_REG32(&pdev->regs.HC_REGS[hc_num]->HCCHAR);
1094:../STLibs//STM32_USB-Host-Device_Lib_V2.1.0/Libraries/STM32_USB_OTG_Driver/src/usb_core.c ****   hcchar.b.chen = 1;
1095:../STLibs//STM32_USB-Host-Device_Lib_V2.1.0/Libraries/STM32_USB_OTG_Driver/src/usb_core.c ****   hcchar.b.chdis = 1;
1096:../STLibs//STM32_USB-Host-Device_Lib_V2.1.0/Libraries/STM32_USB_OTG_Driver/src/usb_core.c ****   
1097:../STLibs//STM32_USB-Host-Device_Lib_V2.1.0/Libraries/STM32_USB_OTG_Driver/src/usb_core.c ****   /* Check for space in the request queue to issue the halt. */
1098:../STLibs//STM32_USB-Host-Device_Lib_V2.1.0/Libraries/STM32_USB_OTG_Driver/src/usb_core.c ****   if (hcchar.b.eptype == HCCHAR_CTRL || hcchar.b.eptype == HCCHAR_BULK)
1099:../STLibs//STM32_USB-Host-Device_Lib_V2.1.0/Libraries/STM32_USB_OTG_Driver/src/usb_core.c ****   {
1100:../STLibs//STM32_USB-Host-Device_Lib_V2.1.0/Libraries/STM32_USB_OTG_Driver/src/usb_core.c ****     nptxsts.d32 = USB_OTG_READ_REG32(&pdev->regs.GREGS->HNPTXSTS);
1101:../STLibs//STM32_USB-Host-Device_Lib_V2.1.0/Libraries/STM32_USB_OTG_Driver/src/usb_core.c ****     if (nptxsts.b.nptxqspcavail == 0)
1102:../STLibs//STM32_USB-Host-Device_Lib_V2.1.0/Libraries/STM32_USB_OTG_Driver/src/usb_core.c ****     {
1103:../STLibs//STM32_USB-Host-Device_Lib_V2.1.0/Libraries/STM32_USB_OTG_Driver/src/usb_core.c ****       hcchar.b.chen = 0;
1104:../STLibs//STM32_USB-Host-Device_Lib_V2.1.0/Libraries/STM32_USB_OTG_Driver/src/usb_core.c ****     }
1105:../STLibs//STM32_USB-Host-Device_Lib_V2.1.0/Libraries/STM32_USB_OTG_Driver/src/usb_core.c ****   }
1106:../STLibs//STM32_USB-Host-Device_Lib_V2.1.0/Libraries/STM32_USB_OTG_Driver/src/usb_core.c ****   else
1107:../STLibs//STM32_USB-Host-Device_Lib_V2.1.0/Libraries/STM32_USB_OTG_Driver/src/usb_core.c ****   {
1108:../STLibs//STM32_USB-Host-Device_Lib_V2.1.0/Libraries/STM32_USB_OTG_Driver/src/usb_core.c ****     hptxsts.d32 = USB_OTG_READ_REG32(&pdev->regs.HREGS->HPTXSTS);
1109:../STLibs//STM32_USB-Host-Device_Lib_V2.1.0/Libraries/STM32_USB_OTG_Driver/src/usb_core.c ****     if (hptxsts.b.ptxqspcavail == 0)
1110:../STLibs//STM32_USB-Host-Device_Lib_V2.1.0/Libraries/STM32_USB_OTG_Driver/src/usb_core.c ****     {
1111:../STLibs//STM32_USB-Host-Device_Lib_V2.1.0/Libraries/STM32_USB_OTG_Driver/src/usb_core.c ****       hcchar.b.chen = 0;
1112:../STLibs//STM32_USB-Host-Device_Lib_V2.1.0/Libraries/STM32_USB_OTG_Driver/src/usb_core.c ****     }
1113:../STLibs//STM32_USB-Host-Device_Lib_V2.1.0/Libraries/STM32_USB_OTG_Driver/src/usb_core.c ****   }
1114:../STLibs//STM32_USB-Host-Device_Lib_V2.1.0/Libraries/STM32_USB_OTG_Driver/src/usb_core.c ****   USB_OTG_WRITE_REG32(&pdev->regs.HC_REGS[hc_num]->HCCHAR, hcchar.d32);
1115:../STLibs//STM32_USB-Host-Device_Lib_V2.1.0/Libraries/STM32_USB_OTG_Driver/src/usb_core.c ****   return status;
1116:../STLibs//STM32_USB-Host-Device_Lib_V2.1.0/Libraries/STM32_USB_OTG_Driver/src/usb_core.c **** }
1117:../STLibs//STM32_USB-Host-Device_Lib_V2.1.0/Libraries/STM32_USB_OTG_Driver/src/usb_core.c **** 
1118:../STLibs//STM32_USB-Host-Device_Lib_V2.1.0/Libraries/STM32_USB_OTG_Driver/src/usb_core.c **** /**
1119:../STLibs//STM32_USB-Host-Device_Lib_V2.1.0/Libraries/STM32_USB_OTG_Driver/src/usb_core.c **** * @brief  Issue a ping token
1120:../STLibs//STM32_USB-Host-Device_Lib_V2.1.0/Libraries/STM32_USB_OTG_Driver/src/usb_core.c **** * @param  None
1121:../STLibs//STM32_USB-Host-Device_Lib_V2.1.0/Libraries/STM32_USB_OTG_Driver/src/usb_core.c **** * @retval : None
1122:../STLibs//STM32_USB-Host-Device_Lib_V2.1.0/Libraries/STM32_USB_OTG_Driver/src/usb_core.c **** */
1123:../STLibs//STM32_USB-Host-Device_Lib_V2.1.0/Libraries/STM32_USB_OTG_Driver/src/usb_core.c **** USB_OTG_STS USB_OTG_HC_DoPing(USB_OTG_CORE_HANDLE *pdev , uint8_t hc_num)
1124:../STLibs//STM32_USB-Host-Device_Lib_V2.1.0/Libraries/STM32_USB_OTG_Driver/src/usb_core.c **** {
1125:../STLibs//STM32_USB-Host-Device_Lib_V2.1.0/Libraries/STM32_USB_OTG_Driver/src/usb_core.c ****   USB_OTG_STS               status = USB_OTG_OK;
1126:../STLibs//STM32_USB-Host-Device_Lib_V2.1.0/Libraries/STM32_USB_OTG_Driver/src/usb_core.c ****   USB_OTG_HCCHAR_TypeDef    hcchar;
1127:../STLibs//STM32_USB-Host-Device_Lib_V2.1.0/Libraries/STM32_USB_OTG_Driver/src/usb_core.c ****   USB_OTG_HCTSIZn_TypeDef   hctsiz;  
1128:../STLibs//STM32_USB-Host-Device_Lib_V2.1.0/Libraries/STM32_USB_OTG_Driver/src/usb_core.c ****   
1129:../STLibs//STM32_USB-Host-Device_Lib_V2.1.0/Libraries/STM32_USB_OTG_Driver/src/usb_core.c ****   hctsiz.d32 = 0;
1130:../STLibs//STM32_USB-Host-Device_Lib_V2.1.0/Libraries/STM32_USB_OTG_Driver/src/usb_core.c ****   hctsiz.b.dopng = 1;
1131:../STLibs//STM32_USB-Host-Device_Lib_V2.1.0/Libraries/STM32_USB_OTG_Driver/src/usb_core.c ****   hctsiz.b.pktcnt = 1;
1132:../STLibs//STM32_USB-Host-Device_Lib_V2.1.0/Libraries/STM32_USB_OTG_Driver/src/usb_core.c ****   USB_OTG_WRITE_REG32(&pdev->regs.HC_REGS[hc_num]->HCTSIZ, hctsiz.d32);
1133:../STLibs//STM32_USB-Host-Device_Lib_V2.1.0/Libraries/STM32_USB_OTG_Driver/src/usb_core.c ****   
1134:../STLibs//STM32_USB-Host-Device_Lib_V2.1.0/Libraries/STM32_USB_OTG_Driver/src/usb_core.c ****   hcchar.d32 = USB_OTG_READ_REG32(&pdev->regs.HC_REGS[hc_num]->HCCHAR);
1135:../STLibs//STM32_USB-Host-Device_Lib_V2.1.0/Libraries/STM32_USB_OTG_Driver/src/usb_core.c ****   hcchar.b.chen = 1;
1136:../STLibs//STM32_USB-Host-Device_Lib_V2.1.0/Libraries/STM32_USB_OTG_Driver/src/usb_core.c ****   hcchar.b.chdis = 0;
1137:../STLibs//STM32_USB-Host-Device_Lib_V2.1.0/Libraries/STM32_USB_OTG_Driver/src/usb_core.c ****   USB_OTG_WRITE_REG32(&pdev->regs.HC_REGS[hc_num]->HCCHAR, hcchar.d32);
1138:../STLibs//STM32_USB-Host-Device_Lib_V2.1.0/Libraries/STM32_USB_OTG_Driver/src/usb_core.c ****   return status;  
1139:../STLibs//STM32_USB-Host-Device_Lib_V2.1.0/Libraries/STM32_USB_OTG_Driver/src/usb_core.c **** }
1140:../STLibs//STM32_USB-Host-Device_Lib_V2.1.0/Libraries/STM32_USB_OTG_Driver/src/usb_core.c **** 
1141:../STLibs//STM32_USB-Host-Device_Lib_V2.1.0/Libraries/STM32_USB_OTG_Driver/src/usb_core.c **** /**
1142:../STLibs//STM32_USB-Host-Device_Lib_V2.1.0/Libraries/STM32_USB_OTG_Driver/src/usb_core.c **** * @brief  Stop the device and clean up fifo's
1143:../STLibs//STM32_USB-Host-Device_Lib_V2.1.0/Libraries/STM32_USB_OTG_Driver/src/usb_core.c **** * @param  None
1144:../STLibs//STM32_USB-Host-Device_Lib_V2.1.0/Libraries/STM32_USB_OTG_Driver/src/usb_core.c **** * @retval : None
1145:../STLibs//STM32_USB-Host-Device_Lib_V2.1.0/Libraries/STM32_USB_OTG_Driver/src/usb_core.c **** */
1146:../STLibs//STM32_USB-Host-Device_Lib_V2.1.0/Libraries/STM32_USB_OTG_Driver/src/usb_core.c **** void USB_OTG_StopHost(USB_OTG_CORE_HANDLE *pdev)
1147:../STLibs//STM32_USB-Host-Device_Lib_V2.1.0/Libraries/STM32_USB_OTG_Driver/src/usb_core.c **** {
1148:../STLibs//STM32_USB-Host-Device_Lib_V2.1.0/Libraries/STM32_USB_OTG_Driver/src/usb_core.c ****   USB_OTG_HCCHAR_TypeDef  hcchar;
1149:../STLibs//STM32_USB-Host-Device_Lib_V2.1.0/Libraries/STM32_USB_OTG_Driver/src/usb_core.c ****   uint32_t                i;
1150:../STLibs//STM32_USB-Host-Device_Lib_V2.1.0/Libraries/STM32_USB_OTG_Driver/src/usb_core.c ****   
1151:../STLibs//STM32_USB-Host-Device_Lib_V2.1.0/Libraries/STM32_USB_OTG_Driver/src/usb_core.c ****   USB_OTG_WRITE_REG32(&pdev->regs.HREGS->HAINTMSK , 0);
1152:../STLibs//STM32_USB-Host-Device_Lib_V2.1.0/Libraries/STM32_USB_OTG_Driver/src/usb_core.c ****   USB_OTG_WRITE_REG32(&pdev->regs.HREGS->HAINT,      0xFFFFFFFF);
1153:../STLibs//STM32_USB-Host-Device_Lib_V2.1.0/Libraries/STM32_USB_OTG_Driver/src/usb_core.c ****   /* Flush out any leftover queued requests. */
1154:../STLibs//STM32_USB-Host-Device_Lib_V2.1.0/Libraries/STM32_USB_OTG_Driver/src/usb_core.c ****   
1155:../STLibs//STM32_USB-Host-Device_Lib_V2.1.0/Libraries/STM32_USB_OTG_Driver/src/usb_core.c ****   for (i = 0; i < pdev->cfg.host_channels; i++)
1156:../STLibs//STM32_USB-Host-Device_Lib_V2.1.0/Libraries/STM32_USB_OTG_Driver/src/usb_core.c ****   {
1157:../STLibs//STM32_USB-Host-Device_Lib_V2.1.0/Libraries/STM32_USB_OTG_Driver/src/usb_core.c ****     hcchar.d32 = USB_OTG_READ_REG32(&pdev->regs.HC_REGS[i]->HCCHAR);
1158:../STLibs//STM32_USB-Host-Device_Lib_V2.1.0/Libraries/STM32_USB_OTG_Driver/src/usb_core.c ****     hcchar.b.chen = 0;
1159:../STLibs//STM32_USB-Host-Device_Lib_V2.1.0/Libraries/STM32_USB_OTG_Driver/src/usb_core.c ****     hcchar.b.chdis = 1;
1160:../STLibs//STM32_USB-Host-Device_Lib_V2.1.0/Libraries/STM32_USB_OTG_Driver/src/usb_core.c ****     hcchar.b.epdir = 0;
1161:../STLibs//STM32_USB-Host-Device_Lib_V2.1.0/Libraries/STM32_USB_OTG_Driver/src/usb_core.c ****     USB_OTG_WRITE_REG32(&pdev->regs.HC_REGS[i]->HCCHAR, hcchar.d32);
1162:../STLibs//STM32_USB-Host-Device_Lib_V2.1.0/Libraries/STM32_USB_OTG_Driver/src/usb_core.c ****   }
1163:../STLibs//STM32_USB-Host-Device_Lib_V2.1.0/Libraries/STM32_USB_OTG_Driver/src/usb_core.c ****   
1164:../STLibs//STM32_USB-Host-Device_Lib_V2.1.0/Libraries/STM32_USB_OTG_Driver/src/usb_core.c ****   /* Flush the FIFO */
1165:../STLibs//STM32_USB-Host-Device_Lib_V2.1.0/Libraries/STM32_USB_OTG_Driver/src/usb_core.c ****   USB_OTG_FlushRxFifo(pdev);
1166:../STLibs//STM32_USB-Host-Device_Lib_V2.1.0/Libraries/STM32_USB_OTG_Driver/src/usb_core.c ****   USB_OTG_FlushTxFifo(pdev ,  0x10 );  
1167:../STLibs//STM32_USB-Host-Device_Lib_V2.1.0/Libraries/STM32_USB_OTG_Driver/src/usb_core.c **** }
1168:../STLibs//STM32_USB-Host-Device_Lib_V2.1.0/Libraries/STM32_USB_OTG_Driver/src/usb_core.c **** #endif
1169:../STLibs//STM32_USB-Host-Device_Lib_V2.1.0/Libraries/STM32_USB_OTG_Driver/src/usb_core.c **** #ifdef USE_DEVICE_MODE
1170:../STLibs//STM32_USB-Host-Device_Lib_V2.1.0/Libraries/STM32_USB_OTG_Driver/src/usb_core.c **** /*         PCD Core Layer       */
1171:../STLibs//STM32_USB-Host-Device_Lib_V2.1.0/Libraries/STM32_USB_OTG_Driver/src/usb_core.c **** 
1172:../STLibs//STM32_USB-Host-Device_Lib_V2.1.0/Libraries/STM32_USB_OTG_Driver/src/usb_core.c **** /**
1173:../STLibs//STM32_USB-Host-Device_Lib_V2.1.0/Libraries/STM32_USB_OTG_Driver/src/usb_core.c **** * @brief  USB_OTG_InitDevSpeed :Initializes the DevSpd field of DCFG register 
1174:../STLibs//STM32_USB-Host-Device_Lib_V2.1.0/Libraries/STM32_USB_OTG_Driver/src/usb_core.c **** *         depending the PHY type and the enumeration speed of the device.
1175:../STLibs//STM32_USB-Host-Device_Lib_V2.1.0/Libraries/STM32_USB_OTG_Driver/src/usb_core.c **** * @param  pdev : Selected device
1176:../STLibs//STM32_USB-Host-Device_Lib_V2.1.0/Libraries/STM32_USB_OTG_Driver/src/usb_core.c **** * @retval : None
1177:../STLibs//STM32_USB-Host-Device_Lib_V2.1.0/Libraries/STM32_USB_OTG_Driver/src/usb_core.c **** */
1178:../STLibs//STM32_USB-Host-Device_Lib_V2.1.0/Libraries/STM32_USB_OTG_Driver/src/usb_core.c **** void USB_OTG_InitDevSpeed(USB_OTG_CORE_HANDLE *pdev , uint8_t speed)
1179:../STLibs//STM32_USB-Host-Device_Lib_V2.1.0/Libraries/STM32_USB_OTG_Driver/src/usb_core.c **** {
 903              		.loc 1 1179 0
 904              		.cfi_startproc
 905              		@ args = 0, pretend = 0, frame = 0
 906              		@ frame_needed = 0, uses_anonymous_args = 0
 907              		@ link register save eliminated.
 908              	.LVL100:
1180:../STLibs//STM32_USB-Host-Device_Lib_V2.1.0/Libraries/STM32_USB_OTG_Driver/src/usb_core.c ****   USB_OTG_DCFG_TypeDef   dcfg;
1181:../STLibs//STM32_USB-Host-Device_Lib_V2.1.0/Libraries/STM32_USB_OTG_Driver/src/usb_core.c ****   
1182:../STLibs//STM32_USB-Host-Device_Lib_V2.1.0/Libraries/STM32_USB_OTG_Driver/src/usb_core.c ****   dcfg.d32 = USB_OTG_READ_REG32(&pdev->regs.DREGS->DCFG);
 909              		.loc 1 1182 0
 910 02d0 0269     		ldr	r2, [r0, #16]
 911 02d2 1368     		ldr	r3, [r2]
1183:../STLibs//STM32_USB-Host-Device_Lib_V2.1.0/Libraries/STM32_USB_OTG_Driver/src/usb_core.c ****   dcfg.b.devspd = speed;
 912              		.loc 1 1183 0
 913 02d4 61F30103 		bfi	r3, r1, #0, #2
 914              	.LVL101:
1184:../STLibs//STM32_USB-Host-Device_Lib_V2.1.0/Libraries/STM32_USB_OTG_Driver/src/usb_core.c ****   USB_OTG_WRITE_REG32(&pdev->regs.DREGS->DCFG, dcfg.d32);
 915              		.loc 1 1184 0
 916 02d8 1360     		str	r3, [r2]
1185:../STLibs//STM32_USB-Host-Device_Lib_V2.1.0/Libraries/STM32_USB_OTG_Driver/src/usb_core.c **** }
 917              		.loc 1 1185 0
 918 02da 7047     		bx	lr
 919              		.cfi_endproc
 920              	.LFE126:
 922              		.align	1
 923              		.global	USB_OTG_EnableDevInt
 924              		.syntax unified
 925              		.thumb
 926              		.thumb_func
 927              		.fpu fpv4-sp-d16
 929              	USB_OTG_EnableDevInt:
 930              	.LFB128:
1186:../STLibs//STM32_USB-Host-Device_Lib_V2.1.0/Libraries/STM32_USB_OTG_Driver/src/usb_core.c **** 
1187:../STLibs//STM32_USB-Host-Device_Lib_V2.1.0/Libraries/STM32_USB_OTG_Driver/src/usb_core.c **** 
1188:../STLibs//STM32_USB-Host-Device_Lib_V2.1.0/Libraries/STM32_USB_OTG_Driver/src/usb_core.c **** /**
1189:../STLibs//STM32_USB-Host-Device_Lib_V2.1.0/Libraries/STM32_USB_OTG_Driver/src/usb_core.c **** * @brief  USB_OTG_CoreInitDev : Initializes the USB_OTG controller registers 
1190:../STLibs//STM32_USB-Host-Device_Lib_V2.1.0/Libraries/STM32_USB_OTG_Driver/src/usb_core.c **** *         for device mode
1191:../STLibs//STM32_USB-Host-Device_Lib_V2.1.0/Libraries/STM32_USB_OTG_Driver/src/usb_core.c **** * @param  pdev : Selected device
1192:../STLibs//STM32_USB-Host-Device_Lib_V2.1.0/Libraries/STM32_USB_OTG_Driver/src/usb_core.c **** * @retval USB_OTG_STS : status
1193:../STLibs//STM32_USB-Host-Device_Lib_V2.1.0/Libraries/STM32_USB_OTG_Driver/src/usb_core.c **** */
1194:../STLibs//STM32_USB-Host-Device_Lib_V2.1.0/Libraries/STM32_USB_OTG_Driver/src/usb_core.c **** USB_OTG_STS USB_OTG_CoreInitDev (USB_OTG_CORE_HANDLE *pdev)
1195:../STLibs//STM32_USB-Host-Device_Lib_V2.1.0/Libraries/STM32_USB_OTG_Driver/src/usb_core.c **** {
1196:../STLibs//STM32_USB-Host-Device_Lib_V2.1.0/Libraries/STM32_USB_OTG_Driver/src/usb_core.c ****   USB_OTG_STS             status       = USB_OTG_OK;
1197:../STLibs//STM32_USB-Host-Device_Lib_V2.1.0/Libraries/STM32_USB_OTG_Driver/src/usb_core.c ****   USB_OTG_DEPCTL_TypeDef  depctl;
1198:../STLibs//STM32_USB-Host-Device_Lib_V2.1.0/Libraries/STM32_USB_OTG_Driver/src/usb_core.c ****   uint32_t i;
1199:../STLibs//STM32_USB-Host-Device_Lib_V2.1.0/Libraries/STM32_USB_OTG_Driver/src/usb_core.c ****   USB_OTG_DCFG_TypeDef    dcfg;
1200:../STLibs//STM32_USB-Host-Device_Lib_V2.1.0/Libraries/STM32_USB_OTG_Driver/src/usb_core.c ****   USB_OTG_FSIZ_TypeDef    nptxfifosize;
1201:../STLibs//STM32_USB-Host-Device_Lib_V2.1.0/Libraries/STM32_USB_OTG_Driver/src/usb_core.c ****   USB_OTG_FSIZ_TypeDef    txfifosize;
1202:../STLibs//STM32_USB-Host-Device_Lib_V2.1.0/Libraries/STM32_USB_OTG_Driver/src/usb_core.c ****   USB_OTG_DIEPMSK_TypeDef msk;
1203:../STLibs//STM32_USB-Host-Device_Lib_V2.1.0/Libraries/STM32_USB_OTG_Driver/src/usb_core.c ****   USB_OTG_DTHRCTL_TypeDef dthrctl;  
1204:../STLibs//STM32_USB-Host-Device_Lib_V2.1.0/Libraries/STM32_USB_OTG_Driver/src/usb_core.c ****   
1205:../STLibs//STM32_USB-Host-Device_Lib_V2.1.0/Libraries/STM32_USB_OTG_Driver/src/usb_core.c ****   depctl.d32 = 0;
1206:../STLibs//STM32_USB-Host-Device_Lib_V2.1.0/Libraries/STM32_USB_OTG_Driver/src/usb_core.c ****   dcfg.d32 = 0;
1207:../STLibs//STM32_USB-Host-Device_Lib_V2.1.0/Libraries/STM32_USB_OTG_Driver/src/usb_core.c ****   nptxfifosize.d32 = 0;
1208:../STLibs//STM32_USB-Host-Device_Lib_V2.1.0/Libraries/STM32_USB_OTG_Driver/src/usb_core.c ****   txfifosize.d32 = 0;
1209:../STLibs//STM32_USB-Host-Device_Lib_V2.1.0/Libraries/STM32_USB_OTG_Driver/src/usb_core.c ****   msk.d32 = 0;
1210:../STLibs//STM32_USB-Host-Device_Lib_V2.1.0/Libraries/STM32_USB_OTG_Driver/src/usb_core.c ****   
1211:../STLibs//STM32_USB-Host-Device_Lib_V2.1.0/Libraries/STM32_USB_OTG_Driver/src/usb_core.c ****   /* Restart the Phy Clock */
1212:../STLibs//STM32_USB-Host-Device_Lib_V2.1.0/Libraries/STM32_USB_OTG_Driver/src/usb_core.c ****   USB_OTG_WRITE_REG32(pdev->regs.PCGCCTL, 0);
1213:../STLibs//STM32_USB-Host-Device_Lib_V2.1.0/Libraries/STM32_USB_OTG_Driver/src/usb_core.c ****   /* Device configuration register */
1214:../STLibs//STM32_USB-Host-Device_Lib_V2.1.0/Libraries/STM32_USB_OTG_Driver/src/usb_core.c ****   dcfg.d32 = USB_OTG_READ_REG32( &pdev->regs.DREGS->DCFG);
1215:../STLibs//STM32_USB-Host-Device_Lib_V2.1.0/Libraries/STM32_USB_OTG_Driver/src/usb_core.c ****   dcfg.b.perfrint = DCFG_FRAME_INTERVAL_80;
1216:../STLibs//STM32_USB-Host-Device_Lib_V2.1.0/Libraries/STM32_USB_OTG_Driver/src/usb_core.c ****   USB_OTG_WRITE_REG32( &pdev->regs.DREGS->DCFG, dcfg.d32 );
1217:../STLibs//STM32_USB-Host-Device_Lib_V2.1.0/Libraries/STM32_USB_OTG_Driver/src/usb_core.c ****   
1218:../STLibs//STM32_USB-Host-Device_Lib_V2.1.0/Libraries/STM32_USB_OTG_Driver/src/usb_core.c **** #ifdef USB_OTG_FS_CORE
1219:../STLibs//STM32_USB-Host-Device_Lib_V2.1.0/Libraries/STM32_USB_OTG_Driver/src/usb_core.c ****   if(pdev->cfg.coreID == USB_OTG_FS_CORE_ID  )
1220:../STLibs//STM32_USB-Host-Device_Lib_V2.1.0/Libraries/STM32_USB_OTG_Driver/src/usb_core.c ****   {  
1221:../STLibs//STM32_USB-Host-Device_Lib_V2.1.0/Libraries/STM32_USB_OTG_Driver/src/usb_core.c ****     
1222:../STLibs//STM32_USB-Host-Device_Lib_V2.1.0/Libraries/STM32_USB_OTG_Driver/src/usb_core.c ****     /* Set Full speed phy */
1223:../STLibs//STM32_USB-Host-Device_Lib_V2.1.0/Libraries/STM32_USB_OTG_Driver/src/usb_core.c ****     USB_OTG_InitDevSpeed (pdev , USB_OTG_SPEED_PARAM_FULL);
1224:../STLibs//STM32_USB-Host-Device_Lib_V2.1.0/Libraries/STM32_USB_OTG_Driver/src/usb_core.c ****     
1225:../STLibs//STM32_USB-Host-Device_Lib_V2.1.0/Libraries/STM32_USB_OTG_Driver/src/usb_core.c ****     /* set Rx FIFO size */
1226:../STLibs//STM32_USB-Host-Device_Lib_V2.1.0/Libraries/STM32_USB_OTG_Driver/src/usb_core.c ****     USB_OTG_WRITE_REG32(&pdev->regs.GREGS->GRXFSIZ, RX_FIFO_FS_SIZE);
1227:../STLibs//STM32_USB-Host-Device_Lib_V2.1.0/Libraries/STM32_USB_OTG_Driver/src/usb_core.c ****     
1228:../STLibs//STM32_USB-Host-Device_Lib_V2.1.0/Libraries/STM32_USB_OTG_Driver/src/usb_core.c ****     /* EP0 TX*/
1229:../STLibs//STM32_USB-Host-Device_Lib_V2.1.0/Libraries/STM32_USB_OTG_Driver/src/usb_core.c ****     nptxfifosize.b.depth     = TX0_FIFO_FS_SIZE;
1230:../STLibs//STM32_USB-Host-Device_Lib_V2.1.0/Libraries/STM32_USB_OTG_Driver/src/usb_core.c ****     nptxfifosize.b.startaddr = RX_FIFO_FS_SIZE;
1231:../STLibs//STM32_USB-Host-Device_Lib_V2.1.0/Libraries/STM32_USB_OTG_Driver/src/usb_core.c ****     USB_OTG_WRITE_REG32( &pdev->regs.GREGS->DIEPTXF0_HNPTXFSIZ, nptxfifosize.d32 );
1232:../STLibs//STM32_USB-Host-Device_Lib_V2.1.0/Libraries/STM32_USB_OTG_Driver/src/usb_core.c ****     
1233:../STLibs//STM32_USB-Host-Device_Lib_V2.1.0/Libraries/STM32_USB_OTG_Driver/src/usb_core.c ****     
1234:../STLibs//STM32_USB-Host-Device_Lib_V2.1.0/Libraries/STM32_USB_OTG_Driver/src/usb_core.c ****     /* EP1 TX*/
1235:../STLibs//STM32_USB-Host-Device_Lib_V2.1.0/Libraries/STM32_USB_OTG_Driver/src/usb_core.c ****     txfifosize.b.startaddr = nptxfifosize.b.startaddr + nptxfifosize.b.depth;
1236:../STLibs//STM32_USB-Host-Device_Lib_V2.1.0/Libraries/STM32_USB_OTG_Driver/src/usb_core.c ****     txfifosize.b.depth = TX1_FIFO_FS_SIZE;
1237:../STLibs//STM32_USB-Host-Device_Lib_V2.1.0/Libraries/STM32_USB_OTG_Driver/src/usb_core.c ****     USB_OTG_WRITE_REG32( &pdev->regs.GREGS->DIEPTXF[0], txfifosize.d32 );
1238:../STLibs//STM32_USB-Host-Device_Lib_V2.1.0/Libraries/STM32_USB_OTG_Driver/src/usb_core.c ****     
1239:../STLibs//STM32_USB-Host-Device_Lib_V2.1.0/Libraries/STM32_USB_OTG_Driver/src/usb_core.c ****     
1240:../STLibs//STM32_USB-Host-Device_Lib_V2.1.0/Libraries/STM32_USB_OTG_Driver/src/usb_core.c ****     /* EP2 TX*/
1241:../STLibs//STM32_USB-Host-Device_Lib_V2.1.0/Libraries/STM32_USB_OTG_Driver/src/usb_core.c ****     txfifosize.b.startaddr += txfifosize.b.depth;
1242:../STLibs//STM32_USB-Host-Device_Lib_V2.1.0/Libraries/STM32_USB_OTG_Driver/src/usb_core.c ****     txfifosize.b.depth = TX2_FIFO_FS_SIZE;
1243:../STLibs//STM32_USB-Host-Device_Lib_V2.1.0/Libraries/STM32_USB_OTG_Driver/src/usb_core.c ****     USB_OTG_WRITE_REG32( &pdev->regs.GREGS->DIEPTXF[1], txfifosize.d32 );
1244:../STLibs//STM32_USB-Host-Device_Lib_V2.1.0/Libraries/STM32_USB_OTG_Driver/src/usb_core.c ****     
1245:../STLibs//STM32_USB-Host-Device_Lib_V2.1.0/Libraries/STM32_USB_OTG_Driver/src/usb_core.c ****     
1246:../STLibs//STM32_USB-Host-Device_Lib_V2.1.0/Libraries/STM32_USB_OTG_Driver/src/usb_core.c ****     /* EP3 TX*/  
1247:../STLibs//STM32_USB-Host-Device_Lib_V2.1.0/Libraries/STM32_USB_OTG_Driver/src/usb_core.c ****     txfifosize.b.startaddr += txfifosize.b.depth;
1248:../STLibs//STM32_USB-Host-Device_Lib_V2.1.0/Libraries/STM32_USB_OTG_Driver/src/usb_core.c ****     txfifosize.b.depth = TX3_FIFO_FS_SIZE;
1249:../STLibs//STM32_USB-Host-Device_Lib_V2.1.0/Libraries/STM32_USB_OTG_Driver/src/usb_core.c ****     USB_OTG_WRITE_REG32( &pdev->regs.GREGS->DIEPTXF[2], txfifosize.d32 );
1250:../STLibs//STM32_USB-Host-Device_Lib_V2.1.0/Libraries/STM32_USB_OTG_Driver/src/usb_core.c ****   }
1251:../STLibs//STM32_USB-Host-Device_Lib_V2.1.0/Libraries/STM32_USB_OTG_Driver/src/usb_core.c **** #endif
1252:../STLibs//STM32_USB-Host-Device_Lib_V2.1.0/Libraries/STM32_USB_OTG_Driver/src/usb_core.c **** #ifdef USB_OTG_HS_CORE
1253:../STLibs//STM32_USB-Host-Device_Lib_V2.1.0/Libraries/STM32_USB_OTG_Driver/src/usb_core.c ****   if(pdev->cfg.coreID == USB_OTG_HS_CORE_ID  )
1254:../STLibs//STM32_USB-Host-Device_Lib_V2.1.0/Libraries/STM32_USB_OTG_Driver/src/usb_core.c ****   {
1255:../STLibs//STM32_USB-Host-Device_Lib_V2.1.0/Libraries/STM32_USB_OTG_Driver/src/usb_core.c ****     
1256:../STLibs//STM32_USB-Host-Device_Lib_V2.1.0/Libraries/STM32_USB_OTG_Driver/src/usb_core.c ****     /* Set High speed phy */
1257:../STLibs//STM32_USB-Host-Device_Lib_V2.1.0/Libraries/STM32_USB_OTG_Driver/src/usb_core.c ****     
1258:../STLibs//STM32_USB-Host-Device_Lib_V2.1.0/Libraries/STM32_USB_OTG_Driver/src/usb_core.c ****     if(pdev->cfg.phy_itface  == USB_OTG_ULPI_PHY)
1259:../STLibs//STM32_USB-Host-Device_Lib_V2.1.0/Libraries/STM32_USB_OTG_Driver/src/usb_core.c ****     {
1260:../STLibs//STM32_USB-Host-Device_Lib_V2.1.0/Libraries/STM32_USB_OTG_Driver/src/usb_core.c ****       USB_OTG_InitDevSpeed (pdev , USB_OTG_SPEED_PARAM_HIGH);
1261:../STLibs//STM32_USB-Host-Device_Lib_V2.1.0/Libraries/STM32_USB_OTG_Driver/src/usb_core.c ****     }
1262:../STLibs//STM32_USB-Host-Device_Lib_V2.1.0/Libraries/STM32_USB_OTG_Driver/src/usb_core.c ****     else /* set High speed phy in Full speed mode */
1263:../STLibs//STM32_USB-Host-Device_Lib_V2.1.0/Libraries/STM32_USB_OTG_Driver/src/usb_core.c ****     {
1264:../STLibs//STM32_USB-Host-Device_Lib_V2.1.0/Libraries/STM32_USB_OTG_Driver/src/usb_core.c ****       USB_OTG_InitDevSpeed (pdev , USB_OTG_SPEED_PARAM_HIGH_IN_FULL);
1265:../STLibs//STM32_USB-Host-Device_Lib_V2.1.0/Libraries/STM32_USB_OTG_Driver/src/usb_core.c ****     }
1266:../STLibs//STM32_USB-Host-Device_Lib_V2.1.0/Libraries/STM32_USB_OTG_Driver/src/usb_core.c ****     
1267:../STLibs//STM32_USB-Host-Device_Lib_V2.1.0/Libraries/STM32_USB_OTG_Driver/src/usb_core.c ****     /* set Rx FIFO size */
1268:../STLibs//STM32_USB-Host-Device_Lib_V2.1.0/Libraries/STM32_USB_OTG_Driver/src/usb_core.c ****     USB_OTG_WRITE_REG32(&pdev->regs.GREGS->GRXFSIZ, RX_FIFO_HS_SIZE);
1269:../STLibs//STM32_USB-Host-Device_Lib_V2.1.0/Libraries/STM32_USB_OTG_Driver/src/usb_core.c ****     
1270:../STLibs//STM32_USB-Host-Device_Lib_V2.1.0/Libraries/STM32_USB_OTG_Driver/src/usb_core.c ****     /* EP0 TX*/
1271:../STLibs//STM32_USB-Host-Device_Lib_V2.1.0/Libraries/STM32_USB_OTG_Driver/src/usb_core.c ****     nptxfifosize.b.depth     = TX0_FIFO_HS_SIZE;
1272:../STLibs//STM32_USB-Host-Device_Lib_V2.1.0/Libraries/STM32_USB_OTG_Driver/src/usb_core.c ****     nptxfifosize.b.startaddr = RX_FIFO_HS_SIZE;
1273:../STLibs//STM32_USB-Host-Device_Lib_V2.1.0/Libraries/STM32_USB_OTG_Driver/src/usb_core.c ****     USB_OTG_WRITE_REG32( &pdev->regs.GREGS->DIEPTXF0_HNPTXFSIZ, nptxfifosize.d32 );
1274:../STLibs//STM32_USB-Host-Device_Lib_V2.1.0/Libraries/STM32_USB_OTG_Driver/src/usb_core.c ****     
1275:../STLibs//STM32_USB-Host-Device_Lib_V2.1.0/Libraries/STM32_USB_OTG_Driver/src/usb_core.c ****     
1276:../STLibs//STM32_USB-Host-Device_Lib_V2.1.0/Libraries/STM32_USB_OTG_Driver/src/usb_core.c ****     /* EP1 TX*/
1277:../STLibs//STM32_USB-Host-Device_Lib_V2.1.0/Libraries/STM32_USB_OTG_Driver/src/usb_core.c ****     txfifosize.b.startaddr = nptxfifosize.b.startaddr + nptxfifosize.b.depth;
1278:../STLibs//STM32_USB-Host-Device_Lib_V2.1.0/Libraries/STM32_USB_OTG_Driver/src/usb_core.c ****     txfifosize.b.depth = TX1_FIFO_HS_SIZE;
1279:../STLibs//STM32_USB-Host-Device_Lib_V2.1.0/Libraries/STM32_USB_OTG_Driver/src/usb_core.c ****     USB_OTG_WRITE_REG32( &pdev->regs.GREGS->DIEPTXF[0], txfifosize.d32 );
1280:../STLibs//STM32_USB-Host-Device_Lib_V2.1.0/Libraries/STM32_USB_OTG_Driver/src/usb_core.c ****     
1281:../STLibs//STM32_USB-Host-Device_Lib_V2.1.0/Libraries/STM32_USB_OTG_Driver/src/usb_core.c ****     
1282:../STLibs//STM32_USB-Host-Device_Lib_V2.1.0/Libraries/STM32_USB_OTG_Driver/src/usb_core.c ****     /* EP2 TX*/
1283:../STLibs//STM32_USB-Host-Device_Lib_V2.1.0/Libraries/STM32_USB_OTG_Driver/src/usb_core.c ****     txfifosize.b.startaddr += txfifosize.b.depth;
1284:../STLibs//STM32_USB-Host-Device_Lib_V2.1.0/Libraries/STM32_USB_OTG_Driver/src/usb_core.c ****     txfifosize.b.depth = TX2_FIFO_HS_SIZE;
1285:../STLibs//STM32_USB-Host-Device_Lib_V2.1.0/Libraries/STM32_USB_OTG_Driver/src/usb_core.c ****     USB_OTG_WRITE_REG32( &pdev->regs.GREGS->DIEPTXF[1], txfifosize.d32 );
1286:../STLibs//STM32_USB-Host-Device_Lib_V2.1.0/Libraries/STM32_USB_OTG_Driver/src/usb_core.c ****     
1287:../STLibs//STM32_USB-Host-Device_Lib_V2.1.0/Libraries/STM32_USB_OTG_Driver/src/usb_core.c ****     
1288:../STLibs//STM32_USB-Host-Device_Lib_V2.1.0/Libraries/STM32_USB_OTG_Driver/src/usb_core.c ****     /* EP3 TX*/  
1289:../STLibs//STM32_USB-Host-Device_Lib_V2.1.0/Libraries/STM32_USB_OTG_Driver/src/usb_core.c ****     txfifosize.b.startaddr += txfifosize.b.depth;
1290:../STLibs//STM32_USB-Host-Device_Lib_V2.1.0/Libraries/STM32_USB_OTG_Driver/src/usb_core.c ****     txfifosize.b.depth = TX3_FIFO_HS_SIZE;
1291:../STLibs//STM32_USB-Host-Device_Lib_V2.1.0/Libraries/STM32_USB_OTG_Driver/src/usb_core.c ****     USB_OTG_WRITE_REG32( &pdev->regs.GREGS->DIEPTXF[2], txfifosize.d32 );
1292:../STLibs//STM32_USB-Host-Device_Lib_V2.1.0/Libraries/STM32_USB_OTG_Driver/src/usb_core.c ****     
1293:../STLibs//STM32_USB-Host-Device_Lib_V2.1.0/Libraries/STM32_USB_OTG_Driver/src/usb_core.c ****     /* EP4 TX*/
1294:../STLibs//STM32_USB-Host-Device_Lib_V2.1.0/Libraries/STM32_USB_OTG_Driver/src/usb_core.c ****     txfifosize.b.startaddr += txfifosize.b.depth;
1295:../STLibs//STM32_USB-Host-Device_Lib_V2.1.0/Libraries/STM32_USB_OTG_Driver/src/usb_core.c ****     txfifosize.b.depth = TX4_FIFO_HS_SIZE;
1296:../STLibs//STM32_USB-Host-Device_Lib_V2.1.0/Libraries/STM32_USB_OTG_Driver/src/usb_core.c ****     USB_OTG_WRITE_REG32( &pdev->regs.GREGS->DIEPTXF[3], txfifosize.d32 );
1297:../STLibs//STM32_USB-Host-Device_Lib_V2.1.0/Libraries/STM32_USB_OTG_Driver/src/usb_core.c ****     
1298:../STLibs//STM32_USB-Host-Device_Lib_V2.1.0/Libraries/STM32_USB_OTG_Driver/src/usb_core.c ****     
1299:../STLibs//STM32_USB-Host-Device_Lib_V2.1.0/Libraries/STM32_USB_OTG_Driver/src/usb_core.c ****     /* EP5 TX*/  
1300:../STLibs//STM32_USB-Host-Device_Lib_V2.1.0/Libraries/STM32_USB_OTG_Driver/src/usb_core.c ****     txfifosize.b.startaddr += txfifosize.b.depth;
1301:../STLibs//STM32_USB-Host-Device_Lib_V2.1.0/Libraries/STM32_USB_OTG_Driver/src/usb_core.c ****     txfifosize.b.depth = TX5_FIFO_HS_SIZE;
1302:../STLibs//STM32_USB-Host-Device_Lib_V2.1.0/Libraries/STM32_USB_OTG_Driver/src/usb_core.c ****     USB_OTG_WRITE_REG32( &pdev->regs.GREGS->DIEPTXF[4], txfifosize.d32 );
1303:../STLibs//STM32_USB-Host-Device_Lib_V2.1.0/Libraries/STM32_USB_OTG_Driver/src/usb_core.c ****   }
1304:../STLibs//STM32_USB-Host-Device_Lib_V2.1.0/Libraries/STM32_USB_OTG_Driver/src/usb_core.c **** #endif  
1305:../STLibs//STM32_USB-Host-Device_Lib_V2.1.0/Libraries/STM32_USB_OTG_Driver/src/usb_core.c ****   /* Flush the FIFOs */
1306:../STLibs//STM32_USB-Host-Device_Lib_V2.1.0/Libraries/STM32_USB_OTG_Driver/src/usb_core.c ****   USB_OTG_FlushTxFifo(pdev , 0x10); /* all Tx FIFOs */
1307:../STLibs//STM32_USB-Host-Device_Lib_V2.1.0/Libraries/STM32_USB_OTG_Driver/src/usb_core.c ****   USB_OTG_FlushRxFifo(pdev);
1308:../STLibs//STM32_USB-Host-Device_Lib_V2.1.0/Libraries/STM32_USB_OTG_Driver/src/usb_core.c ****   /* Clear all pending Device Interrupts */
1309:../STLibs//STM32_USB-Host-Device_Lib_V2.1.0/Libraries/STM32_USB_OTG_Driver/src/usb_core.c ****   USB_OTG_WRITE_REG32( &pdev->regs.DREGS->DIEPMSK, 0 );
1310:../STLibs//STM32_USB-Host-Device_Lib_V2.1.0/Libraries/STM32_USB_OTG_Driver/src/usb_core.c ****   USB_OTG_WRITE_REG32( &pdev->regs.DREGS->DOEPMSK, 0 );
1311:../STLibs//STM32_USB-Host-Device_Lib_V2.1.0/Libraries/STM32_USB_OTG_Driver/src/usb_core.c ****   USB_OTG_WRITE_REG32( &pdev->regs.DREGS->DAINT, 0xFFFFFFFF );
1312:../STLibs//STM32_USB-Host-Device_Lib_V2.1.0/Libraries/STM32_USB_OTG_Driver/src/usb_core.c ****   USB_OTG_WRITE_REG32( &pdev->regs.DREGS->DAINTMSK, 0 );
1313:../STLibs//STM32_USB-Host-Device_Lib_V2.1.0/Libraries/STM32_USB_OTG_Driver/src/usb_core.c ****   
1314:../STLibs//STM32_USB-Host-Device_Lib_V2.1.0/Libraries/STM32_USB_OTG_Driver/src/usb_core.c ****   for (i = 0; i < pdev->cfg.dev_endpoints; i++)
1315:../STLibs//STM32_USB-Host-Device_Lib_V2.1.0/Libraries/STM32_USB_OTG_Driver/src/usb_core.c ****   {
1316:../STLibs//STM32_USB-Host-Device_Lib_V2.1.0/Libraries/STM32_USB_OTG_Driver/src/usb_core.c ****     depctl.d32 = USB_OTG_READ_REG32(&pdev->regs.INEP_REGS[i]->DIEPCTL);
1317:../STLibs//STM32_USB-Host-Device_Lib_V2.1.0/Libraries/STM32_USB_OTG_Driver/src/usb_core.c ****     if (depctl.b.epena)
1318:../STLibs//STM32_USB-Host-Device_Lib_V2.1.0/Libraries/STM32_USB_OTG_Driver/src/usb_core.c ****     {
1319:../STLibs//STM32_USB-Host-Device_Lib_V2.1.0/Libraries/STM32_USB_OTG_Driver/src/usb_core.c ****       depctl.d32 = 0;
1320:../STLibs//STM32_USB-Host-Device_Lib_V2.1.0/Libraries/STM32_USB_OTG_Driver/src/usb_core.c ****       depctl.b.epdis = 1;
1321:../STLibs//STM32_USB-Host-Device_Lib_V2.1.0/Libraries/STM32_USB_OTG_Driver/src/usb_core.c ****       depctl.b.snak = 1;
1322:../STLibs//STM32_USB-Host-Device_Lib_V2.1.0/Libraries/STM32_USB_OTG_Driver/src/usb_core.c ****     }
1323:../STLibs//STM32_USB-Host-Device_Lib_V2.1.0/Libraries/STM32_USB_OTG_Driver/src/usb_core.c ****     else
1324:../STLibs//STM32_USB-Host-Device_Lib_V2.1.0/Libraries/STM32_USB_OTG_Driver/src/usb_core.c ****     {
1325:../STLibs//STM32_USB-Host-Device_Lib_V2.1.0/Libraries/STM32_USB_OTG_Driver/src/usb_core.c ****       depctl.d32 = 0;
1326:../STLibs//STM32_USB-Host-Device_Lib_V2.1.0/Libraries/STM32_USB_OTG_Driver/src/usb_core.c ****     }
1327:../STLibs//STM32_USB-Host-Device_Lib_V2.1.0/Libraries/STM32_USB_OTG_Driver/src/usb_core.c ****     USB_OTG_WRITE_REG32( &pdev->regs.INEP_REGS[i]->DIEPCTL, depctl.d32);
1328:../STLibs//STM32_USB-Host-Device_Lib_V2.1.0/Libraries/STM32_USB_OTG_Driver/src/usb_core.c ****     USB_OTG_WRITE_REG32( &pdev->regs.INEP_REGS[i]->DIEPTSIZ, 0);
1329:../STLibs//STM32_USB-Host-Device_Lib_V2.1.0/Libraries/STM32_USB_OTG_Driver/src/usb_core.c ****     USB_OTG_WRITE_REG32( &pdev->regs.INEP_REGS[i]->DIEPINT, 0xFF);
1330:../STLibs//STM32_USB-Host-Device_Lib_V2.1.0/Libraries/STM32_USB_OTG_Driver/src/usb_core.c ****   }
1331:../STLibs//STM32_USB-Host-Device_Lib_V2.1.0/Libraries/STM32_USB_OTG_Driver/src/usb_core.c ****   for (i = 0; i <  pdev->cfg.dev_endpoints; i++)
1332:../STLibs//STM32_USB-Host-Device_Lib_V2.1.0/Libraries/STM32_USB_OTG_Driver/src/usb_core.c ****   {
1333:../STLibs//STM32_USB-Host-Device_Lib_V2.1.0/Libraries/STM32_USB_OTG_Driver/src/usb_core.c ****     USB_OTG_DEPCTL_TypeDef  depctl;
1334:../STLibs//STM32_USB-Host-Device_Lib_V2.1.0/Libraries/STM32_USB_OTG_Driver/src/usb_core.c ****     depctl.d32 = USB_OTG_READ_REG32(&pdev->regs.OUTEP_REGS[i]->DOEPCTL);
1335:../STLibs//STM32_USB-Host-Device_Lib_V2.1.0/Libraries/STM32_USB_OTG_Driver/src/usb_core.c ****     if (depctl.b.epena)
1336:../STLibs//STM32_USB-Host-Device_Lib_V2.1.0/Libraries/STM32_USB_OTG_Driver/src/usb_core.c ****     {
1337:../STLibs//STM32_USB-Host-Device_Lib_V2.1.0/Libraries/STM32_USB_OTG_Driver/src/usb_core.c ****       depctl.d32 = 0;
1338:../STLibs//STM32_USB-Host-Device_Lib_V2.1.0/Libraries/STM32_USB_OTG_Driver/src/usb_core.c ****       depctl.b.epdis = 1;
1339:../STLibs//STM32_USB-Host-Device_Lib_V2.1.0/Libraries/STM32_USB_OTG_Driver/src/usb_core.c ****       depctl.b.snak = 1;
1340:../STLibs//STM32_USB-Host-Device_Lib_V2.1.0/Libraries/STM32_USB_OTG_Driver/src/usb_core.c ****     }
1341:../STLibs//STM32_USB-Host-Device_Lib_V2.1.0/Libraries/STM32_USB_OTG_Driver/src/usb_core.c ****     else
1342:../STLibs//STM32_USB-Host-Device_Lib_V2.1.0/Libraries/STM32_USB_OTG_Driver/src/usb_core.c ****     {
1343:../STLibs//STM32_USB-Host-Device_Lib_V2.1.0/Libraries/STM32_USB_OTG_Driver/src/usb_core.c ****       depctl.d32 = 0;
1344:../STLibs//STM32_USB-Host-Device_Lib_V2.1.0/Libraries/STM32_USB_OTG_Driver/src/usb_core.c ****     }
1345:../STLibs//STM32_USB-Host-Device_Lib_V2.1.0/Libraries/STM32_USB_OTG_Driver/src/usb_core.c ****     USB_OTG_WRITE_REG32( &pdev->regs.OUTEP_REGS[i]->DOEPCTL, depctl.d32);
1346:../STLibs//STM32_USB-Host-Device_Lib_V2.1.0/Libraries/STM32_USB_OTG_Driver/src/usb_core.c ****     USB_OTG_WRITE_REG32( &pdev->regs.OUTEP_REGS[i]->DOEPTSIZ, 0);
1347:../STLibs//STM32_USB-Host-Device_Lib_V2.1.0/Libraries/STM32_USB_OTG_Driver/src/usb_core.c ****     USB_OTG_WRITE_REG32( &pdev->regs.OUTEP_REGS[i]->DOEPINT, 0xFF);
1348:../STLibs//STM32_USB-Host-Device_Lib_V2.1.0/Libraries/STM32_USB_OTG_Driver/src/usb_core.c ****   }
1349:../STLibs//STM32_USB-Host-Device_Lib_V2.1.0/Libraries/STM32_USB_OTG_Driver/src/usb_core.c ****   msk.d32 = 0;
1350:../STLibs//STM32_USB-Host-Device_Lib_V2.1.0/Libraries/STM32_USB_OTG_Driver/src/usb_core.c ****   msk.b.txfifoundrn = 1;
1351:../STLibs//STM32_USB-Host-Device_Lib_V2.1.0/Libraries/STM32_USB_OTG_Driver/src/usb_core.c ****   USB_OTG_MODIFY_REG32(&pdev->regs.DREGS->DIEPMSK, msk.d32, msk.d32);
1352:../STLibs//STM32_USB-Host-Device_Lib_V2.1.0/Libraries/STM32_USB_OTG_Driver/src/usb_core.c ****   
1353:../STLibs//STM32_USB-Host-Device_Lib_V2.1.0/Libraries/STM32_USB_OTG_Driver/src/usb_core.c ****   if (pdev->cfg.dma_enable == 1)
1354:../STLibs//STM32_USB-Host-Device_Lib_V2.1.0/Libraries/STM32_USB_OTG_Driver/src/usb_core.c ****   {
1355:../STLibs//STM32_USB-Host-Device_Lib_V2.1.0/Libraries/STM32_USB_OTG_Driver/src/usb_core.c ****     dthrctl.d32 = 0;
1356:../STLibs//STM32_USB-Host-Device_Lib_V2.1.0/Libraries/STM32_USB_OTG_Driver/src/usb_core.c ****     dthrctl.b.non_iso_thr_en = 1;
1357:../STLibs//STM32_USB-Host-Device_Lib_V2.1.0/Libraries/STM32_USB_OTG_Driver/src/usb_core.c ****     dthrctl.b.iso_thr_en = 1;
1358:../STLibs//STM32_USB-Host-Device_Lib_V2.1.0/Libraries/STM32_USB_OTG_Driver/src/usb_core.c ****     dthrctl.b.tx_thr_len = 64;
1359:../STLibs//STM32_USB-Host-Device_Lib_V2.1.0/Libraries/STM32_USB_OTG_Driver/src/usb_core.c ****     dthrctl.b.rx_thr_en = 1;
1360:../STLibs//STM32_USB-Host-Device_Lib_V2.1.0/Libraries/STM32_USB_OTG_Driver/src/usb_core.c ****     dthrctl.b.rx_thr_len = 64;
1361:../STLibs//STM32_USB-Host-Device_Lib_V2.1.0/Libraries/STM32_USB_OTG_Driver/src/usb_core.c ****     USB_OTG_WRITE_REG32(&pdev->regs.DREGS->DTHRCTL, dthrctl.d32);  
1362:../STLibs//STM32_USB-Host-Device_Lib_V2.1.0/Libraries/STM32_USB_OTG_Driver/src/usb_core.c ****   }
1363:../STLibs//STM32_USB-Host-Device_Lib_V2.1.0/Libraries/STM32_USB_OTG_Driver/src/usb_core.c ****   USB_OTG_EnableDevInt(pdev);
1364:../STLibs//STM32_USB-Host-Device_Lib_V2.1.0/Libraries/STM32_USB_OTG_Driver/src/usb_core.c ****   return status;
1365:../STLibs//STM32_USB-Host-Device_Lib_V2.1.0/Libraries/STM32_USB_OTG_Driver/src/usb_core.c **** }
1366:../STLibs//STM32_USB-Host-Device_Lib_V2.1.0/Libraries/STM32_USB_OTG_Driver/src/usb_core.c **** 
1367:../STLibs//STM32_USB-Host-Device_Lib_V2.1.0/Libraries/STM32_USB_OTG_Driver/src/usb_core.c **** 
1368:../STLibs//STM32_USB-Host-Device_Lib_V2.1.0/Libraries/STM32_USB_OTG_Driver/src/usb_core.c **** /**
1369:../STLibs//STM32_USB-Host-Device_Lib_V2.1.0/Libraries/STM32_USB_OTG_Driver/src/usb_core.c **** * @brief  USB_OTG_EnableDevInt : Enables the Device mode interrupts
1370:../STLibs//STM32_USB-Host-Device_Lib_V2.1.0/Libraries/STM32_USB_OTG_Driver/src/usb_core.c **** * @param  pdev : Selected device
1371:../STLibs//STM32_USB-Host-Device_Lib_V2.1.0/Libraries/STM32_USB_OTG_Driver/src/usb_core.c **** * @retval USB_OTG_STS : status
1372:../STLibs//STM32_USB-Host-Device_Lib_V2.1.0/Libraries/STM32_USB_OTG_Driver/src/usb_core.c **** */
1373:../STLibs//STM32_USB-Host-Device_Lib_V2.1.0/Libraries/STM32_USB_OTG_Driver/src/usb_core.c **** USB_OTG_STS USB_OTG_EnableDevInt(USB_OTG_CORE_HANDLE *pdev)
1374:../STLibs//STM32_USB-Host-Device_Lib_V2.1.0/Libraries/STM32_USB_OTG_Driver/src/usb_core.c **** {
 931              		.loc 1 1374 0
 932              		.cfi_startproc
 933              		@ args = 0, pretend = 0, frame = 0
 934              		@ frame_needed = 0, uses_anonymous_args = 0
 935              	.LVL102:
 936 02dc 10B5     		push	{r4, lr}
 937              	.LCFI11:
 938              		.cfi_def_cfa_offset 8
 939              		.cfi_offset 4, -8
 940              		.cfi_offset 14, -4
1375:../STLibs//STM32_USB-Host-Device_Lib_V2.1.0/Libraries/STM32_USB_OTG_Driver/src/usb_core.c ****   USB_OTG_STS status = USB_OTG_OK;
1376:../STLibs//STM32_USB-Host-Device_Lib_V2.1.0/Libraries/STM32_USB_OTG_Driver/src/usb_core.c ****   USB_OTG_GINTMSK_TypeDef  intmsk;
1377:../STLibs//STM32_USB-Host-Device_Lib_V2.1.0/Libraries/STM32_USB_OTG_Driver/src/usb_core.c ****   
1378:../STLibs//STM32_USB-Host-Device_Lib_V2.1.0/Libraries/STM32_USB_OTG_Driver/src/usb_core.c ****   intmsk.d32 = 0;
1379:../STLibs//STM32_USB-Host-Device_Lib_V2.1.0/Libraries/STM32_USB_OTG_Driver/src/usb_core.c ****   
1380:../STLibs//STM32_USB-Host-Device_Lib_V2.1.0/Libraries/STM32_USB_OTG_Driver/src/usb_core.c ****   /* Disable all interrupts. */
1381:../STLibs//STM32_USB-Host-Device_Lib_V2.1.0/Libraries/STM32_USB_OTG_Driver/src/usb_core.c ****   USB_OTG_WRITE_REG32( &pdev->regs.GREGS->GINTMSK, 0);
 941              		.loc 1 1381 0
 942 02de C268     		ldr	r2, [r0, #12]
1378:../STLibs//STM32_USB-Host-Device_Lib_V2.1.0/Libraries/STM32_USB_OTG_Driver/src/usb_core.c ****   
 943              		.loc 1 1378 0
 944 02e0 0023     		movs	r3, #0
 945              	.LVL103:
1382:../STLibs//STM32_USB-Host-Device_Lib_V2.1.0/Libraries/STM32_USB_OTG_Driver/src/usb_core.c ****   /* Clear any pending interrupts */
1383:../STLibs//STM32_USB-Host-Device_Lib_V2.1.0/Libraries/STM32_USB_OTG_Driver/src/usb_core.c ****   USB_OTG_WRITE_REG32( &pdev->regs.GREGS->GINTSTS, 0xBFFFFFFF);
 946              		.loc 1 1383 0
 947 02e2 6FF08041 		mvn	r1, #1073741824
 948              	.LBB23:
 949              	.LBB24:
 102:../STLibs//STM32_USB-Host-Device_Lib_V2.1.0/Libraries/STM32_USB_OTG_Driver/src/usb_core.c **** #endif
 950              		.loc 1 102 0
 951 02e6 4FF0FF34 		mov	r4, #-1
 952              	.LVL104:
 953              	.LBE24:
 954              	.LBE23:
1381:../STLibs//STM32_USB-Host-Device_Lib_V2.1.0/Libraries/STM32_USB_OTG_Driver/src/usb_core.c ****   /* Clear any pending interrupts */
 955              		.loc 1 1381 0
 956 02ea 9361     		str	r3, [r2, #24]
 957              		.loc 1 1383 0
 958 02ec 5161     		str	r1, [r2, #20]
 959              	.LVL105:
 960              	.LBB26:
 961              	.LBB25:
 102:../STLibs//STM32_USB-Host-Device_Lib_V2.1.0/Libraries/STM32_USB_OTG_Driver/src/usb_core.c **** #endif
 962              		.loc 1 102 0
 963 02ee 5460     		str	r4, [r2, #4]
 105:../STLibs//STM32_USB-Host-Device_Lib_V2.1.0/Libraries/STM32_USB_OTG_Driver/src/usb_core.c ****   /* Enable the interrupts in the INTMSK */
 964              		.loc 1 105 0
 965 02f0 5161     		str	r1, [r2, #20]
 108:../STLibs//STM32_USB-Host-Device_Lib_V2.1.0/Libraries/STM32_USB_OTG_Driver/src/usb_core.c ****   
 966              		.loc 1 108 0
 967 02f2 0949     		ldr	r1, .L86
 968              	.LVL106:
 115:../STLibs//STM32_USB-Host-Device_Lib_V2.1.0/Libraries/STM32_USB_OTG_Driver/src/usb_core.c **** }
 969              		.loc 1 115 0
 970 02f4 9161     		str	r1, [r2, #24]
 971              	.LBE25:
 972              	.LBE26:
1384:../STLibs//STM32_USB-Host-Device_Lib_V2.1.0/Libraries/STM32_USB_OTG_Driver/src/usb_core.c ****   /* Enable the common interrupts */
1385:../STLibs//STM32_USB-Host-Device_Lib_V2.1.0/Libraries/STM32_USB_OTG_Driver/src/usb_core.c ****   USB_OTG_EnableCommonInt(pdev);
1386:../STLibs//STM32_USB-Host-Device_Lib_V2.1.0/Libraries/STM32_USB_OTG_Driver/src/usb_core.c ****   
1387:../STLibs//STM32_USB-Host-Device_Lib_V2.1.0/Libraries/STM32_USB_OTG_Driver/src/usb_core.c ****   if (pdev->cfg.dma_enable == 0)
 973              		.loc 1 1387 0
 974 02f6 C178     		ldrb	r1, [r0, #3]	@ zero_extendqisi2
 975              	.LVL107:
 976 02f8 9942     		cmp	r1, r3
 977              	.LVL108:
1388:../STLibs//STM32_USB-Host-Device_Lib_V2.1.0/Libraries/STM32_USB_OTG_Driver/src/usb_core.c ****   {
1389:../STLibs//STM32_USB-Host-Device_Lib_V2.1.0/Libraries/STM32_USB_OTG_Driver/src/usb_core.c ****     intmsk.b.rxstsqlvl = 1;
 978              		.loc 1 1389 0
 979 02fa 08BF     		it	eq
 980 02fc 1023     		moveq	r3, #16
 981              	.LVL109:
1390:../STLibs//STM32_USB-Host-Device_Lib_V2.1.0/Libraries/STM32_USB_OTG_Driver/src/usb_core.c ****   }
1391:../STLibs//STM32_USB-Host-Device_Lib_V2.1.0/Libraries/STM32_USB_OTG_Driver/src/usb_core.c ****   
1392:../STLibs//STM32_USB-Host-Device_Lib_V2.1.0/Libraries/STM32_USB_OTG_Driver/src/usb_core.c ****   /* Enable interrupts matching to the Device mode ONLY */
1393:../STLibs//STM32_USB-Host-Device_Lib_V2.1.0/Libraries/STM32_USB_OTG_Driver/src/usb_core.c ****   intmsk.b.usbsuspend = 1;
1394:../STLibs//STM32_USB-Host-Device_Lib_V2.1.0/Libraries/STM32_USB_OTG_Driver/src/usb_core.c ****   intmsk.b.usbreset   = 1;
1395:../STLibs//STM32_USB-Host-Device_Lib_V2.1.0/Libraries/STM32_USB_OTG_Driver/src/usb_core.c ****   intmsk.b.enumdone   = 1;
1396:../STLibs//STM32_USB-Host-Device_Lib_V2.1.0/Libraries/STM32_USB_OTG_Driver/src/usb_core.c ****   intmsk.b.inepintr   = 1;
1397:../STLibs//STM32_USB-Host-Device_Lib_V2.1.0/Libraries/STM32_USB_OTG_Driver/src/usb_core.c ****   intmsk.b.outepintr  = 1;
1398:../STLibs//STM32_USB-Host-Device_Lib_V2.1.0/Libraries/STM32_USB_OTG_Driver/src/usb_core.c ****   intmsk.b.sofintr    = 1; 
1399:../STLibs//STM32_USB-Host-Device_Lib_V2.1.0/Libraries/STM32_USB_OTG_Driver/src/usb_core.c ****   
1400:../STLibs//STM32_USB-Host-Device_Lib_V2.1.0/Libraries/STM32_USB_OTG_Driver/src/usb_core.c ****   intmsk.b.incomplisoin    = 1; 
1401:../STLibs//STM32_USB-Host-Device_Lib_V2.1.0/Libraries/STM32_USB_OTG_Driver/src/usb_core.c ****   intmsk.b.incomplisoout    = 1;   
1402:../STLibs//STM32_USB-Host-Device_Lib_V2.1.0/Libraries/STM32_USB_OTG_Driver/src/usb_core.c **** #ifdef VBUS_SENSING_ENABLED
1403:../STLibs//STM32_USB-Host-Device_Lib_V2.1.0/Libraries/STM32_USB_OTG_Driver/src/usb_core.c ****   intmsk.b.sessreqintr    = 1; 
1404:../STLibs//STM32_USB-Host-Device_Lib_V2.1.0/Libraries/STM32_USB_OTG_Driver/src/usb_core.c ****   intmsk.b.otgintr    = 1;    
 982              		.loc 1 1404 0
 983 02fe 43F08043 		orr	r3, r3, #1073741824
 984              	.LVL110:
 985 0302 43F47013 		orr	r3, r3, #3932160
 986              	.LVL111:
1405:../STLibs//STM32_USB-Host-Device_Lib_V2.1.0/Libraries/STM32_USB_OTG_Driver/src/usb_core.c **** #endif  
1406:../STLibs//STM32_USB-Host-Device_Lib_V2.1.0/Libraries/STM32_USB_OTG_Driver/src/usb_core.c ****   USB_OTG_MODIFY_REG32( &pdev->regs.GREGS->GINTMSK, intmsk.d32, intmsk.d32);
 987              		.loc 1 1406 0
 988 0306 9169     		ldr	r1, [r2, #24]
 989              	.LVL112:
1404:../STLibs//STM32_USB-Host-Device_Lib_V2.1.0/Libraries/STM32_USB_OTG_Driver/src/usb_core.c **** #endif  
 990              		.loc 1 1404 0
 991 0308 43F46053 		orr	r3, r3, #14336
 992              	.LVL113:
 993 030c 43F00C03 		orr	r3, r3, #12
 994              	.LVL114:
 995              		.loc 1 1406 0
 996 0310 0B43     		orrs	r3, r3, r1
 997              	.LVL115:
 998 0312 9361     		str	r3, [r2, #24]
1407:../STLibs//STM32_USB-Host-Device_Lib_V2.1.0/Libraries/STM32_USB_OTG_Driver/src/usb_core.c ****   return status;
1408:../STLibs//STM32_USB-Host-Device_Lib_V2.1.0/Libraries/STM32_USB_OTG_Driver/src/usb_core.c **** }
 999              		.loc 1 1408 0
 1000 0314 0020     		movs	r0, #0
 1001              	.LVL116:
 1002 0316 10BD     		pop	{r4, pc}
 1003              	.L87:
 1004              		.align	2
 1005              	.L86:
 1006 0318 00080080 		.word	-2147481600
 1007              		.cfi_endproc
 1008              	.LFE128:
 1010              		.align	1
 1011              		.global	USB_OTG_CoreInitDev
 1012              		.syntax unified
 1013              		.thumb
 1014              		.thumb_func
 1015              		.fpu fpv4-sp-d16
 1017              	USB_OTG_CoreInitDev:
 1018              	.LFB127:
1195:../STLibs//STM32_USB-Host-Device_Lib_V2.1.0/Libraries/STM32_USB_OTG_Driver/src/usb_core.c ****   USB_OTG_STS             status       = USB_OTG_OK;
 1019              		.loc 1 1195 0
 1020              		.cfi_startproc
 1021              		@ args = 0, pretend = 0, frame = 0
 1022              		@ frame_needed = 0, uses_anonymous_args = 0
 1023              	.LVL117:
 1024 031c F8B5     		push	{r3, r4, r5, r6, r7, lr}
 1025              	.LCFI12:
 1026              		.cfi_def_cfa_offset 24
 1027              		.cfi_offset 3, -24
 1028              		.cfi_offset 4, -20
 1029              		.cfi_offset 5, -16
 1030              		.cfi_offset 6, -12
 1031              		.cfi_offset 7, -8
 1032              		.cfi_offset 14, -4
1212:../STLibs//STM32_USB-Host-Device_Lib_V2.1.0/Libraries/STM32_USB_OTG_Driver/src/usb_core.c ****   /* Device configuration register */
 1033              		.loc 1 1212 0
 1034 031e D0F80C31 		ldr	r3, [r0, #268]
1214:../STLibs//STM32_USB-Host-Device_Lib_V2.1.0/Libraries/STM32_USB_OTG_Driver/src/usb_core.c ****   dcfg.b.perfrint = DCFG_FRAME_INTERVAL_80;
 1035              		.loc 1 1214 0
 1036 0322 0269     		ldr	r2, [r0, #16]
1212:../STLibs//STM32_USB-Host-Device_Lib_V2.1.0/Libraries/STM32_USB_OTG_Driver/src/usb_core.c ****   /* Device configuration register */
 1037              		.loc 1 1212 0
 1038 0324 0021     		movs	r1, #0
 1039 0326 1960     		str	r1, [r3]
1214:../STLibs//STM32_USB-Host-Device_Lib_V2.1.0/Libraries/STM32_USB_OTG_Driver/src/usb_core.c ****   dcfg.b.perfrint = DCFG_FRAME_INTERVAL_80;
 1040              		.loc 1 1214 0
 1041 0328 1368     		ldr	r3, [r2]
1215:../STLibs//STM32_USB-Host-Device_Lib_V2.1.0/Libraries/STM32_USB_OTG_Driver/src/usb_core.c ****   USB_OTG_WRITE_REG32( &pdev->regs.DREGS->DCFG, dcfg.d32 );
 1042              		.loc 1 1215 0
 1043 032a 61F3CC23 		bfi	r3, r1, #11, #2
 1044              	.LVL118:
1216:../STLibs//STM32_USB-Host-Device_Lib_V2.1.0/Libraries/STM32_USB_OTG_Driver/src/usb_core.c ****   
 1045              		.loc 1 1216 0
 1046 032e 1360     		str	r3, [r2]
1219:../STLibs//STM32_USB-Host-Device_Lib_V2.1.0/Libraries/STM32_USB_OTG_Driver/src/usb_core.c ****   {  
 1047              		.loc 1 1219 0
 1048 0330 C37A     		ldrb	r3, [r0, #11]	@ zero_extendqisi2
 1049              	.LVL119:
 1050 0332 012B     		cmp	r3, #1
1195:../STLibs//STM32_USB-Host-Device_Lib_V2.1.0/Libraries/STM32_USB_OTG_Driver/src/usb_core.c ****   USB_OTG_STS             status       = USB_OTG_OK;
 1051              		.loc 1 1195 0
 1052 0334 0446     		mov	r4, r0
1219:../STLibs//STM32_USB-Host-Device_Lib_V2.1.0/Libraries/STM32_USB_OTG_Driver/src/usb_core.c ****   {  
 1053              		.loc 1 1219 0
 1054 0336 12D1     		bne	.L89
1223:../STLibs//STM32_USB-Host-Device_Lib_V2.1.0/Libraries/STM32_USB_OTG_Driver/src/usb_core.c ****     
 1055              		.loc 1 1223 0
 1056 0338 0321     		movs	r1, #3
 1057 033a FFF7FEFF 		bl	USB_OTG_InitDevSpeed
 1058              	.LVL120:
1226:../STLibs//STM32_USB-Host-Device_Lib_V2.1.0/Libraries/STM32_USB_OTG_Driver/src/usb_core.c ****     
 1059              		.loc 1 1226 0
 1060 033e C368     		ldr	r3, [r0, #12]
 1061 0340 8022     		movs	r2, #128
 1062 0342 5A62     		str	r2, [r3, #36]
 1063              	.LVL121:
1230:../STLibs//STM32_USB-Host-Device_Lib_V2.1.0/Libraries/STM32_USB_OTG_Driver/src/usb_core.c ****     USB_OTG_WRITE_REG32( &pdev->regs.GREGS->DIEPTXF0_HNPTXFSIZ, nptxfifosize.d32 );
 1064              		.loc 1 1230 0
 1065 0344 02F50012 		add	r2, r2, #2097152
 1066              	.LVL122:
1231:../STLibs//STM32_USB-Host-Device_Lib_V2.1.0/Libraries/STM32_USB_OTG_Driver/src/usb_core.c ****     
 1067              		.loc 1 1231 0
 1068 0348 9A62     		str	r2, [r3, #40]
1235:../STLibs//STM32_USB-Host-Device_Lib_V2.1.0/Libraries/STM32_USB_OTG_Driver/src/usb_core.c ****     txfifosize.b.depth = TX1_FIFO_FS_SIZE;
 1069              		.loc 1 1235 0
 1070 034a 284A     		ldr	r2, .L99
 1071              	.LVL123:
1237:../STLibs//STM32_USB-Host-Device_Lib_V2.1.0/Libraries/STM32_USB_OTG_Driver/src/usb_core.c ****     
 1072              		.loc 1 1237 0
 1073 034c C3F80421 		str	r2, [r3, #260]
1241:../STLibs//STM32_USB-Host-Device_Lib_V2.1.0/Libraries/STM32_USB_OTG_Driver/src/usb_core.c ****     txfifosize.b.depth = TX2_FIFO_FS_SIZE;
 1074              		.loc 1 1241 0
 1075 0350 274A     		ldr	r2, .L99+4
 1076              	.LVL124:
1243:../STLibs//STM32_USB-Host-Device_Lib_V2.1.0/Libraries/STM32_USB_OTG_Driver/src/usb_core.c ****     
 1077              		.loc 1 1243 0
 1078 0352 C3F80821 		str	r2, [r3, #264]
1247:../STLibs//STM32_USB-Host-Device_Lib_V2.1.0/Libraries/STM32_USB_OTG_Driver/src/usb_core.c ****     txfifosize.b.depth = TX3_FIFO_FS_SIZE;
 1079              		.loc 1 1247 0
 1080 0356 4FF4A072 		mov	r2, #320
 1081              	.LVL125:
1249:../STLibs//STM32_USB-Host-Device_Lib_V2.1.0/Libraries/STM32_USB_OTG_Driver/src/usb_core.c ****   }
 1082              		.loc 1 1249 0
 1083 035a C3F80C21 		str	r2, [r3, #268]
 1084              	.L89:
1306:../STLibs//STM32_USB-Host-Device_Lib_V2.1.0/Libraries/STM32_USB_OTG_Driver/src/usb_core.c ****   USB_OTG_FlushRxFifo(pdev);
 1085              		.loc 1 1306 0
 1086 035e 1021     		movs	r1, #16
 1087 0360 2046     		mov	r0, r4
 1088              	.LVL126:
 1089 0362 FFF7FEFF 		bl	USB_OTG_FlushTxFifo
 1090              	.LVL127:
1307:../STLibs//STM32_USB-Host-Device_Lib_V2.1.0/Libraries/STM32_USB_OTG_Driver/src/usb_core.c ****   /* Clear all pending Device Interrupts */
 1091              		.loc 1 1307 0
 1092 0366 2046     		mov	r0, r4
 1093 0368 FFF7FEFF 		bl	USB_OTG_FlushRxFifo
 1094              	.LVL128:
1309:../STLibs//STM32_USB-Host-Device_Lib_V2.1.0/Libraries/STM32_USB_OTG_Driver/src/usb_core.c ****   USB_OTG_WRITE_REG32( &pdev->regs.DREGS->DOEPMSK, 0 );
 1095              		.loc 1 1309 0
 1096 036c 2269     		ldr	r2, [r4, #16]
 1097 036e 2069     		ldr	r0, [r4, #16]
 1098 0370 0023     		movs	r3, #0
1311:../STLibs//STM32_USB-Host-Device_Lib_V2.1.0/Libraries/STM32_USB_OTG_Driver/src/usb_core.c ****   USB_OTG_WRITE_REG32( &pdev->regs.DREGS->DAINTMSK, 0 );
 1099              		.loc 1 1311 0
 1100 0372 4FF0FF31 		mov	r1, #-1
1309:../STLibs//STM32_USB-Host-Device_Lib_V2.1.0/Libraries/STM32_USB_OTG_Driver/src/usb_core.c ****   USB_OTG_WRITE_REG32( &pdev->regs.DREGS->DOEPMSK, 0 );
 1101              		.loc 1 1309 0
 1102 0376 1361     		str	r3, [r2, #16]
1310:../STLibs//STM32_USB-Host-Device_Lib_V2.1.0/Libraries/STM32_USB_OTG_Driver/src/usb_core.c ****   USB_OTG_WRITE_REG32( &pdev->regs.DREGS->DAINT, 0xFFFFFFFF );
 1103              		.loc 1 1310 0
 1104 0378 5361     		str	r3, [r2, #20]
1311:../STLibs//STM32_USB-Host-Device_Lib_V2.1.0/Libraries/STM32_USB_OTG_Driver/src/usb_core.c ****   USB_OTG_WRITE_REG32( &pdev->regs.DREGS->DAINTMSK, 0 );
 1105              		.loc 1 1311 0
 1106 037a 9161     		str	r1, [r2, #24]
1312:../STLibs//STM32_USB-Host-Device_Lib_V2.1.0/Libraries/STM32_USB_OTG_Driver/src/usb_core.c ****   
 1107              		.loc 1 1312 0
 1108 037c D361     		str	r3, [r2, #28]
 1109              	.LVL129:
 1110 037e 6578     		ldrb	r5, [r4, #1]	@ zero_extendqisi2
 1111 0380 04F11802 		add	r2, r4, #24
 1112 0384 02EB8505 		add	r5, r2, r5, lsl #2
1329:../STLibs//STM32_USB-Host-Device_Lib_V2.1.0/Libraries/STM32_USB_OTG_Driver/src/usb_core.c ****   }
 1113              		.loc 1 1329 0
 1114 0388 FF26     		movs	r6, #255
 1115              	.LVL130:
 1116              	.L90:
1314:../STLibs//STM32_USB-Host-Device_Lib_V2.1.0/Libraries/STM32_USB_OTG_Driver/src/usb_core.c ****   {
 1117              		.loc 1 1314 0 discriminator 1
 1118 038a 9542     		cmp	r5, r2
 1119 038c 15D1     		bne	.L93
1331:../STLibs//STM32_USB-Host-Device_Lib_V2.1.0/Libraries/STM32_USB_OTG_Driver/src/usb_core.c ****   {
 1120              		.loc 1 1331 0
 1121 038e 0023     		movs	r3, #0
 1122 0390 04F15401 		add	r1, r4, #84
 1123 0394 1D46     		mov	r5, r3
 1124              	.LBB27:
1347:../STLibs//STM32_USB-Host-Device_Lib_V2.1.0/Libraries/STM32_USB_OTG_Driver/src/usb_core.c ****   }
 1125              		.loc 1 1347 0
 1126 0396 FF26     		movs	r6, #255
 1127              	.LVL131:
 1128              	.L94:
 1129              	.LBE27:
1331:../STLibs//STM32_USB-Host-Device_Lib_V2.1.0/Libraries/STM32_USB_OTG_Driver/src/usb_core.c ****   {
 1130              		.loc 1 1331 0 discriminator 1
 1131 0398 6278     		ldrb	r2, [r4, #1]	@ zero_extendqisi2
 1132 039a 9A42     		cmp	r2, r3
 1133 039c 19D8     		bhi	.L97
1351:../STLibs//STM32_USB-Host-Device_Lib_V2.1.0/Libraries/STM32_USB_OTG_Driver/src/usb_core.c ****   
 1134              		.loc 1 1351 0
 1135 039e 0369     		ldr	r3, [r0, #16]
 1136              	.LVL132:
 1137 03a0 43F48073 		orr	r3, r3, #256
 1138 03a4 0361     		str	r3, [r0, #16]
1353:../STLibs//STM32_USB-Host-Device_Lib_V2.1.0/Libraries/STM32_USB_OTG_Driver/src/usb_core.c ****   {
 1139              		.loc 1 1353 0
 1140 03a6 E378     		ldrb	r3, [r4, #3]	@ zero_extendqisi2
 1141 03a8 012B     		cmp	r3, #1
1355:../STLibs//STM32_USB-Host-Device_Lib_V2.1.0/Libraries/STM32_USB_OTG_Driver/src/usb_core.c ****     dthrctl.b.non_iso_thr_en = 1;
 1142              		.loc 1 1355 0
 1143 03aa 04BF     		itt	eq
 1144 03ac 114B     		ldreq	r3, .L99+8
 1145              	.LVL133:
1361:../STLibs//STM32_USB-Host-Device_Lib_V2.1.0/Libraries/STM32_USB_OTG_Driver/src/usb_core.c ****   }
 1146              		.loc 1 1361 0
 1147 03ae 0363     		streq	r3, [r0, #48]
1363:../STLibs//STM32_USB-Host-Device_Lib_V2.1.0/Libraries/STM32_USB_OTG_Driver/src/usb_core.c ****   return status;
 1148              		.loc 1 1363 0
 1149 03b0 2046     		mov	r0, r4
 1150 03b2 FFF7FEFF 		bl	USB_OTG_EnableDevInt
 1151              	.LVL134:
1365:../STLibs//STM32_USB-Host-Device_Lib_V2.1.0/Libraries/STM32_USB_OTG_Driver/src/usb_core.c **** 
 1152              		.loc 1 1365 0
 1153 03b6 0020     		movs	r0, #0
 1154 03b8 F8BD     		pop	{r3, r4, r5, r6, r7, pc}
 1155              	.LVL135:
 1156              	.L93:
1316:../STLibs//STM32_USB-Host-Device_Lib_V2.1.0/Libraries/STM32_USB_OTG_Driver/src/usb_core.c ****     if (depctl.b.epena)
 1157              		.loc 1 1316 0
 1158 03ba 52F8041B 		ldr	r1, [r2], #4
 1159 03be 0F68     		ldr	r7, [r1]
 1160              	.LVL136:
1319:../STLibs//STM32_USB-Host-Device_Lib_V2.1.0/Libraries/STM32_USB_OTG_Driver/src/usb_core.c ****       depctl.b.epdis = 1;
 1161              		.loc 1 1319 0
 1162 03c0 002F     		cmp	r7, #0
 1163 03c2 ACBF     		ite	ge
 1164 03c4 0027     		movge	r7, #0
 1165 03c6 4FF09047 		movlt	r7, #1207959552
 1166              	.LVL137:
1327:../STLibs//STM32_USB-Host-Device_Lib_V2.1.0/Libraries/STM32_USB_OTG_Driver/src/usb_core.c ****     USB_OTG_WRITE_REG32( &pdev->regs.INEP_REGS[i]->DIEPTSIZ, 0);
 1167              		.loc 1 1327 0
 1168 03ca 0F60     		str	r7, [r1]
1328:../STLibs//STM32_USB-Host-Device_Lib_V2.1.0/Libraries/STM32_USB_OTG_Driver/src/usb_core.c ****     USB_OTG_WRITE_REG32( &pdev->regs.INEP_REGS[i]->DIEPINT, 0xFF);
 1169              		.loc 1 1328 0
 1170 03cc 0B61     		str	r3, [r1, #16]
1329:../STLibs//STM32_USB-Host-Device_Lib_V2.1.0/Libraries/STM32_USB_OTG_Driver/src/usb_core.c ****   }
 1171              		.loc 1 1329 0
 1172 03ce 8E60     		str	r6, [r1, #8]
 1173 03d0 DBE7     		b	.L90
 1174              	.LVL138:
 1175              	.L97:
 1176              	.LBB28:
1334:../STLibs//STM32_USB-Host-Device_Lib_V2.1.0/Libraries/STM32_USB_OTG_Driver/src/usb_core.c ****     if (depctl.b.epena)
 1177              		.loc 1 1334 0
 1178 03d2 51F8042B 		ldr	r2, [r1], #4
 1179 03d6 1768     		ldr	r7, [r2]
 1180              	.LVL139:
1337:../STLibs//STM32_USB-Host-Device_Lib_V2.1.0/Libraries/STM32_USB_OTG_Driver/src/usb_core.c ****       depctl.b.epdis = 1;
 1181              		.loc 1 1337 0
 1182 03d8 002F     		cmp	r7, #0
 1183 03da ACBF     		ite	ge
 1184 03dc 0027     		movge	r7, #0
 1185 03de 4FF09047 		movlt	r7, #1207959552
 1186              	.LVL140:
1345:../STLibs//STM32_USB-Host-Device_Lib_V2.1.0/Libraries/STM32_USB_OTG_Driver/src/usb_core.c ****     USB_OTG_WRITE_REG32( &pdev->regs.OUTEP_REGS[i]->DOEPTSIZ, 0);
 1187              		.loc 1 1345 0
 1188 03e2 1760     		str	r7, [r2]
 1189              	.LBE28:
1331:../STLibs//STM32_USB-Host-Device_Lib_V2.1.0/Libraries/STM32_USB_OTG_Driver/src/usb_core.c ****   {
 1190              		.loc 1 1331 0
 1191 03e4 0133     		adds	r3, r3, #1
 1192              	.LVL141:
 1193              	.LBB29:
1346:../STLibs//STM32_USB-Host-Device_Lib_V2.1.0/Libraries/STM32_USB_OTG_Driver/src/usb_core.c ****     USB_OTG_WRITE_REG32( &pdev->regs.OUTEP_REGS[i]->DOEPINT, 0xFF);
 1194              		.loc 1 1346 0
 1195 03e6 1561     		str	r5, [r2, #16]
1347:../STLibs//STM32_USB-Host-Device_Lib_V2.1.0/Libraries/STM32_USB_OTG_Driver/src/usb_core.c ****   }
 1196              		.loc 1 1347 0
 1197 03e8 9660     		str	r6, [r2, #8]
 1198 03ea D5E7     		b	.L94
 1199              	.L100:
 1200              		.align	2
 1201              	.L99:
 1202 03ec A0008000 		.word	8388768
 1203 03f0 20012000 		.word	2097440
 1204 03f4 03018100 		.word	8454403
 1205              	.LBE29:
 1206              		.cfi_endproc
 1207              	.LFE127:
 1209              		.align	1
 1210              		.global	USB_OTG_GetDeviceSpeed
 1211              		.syntax unified
 1212              		.thumb
 1213              		.thumb_func
 1214              		.fpu fpv4-sp-d16
 1216              	USB_OTG_GetDeviceSpeed:
 1217              	.LFB129:
1409:../STLibs//STM32_USB-Host-Device_Lib_V2.1.0/Libraries/STM32_USB_OTG_Driver/src/usb_core.c **** 
1410:../STLibs//STM32_USB-Host-Device_Lib_V2.1.0/Libraries/STM32_USB_OTG_Driver/src/usb_core.c **** 
1411:../STLibs//STM32_USB-Host-Device_Lib_V2.1.0/Libraries/STM32_USB_OTG_Driver/src/usb_core.c **** /**
1412:../STLibs//STM32_USB-Host-Device_Lib_V2.1.0/Libraries/STM32_USB_OTG_Driver/src/usb_core.c **** * @brief  USB_OTG_GetDeviceSpeed
1413:../STLibs//STM32_USB-Host-Device_Lib_V2.1.0/Libraries/STM32_USB_OTG_Driver/src/usb_core.c **** *         Get the device speed from the device status register
1414:../STLibs//STM32_USB-Host-Device_Lib_V2.1.0/Libraries/STM32_USB_OTG_Driver/src/usb_core.c **** * @param  None
1415:../STLibs//STM32_USB-Host-Device_Lib_V2.1.0/Libraries/STM32_USB_OTG_Driver/src/usb_core.c **** * @retval status
1416:../STLibs//STM32_USB-Host-Device_Lib_V2.1.0/Libraries/STM32_USB_OTG_Driver/src/usb_core.c **** */
1417:../STLibs//STM32_USB-Host-Device_Lib_V2.1.0/Libraries/STM32_USB_OTG_Driver/src/usb_core.c **** enum USB_OTG_SPEED USB_OTG_GetDeviceSpeed (USB_OTG_CORE_HANDLE *pdev)
1418:../STLibs//STM32_USB-Host-Device_Lib_V2.1.0/Libraries/STM32_USB_OTG_Driver/src/usb_core.c **** {
 1218              		.loc 1 1418 0
 1219              		.cfi_startproc
 1220              		@ args = 0, pretend = 0, frame = 0
 1221              		@ frame_needed = 0, uses_anonymous_args = 0
 1222              		@ link register save eliminated.
 1223              	.LVL142:
1419:../STLibs//STM32_USB-Host-Device_Lib_V2.1.0/Libraries/STM32_USB_OTG_Driver/src/usb_core.c ****   USB_OTG_DSTS_TypeDef  dsts;
1420:../STLibs//STM32_USB-Host-Device_Lib_V2.1.0/Libraries/STM32_USB_OTG_Driver/src/usb_core.c ****   enum USB_OTG_SPEED speed = USB_SPEED_UNKNOWN;
1421:../STLibs//STM32_USB-Host-Device_Lib_V2.1.0/Libraries/STM32_USB_OTG_Driver/src/usb_core.c ****   
1422:../STLibs//STM32_USB-Host-Device_Lib_V2.1.0/Libraries/STM32_USB_OTG_Driver/src/usb_core.c ****   
1423:../STLibs//STM32_USB-Host-Device_Lib_V2.1.0/Libraries/STM32_USB_OTG_Driver/src/usb_core.c ****   dsts.d32 = USB_OTG_READ_REG32(&pdev->regs.DREGS->DSTS);
 1224              		.loc 1 1423 0
 1225 03f8 0369     		ldr	r3, [r0, #16]
 1226 03fa 9B68     		ldr	r3, [r3, #8]
1424:../STLibs//STM32_USB-Host-Device_Lib_V2.1.0/Libraries/STM32_USB_OTG_Driver/src/usb_core.c ****   
1425:../STLibs//STM32_USB-Host-Device_Lib_V2.1.0/Libraries/STM32_USB_OTG_Driver/src/usb_core.c ****   switch (dsts.b.enumspd)
 1227              		.loc 1 1425 0
 1228 03fc C3F34103 		ubfx	r3, r3, #1, #2
 1229 0400 022B     		cmp	r3, #2
 1230 0402 04D0     		beq	.L103
 1231 0404 01D8     		bhi	.L104
 1232 0406 012B     		cmp	r3, #1
 1233 0408 03D1     		bne	.L109
 1234              	.L104:
1426:../STLibs//STM32_USB-Host-Device_Lib_V2.1.0/Libraries/STM32_USB_OTG_Driver/src/usb_core.c ****   {
1427:../STLibs//STM32_USB-Host-Device_Lib_V2.1.0/Libraries/STM32_USB_OTG_Driver/src/usb_core.c ****   case DSTS_ENUMSPD_HS_PHY_30MHZ_OR_60MHZ:
1428:../STLibs//STM32_USB-Host-Device_Lib_V2.1.0/Libraries/STM32_USB_OTG_Driver/src/usb_core.c ****     speed = USB_SPEED_HIGH;
1429:../STLibs//STM32_USB-Host-Device_Lib_V2.1.0/Libraries/STM32_USB_OTG_Driver/src/usb_core.c ****     break;
1430:../STLibs//STM32_USB-Host-Device_Lib_V2.1.0/Libraries/STM32_USB_OTG_Driver/src/usb_core.c ****   case DSTS_ENUMSPD_FS_PHY_30MHZ_OR_60MHZ:
1431:../STLibs//STM32_USB-Host-Device_Lib_V2.1.0/Libraries/STM32_USB_OTG_Driver/src/usb_core.c ****   case DSTS_ENUMSPD_FS_PHY_48MHZ:
1432:../STLibs//STM32_USB-Host-Device_Lib_V2.1.0/Libraries/STM32_USB_OTG_Driver/src/usb_core.c ****     speed = USB_SPEED_FULL;
 1235              		.loc 1 1432 0
 1236 040a 0220     		movs	r0, #2
 1237              	.LVL143:
 1238 040c 7047     		bx	lr
 1239              	.LVL144:
 1240              	.L103:
1433:../STLibs//STM32_USB-Host-Device_Lib_V2.1.0/Libraries/STM32_USB_OTG_Driver/src/usb_core.c ****     break;
1434:../STLibs//STM32_USB-Host-Device_Lib_V2.1.0/Libraries/STM32_USB_OTG_Driver/src/usb_core.c ****     
1435:../STLibs//STM32_USB-Host-Device_Lib_V2.1.0/Libraries/STM32_USB_OTG_Driver/src/usb_core.c ****   case DSTS_ENUMSPD_LS_PHY_6MHZ:
1436:../STLibs//STM32_USB-Host-Device_Lib_V2.1.0/Libraries/STM32_USB_OTG_Driver/src/usb_core.c ****     speed = USB_SPEED_LOW;
 1241              		.loc 1 1436 0
 1242 040e 0120     		movs	r0, #1
 1243              	.LVL145:
1437:../STLibs//STM32_USB-Host-Device_Lib_V2.1.0/Libraries/STM32_USB_OTG_Driver/src/usb_core.c ****     break;
 1244              		.loc 1 1437 0
 1245 0410 7047     		bx	lr
 1246              	.LVL146:
 1247              	.L109:
1428:../STLibs//STM32_USB-Host-Device_Lib_V2.1.0/Libraries/STM32_USB_OTG_Driver/src/usb_core.c ****     break;
 1248              		.loc 1 1428 0
 1249 0412 0320     		movs	r0, #3
 1250              	.LVL147:
1438:../STLibs//STM32_USB-Host-Device_Lib_V2.1.0/Libraries/STM32_USB_OTG_Driver/src/usb_core.c ****   }
1439:../STLibs//STM32_USB-Host-Device_Lib_V2.1.0/Libraries/STM32_USB_OTG_Driver/src/usb_core.c ****   
1440:../STLibs//STM32_USB-Host-Device_Lib_V2.1.0/Libraries/STM32_USB_OTG_Driver/src/usb_core.c ****   return speed;
1441:../STLibs//STM32_USB-Host-Device_Lib_V2.1.0/Libraries/STM32_USB_OTG_Driver/src/usb_core.c **** }
 1251              		.loc 1 1441 0
 1252 0414 7047     		bx	lr
 1253              		.cfi_endproc
 1254              	.LFE129:
 1256              		.align	1
 1257              		.global	USB_OTG_EP0Activate
 1258              		.syntax unified
 1259              		.thumb
 1260              		.thumb_func
 1261              		.fpu fpv4-sp-d16
 1263              	USB_OTG_EP0Activate:
 1264              	.LFB130:
1442:../STLibs//STM32_USB-Host-Device_Lib_V2.1.0/Libraries/STM32_USB_OTG_Driver/src/usb_core.c **** /**
1443:../STLibs//STM32_USB-Host-Device_Lib_V2.1.0/Libraries/STM32_USB_OTG_Driver/src/usb_core.c **** * @brief  enables EP0 OUT to receive SETUP packets and configures EP0
1444:../STLibs//STM32_USB-Host-Device_Lib_V2.1.0/Libraries/STM32_USB_OTG_Driver/src/usb_core.c **** *   for transmitting packets
1445:../STLibs//STM32_USB-Host-Device_Lib_V2.1.0/Libraries/STM32_USB_OTG_Driver/src/usb_core.c **** * @param  None
1446:../STLibs//STM32_USB-Host-Device_Lib_V2.1.0/Libraries/STM32_USB_OTG_Driver/src/usb_core.c **** * @retval USB_OTG_STS : status
1447:../STLibs//STM32_USB-Host-Device_Lib_V2.1.0/Libraries/STM32_USB_OTG_Driver/src/usb_core.c **** */
1448:../STLibs//STM32_USB-Host-Device_Lib_V2.1.0/Libraries/STM32_USB_OTG_Driver/src/usb_core.c **** USB_OTG_STS  USB_OTG_EP0Activate(USB_OTG_CORE_HANDLE *pdev)
1449:../STLibs//STM32_USB-Host-Device_Lib_V2.1.0/Libraries/STM32_USB_OTG_Driver/src/usb_core.c **** {
 1265              		.loc 1 1449 0
 1266              		.cfi_startproc
 1267              		@ args = 0, pretend = 0, frame = 0
 1268              		@ frame_needed = 0, uses_anonymous_args = 0
 1269              		@ link register save eliminated.
 1270              	.LVL148:
1450:../STLibs//STM32_USB-Host-Device_Lib_V2.1.0/Libraries/STM32_USB_OTG_Driver/src/usb_core.c ****   USB_OTG_STS             status = USB_OTG_OK;
1451:../STLibs//STM32_USB-Host-Device_Lib_V2.1.0/Libraries/STM32_USB_OTG_Driver/src/usb_core.c ****   USB_OTG_DSTS_TypeDef    dsts;
1452:../STLibs//STM32_USB-Host-Device_Lib_V2.1.0/Libraries/STM32_USB_OTG_Driver/src/usb_core.c ****   USB_OTG_DEPCTL_TypeDef  diepctl;
1453:../STLibs//STM32_USB-Host-Device_Lib_V2.1.0/Libraries/STM32_USB_OTG_Driver/src/usb_core.c ****   USB_OTG_DCTL_TypeDef    dctl;
1454:../STLibs//STM32_USB-Host-Device_Lib_V2.1.0/Libraries/STM32_USB_OTG_Driver/src/usb_core.c ****   
1455:../STLibs//STM32_USB-Host-Device_Lib_V2.1.0/Libraries/STM32_USB_OTG_Driver/src/usb_core.c ****   dctl.d32 = 0;
1456:../STLibs//STM32_USB-Host-Device_Lib_V2.1.0/Libraries/STM32_USB_OTG_Driver/src/usb_core.c ****   /* Read the Device Status and Endpoint 0 Control registers */
1457:../STLibs//STM32_USB-Host-Device_Lib_V2.1.0/Libraries/STM32_USB_OTG_Driver/src/usb_core.c ****   dsts.d32 = USB_OTG_READ_REG32(&pdev->regs.DREGS->DSTS);
 1271              		.loc 1 1457 0
 1272 0416 0369     		ldr	r3, [r0, #16]
1458:../STLibs//STM32_USB-Host-Device_Lib_V2.1.0/Libraries/STM32_USB_OTG_Driver/src/usb_core.c ****   diepctl.d32 = USB_OTG_READ_REG32(&pdev->regs.INEP_REGS[0]->DIEPCTL);
 1273              		.loc 1 1458 0
 1274 0418 8069     		ldr	r0, [r0, #24]
 1275              	.LVL149:
1457:../STLibs//STM32_USB-Host-Device_Lib_V2.1.0/Libraries/STM32_USB_OTG_Driver/src/usb_core.c ****   diepctl.d32 = USB_OTG_READ_REG32(&pdev->regs.INEP_REGS[0]->DIEPCTL);
 1276              		.loc 1 1457 0
 1277 041a 9968     		ldr	r1, [r3, #8]
 1278              		.loc 1 1458 0
 1279 041c 0268     		ldr	r2, [r0]
 1280              	.LVL150:
1459:../STLibs//STM32_USB-Host-Device_Lib_V2.1.0/Libraries/STM32_USB_OTG_Driver/src/usb_core.c ****   /* Set the MPS of the IN EP based on the enumeration speed */
1460:../STLibs//STM32_USB-Host-Device_Lib_V2.1.0/Libraries/STM32_USB_OTG_Driver/src/usb_core.c ****   switch (dsts.b.enumspd)
 1281              		.loc 1 1460 0
 1282 041e C1F34101 		ubfx	r1, r1, #1, #2
 1283 0422 0229     		cmp	r1, #2
1461:../STLibs//STM32_USB-Host-Device_Lib_V2.1.0/Libraries/STM32_USB_OTG_Driver/src/usb_core.c ****   {
1462:../STLibs//STM32_USB-Host-Device_Lib_V2.1.0/Libraries/STM32_USB_OTG_Driver/src/usb_core.c ****   case DSTS_ENUMSPD_HS_PHY_30MHZ_OR_60MHZ:
1463:../STLibs//STM32_USB-Host-Device_Lib_V2.1.0/Libraries/STM32_USB_OTG_Driver/src/usb_core.c ****   case DSTS_ENUMSPD_FS_PHY_30MHZ_OR_60MHZ:
1464:../STLibs//STM32_USB-Host-Device_Lib_V2.1.0/Libraries/STM32_USB_OTG_Driver/src/usb_core.c ****   case DSTS_ENUMSPD_FS_PHY_48MHZ:
1465:../STLibs//STM32_USB-Host-Device_Lib_V2.1.0/Libraries/STM32_USB_OTG_Driver/src/usb_core.c ****     diepctl.b.mps = DEP0CTL_MPS_64;
1466:../STLibs//STM32_USB-Host-Device_Lib_V2.1.0/Libraries/STM32_USB_OTG_Driver/src/usb_core.c ****     break;
1467:../STLibs//STM32_USB-Host-Device_Lib_V2.1.0/Libraries/STM32_USB_OTG_Driver/src/usb_core.c ****   case DSTS_ENUMSPD_LS_PHY_6MHZ:
1468:../STLibs//STM32_USB-Host-Device_Lib_V2.1.0/Libraries/STM32_USB_OTG_Driver/src/usb_core.c ****     diepctl.b.mps = DEP0CTL_MPS_8;
 1284              		.loc 1 1468 0
 1285 0424 0ABF     		itet	eq
 1286 0426 0321     		moveq	r1, #3
1465:../STLibs//STM32_USB-Host-Device_Lib_V2.1.0/Libraries/STM32_USB_OTG_Driver/src/usb_core.c ****     break;
 1287              		.loc 1 1465 0
 1288 0428 6FF30A02 		bfcne	r2, #0, #11
 1289              		.loc 1 1468 0
 1290 042c 61F30A02 		bfieq	r2, r1, #0, #11
1469:../STLibs//STM32_USB-Host-Device_Lib_V2.1.0/Libraries/STM32_USB_OTG_Driver/src/usb_core.c ****     break;
1470:../STLibs//STM32_USB-Host-Device_Lib_V2.1.0/Libraries/STM32_USB_OTG_Driver/src/usb_core.c ****   }
1471:../STLibs//STM32_USB-Host-Device_Lib_V2.1.0/Libraries/STM32_USB_OTG_Driver/src/usb_core.c ****   USB_OTG_WRITE_REG32(&pdev->regs.INEP_REGS[0]->DIEPCTL, diepctl.d32);
 1291              		.loc 1 1471 0
 1292 0430 0260     		str	r2, [r0]
1472:../STLibs//STM32_USB-Host-Device_Lib_V2.1.0/Libraries/STM32_USB_OTG_Driver/src/usb_core.c ****   dctl.b.cgnpinnak = 1;
1473:../STLibs//STM32_USB-Host-Device_Lib_V2.1.0/Libraries/STM32_USB_OTG_Driver/src/usb_core.c ****   USB_OTG_MODIFY_REG32(&pdev->regs.DREGS->DCTL, dctl.d32, dctl.d32);
 1293              		.loc 1 1473 0
 1294 0432 5A68     		ldr	r2, [r3, #4]
 1295              	.LVL151:
 1296 0434 42F48072 		orr	r2, r2, #256
 1297 0438 5A60     		str	r2, [r3, #4]
1474:../STLibs//STM32_USB-Host-Device_Lib_V2.1.0/Libraries/STM32_USB_OTG_Driver/src/usb_core.c ****   return status;
1475:../STLibs//STM32_USB-Host-Device_Lib_V2.1.0/Libraries/STM32_USB_OTG_Driver/src/usb_core.c **** }
 1298              		.loc 1 1475 0
 1299 043a 0020     		movs	r0, #0
 1300 043c 7047     		bx	lr
 1301              		.cfi_endproc
 1302              	.LFE130:
 1304              		.align	1
 1305              		.global	USB_OTG_EPActivate
 1306              		.syntax unified
 1307              		.thumb
 1308              		.thumb_func
 1309              		.fpu fpv4-sp-d16
 1311              	USB_OTG_EPActivate:
 1312              	.LFB131:
1476:../STLibs//STM32_USB-Host-Device_Lib_V2.1.0/Libraries/STM32_USB_OTG_Driver/src/usb_core.c **** 
1477:../STLibs//STM32_USB-Host-Device_Lib_V2.1.0/Libraries/STM32_USB_OTG_Driver/src/usb_core.c **** 
1478:../STLibs//STM32_USB-Host-Device_Lib_V2.1.0/Libraries/STM32_USB_OTG_Driver/src/usb_core.c **** /**
1479:../STLibs//STM32_USB-Host-Device_Lib_V2.1.0/Libraries/STM32_USB_OTG_Driver/src/usb_core.c **** * @brief  USB_OTG_EPActivate : Activates an EP
1480:../STLibs//STM32_USB-Host-Device_Lib_V2.1.0/Libraries/STM32_USB_OTG_Driver/src/usb_core.c **** * @param  pdev : Selected device
1481:../STLibs//STM32_USB-Host-Device_Lib_V2.1.0/Libraries/STM32_USB_OTG_Driver/src/usb_core.c **** * @retval USB_OTG_STS : status
1482:../STLibs//STM32_USB-Host-Device_Lib_V2.1.0/Libraries/STM32_USB_OTG_Driver/src/usb_core.c **** */
1483:../STLibs//STM32_USB-Host-Device_Lib_V2.1.0/Libraries/STM32_USB_OTG_Driver/src/usb_core.c **** USB_OTG_STS USB_OTG_EPActivate(USB_OTG_CORE_HANDLE *pdev , USB_OTG_EP *ep)
1484:../STLibs//STM32_USB-Host-Device_Lib_V2.1.0/Libraries/STM32_USB_OTG_Driver/src/usb_core.c **** {
 1313              		.loc 1 1484 0
 1314              		.cfi_startproc
 1315              		@ args = 0, pretend = 0, frame = 0
 1316              		@ frame_needed = 0, uses_anonymous_args = 0
 1317              	.LVL152:
 1318 043e 0B78     		ldrb	r3, [r1]	@ zero_extendqisi2
 1319 0440 30B5     		push	{r4, r5, lr}
 1320              	.LCFI13:
 1321              		.cfi_def_cfa_offset 12
 1322              		.cfi_offset 4, -12
 1323              		.cfi_offset 5, -8
 1324              		.cfi_offset 14, -4
 1325 0442 0122     		movs	r2, #1
1485:../STLibs//STM32_USB-Host-Device_Lib_V2.1.0/Libraries/STM32_USB_OTG_Driver/src/usb_core.c ****   USB_OTG_STS status = USB_OTG_OK;
1486:../STLibs//STM32_USB-Host-Device_Lib_V2.1.0/Libraries/STM32_USB_OTG_Driver/src/usb_core.c ****   USB_OTG_DEPCTL_TypeDef  depctl;
1487:../STLibs//STM32_USB-Host-Device_Lib_V2.1.0/Libraries/STM32_USB_OTG_Driver/src/usb_core.c ****   USB_OTG_DAINT_TypeDef  daintmsk;
1488:../STLibs//STM32_USB-Host-Device_Lib_V2.1.0/Libraries/STM32_USB_OTG_Driver/src/usb_core.c ****   __IO uint32_t *addr;
1489:../STLibs//STM32_USB-Host-Device_Lib_V2.1.0/Libraries/STM32_USB_OTG_Driver/src/usb_core.c ****   
1490:../STLibs//STM32_USB-Host-Device_Lib_V2.1.0/Libraries/STM32_USB_OTG_Driver/src/usb_core.c ****   
1491:../STLibs//STM32_USB-Host-Device_Lib_V2.1.0/Libraries/STM32_USB_OTG_Driver/src/usb_core.c ****   depctl.d32 = 0;
1492:../STLibs//STM32_USB-Host-Device_Lib_V2.1.0/Libraries/STM32_USB_OTG_Driver/src/usb_core.c ****   daintmsk.d32 = 0;
1493:../STLibs//STM32_USB-Host-Device_Lib_V2.1.0/Libraries/STM32_USB_OTG_Driver/src/usb_core.c ****   /* Read DEPCTLn register */
1494:../STLibs//STM32_USB-Host-Device_Lib_V2.1.0/Libraries/STM32_USB_OTG_Driver/src/usb_core.c ****   if (ep->is_in == 1)
 1326              		.loc 1 1494 0
 1327 0444 4D78     		ldrb	r5, [r1, #1]	@ zero_extendqisi2
 1328 0446 9A40     		lsls	r2, r2, r3
1495:../STLibs//STM32_USB-Host-Device_Lib_V2.1.0/Libraries/STM32_USB_OTG_Driver/src/usb_core.c ****   {
1496:../STLibs//STM32_USB-Host-Device_Lib_V2.1.0/Libraries/STM32_USB_OTG_Driver/src/usb_core.c ****     addr = &pdev->regs.INEP_REGS[ep->num]->DIEPCTL;
 1329              		.loc 1 1496 0
 1330 0448 00EB8303 		add	r3, r0, r3, lsl #2
1494:../STLibs//STM32_USB-Host-Device_Lib_V2.1.0/Libraries/STM32_USB_OTG_Driver/src/usb_core.c ****   {
 1331              		.loc 1 1494 0
 1332 044c 012D     		cmp	r5, #1
 1333              		.loc 1 1496 0
 1334 044e 0CBF     		ite	eq
 1335 0450 9D69     		ldreq	r5, [r3, #24]
 1336              	.LVL153:
1497:../STLibs//STM32_USB-Host-Device_Lib_V2.1.0/Libraries/STM32_USB_OTG_Driver/src/usb_core.c ****     daintmsk.ep.in = 1 << ep->num;
1498:../STLibs//STM32_USB-Host-Device_Lib_V2.1.0/Libraries/STM32_USB_OTG_Driver/src/usb_core.c ****   }
1499:../STLibs//STM32_USB-Host-Device_Lib_V2.1.0/Libraries/STM32_USB_OTG_Driver/src/usb_core.c ****   else
1500:../STLibs//STM32_USB-Host-Device_Lib_V2.1.0/Libraries/STM32_USB_OTG_Driver/src/usb_core.c ****   {
1501:../STLibs//STM32_USB-Host-Device_Lib_V2.1.0/Libraries/STM32_USB_OTG_Driver/src/usb_core.c ****     addr = &pdev->regs.OUTEP_REGS[ep->num]->DOEPCTL;
 1337              		.loc 1 1501 0
 1338 0452 5D6D     		ldrne	r5, [r3, #84]
 1339              	.LVL154:
1502:../STLibs//STM32_USB-Host-Device_Lib_V2.1.0/Libraries/STM32_USB_OTG_Driver/src/usb_core.c ****     daintmsk.ep.out = 1 << ep->num;
1503:../STLibs//STM32_USB-Host-Device_Lib_V2.1.0/Libraries/STM32_USB_OTG_Driver/src/usb_core.c ****   }
1504:../STLibs//STM32_USB-Host-Device_Lib_V2.1.0/Libraries/STM32_USB_OTG_Driver/src/usb_core.c ****   /* If the EP is already active don't change the EP Control
1505:../STLibs//STM32_USB-Host-Device_Lib_V2.1.0/Libraries/STM32_USB_OTG_Driver/src/usb_core.c ****   * register. */
1506:../STLibs//STM32_USB-Host-Device_Lib_V2.1.0/Libraries/STM32_USB_OTG_Driver/src/usb_core.c ****   depctl.d32 = USB_OTG_READ_REG32(addr);
