   1              		.cpu cortex-m4
   2              		.eabi_attribute 27, 1
   3              		.eabi_attribute 20, 1
   4              		.eabi_attribute 21, 1
   5              		.eabi_attribute 23, 3
   6              		.eabi_attribute 24, 1
   7              		.eabi_attribute 25, 1
   8              		.eabi_attribute 26, 1
   9              		.eabi_attribute 30, 4
  10              		.eabi_attribute 34, 1
  11              		.eabi_attribute 18, 4
  12              		.file	"usb_core.c"
  13              		.text
  14              	.Ltext0:
  15              		.cfi_sections	.debug_frame
  16              		.align	1
  17              		.syntax unified
  18              		.thumb
  19              		.thumb_func
  20              		.fpu fpv4-sp-d16
  22              	USB_OTG_CoreReset.isra.1:
  23              	.LFB147:
  24              		.file 1 "../STLibs//STM32_USB-Host-Device_Lib_V2.1.0/Libraries/STM32_USB_OTG_Driver/src/usb_core.c
   1:../STLibs//STM32_USB-Host-Device_Lib_V2.1.0/Libraries/STM32_USB_OTG_Driver/src/usb_core.c **** /**
   2:../STLibs//STM32_USB-Host-Device_Lib_V2.1.0/Libraries/STM32_USB_OTG_Driver/src/usb_core.c ****   ******************************************************************************
   3:../STLibs//STM32_USB-Host-Device_Lib_V2.1.0/Libraries/STM32_USB_OTG_Driver/src/usb_core.c ****   * @file    usb_core.c
   4:../STLibs//STM32_USB-Host-Device_Lib_V2.1.0/Libraries/STM32_USB_OTG_Driver/src/usb_core.c ****   * @author  MCD Application Team
   5:../STLibs//STM32_USB-Host-Device_Lib_V2.1.0/Libraries/STM32_USB_OTG_Driver/src/usb_core.c ****   * @version V2.1.0
   6:../STLibs//STM32_USB-Host-Device_Lib_V2.1.0/Libraries/STM32_USB_OTG_Driver/src/usb_core.c ****   * @date    19-March-2012
   7:../STLibs//STM32_USB-Host-Device_Lib_V2.1.0/Libraries/STM32_USB_OTG_Driver/src/usb_core.c ****   * @brief   USB-OTG Core Layer
   8:../STLibs//STM32_USB-Host-Device_Lib_V2.1.0/Libraries/STM32_USB_OTG_Driver/src/usb_core.c ****   ******************************************************************************
   9:../STLibs//STM32_USB-Host-Device_Lib_V2.1.0/Libraries/STM32_USB_OTG_Driver/src/usb_core.c ****   * @attention
  10:../STLibs//STM32_USB-Host-Device_Lib_V2.1.0/Libraries/STM32_USB_OTG_Driver/src/usb_core.c ****   *
  11:../STLibs//STM32_USB-Host-Device_Lib_V2.1.0/Libraries/STM32_USB_OTG_Driver/src/usb_core.c ****   * <h2><center>&copy; COPYRIGHT 2012 STMicroelectronics</center></h2>
  12:../STLibs//STM32_USB-Host-Device_Lib_V2.1.0/Libraries/STM32_USB_OTG_Driver/src/usb_core.c ****   *
  13:../STLibs//STM32_USB-Host-Device_Lib_V2.1.0/Libraries/STM32_USB_OTG_Driver/src/usb_core.c ****   * Licensed under MCD-ST Liberty SW License Agreement V2, (the "License");
  14:../STLibs//STM32_USB-Host-Device_Lib_V2.1.0/Libraries/STM32_USB_OTG_Driver/src/usb_core.c ****   * You may not use this file except in compliance with the License.
  15:../STLibs//STM32_USB-Host-Device_Lib_V2.1.0/Libraries/STM32_USB_OTG_Driver/src/usb_core.c ****   * You may obtain a copy of the License at:
  16:../STLibs//STM32_USB-Host-Device_Lib_V2.1.0/Libraries/STM32_USB_OTG_Driver/src/usb_core.c ****   *
  17:../STLibs//STM32_USB-Host-Device_Lib_V2.1.0/Libraries/STM32_USB_OTG_Driver/src/usb_core.c ****   *        http://www.st.com/software_license_agreement_liberty_v2
  18:../STLibs//STM32_USB-Host-Device_Lib_V2.1.0/Libraries/STM32_USB_OTG_Driver/src/usb_core.c ****   *
  19:../STLibs//STM32_USB-Host-Device_Lib_V2.1.0/Libraries/STM32_USB_OTG_Driver/src/usb_core.c ****   * Unless required by applicable law or agreed to in writing, software 
  20:../STLibs//STM32_USB-Host-Device_Lib_V2.1.0/Libraries/STM32_USB_OTG_Driver/src/usb_core.c ****   * distributed under the License is distributed on an "AS IS" BASIS, 
  21:../STLibs//STM32_USB-Host-Device_Lib_V2.1.0/Libraries/STM32_USB_OTG_Driver/src/usb_core.c ****   * WITHOUT WARRANTIES OR CONDITIONS OF ANY KIND, either express or implied.
  22:../STLibs//STM32_USB-Host-Device_Lib_V2.1.0/Libraries/STM32_USB_OTG_Driver/src/usb_core.c ****   * See the License for the specific language governing permissions and
  23:../STLibs//STM32_USB-Host-Device_Lib_V2.1.0/Libraries/STM32_USB_OTG_Driver/src/usb_core.c ****   * limitations under the License.
  24:../STLibs//STM32_USB-Host-Device_Lib_V2.1.0/Libraries/STM32_USB_OTG_Driver/src/usb_core.c ****   *
  25:../STLibs//STM32_USB-Host-Device_Lib_V2.1.0/Libraries/STM32_USB_OTG_Driver/src/usb_core.c ****   ******************************************************************************
  26:../STLibs//STM32_USB-Host-Device_Lib_V2.1.0/Libraries/STM32_USB_OTG_Driver/src/usb_core.c ****   */
  27:../STLibs//STM32_USB-Host-Device_Lib_V2.1.0/Libraries/STM32_USB_OTG_Driver/src/usb_core.c **** 
  28:../STLibs//STM32_USB-Host-Device_Lib_V2.1.0/Libraries/STM32_USB_OTG_Driver/src/usb_core.c **** /* Includes ------------------------------------------------------------------*/
  29:../STLibs//STM32_USB-Host-Device_Lib_V2.1.0/Libraries/STM32_USB_OTG_Driver/src/usb_core.c **** #include "usb_core.h"
  30:../STLibs//STM32_USB-Host-Device_Lib_V2.1.0/Libraries/STM32_USB_OTG_Driver/src/usb_core.c **** #include "usb_bsp.h"
  31:../STLibs//STM32_USB-Host-Device_Lib_V2.1.0/Libraries/STM32_USB_OTG_Driver/src/usb_core.c **** 
  32:../STLibs//STM32_USB-Host-Device_Lib_V2.1.0/Libraries/STM32_USB_OTG_Driver/src/usb_core.c **** 
  33:../STLibs//STM32_USB-Host-Device_Lib_V2.1.0/Libraries/STM32_USB_OTG_Driver/src/usb_core.c **** /** @addtogroup USB_OTG_DRIVER
  34:../STLibs//STM32_USB-Host-Device_Lib_V2.1.0/Libraries/STM32_USB_OTG_Driver/src/usb_core.c **** * @{
  35:../STLibs//STM32_USB-Host-Device_Lib_V2.1.0/Libraries/STM32_USB_OTG_Driver/src/usb_core.c **** */
  36:../STLibs//STM32_USB-Host-Device_Lib_V2.1.0/Libraries/STM32_USB_OTG_Driver/src/usb_core.c **** 
  37:../STLibs//STM32_USB-Host-Device_Lib_V2.1.0/Libraries/STM32_USB_OTG_Driver/src/usb_core.c **** /** @defgroup USB_CORE 
  38:../STLibs//STM32_USB-Host-Device_Lib_V2.1.0/Libraries/STM32_USB_OTG_Driver/src/usb_core.c **** * @brief This file includes the USB-OTG Core Layer
  39:../STLibs//STM32_USB-Host-Device_Lib_V2.1.0/Libraries/STM32_USB_OTG_Driver/src/usb_core.c **** * @{
  40:../STLibs//STM32_USB-Host-Device_Lib_V2.1.0/Libraries/STM32_USB_OTG_Driver/src/usb_core.c **** */
  41:../STLibs//STM32_USB-Host-Device_Lib_V2.1.0/Libraries/STM32_USB_OTG_Driver/src/usb_core.c **** 
  42:../STLibs//STM32_USB-Host-Device_Lib_V2.1.0/Libraries/STM32_USB_OTG_Driver/src/usb_core.c **** 
  43:../STLibs//STM32_USB-Host-Device_Lib_V2.1.0/Libraries/STM32_USB_OTG_Driver/src/usb_core.c **** /** @defgroup USB_CORE_Private_Defines
  44:../STLibs//STM32_USB-Host-Device_Lib_V2.1.0/Libraries/STM32_USB_OTG_Driver/src/usb_core.c **** * @{
  45:../STLibs//STM32_USB-Host-Device_Lib_V2.1.0/Libraries/STM32_USB_OTG_Driver/src/usb_core.c **** */ 
  46:../STLibs//STM32_USB-Host-Device_Lib_V2.1.0/Libraries/STM32_USB_OTG_Driver/src/usb_core.c **** 
  47:../STLibs//STM32_USB-Host-Device_Lib_V2.1.0/Libraries/STM32_USB_OTG_Driver/src/usb_core.c **** /**
  48:../STLibs//STM32_USB-Host-Device_Lib_V2.1.0/Libraries/STM32_USB_OTG_Driver/src/usb_core.c **** * @}
  49:../STLibs//STM32_USB-Host-Device_Lib_V2.1.0/Libraries/STM32_USB_OTG_Driver/src/usb_core.c **** */ 
  50:../STLibs//STM32_USB-Host-Device_Lib_V2.1.0/Libraries/STM32_USB_OTG_Driver/src/usb_core.c **** 
  51:../STLibs//STM32_USB-Host-Device_Lib_V2.1.0/Libraries/STM32_USB_OTG_Driver/src/usb_core.c **** 
  52:../STLibs//STM32_USB-Host-Device_Lib_V2.1.0/Libraries/STM32_USB_OTG_Driver/src/usb_core.c **** /** @defgroup USB_CORE_Private_TypesDefinitions
  53:../STLibs//STM32_USB-Host-Device_Lib_V2.1.0/Libraries/STM32_USB_OTG_Driver/src/usb_core.c **** * @{
  54:../STLibs//STM32_USB-Host-Device_Lib_V2.1.0/Libraries/STM32_USB_OTG_Driver/src/usb_core.c **** */ 
  55:../STLibs//STM32_USB-Host-Device_Lib_V2.1.0/Libraries/STM32_USB_OTG_Driver/src/usb_core.c **** /**
  56:../STLibs//STM32_USB-Host-Device_Lib_V2.1.0/Libraries/STM32_USB_OTG_Driver/src/usb_core.c **** * @}
  57:../STLibs//STM32_USB-Host-Device_Lib_V2.1.0/Libraries/STM32_USB_OTG_Driver/src/usb_core.c **** */ 
  58:../STLibs//STM32_USB-Host-Device_Lib_V2.1.0/Libraries/STM32_USB_OTG_Driver/src/usb_core.c **** 
  59:../STLibs//STM32_USB-Host-Device_Lib_V2.1.0/Libraries/STM32_USB_OTG_Driver/src/usb_core.c **** 
  60:../STLibs//STM32_USB-Host-Device_Lib_V2.1.0/Libraries/STM32_USB_OTG_Driver/src/usb_core.c **** 
  61:../STLibs//STM32_USB-Host-Device_Lib_V2.1.0/Libraries/STM32_USB_OTG_Driver/src/usb_core.c **** /** @defgroup USB_CORE_Private_Macros
  62:../STLibs//STM32_USB-Host-Device_Lib_V2.1.0/Libraries/STM32_USB_OTG_Driver/src/usb_core.c **** * @{
  63:../STLibs//STM32_USB-Host-Device_Lib_V2.1.0/Libraries/STM32_USB_OTG_Driver/src/usb_core.c **** */ 
  64:../STLibs//STM32_USB-Host-Device_Lib_V2.1.0/Libraries/STM32_USB_OTG_Driver/src/usb_core.c **** /**
  65:../STLibs//STM32_USB-Host-Device_Lib_V2.1.0/Libraries/STM32_USB_OTG_Driver/src/usb_core.c **** * @}
  66:../STLibs//STM32_USB-Host-Device_Lib_V2.1.0/Libraries/STM32_USB_OTG_Driver/src/usb_core.c **** */ 
  67:../STLibs//STM32_USB-Host-Device_Lib_V2.1.0/Libraries/STM32_USB_OTG_Driver/src/usb_core.c **** 
  68:../STLibs//STM32_USB-Host-Device_Lib_V2.1.0/Libraries/STM32_USB_OTG_Driver/src/usb_core.c **** 
  69:../STLibs//STM32_USB-Host-Device_Lib_V2.1.0/Libraries/STM32_USB_OTG_Driver/src/usb_core.c **** /** @defgroup USB_CORE_Private_Variables
  70:../STLibs//STM32_USB-Host-Device_Lib_V2.1.0/Libraries/STM32_USB_OTG_Driver/src/usb_core.c **** * @{
  71:../STLibs//STM32_USB-Host-Device_Lib_V2.1.0/Libraries/STM32_USB_OTG_Driver/src/usb_core.c **** */ 
  72:../STLibs//STM32_USB-Host-Device_Lib_V2.1.0/Libraries/STM32_USB_OTG_Driver/src/usb_core.c **** /**
  73:../STLibs//STM32_USB-Host-Device_Lib_V2.1.0/Libraries/STM32_USB_OTG_Driver/src/usb_core.c **** * @}
  74:../STLibs//STM32_USB-Host-Device_Lib_V2.1.0/Libraries/STM32_USB_OTG_Driver/src/usb_core.c **** */ 
  75:../STLibs//STM32_USB-Host-Device_Lib_V2.1.0/Libraries/STM32_USB_OTG_Driver/src/usb_core.c **** 
  76:../STLibs//STM32_USB-Host-Device_Lib_V2.1.0/Libraries/STM32_USB_OTG_Driver/src/usb_core.c **** 
  77:../STLibs//STM32_USB-Host-Device_Lib_V2.1.0/Libraries/STM32_USB_OTG_Driver/src/usb_core.c **** /** @defgroup USB_CORE_Private_FunctionPrototypes
  78:../STLibs//STM32_USB-Host-Device_Lib_V2.1.0/Libraries/STM32_USB_OTG_Driver/src/usb_core.c **** * @{
  79:../STLibs//STM32_USB-Host-Device_Lib_V2.1.0/Libraries/STM32_USB_OTG_Driver/src/usb_core.c **** */ 
  80:../STLibs//STM32_USB-Host-Device_Lib_V2.1.0/Libraries/STM32_USB_OTG_Driver/src/usb_core.c **** /**
  81:../STLibs//STM32_USB-Host-Device_Lib_V2.1.0/Libraries/STM32_USB_OTG_Driver/src/usb_core.c **** * @}
  82:../STLibs//STM32_USB-Host-Device_Lib_V2.1.0/Libraries/STM32_USB_OTG_Driver/src/usb_core.c **** */ 
  83:../STLibs//STM32_USB-Host-Device_Lib_V2.1.0/Libraries/STM32_USB_OTG_Driver/src/usb_core.c **** 
  84:../STLibs//STM32_USB-Host-Device_Lib_V2.1.0/Libraries/STM32_USB_OTG_Driver/src/usb_core.c **** 
  85:../STLibs//STM32_USB-Host-Device_Lib_V2.1.0/Libraries/STM32_USB_OTG_Driver/src/usb_core.c **** /** @defgroup USB_CORE_Private_Functions
  86:../STLibs//STM32_USB-Host-Device_Lib_V2.1.0/Libraries/STM32_USB_OTG_Driver/src/usb_core.c **** * @{
  87:../STLibs//STM32_USB-Host-Device_Lib_V2.1.0/Libraries/STM32_USB_OTG_Driver/src/usb_core.c **** */ 
  88:../STLibs//STM32_USB-Host-Device_Lib_V2.1.0/Libraries/STM32_USB_OTG_Driver/src/usb_core.c **** 
  89:../STLibs//STM32_USB-Host-Device_Lib_V2.1.0/Libraries/STM32_USB_OTG_Driver/src/usb_core.c **** /**
  90:../STLibs//STM32_USB-Host-Device_Lib_V2.1.0/Libraries/STM32_USB_OTG_Driver/src/usb_core.c **** * @brief  USB_OTG_EnableCommonInt
  91:../STLibs//STM32_USB-Host-Device_Lib_V2.1.0/Libraries/STM32_USB_OTG_Driver/src/usb_core.c **** *         Initializes the commmon interrupts, used in both device and modes
  92:../STLibs//STM32_USB-Host-Device_Lib_V2.1.0/Libraries/STM32_USB_OTG_Driver/src/usb_core.c **** * @param  pdev : Selected device
  93:../STLibs//STM32_USB-Host-Device_Lib_V2.1.0/Libraries/STM32_USB_OTG_Driver/src/usb_core.c **** * @retval None
  94:../STLibs//STM32_USB-Host-Device_Lib_V2.1.0/Libraries/STM32_USB_OTG_Driver/src/usb_core.c **** */
  95:../STLibs//STM32_USB-Host-Device_Lib_V2.1.0/Libraries/STM32_USB_OTG_Driver/src/usb_core.c **** static void USB_OTG_EnableCommonInt(USB_OTG_CORE_HANDLE *pdev)
  96:../STLibs//STM32_USB-Host-Device_Lib_V2.1.0/Libraries/STM32_USB_OTG_Driver/src/usb_core.c **** {
  97:../STLibs//STM32_USB-Host-Device_Lib_V2.1.0/Libraries/STM32_USB_OTG_Driver/src/usb_core.c ****   USB_OTG_GINTMSK_TypeDef  int_mask;
  98:../STLibs//STM32_USB-Host-Device_Lib_V2.1.0/Libraries/STM32_USB_OTG_Driver/src/usb_core.c ****   
  99:../STLibs//STM32_USB-Host-Device_Lib_V2.1.0/Libraries/STM32_USB_OTG_Driver/src/usb_core.c ****   int_mask.d32 = 0;
 100:../STLibs//STM32_USB-Host-Device_Lib_V2.1.0/Libraries/STM32_USB_OTG_Driver/src/usb_core.c ****   /* Clear any pending USB_OTG Interrupts */
 101:../STLibs//STM32_USB-Host-Device_Lib_V2.1.0/Libraries/STM32_USB_OTG_Driver/src/usb_core.c **** #ifndef USE_OTG_MODE
 102:../STLibs//STM32_USB-Host-Device_Lib_V2.1.0/Libraries/STM32_USB_OTG_Driver/src/usb_core.c ****   USB_OTG_WRITE_REG32( &pdev->regs.GREGS->GOTGINT, 0xFFFFFFFF);
 103:../STLibs//STM32_USB-Host-Device_Lib_V2.1.0/Libraries/STM32_USB_OTG_Driver/src/usb_core.c **** #endif
 104:../STLibs//STM32_USB-Host-Device_Lib_V2.1.0/Libraries/STM32_USB_OTG_Driver/src/usb_core.c ****   /* Clear any pending interrupts */
 105:../STLibs//STM32_USB-Host-Device_Lib_V2.1.0/Libraries/STM32_USB_OTG_Driver/src/usb_core.c ****   USB_OTG_WRITE_REG32( &pdev->regs.GREGS->GINTSTS, 0xBFFFFFFF);
 106:../STLibs//STM32_USB-Host-Device_Lib_V2.1.0/Libraries/STM32_USB_OTG_Driver/src/usb_core.c ****   /* Enable the interrupts in the INTMSK */
 107:../STLibs//STM32_USB-Host-Device_Lib_V2.1.0/Libraries/STM32_USB_OTG_Driver/src/usb_core.c ****   int_mask.b.wkupintr = 1;
 108:../STLibs//STM32_USB-Host-Device_Lib_V2.1.0/Libraries/STM32_USB_OTG_Driver/src/usb_core.c ****   int_mask.b.usbsuspend = 1; 
 109:../STLibs//STM32_USB-Host-Device_Lib_V2.1.0/Libraries/STM32_USB_OTG_Driver/src/usb_core.c ****   
 110:../STLibs//STM32_USB-Host-Device_Lib_V2.1.0/Libraries/STM32_USB_OTG_Driver/src/usb_core.c **** #ifdef USE_OTG_MODE
 111:../STLibs//STM32_USB-Host-Device_Lib_V2.1.0/Libraries/STM32_USB_OTG_Driver/src/usb_core.c ****   int_mask.b.otgintr = 1;
 112:../STLibs//STM32_USB-Host-Device_Lib_V2.1.0/Libraries/STM32_USB_OTG_Driver/src/usb_core.c ****   int_mask.b.sessreqintr = 1;
 113:../STLibs//STM32_USB-Host-Device_Lib_V2.1.0/Libraries/STM32_USB_OTG_Driver/src/usb_core.c ****   int_mask.b.conidstschng = 1;
 114:../STLibs//STM32_USB-Host-Device_Lib_V2.1.0/Libraries/STM32_USB_OTG_Driver/src/usb_core.c **** #endif
 115:../STLibs//STM32_USB-Host-Device_Lib_V2.1.0/Libraries/STM32_USB_OTG_Driver/src/usb_core.c ****   USB_OTG_WRITE_REG32( &pdev->regs.GREGS->GINTMSK, int_mask.d32);
 116:../STLibs//STM32_USB-Host-Device_Lib_V2.1.0/Libraries/STM32_USB_OTG_Driver/src/usb_core.c **** }
 117:../STLibs//STM32_USB-Host-Device_Lib_V2.1.0/Libraries/STM32_USB_OTG_Driver/src/usb_core.c **** 
 118:../STLibs//STM32_USB-Host-Device_Lib_V2.1.0/Libraries/STM32_USB_OTG_Driver/src/usb_core.c **** /**
 119:../STLibs//STM32_USB-Host-Device_Lib_V2.1.0/Libraries/STM32_USB_OTG_Driver/src/usb_core.c **** * @brief  USB_OTG_CoreReset : Soft reset of the core
 120:../STLibs//STM32_USB-Host-Device_Lib_V2.1.0/Libraries/STM32_USB_OTG_Driver/src/usb_core.c **** * @param  pdev : Selected device
 121:../STLibs//STM32_USB-Host-Device_Lib_V2.1.0/Libraries/STM32_USB_OTG_Driver/src/usb_core.c **** * @retval USB_OTG_STS : status
 122:../STLibs//STM32_USB-Host-Device_Lib_V2.1.0/Libraries/STM32_USB_OTG_Driver/src/usb_core.c **** */
 123:../STLibs//STM32_USB-Host-Device_Lib_V2.1.0/Libraries/STM32_USB_OTG_Driver/src/usb_core.c **** static USB_OTG_STS USB_OTG_CoreReset(USB_OTG_CORE_HANDLE *pdev)
  25              		.loc 1 123 0
  26              		.cfi_startproc
  27              		@ args = 0, pretend = 0, frame = 8
  28              		@ frame_needed = 0, uses_anonymous_args = 0
  29              	.LVL0:
  30 0000 37B5     		push	{r0, r1, r2, r4, r5, lr}
  31              	.LCFI0:
  32              		.cfi_def_cfa_offset 24
  33              		.cfi_offset 4, -12
  34              		.cfi_offset 5, -8
  35              		.cfi_offset 14, -4
 124:../STLibs//STM32_USB-Host-Device_Lib_V2.1.0/Libraries/STM32_USB_OTG_Driver/src/usb_core.c **** {
 125:../STLibs//STM32_USB-Host-Device_Lib_V2.1.0/Libraries/STM32_USB_OTG_Driver/src/usb_core.c ****   USB_OTG_STS status = USB_OTG_OK;
 126:../STLibs//STM32_USB-Host-Device_Lib_V2.1.0/Libraries/STM32_USB_OTG_Driver/src/usb_core.c ****   __IO USB_OTG_GRSTCTL_TypeDef  greset;
 127:../STLibs//STM32_USB-Host-Device_Lib_V2.1.0/Libraries/STM32_USB_OTG_Driver/src/usb_core.c ****   uint32_t count = 0;
 128:../STLibs//STM32_USB-Host-Device_Lib_V2.1.0/Libraries/STM32_USB_OTG_Driver/src/usb_core.c ****   
 129:../STLibs//STM32_USB-Host-Device_Lib_V2.1.0/Libraries/STM32_USB_OTG_Driver/src/usb_core.c ****   greset.d32 = 0;
  36              		.loc 1 129 0
  37 0002 0023     		movs	r3, #0
  38 0004 104C     		ldr	r4, .L17
  39 0006 0193     		str	r3, [sp, #4]
 123:../STLibs//STM32_USB-Host-Device_Lib_V2.1.0/Libraries/STM32_USB_OTG_Driver/src/usb_core.c **** {
  40              		.loc 1 123 0
  41 0008 0546     		mov	r5, r0
  42              	.LVL1:
  43              	.L3:
 130:../STLibs//STM32_USB-Host-Device_Lib_V2.1.0/Libraries/STM32_USB_OTG_Driver/src/usb_core.c ****   /* Wait for AHB master IDLE state. */
 131:../STLibs//STM32_USB-Host-Device_Lib_V2.1.0/Libraries/STM32_USB_OTG_Driver/src/usb_core.c ****   do
 132:../STLibs//STM32_USB-Host-Device_Lib_V2.1.0/Libraries/STM32_USB_OTG_Driver/src/usb_core.c ****   {
 133:../STLibs//STM32_USB-Host-Device_Lib_V2.1.0/Libraries/STM32_USB_OTG_Driver/src/usb_core.c ****     USB_OTG_BSP_uDelay(3);
  44              		.loc 1 133 0
  45 000a 0320     		movs	r0, #3
  46 000c FFF7FEFF 		bl	USB_OTG_BSP_uDelay
  47              	.LVL2:
 134:../STLibs//STM32_USB-Host-Device_Lib_V2.1.0/Libraries/STM32_USB_OTG_Driver/src/usb_core.c ****     greset.d32 = USB_OTG_READ_REG32(&pdev->regs.GREGS->GRSTCTL);
  48              		.loc 1 134 0
  49 0010 2B68     		ldr	r3, [r5]
 135:../STLibs//STM32_USB-Host-Device_Lib_V2.1.0/Libraries/STM32_USB_OTG_Driver/src/usb_core.c ****     if (++count > 200000)
  50              		.loc 1 135 0
  51 0012 013C     		subs	r4, r4, #1
  52              	.LVL3:
 134:../STLibs//STM32_USB-Host-Device_Lib_V2.1.0/Libraries/STM32_USB_OTG_Driver/src/usb_core.c ****     greset.d32 = USB_OTG_READ_REG32(&pdev->regs.GREGS->GRSTCTL);
  53              		.loc 1 134 0
  54 0014 1A69     		ldr	r2, [r3, #16]
  55 0016 0192     		str	r2, [sp, #4]
  56              	.LVL4:
  57              		.loc 1 135 0
  58 0018 13D0     		beq	.L2
  59              	.LVL5:
 136:../STLibs//STM32_USB-Host-Device_Lib_V2.1.0/Libraries/STM32_USB_OTG_Driver/src/usb_core.c ****     {
 137:../STLibs//STM32_USB-Host-Device_Lib_V2.1.0/Libraries/STM32_USB_OTG_Driver/src/usb_core.c ****       return USB_OTG_OK;
 138:../STLibs//STM32_USB-Host-Device_Lib_V2.1.0/Libraries/STM32_USB_OTG_Driver/src/usb_core.c ****     }
 139:../STLibs//STM32_USB-Host-Device_Lib_V2.1.0/Libraries/STM32_USB_OTG_Driver/src/usb_core.c ****   }
 140:../STLibs//STM32_USB-Host-Device_Lib_V2.1.0/Libraries/STM32_USB_OTG_Driver/src/usb_core.c ****   while (greset.b.ahbidle == 0);
  60              		.loc 1 140 0
  61 001a 019A     		ldr	r2, [sp, #4]
  62 001c 002A     		cmp	r2, #0
  63 001e F4DA     		bge	.L3
  64              	.LVL6:
 141:../STLibs//STM32_USB-Host-Device_Lib_V2.1.0/Libraries/STM32_USB_OTG_Driver/src/usb_core.c ****   /* Core Soft Reset */
 142:../STLibs//STM32_USB-Host-Device_Lib_V2.1.0/Libraries/STM32_USB_OTG_Driver/src/usb_core.c ****   count = 0;
 143:../STLibs//STM32_USB-Host-Device_Lib_V2.1.0/Libraries/STM32_USB_OTG_Driver/src/usb_core.c ****   greset.b.csftrst = 1;
  65              		.loc 1 143 0
  66 0020 019A     		ldr	r2, [sp, #4]
  67 0022 42F00102 		orr	r2, r2, #1
  68 0026 0192     		str	r2, [sp, #4]
 144:../STLibs//STM32_USB-Host-Device_Lib_V2.1.0/Libraries/STM32_USB_OTG_Driver/src/usb_core.c ****   USB_OTG_WRITE_REG32(&pdev->regs.GREGS->GRSTCTL, greset.d32 );
  69              		.loc 1 144 0
  70 0028 019A     		ldr	r2, [sp, #4]
  71 002a 1A61     		str	r2, [r3, #16]
  72 002c 064A     		ldr	r2, .L17
  73              	.LVL7:
  74              	.L5:
 145:../STLibs//STM32_USB-Host-Device_Lib_V2.1.0/Libraries/STM32_USB_OTG_Driver/src/usb_core.c ****   do
 146:../STLibs//STM32_USB-Host-Device_Lib_V2.1.0/Libraries/STM32_USB_OTG_Driver/src/usb_core.c ****   {
 147:../STLibs//STM32_USB-Host-Device_Lib_V2.1.0/Libraries/STM32_USB_OTG_Driver/src/usb_core.c ****     greset.d32 = USB_OTG_READ_REG32(&pdev->regs.GREGS->GRSTCTL);
  75              		.loc 1 147 0
  76 002e 1969     		ldr	r1, [r3, #16]
  77 0030 0191     		str	r1, [sp, #4]
  78              	.LVL8:
 148:../STLibs//STM32_USB-Host-Device_Lib_V2.1.0/Libraries/STM32_USB_OTG_Driver/src/usb_core.c ****     if (++count > 200000)
  79              		.loc 1 148 0
  80 0032 013A     		subs	r2, r2, #1
  81              	.LVL9:
  82 0034 02D0     		beq	.L4
  83              	.LVL10:
 149:../STLibs//STM32_USB-Host-Device_Lib_V2.1.0/Libraries/STM32_USB_OTG_Driver/src/usb_core.c ****     {
 150:../STLibs//STM32_USB-Host-Device_Lib_V2.1.0/Libraries/STM32_USB_OTG_Driver/src/usb_core.c ****       break;
 151:../STLibs//STM32_USB-Host-Device_Lib_V2.1.0/Libraries/STM32_USB_OTG_Driver/src/usb_core.c ****     }
 152:../STLibs//STM32_USB-Host-Device_Lib_V2.1.0/Libraries/STM32_USB_OTG_Driver/src/usb_core.c ****   }
 153:../STLibs//STM32_USB-Host-Device_Lib_V2.1.0/Libraries/STM32_USB_OTG_Driver/src/usb_core.c ****   while (greset.b.csftrst == 1);
  84              		.loc 1 153 0
  85 0036 0199     		ldr	r1, [sp, #4]
  86 0038 C907     		lsls	r1, r1, #31
  87 003a F8D4     		bmi	.L5
  88              	.LVL11:
  89              	.L4:
 154:../STLibs//STM32_USB-Host-Device_Lib_V2.1.0/Libraries/STM32_USB_OTG_Driver/src/usb_core.c ****   /* Wait for 3 PHY Clocks*/
 155:../STLibs//STM32_USB-Host-Device_Lib_V2.1.0/Libraries/STM32_USB_OTG_Driver/src/usb_core.c ****   USB_OTG_BSP_uDelay(3);
  90              		.loc 1 155 0
  91 003c 0320     		movs	r0, #3
  92 003e FFF7FEFF 		bl	USB_OTG_BSP_uDelay
  93              	.LVL12:
  94              	.L2:
 156:../STLibs//STM32_USB-Host-Device_Lib_V2.1.0/Libraries/STM32_USB_OTG_Driver/src/usb_core.c ****   return status;
 157:../STLibs//STM32_USB-Host-Device_Lib_V2.1.0/Libraries/STM32_USB_OTG_Driver/src/usb_core.c **** }
  95              		.loc 1 157 0
  96 0042 0020     		movs	r0, #0
  97 0044 03B0     		add	sp, sp, #12
  98              	.LCFI1:
  99              		.cfi_def_cfa_offset 12
 100              		@ sp needed
 101 0046 30BD     		pop	{r4, r5, pc}
 102              	.L18:
 103              		.align	2
 104              	.L17:
 105 0048 410D0300 		.word	200001
 106              		.cfi_endproc
 107              	.LFE147:
 109              		.align	1
 110              		.global	USB_OTG_WritePacket
 111              		.syntax unified
 112              		.thumb
 113              		.thumb_func
 114              		.fpu fpv4-sp-d16
 116              	USB_OTG_WritePacket:
 117              	.LFB112:
 158:../STLibs//STM32_USB-Host-Device_Lib_V2.1.0/Libraries/STM32_USB_OTG_Driver/src/usb_core.c **** 
 159:../STLibs//STM32_USB-Host-Device_Lib_V2.1.0/Libraries/STM32_USB_OTG_Driver/src/usb_core.c **** /**
 160:../STLibs//STM32_USB-Host-Device_Lib_V2.1.0/Libraries/STM32_USB_OTG_Driver/src/usb_core.c **** * @brief  USB_OTG_WritePacket : Writes a packet into the Tx FIFO associated 
 161:../STLibs//STM32_USB-Host-Device_Lib_V2.1.0/Libraries/STM32_USB_OTG_Driver/src/usb_core.c **** *         with the EP
 162:../STLibs//STM32_USB-Host-Device_Lib_V2.1.0/Libraries/STM32_USB_OTG_Driver/src/usb_core.c **** * @param  pdev : Selected device
 163:../STLibs//STM32_USB-Host-Device_Lib_V2.1.0/Libraries/STM32_USB_OTG_Driver/src/usb_core.c **** * @param  src : source pointer
 164:../STLibs//STM32_USB-Host-Device_Lib_V2.1.0/Libraries/STM32_USB_OTG_Driver/src/usb_core.c **** * @param  ch_ep_num : end point number
 165:../STLibs//STM32_USB-Host-Device_Lib_V2.1.0/Libraries/STM32_USB_OTG_Driver/src/usb_core.c **** * @param  bytes : No. of bytes
 166:../STLibs//STM32_USB-Host-Device_Lib_V2.1.0/Libraries/STM32_USB_OTG_Driver/src/usb_core.c **** * @retval USB_OTG_STS : status
 167:../STLibs//STM32_USB-Host-Device_Lib_V2.1.0/Libraries/STM32_USB_OTG_Driver/src/usb_core.c **** */
 168:../STLibs//STM32_USB-Host-Device_Lib_V2.1.0/Libraries/STM32_USB_OTG_Driver/src/usb_core.c **** USB_OTG_STS USB_OTG_WritePacket(USB_OTG_CORE_HANDLE *pdev, 
 169:../STLibs//STM32_USB-Host-Device_Lib_V2.1.0/Libraries/STM32_USB_OTG_Driver/src/usb_core.c ****                                 uint8_t             *src, 
 170:../STLibs//STM32_USB-Host-Device_Lib_V2.1.0/Libraries/STM32_USB_OTG_Driver/src/usb_core.c ****                                 uint8_t             ch_ep_num, 
 171:../STLibs//STM32_USB-Host-Device_Lib_V2.1.0/Libraries/STM32_USB_OTG_Driver/src/usb_core.c ****                                 uint16_t            len)
 172:../STLibs//STM32_USB-Host-Device_Lib_V2.1.0/Libraries/STM32_USB_OTG_Driver/src/usb_core.c **** {
 118              		.loc 1 172 0
 119              		.cfi_startproc
 120              		@ args = 0, pretend = 0, frame = 0
 121              		@ frame_needed = 0, uses_anonymous_args = 0
 122              	.LVL13:
 123 004c 10B5     		push	{r4, lr}
 124              	.LCFI2:
 125              		.cfi_def_cfa_offset 8
 126              		.cfi_offset 4, -8
 127              		.cfi_offset 14, -4
 173:../STLibs//STM32_USB-Host-Device_Lib_V2.1.0/Libraries/STM32_USB_OTG_Driver/src/usb_core.c ****   USB_OTG_STS status = USB_OTG_OK;
 174:../STLibs//STM32_USB-Host-Device_Lib_V2.1.0/Libraries/STM32_USB_OTG_Driver/src/usb_core.c ****   if (pdev->cfg.dma_enable == 0)
 128              		.loc 1 174 0
 129 004e C478     		ldrb	r4, [r0, #3]	@ zero_extendqisi2
 130 0050 44B9     		cbnz	r4, .L24
 131              	.LVL14:
 132              	.LBB11:
 133              	.LBB12:
 134              	.LBB13:
 175:../STLibs//STM32_USB-Host-Device_Lib_V2.1.0/Libraries/STM32_USB_OTG_Driver/src/usb_core.c ****   {
 176:../STLibs//STM32_USB-Host-Device_Lib_V2.1.0/Libraries/STM32_USB_OTG_Driver/src/usb_core.c ****     uint32_t count32b= 0 , i= 0;
 177:../STLibs//STM32_USB-Host-Device_Lib_V2.1.0/Libraries/STM32_USB_OTG_Driver/src/usb_core.c ****     __IO uint32_t *fifo;
 178:../STLibs//STM32_USB-Host-Device_Lib_V2.1.0/Libraries/STM32_USB_OTG_Driver/src/usb_core.c ****     
 179:../STLibs//STM32_USB-Host-Device_Lib_V2.1.0/Libraries/STM32_USB_OTG_Driver/src/usb_core.c ****     count32b =  (len + 3) / 4;
 180:../STLibs//STM32_USB-Host-Device_Lib_V2.1.0/Libraries/STM32_USB_OTG_Driver/src/usb_core.c ****     fifo = pdev->regs.DFIFO[ch_ep_num];
 135              		.loc 1 180 0
 136 0052 00EB8200 		add	r0, r0, r2, lsl #2
 137              	.LVL15:
 179:../STLibs//STM32_USB-Host-Device_Lib_V2.1.0/Libraries/STM32_USB_OTG_Driver/src/usb_core.c ****     fifo = pdev->regs.DFIFO[ch_ep_num];
 138              		.loc 1 179 0
 139 0056 0333     		adds	r3, r3, #3
 140              	.LVL16:
 141              		.loc 1 180 0
 142 0058 D0F8D000 		ldr	r0, [r0, #208]
 179:../STLibs//STM32_USB-Host-Device_Lib_V2.1.0/Libraries/STM32_USB_OTG_Driver/src/usb_core.c ****     fifo = pdev->regs.DFIFO[ch_ep_num];
 143              		.loc 1 179 0
 144 005c 9B10     		asrs	r3, r3, #2
 145              	.LVL17:
 181:../STLibs//STM32_USB-Host-Device_Lib_V2.1.0/Libraries/STM32_USB_OTG_Driver/src/usb_core.c ****     for (i = 0; i < count32b; i++, src+=4)
 146              		.loc 1 181 0
 147 005e 2246     		mov	r2, r4
 148              	.LVL18:
 149              	.L21:
 150 0060 9342     		cmp	r3, r2
 151 0062 01D1     		bne	.L22
 152              	.LVL19:
 153              	.L24:
 154              	.LBE13:
 155              	.LBE12:
 156              	.LBE11:
 182:../STLibs//STM32_USB-Host-Device_Lib_V2.1.0/Libraries/STM32_USB_OTG_Driver/src/usb_core.c ****     {
 183:../STLibs//STM32_USB-Host-Device_Lib_V2.1.0/Libraries/STM32_USB_OTG_Driver/src/usb_core.c ****       USB_OTG_WRITE_REG32( fifo, *((__packed uint32_t *)src) );
 184:../STLibs//STM32_USB-Host-Device_Lib_V2.1.0/Libraries/STM32_USB_OTG_Driver/src/usb_core.c ****     }
 185:../STLibs//STM32_USB-Host-Device_Lib_V2.1.0/Libraries/STM32_USB_OTG_Driver/src/usb_core.c ****   }
 186:../STLibs//STM32_USB-Host-Device_Lib_V2.1.0/Libraries/STM32_USB_OTG_Driver/src/usb_core.c ****   return status;
 187:../STLibs//STM32_USB-Host-Device_Lib_V2.1.0/Libraries/STM32_USB_OTG_Driver/src/usb_core.c **** }
 157              		.loc 1 187 0
 158 0064 0020     		movs	r0, #0
 159 0066 10BD     		pop	{r4, pc}
 160              	.LVL20:
 161              	.L22:
 162              	.LBB16:
 163              	.LBB15:
 164              	.LBB14:
 183:../STLibs//STM32_USB-Host-Device_Lib_V2.1.0/Libraries/STM32_USB_OTG_Driver/src/usb_core.c ****     }
 165              		.loc 1 183 0
 166 0068 51F82240 		ldr	r4, [r1, r2, lsl #2]
 167 006c 0460     		str	r4, [r0]
 181:../STLibs//STM32_USB-Host-Device_Lib_V2.1.0/Libraries/STM32_USB_OTG_Driver/src/usb_core.c ****     for (i = 0; i < count32b; i++, src+=4)
 168              		.loc 1 181 0
 169 006e 0132     		adds	r2, r2, #1
 170              	.LVL21:
 171 0070 F6E7     		b	.L21
 172              	.LBE14:
 173              	.LBE15:
 174              	.LBE16:
 175              		.cfi_endproc
 176              	.LFE112:
 178              		.align	1
 179              		.global	USB_OTG_ReadPacket
 180              		.syntax unified
 181              		.thumb
 182              		.thumb_func
 183              		.fpu fpv4-sp-d16
 185              	USB_OTG_ReadPacket:
 186              	.LFB113:
 188:../STLibs//STM32_USB-Host-Device_Lib_V2.1.0/Libraries/STM32_USB_OTG_Driver/src/usb_core.c **** 
 189:../STLibs//STM32_USB-Host-Device_Lib_V2.1.0/Libraries/STM32_USB_OTG_Driver/src/usb_core.c **** 
 190:../STLibs//STM32_USB-Host-Device_Lib_V2.1.0/Libraries/STM32_USB_OTG_Driver/src/usb_core.c **** /**
 191:../STLibs//STM32_USB-Host-Device_Lib_V2.1.0/Libraries/STM32_USB_OTG_Driver/src/usb_core.c **** * @brief  USB_OTG_ReadPacket : Reads a packet from the Rx FIFO
 192:../STLibs//STM32_USB-Host-Device_Lib_V2.1.0/Libraries/STM32_USB_OTG_Driver/src/usb_core.c **** * @param  pdev : Selected device
 193:../STLibs//STM32_USB-Host-Device_Lib_V2.1.0/Libraries/STM32_USB_OTG_Driver/src/usb_core.c **** * @param  dest : Destination Pointer
 194:../STLibs//STM32_USB-Host-Device_Lib_V2.1.0/Libraries/STM32_USB_OTG_Driver/src/usb_core.c **** * @param  bytes : No. of bytes
 195:../STLibs//STM32_USB-Host-Device_Lib_V2.1.0/Libraries/STM32_USB_OTG_Driver/src/usb_core.c **** * @retval None
 196:../STLibs//STM32_USB-Host-Device_Lib_V2.1.0/Libraries/STM32_USB_OTG_Driver/src/usb_core.c **** */
 197:../STLibs//STM32_USB-Host-Device_Lib_V2.1.0/Libraries/STM32_USB_OTG_Driver/src/usb_core.c **** void *USB_OTG_ReadPacket(USB_OTG_CORE_HANDLE *pdev, 
 198:../STLibs//STM32_USB-Host-Device_Lib_V2.1.0/Libraries/STM32_USB_OTG_Driver/src/usb_core.c ****                          uint8_t *dest, 
 199:../STLibs//STM32_USB-Host-Device_Lib_V2.1.0/Libraries/STM32_USB_OTG_Driver/src/usb_core.c ****                          uint16_t len)
 200:../STLibs//STM32_USB-Host-Device_Lib_V2.1.0/Libraries/STM32_USB_OTG_Driver/src/usb_core.c **** {
 187              		.loc 1 200 0
 188              		.cfi_startproc
 189              		@ args = 0, pretend = 0, frame = 0
 190              		@ frame_needed = 0, uses_anonymous_args = 0
 191              	.LVL22:
 192 0072 10B5     		push	{r4, lr}
 193              	.LCFI3:
 194              		.cfi_def_cfa_offset 8
 195              		.cfi_offset 4, -8
 196              		.cfi_offset 14, -4
 201:../STLibs//STM32_USB-Host-Device_Lib_V2.1.0/Libraries/STM32_USB_OTG_Driver/src/usb_core.c ****   uint32_t i=0;
 202:../STLibs//STM32_USB-Host-Device_Lib_V2.1.0/Libraries/STM32_USB_OTG_Driver/src/usb_core.c ****   uint32_t count32b = (len + 3) / 4;
 197              		.loc 1 202 0
 198 0074 0332     		adds	r2, r2, #3
 199              	.LVL23:
 203:../STLibs//STM32_USB-Host-Device_Lib_V2.1.0/Libraries/STM32_USB_OTG_Driver/src/usb_core.c ****   
 204:../STLibs//STM32_USB-Host-Device_Lib_V2.1.0/Libraries/STM32_USB_OTG_Driver/src/usb_core.c ****   __IO uint32_t *fifo = pdev->regs.DFIFO[0];
 200              		.loc 1 204 0
 201 0076 D0F8D030 		ldr	r3, [r0, #208]
 202:../STLibs//STM32_USB-Host-Device_Lib_V2.1.0/Libraries/STM32_USB_OTG_Driver/src/usb_core.c ****   
 202              		.loc 1 202 0
 203 007a 9210     		asrs	r2, r2, #2
 204              	.LVL24:
 205:../STLibs//STM32_USB-Host-Device_Lib_V2.1.0/Libraries/STM32_USB_OTG_Driver/src/usb_core.c ****   
 206:../STLibs//STM32_USB-Host-Device_Lib_V2.1.0/Libraries/STM32_USB_OTG_Driver/src/usb_core.c ****   for ( i = 0; i < count32b; i++, dest += 4 )
 205              		.loc 1 206 0
 206 007c 0020     		movs	r0, #0
 207              	.LVL25:
 208              	.L26:
 209              		.loc 1 206 0 is_stmt 0 discriminator 1
 210 007e 9042     		cmp	r0, r2
 211 0080 02D1     		bne	.L27
 207:../STLibs//STM32_USB-Host-Device_Lib_V2.1.0/Libraries/STM32_USB_OTG_Driver/src/usb_core.c ****   {
 208:../STLibs//STM32_USB-Host-Device_Lib_V2.1.0/Libraries/STM32_USB_OTG_Driver/src/usb_core.c ****     *(__packed uint32_t *)dest = USB_OTG_READ_REG32(fifo);
 209:../STLibs//STM32_USB-Host-Device_Lib_V2.1.0/Libraries/STM32_USB_OTG_Driver/src/usb_core.c ****     
 210:../STLibs//STM32_USB-Host-Device_Lib_V2.1.0/Libraries/STM32_USB_OTG_Driver/src/usb_core.c ****   }
 211:../STLibs//STM32_USB-Host-Device_Lib_V2.1.0/Libraries/STM32_USB_OTG_Driver/src/usb_core.c ****   return ((void *)dest);
 212:../STLibs//STM32_USB-Host-Device_Lib_V2.1.0/Libraries/STM32_USB_OTG_Driver/src/usb_core.c **** }
 212              		.loc 1 212 0 is_stmt 1
 213 0082 01EB8000 		add	r0, r1, r0, lsl #2
 214              	.LVL26:
 215 0086 10BD     		pop	{r4, pc}
 216              	.LVL27:
 217              	.L27:
 208:../STLibs//STM32_USB-Host-Device_Lib_V2.1.0/Libraries/STM32_USB_OTG_Driver/src/usb_core.c ****     
 218              		.loc 1 208 0 discriminator 3
 219 0088 1C68     		ldr	r4, [r3]
 220 008a 41F82040 		str	r4, [r1, r0, lsl #2]
 206:../STLibs//STM32_USB-Host-Device_Lib_V2.1.0/Libraries/STM32_USB_OTG_Driver/src/usb_core.c ****   {
 221              		.loc 1 206 0 discriminator 3
 222 008e 0130     		adds	r0, r0, #1
 223              	.LVL28:
 224 0090 F5E7     		b	.L26
 225              		.cfi_endproc
 226              	.LFE113:
 228              		.align	1
 229              		.global	USB_OTG_SelectCore
 230              		.syntax unified
 231              		.thumb
 232              		.thumb_func
 233              		.fpu fpv4-sp-d16
 235              	USB_OTG_SelectCore:
 236              	.LFB114:
 213:../STLibs//STM32_USB-Host-Device_Lib_V2.1.0/Libraries/STM32_USB_OTG_Driver/src/usb_core.c **** 
 214:../STLibs//STM32_USB-Host-Device_Lib_V2.1.0/Libraries/STM32_USB_OTG_Driver/src/usb_core.c **** /**
 215:../STLibs//STM32_USB-Host-Device_Lib_V2.1.0/Libraries/STM32_USB_OTG_Driver/src/usb_core.c **** * @brief  USB_OTG_SelectCore 
 216:../STLibs//STM32_USB-Host-Device_Lib_V2.1.0/Libraries/STM32_USB_OTG_Driver/src/usb_core.c **** *         Initialize core registers address.
 217:../STLibs//STM32_USB-Host-Device_Lib_V2.1.0/Libraries/STM32_USB_OTG_Driver/src/usb_core.c **** * @param  pdev : Selected device
 218:../STLibs//STM32_USB-Host-Device_Lib_V2.1.0/Libraries/STM32_USB_OTG_Driver/src/usb_core.c **** * @param  coreID : USB OTG Core ID
 219:../STLibs//STM32_USB-Host-Device_Lib_V2.1.0/Libraries/STM32_USB_OTG_Driver/src/usb_core.c **** * @retval USB_OTG_STS : status
 220:../STLibs//STM32_USB-Host-Device_Lib_V2.1.0/Libraries/STM32_USB_OTG_Driver/src/usb_core.c **** */
 221:../STLibs//STM32_USB-Host-Device_Lib_V2.1.0/Libraries/STM32_USB_OTG_Driver/src/usb_core.c **** USB_OTG_STS USB_OTG_SelectCore(USB_OTG_CORE_HANDLE *pdev, 
 222:../STLibs//STM32_USB-Host-Device_Lib_V2.1.0/Libraries/STM32_USB_OTG_Driver/src/usb_core.c ****                                USB_OTG_CORE_ID_TypeDef coreID)
 223:../STLibs//STM32_USB-Host-Device_Lib_V2.1.0/Libraries/STM32_USB_OTG_Driver/src/usb_core.c **** {
 237              		.loc 1 223 0
 238              		.cfi_startproc
 239              		@ args = 0, pretend = 0, frame = 0
 240              		@ frame_needed = 0, uses_anonymous_args = 0
 241              	.LVL29:
 224:../STLibs//STM32_USB-Host-Device_Lib_V2.1.0/Libraries/STM32_USB_OTG_Driver/src/usb_core.c ****   uint32_t i , baseAddress = 0;
 225:../STLibs//STM32_USB-Host-Device_Lib_V2.1.0/Libraries/STM32_USB_OTG_Driver/src/usb_core.c ****   USB_OTG_STS status = USB_OTG_OK;
 226:../STLibs//STM32_USB-Host-Device_Lib_V2.1.0/Libraries/STM32_USB_OTG_Driver/src/usb_core.c ****   
 227:../STLibs//STM32_USB-Host-Device_Lib_V2.1.0/Libraries/STM32_USB_OTG_Driver/src/usb_core.c ****   pdev->cfg.dma_enable       = 0;
 228:../STLibs//STM32_USB-Host-Device_Lib_V2.1.0/Libraries/STM32_USB_OTG_Driver/src/usb_core.c ****   
 229:../STLibs//STM32_USB-Host-Device_Lib_V2.1.0/Libraries/STM32_USB_OTG_Driver/src/usb_core.c ****   /* at startup the core is in FS mode */
 230:../STLibs//STM32_USB-Host-Device_Lib_V2.1.0/Libraries/STM32_USB_OTG_Driver/src/usb_core.c ****   pdev->cfg.speed            = USB_OTG_SPEED_FULL;
 242              		.loc 1 230 0
 243 0092 0123     		movs	r3, #1
 223:../STLibs//STM32_USB-Host-Device_Lib_V2.1.0/Libraries/STM32_USB_OTG_Driver/src/usb_core.c ****   uint32_t i , baseAddress = 0;
 244              		.loc 1 223 0
 245 0094 30B5     		push	{r4, r5, lr}
 246              	.LCFI4:
 247              		.cfi_def_cfa_offset 12
 248              		.cfi_offset 4, -12
 249              		.cfi_offset 5, -8
 250              		.cfi_offset 14, -4
 231:../STLibs//STM32_USB-Host-Device_Lib_V2.1.0/Libraries/STM32_USB_OTG_Driver/src/usb_core.c ****   pdev->cfg.mps              = USB_OTG_FS_MAX_PACKET_SIZE ;    
 232:../STLibs//STM32_USB-Host-Device_Lib_V2.1.0/Libraries/STM32_USB_OTG_Driver/src/usb_core.c ****   
 233:../STLibs//STM32_USB-Host-Device_Lib_V2.1.0/Libraries/STM32_USB_OTG_Driver/src/usb_core.c ****   /* initialize device cfg following its address */
 234:../STLibs//STM32_USB-Host-Device_Lib_V2.1.0/Libraries/STM32_USB_OTG_Driver/src/usb_core.c ****   if (coreID == USB_OTG_FS_CORE_ID)
 251              		.loc 1 234 0
 252 0096 0129     		cmp	r1, #1
 230:../STLibs//STM32_USB-Host-Device_Lib_V2.1.0/Libraries/STM32_USB_OTG_Driver/src/usb_core.c ****   pdev->cfg.mps              = USB_OTG_FS_MAX_PACKET_SIZE ;    
 253              		.loc 1 230 0
 254 0098 4380     		strh	r3, [r0, #2]	@ movhi
 227:../STLibs//STM32_USB-Host-Device_Lib_V2.1.0/Libraries/STM32_USB_OTG_Driver/src/usb_core.c ****   
 255              		.loc 1 227 0
 256 009a 4FF04003 		mov	r3, #64
 257 009e 8380     		strh	r3, [r0, #4]	@ movhi
 258              		.loc 1 234 0
 259 00a0 39D1     		bne	.L29
 260              	.LVL30:
 235:../STLibs//STM32_USB-Host-Device_Lib_V2.1.0/Libraries/STM32_USB_OTG_Driver/src/usb_core.c ****   {
 236:../STLibs//STM32_USB-Host-Device_Lib_V2.1.0/Libraries/STM32_USB_OTG_Driver/src/usb_core.c ****     baseAddress                = USB_OTG_FS_BASE_ADDR;
 237:../STLibs//STM32_USB-Host-Device_Lib_V2.1.0/Libraries/STM32_USB_OTG_Driver/src/usb_core.c ****     pdev->cfg.coreID           = USB_OTG_FS_CORE_ID;
 238:../STLibs//STM32_USB-Host-Device_Lib_V2.1.0/Libraries/STM32_USB_OTG_Driver/src/usb_core.c ****     pdev->cfg.host_channels    = 8 ;
 261              		.loc 1 238 0
 262 00a2 4FF48163 		mov	r3, #1032
 263 00a6 0380     		strh	r3, [r0]	@ movhi
 239:../STLibs//STM32_USB-Host-Device_Lib_V2.1.0/Libraries/STM32_USB_OTG_Driver/src/usb_core.c ****     pdev->cfg.dev_endpoints    = 4 ;
 240:../STLibs//STM32_USB-Host-Device_Lib_V2.1.0/Libraries/STM32_USB_OTG_Driver/src/usb_core.c ****     pdev->cfg.TotalFifoSize    = 320; /* in 32-bits */
 264              		.loc 1 240 0
 265 00a8 4FF4A073 		mov	r3, #320
 266 00ac C380     		strh	r3, [r0, #6]	@ movhi
 241:../STLibs//STM32_USB-Host-Device_Lib_V2.1.0/Libraries/STM32_USB_OTG_Driver/src/usb_core.c ****     pdev->cfg.phy_itface       = USB_OTG_EMBEDDED_PHY;     
 267              		.loc 1 241 0
 268 00ae 0223     		movs	r3, #2
 269 00b0 0372     		strb	r3, [r0, #8]
 237:../STLibs//STM32_USB-Host-Device_Lib_V2.1.0/Libraries/STM32_USB_OTG_Driver/src/usb_core.c ****     pdev->cfg.host_channels    = 8 ;
 270              		.loc 1 237 0
 271 00b2 C172     		strb	r1, [r0, #11]
 236:../STLibs//STM32_USB-Host-Device_Lib_V2.1.0/Libraries/STM32_USB_OTG_Driver/src/usb_core.c ****     pdev->cfg.coreID           = USB_OTG_FS_CORE_ID;
 272              		.loc 1 236 0
 273 00b4 4FF0A043 		mov	r3, #1342177280
 274              	.LVL31:
 275              	.L30:
 242:../STLibs//STM32_USB-Host-Device_Lib_V2.1.0/Libraries/STM32_USB_OTG_Driver/src/usb_core.c ****     
 243:../STLibs//STM32_USB-Host-Device_Lib_V2.1.0/Libraries/STM32_USB_OTG_Driver/src/usb_core.c **** #ifdef USB_OTG_FS_SOF_OUTPUT_ENABLED    
 244:../STLibs//STM32_USB-Host-Device_Lib_V2.1.0/Libraries/STM32_USB_OTG_Driver/src/usb_core.c ****     pdev->cfg.Sof_output       = 1;    
 245:../STLibs//STM32_USB-Host-Device_Lib_V2.1.0/Libraries/STM32_USB_OTG_Driver/src/usb_core.c **** #endif 
 246:../STLibs//STM32_USB-Host-Device_Lib_V2.1.0/Libraries/STM32_USB_OTG_Driver/src/usb_core.c ****     
 247:../STLibs//STM32_USB-Host-Device_Lib_V2.1.0/Libraries/STM32_USB_OTG_Driver/src/usb_core.c **** #ifdef USB_OTG_FS_LOW_PWR_MGMT_SUPPORT    
 248:../STLibs//STM32_USB-Host-Device_Lib_V2.1.0/Libraries/STM32_USB_OTG_Driver/src/usb_core.c ****     pdev->cfg.low_power        = 1;    
 249:../STLibs//STM32_USB-Host-Device_Lib_V2.1.0/Libraries/STM32_USB_OTG_Driver/src/usb_core.c **** #endif     
 250:../STLibs//STM32_USB-Host-Device_Lib_V2.1.0/Libraries/STM32_USB_OTG_Driver/src/usb_core.c ****   }
 251:../STLibs//STM32_USB-Host-Device_Lib_V2.1.0/Libraries/STM32_USB_OTG_Driver/src/usb_core.c ****   else if (coreID == USB_OTG_HS_CORE_ID)
 252:../STLibs//STM32_USB-Host-Device_Lib_V2.1.0/Libraries/STM32_USB_OTG_Driver/src/usb_core.c ****   {
 253:../STLibs//STM32_USB-Host-Device_Lib_V2.1.0/Libraries/STM32_USB_OTG_Driver/src/usb_core.c ****     baseAddress                = USB_OTG_HS_BASE_ADDR;
 254:../STLibs//STM32_USB-Host-Device_Lib_V2.1.0/Libraries/STM32_USB_OTG_Driver/src/usb_core.c ****     pdev->cfg.coreID           = USB_OTG_HS_CORE_ID;    
 255:../STLibs//STM32_USB-Host-Device_Lib_V2.1.0/Libraries/STM32_USB_OTG_Driver/src/usb_core.c ****     pdev->cfg.host_channels    = 12 ;
 256:../STLibs//STM32_USB-Host-Device_Lib_V2.1.0/Libraries/STM32_USB_OTG_Driver/src/usb_core.c ****     pdev->cfg.dev_endpoints    = 6 ;
 257:../STLibs//STM32_USB-Host-Device_Lib_V2.1.0/Libraries/STM32_USB_OTG_Driver/src/usb_core.c ****     pdev->cfg.TotalFifoSize    = 1280;/* in 32-bits */
 258:../STLibs//STM32_USB-Host-Device_Lib_V2.1.0/Libraries/STM32_USB_OTG_Driver/src/usb_core.c ****     
 259:../STLibs//STM32_USB-Host-Device_Lib_V2.1.0/Libraries/STM32_USB_OTG_Driver/src/usb_core.c **** #ifdef USB_OTG_ULPI_PHY_ENABLED
 260:../STLibs//STM32_USB-Host-Device_Lib_V2.1.0/Libraries/STM32_USB_OTG_Driver/src/usb_core.c ****     pdev->cfg.phy_itface       = USB_OTG_ULPI_PHY;
 261:../STLibs//STM32_USB-Host-Device_Lib_V2.1.0/Libraries/STM32_USB_OTG_Driver/src/usb_core.c **** #else    
 262:../STLibs//STM32_USB-Host-Device_Lib_V2.1.0/Libraries/STM32_USB_OTG_Driver/src/usb_core.c **** #ifdef USB_OTG_EMBEDDED_PHY_ENABLED
 263:../STLibs//STM32_USB-Host-Device_Lib_V2.1.0/Libraries/STM32_USB_OTG_Driver/src/usb_core.c ****     pdev->cfg.phy_itface       = USB_OTG_EMBEDDED_PHY;
 264:../STLibs//STM32_USB-Host-Device_Lib_V2.1.0/Libraries/STM32_USB_OTG_Driver/src/usb_core.c **** #endif  
 265:../STLibs//STM32_USB-Host-Device_Lib_V2.1.0/Libraries/STM32_USB_OTG_Driver/src/usb_core.c **** #endif      
 266:../STLibs//STM32_USB-Host-Device_Lib_V2.1.0/Libraries/STM32_USB_OTG_Driver/src/usb_core.c ****     
 267:../STLibs//STM32_USB-Host-Device_Lib_V2.1.0/Libraries/STM32_USB_OTG_Driver/src/usb_core.c **** #ifdef USB_OTG_HS_INTERNAL_DMA_ENABLED    
 268:../STLibs//STM32_USB-Host-Device_Lib_V2.1.0/Libraries/STM32_USB_OTG_Driver/src/usb_core.c ****     pdev->cfg.dma_enable       = 1;    
 269:../STLibs//STM32_USB-Host-Device_Lib_V2.1.0/Libraries/STM32_USB_OTG_Driver/src/usb_core.c **** #endif
 270:../STLibs//STM32_USB-Host-Device_Lib_V2.1.0/Libraries/STM32_USB_OTG_Driver/src/usb_core.c ****     
 271:../STLibs//STM32_USB-Host-Device_Lib_V2.1.0/Libraries/STM32_USB_OTG_Driver/src/usb_core.c **** #ifdef USB_OTG_HS_SOF_OUTPUT_ENABLED    
 272:../STLibs//STM32_USB-Host-Device_Lib_V2.1.0/Libraries/STM32_USB_OTG_Driver/src/usb_core.c ****     pdev->cfg.Sof_output       = 1;    
 273:../STLibs//STM32_USB-Host-Device_Lib_V2.1.0/Libraries/STM32_USB_OTG_Driver/src/usb_core.c **** #endif 
 274:../STLibs//STM32_USB-Host-Device_Lib_V2.1.0/Libraries/STM32_USB_OTG_Driver/src/usb_core.c ****     
 275:../STLibs//STM32_USB-Host-Device_Lib_V2.1.0/Libraries/STM32_USB_OTG_Driver/src/usb_core.c **** #ifdef USB_OTG_HS_LOW_PWR_MGMT_SUPPORT    
 276:../STLibs//STM32_USB-Host-Device_Lib_V2.1.0/Libraries/STM32_USB_OTG_Driver/src/usb_core.c ****     pdev->cfg.low_power        = 1;    
 277:../STLibs//STM32_USB-Host-Device_Lib_V2.1.0/Libraries/STM32_USB_OTG_Driver/src/usb_core.c **** #endif 
 278:../STLibs//STM32_USB-Host-Device_Lib_V2.1.0/Libraries/STM32_USB_OTG_Driver/src/usb_core.c ****     
 279:../STLibs//STM32_USB-Host-Device_Lib_V2.1.0/Libraries/STM32_USB_OTG_Driver/src/usb_core.c ****   }
 280:../STLibs//STM32_USB-Host-Device_Lib_V2.1.0/Libraries/STM32_USB_OTG_Driver/src/usb_core.c ****   
 281:../STLibs//STM32_USB-Host-Device_Lib_V2.1.0/Libraries/STM32_USB_OTG_Driver/src/usb_core.c ****   pdev->regs.GREGS = (USB_OTG_GREGS *)(baseAddress + \
 282:../STLibs//STM32_USB-Host-Device_Lib_V2.1.0/Libraries/STM32_USB_OTG_Driver/src/usb_core.c ****     USB_OTG_CORE_GLOBAL_REGS_OFFSET);
 283:../STLibs//STM32_USB-Host-Device_Lib_V2.1.0/Libraries/STM32_USB_OTG_Driver/src/usb_core.c ****   pdev->regs.DREGS =  (USB_OTG_DREGS  *)  (baseAddress + \
 276              		.loc 1 283 0
 277 00b8 03F50062 		add	r2, r3, #2048
 278 00bc 4478     		ldrb	r4, [r0, #1]	@ zero_extendqisi2
 279 00be 0261     		str	r2, [r0, #16]
 280              	.LVL32:
 281 00c0 00F11802 		add	r2, r0, #24
 281:../STLibs//STM32_USB-Host-Device_Lib_V2.1.0/Libraries/STM32_USB_OTG_Driver/src/usb_core.c ****     USB_OTG_CORE_GLOBAL_REGS_OFFSET);
 282              		.loc 1 281 0
 283 00c4 C360     		str	r3, [r0, #12]
 284 00c6 03F51061 		add	r1, r3, #2304
 285              	.LVL33:
 286 00ca 02EB8404 		add	r4, r2, r4, lsl #2
 287              	.LVL34:
 288              	.L31:
 284:../STLibs//STM32_USB-Host-Device_Lib_V2.1.0/Libraries/STM32_USB_OTG_Driver/src/usb_core.c ****     USB_OTG_DEV_GLOBAL_REG_OFFSET);
 285:../STLibs//STM32_USB-Host-Device_Lib_V2.1.0/Libraries/STM32_USB_OTG_Driver/src/usb_core.c ****   
 286:../STLibs//STM32_USB-Host-Device_Lib_V2.1.0/Libraries/STM32_USB_OTG_Driver/src/usb_core.c ****   for (i = 0; i < pdev->cfg.dev_endpoints; i++)
 289              		.loc 1 286 0 discriminator 1
 290 00ce A242     		cmp	r2, r4
 291 00d0 2DD1     		bne	.L32
 287:../STLibs//STM32_USB-Host-Device_Lib_V2.1.0/Libraries/STM32_USB_OTG_Driver/src/usb_core.c ****   {
 288:../STLibs//STM32_USB-Host-Device_Lib_V2.1.0/Libraries/STM32_USB_OTG_Driver/src/usb_core.c ****     pdev->regs.INEP_REGS[i]  = (USB_OTG_INEPREGS *)  \
 289:../STLibs//STM32_USB-Host-Device_Lib_V2.1.0/Libraries/STM32_USB_OTG_Driver/src/usb_core.c ****       (baseAddress + USB_OTG_DEV_IN_EP_REG_OFFSET + \
 290:../STLibs//STM32_USB-Host-Device_Lib_V2.1.0/Libraries/STM32_USB_OTG_Driver/src/usb_core.c ****         (i * USB_OTG_EP_REG_OFFSET));
 291:../STLibs//STM32_USB-Host-Device_Lib_V2.1.0/Libraries/STM32_USB_OTG_Driver/src/usb_core.c ****     pdev->regs.OUTEP_REGS[i] = (USB_OTG_OUTEPREGS *) \
 292:../STLibs//STM32_USB-Host-Device_Lib_V2.1.0/Libraries/STM32_USB_OTG_Driver/src/usb_core.c ****       (baseAddress + USB_OTG_DEV_OUT_EP_REG_OFFSET + \
 293:../STLibs//STM32_USB-Host-Device_Lib_V2.1.0/Libraries/STM32_USB_OTG_Driver/src/usb_core.c ****         (i * USB_OTG_EP_REG_OFFSET));
 294:../STLibs//STM32_USB-Host-Device_Lib_V2.1.0/Libraries/STM32_USB_OTG_Driver/src/usb_core.c ****   }
 295:../STLibs//STM32_USB-Host-Device_Lib_V2.1.0/Libraries/STM32_USB_OTG_Driver/src/usb_core.c ****   pdev->regs.HREGS = (USB_OTG_HREGS *)(baseAddress + \
 292              		.loc 1 295 0
 293 00d2 03F58062 		add	r2, r3, #1024
 294 00d6 4261     		str	r2, [r0, #20]
 296:../STLibs//STM32_USB-Host-Device_Lib_V2.1.0/Libraries/STM32_USB_OTG_Driver/src/usb_core.c ****     USB_OTG_HOST_GLOBAL_REG_OFFSET);
 297:../STLibs//STM32_USB-Host-Device_Lib_V2.1.0/Libraries/STM32_USB_OTG_Driver/src/usb_core.c ****   pdev->regs.HPRT0 = (uint32_t *)(baseAddress + USB_OTG_HOST_PORT_REGS_OFFSET);
 298:../STLibs//STM32_USB-Host-Device_Lib_V2.1.0/Libraries/STM32_USB_OTG_Driver/src/usb_core.c ****   
 299:../STLibs//STM32_USB-Host-Device_Lib_V2.1.0/Libraries/STM32_USB_OTG_Driver/src/usb_core.c ****   for (i = 0; i < pdev->cfg.host_channels; i++)
 295              		.loc 1 299 0
 296 00d8 0446     		mov	r4, r0
 297:../STLibs//STM32_USB-Host-Device_Lib_V2.1.0/Libraries/STM32_USB_OTG_Driver/src/usb_core.c ****   
 297              		.loc 1 297 0
 298 00da 03F58862 		add	r2, r3, #1088
 299 00de C0F8CC20 		str	r2, [r0, #204]
 300              	.LVL35:
 301              		.loc 1 299 0
 302 00e2 14F8902B 		ldrb	r2, [r4], #144	@ zero_extendqisi2
 303 00e6 03EB4215 		add	r5, r3, r2, lsl #5
 304 00ea 03F5A061 		add	r1, r3, #1280
 305 00ee 05F5A065 		add	r5, r5, #1280
 306              	.LVL36:
 307              	.L33:
 308              		.loc 1 299 0 is_stmt 0 discriminator 1
 309 00f2 A942     		cmp	r1, r5
 310 00f4 22D1     		bne	.L34
 311 00f6 03EB0232 		add	r2, r3, r2, lsl #12
 312 00fa 03F58051 		add	r1, r3, #4096
 313 00fe 00F1D004 		add	r4, r0, #208
 314 0102 02F58052 		add	r2, r2, #4096
 315              	.L35:
 300:../STLibs//STM32_USB-Host-Device_Lib_V2.1.0/Libraries/STM32_USB_OTG_Driver/src/usb_core.c ****   {
 301:../STLibs//STM32_USB-Host-Device_Lib_V2.1.0/Libraries/STM32_USB_OTG_Driver/src/usb_core.c ****     pdev->regs.HC_REGS[i] = (USB_OTG_HC_REGS *)(baseAddress + \
 302:../STLibs//STM32_USB-Host-Device_Lib_V2.1.0/Libraries/STM32_USB_OTG_Driver/src/usb_core.c ****       USB_OTG_HOST_CHAN_REGS_OFFSET + \
 303:../STLibs//STM32_USB-Host-Device_Lib_V2.1.0/Libraries/STM32_USB_OTG_Driver/src/usb_core.c ****         (i * USB_OTG_CHAN_REGS_OFFSET));
 304:../STLibs//STM32_USB-Host-Device_Lib_V2.1.0/Libraries/STM32_USB_OTG_Driver/src/usb_core.c ****   }
 305:../STLibs//STM32_USB-Host-Device_Lib_V2.1.0/Libraries/STM32_USB_OTG_Driver/src/usb_core.c ****   for (i = 0; i < pdev->cfg.host_channels; i++)
 316              		.loc 1 305 0 is_stmt 1 discriminator 1
 317 0106 9142     		cmp	r1, r2
 318 0108 1CD1     		bne	.L36
 306:../STLibs//STM32_USB-Host-Device_Lib_V2.1.0/Libraries/STM32_USB_OTG_Driver/src/usb_core.c ****   {
 307:../STLibs//STM32_USB-Host-Device_Lib_V2.1.0/Libraries/STM32_USB_OTG_Driver/src/usb_core.c ****     pdev->regs.DFIFO[i] = (uint32_t *)(baseAddress + USB_OTG_DATA_FIFO_OFFSET +\
 308:../STLibs//STM32_USB-Host-Device_Lib_V2.1.0/Libraries/STM32_USB_OTG_Driver/src/usb_core.c ****       (i * USB_OTG_DATA_FIFO_SIZE));
 309:../STLibs//STM32_USB-Host-Device_Lib_V2.1.0/Libraries/STM32_USB_OTG_Driver/src/usb_core.c ****   }
 310:../STLibs//STM32_USB-Host-Device_Lib_V2.1.0/Libraries/STM32_USB_OTG_Driver/src/usb_core.c ****   pdev->regs.PCGCCTL = (uint32_t *)(baseAddress + USB_OTG_PCGCCTL_OFFSET);
 319              		.loc 1 310 0
 320 010a 03F56063 		add	r3, r3, #3584
 321              	.LVL37:
 322 010e C0F80C31 		str	r3, [r0, #268]
 311:../STLibs//STM32_USB-Host-Device_Lib_V2.1.0/Libraries/STM32_USB_OTG_Driver/src/usb_core.c ****   
 312:../STLibs//STM32_USB-Host-Device_Lib_V2.1.0/Libraries/STM32_USB_OTG_Driver/src/usb_core.c ****   return status;
 313:../STLibs//STM32_USB-Host-Device_Lib_V2.1.0/Libraries/STM32_USB_OTG_Driver/src/usb_core.c **** }
 323              		.loc 1 313 0
 324 0112 0020     		movs	r0, #0
 325              	.LVL38:
 326 0114 30BD     		pop	{r4, r5, pc}
 327              	.LVL39:
 328              	.L29:
 251:../STLibs//STM32_USB-Host-Device_Lib_V2.1.0/Libraries/STM32_USB_OTG_Driver/src/usb_core.c ****   {
 329              		.loc 1 251 0
 330 0116 41B9     		cbnz	r1, .L37
 331              	.LVL40:
 255:../STLibs//STM32_USB-Host-Device_Lib_V2.1.0/Libraries/STM32_USB_OTG_Driver/src/usb_core.c ****     pdev->cfg.dev_endpoints    = 6 ;
 332              		.loc 1 255 0
 333 0118 40F20C63 		movw	r3, #1548
 334 011c 0380     		strh	r3, [r0]	@ movhi
 257:../STLibs//STM32_USB-Host-Device_Lib_V2.1.0/Libraries/STM32_USB_OTG_Driver/src/usb_core.c ****     
 335              		.loc 1 257 0
 336 011e 4FF4A063 		mov	r3, #1280
 337 0122 C380     		strh	r3, [r0, #6]	@ movhi
 254:../STLibs//STM32_USB-Host-Device_Lib_V2.1.0/Libraries/STM32_USB_OTG_Driver/src/usb_core.c ****     pdev->cfg.host_channels    = 12 ;
 338              		.loc 1 254 0
 339 0124 C172     		strb	r1, [r0, #11]
 253:../STLibs//STM32_USB-Host-Device_Lib_V2.1.0/Libraries/STM32_USB_OTG_Driver/src/usb_core.c ****     pdev->cfg.coreID           = USB_OTG_HS_CORE_ID;    
 340              		.loc 1 253 0
 341 0126 0A4B     		ldr	r3, .L38
 342 0128 C6E7     		b	.L30
 343              	.LVL41:
 344              	.L37:
 224:../STLibs//STM32_USB-Host-Device_Lib_V2.1.0/Libraries/STM32_USB_OTG_Driver/src/usb_core.c ****   USB_OTG_STS status = USB_OTG_OK;
 345              		.loc 1 224 0
 346 012a 0023     		movs	r3, #0
 347 012c C4E7     		b	.L30
 348              	.LVL42:
 349              	.L32:
 288:../STLibs//STM32_USB-Host-Device_Lib_V2.1.0/Libraries/STM32_USB_OTG_Driver/src/usb_core.c ****       (baseAddress + USB_OTG_DEV_IN_EP_REG_OFFSET + \
 350              		.loc 1 288 0 discriminator 3
 351 012e 42F8041B 		str	r1, [r2], #4
 291:../STLibs//STM32_USB-Host-Device_Lib_V2.1.0/Libraries/STM32_USB_OTG_Driver/src/usb_core.c ****       (baseAddress + USB_OTG_DEV_OUT_EP_REG_OFFSET + \
 352              		.loc 1 291 0 discriminator 3
 353 0132 01F50075 		add	r5, r1, #512
 354 0136 9563     		str	r5, [r2, #56]
 355 0138 2031     		adds	r1, r1, #32
 356 013a C8E7     		b	.L31
 357              	.L34:
 301:../STLibs//STM32_USB-Host-Device_Lib_V2.1.0/Libraries/STM32_USB_OTG_Driver/src/usb_core.c ****       USB_OTG_HOST_CHAN_REGS_OFFSET + \
 358              		.loc 1 301 0 discriminator 3
 359 013c 44F8041B 		str	r1, [r4], #4
 360 0140 2031     		adds	r1, r1, #32
 361 0142 D6E7     		b	.L33
 362              	.L36:
 307:../STLibs//STM32_USB-Host-Device_Lib_V2.1.0/Libraries/STM32_USB_OTG_Driver/src/usb_core.c ****       (i * USB_OTG_DATA_FIFO_SIZE));
 363              		.loc 1 307 0 discriminator 3
 364 0144 44F8041B 		str	r1, [r4], #4
 365 0148 01F58051 		add	r1, r1, #4096
 366 014c DBE7     		b	.L35
 367              	.L39:
 368 014e 00BF     		.align	2
 369              	.L38:
 370 0150 00000440 		.word	1074003968
 371              		.cfi_endproc
 372              	.LFE114:
 374              		.align	1
 375              		.global	USB_OTG_CoreInit
 376              		.syntax unified
 377              		.thumb
 378              		.thumb_func
 379              		.fpu fpv4-sp-d16
 381              	USB_OTG_CoreInit:
 382              	.LFB115:
 314:../STLibs//STM32_USB-Host-Device_Lib_V2.1.0/Libraries/STM32_USB_OTG_Driver/src/usb_core.c **** 
 315:../STLibs//STM32_USB-Host-Device_Lib_V2.1.0/Libraries/STM32_USB_OTG_Driver/src/usb_core.c **** 
 316:../STLibs//STM32_USB-Host-Device_Lib_V2.1.0/Libraries/STM32_USB_OTG_Driver/src/usb_core.c **** /**
 317:../STLibs//STM32_USB-Host-Device_Lib_V2.1.0/Libraries/STM32_USB_OTG_Driver/src/usb_core.c **** * @brief  USB_OTG_CoreInit
 318:../STLibs//STM32_USB-Host-Device_Lib_V2.1.0/Libraries/STM32_USB_OTG_Driver/src/usb_core.c **** *         Initializes the USB_OTG controller registers and prepares the core
 319:../STLibs//STM32_USB-Host-Device_Lib_V2.1.0/Libraries/STM32_USB_OTG_Driver/src/usb_core.c **** *         device mode or host mode operation.
 320:../STLibs//STM32_USB-Host-Device_Lib_V2.1.0/Libraries/STM32_USB_OTG_Driver/src/usb_core.c **** * @param  pdev : Selected device
 321:../STLibs//STM32_USB-Host-Device_Lib_V2.1.0/Libraries/STM32_USB_OTG_Driver/src/usb_core.c **** * @retval USB_OTG_STS : status
 322:../STLibs//STM32_USB-Host-Device_Lib_V2.1.0/Libraries/STM32_USB_OTG_Driver/src/usb_core.c **** */
 323:../STLibs//STM32_USB-Host-Device_Lib_V2.1.0/Libraries/STM32_USB_OTG_Driver/src/usb_core.c **** USB_OTG_STS USB_OTG_CoreInit(USB_OTG_CORE_HANDLE *pdev)
 324:../STLibs//STM32_USB-Host-Device_Lib_V2.1.0/Libraries/STM32_USB_OTG_Driver/src/usb_core.c **** {
 383              		.loc 1 324 0
 384              		.cfi_startproc
 385              		@ args = 0, pretend = 0, frame = 0
 386              		@ frame_needed = 0, uses_anonymous_args = 0
 387              	.LVL43:
 388 0154 38B5     		push	{r3, r4, r5, lr}
 389              	.LCFI5:
 390              		.cfi_def_cfa_offset 16
 391              		.cfi_offset 3, -16
 392              		.cfi_offset 4, -12
 393              		.cfi_offset 5, -8
 394              		.cfi_offset 14, -4
 395              		.loc 1 324 0
 396 0156 0546     		mov	r5, r0
 325:../STLibs//STM32_USB-Host-Device_Lib_V2.1.0/Libraries/STM32_USB_OTG_Driver/src/usb_core.c ****   USB_OTG_STS status = USB_OTG_OK;
 326:../STLibs//STM32_USB-Host-Device_Lib_V2.1.0/Libraries/STM32_USB_OTG_Driver/src/usb_core.c ****   USB_OTG_GUSBCFG_TypeDef  usbcfg;
 327:../STLibs//STM32_USB-Host-Device_Lib_V2.1.0/Libraries/STM32_USB_OTG_Driver/src/usb_core.c ****   USB_OTG_GCCFG_TypeDef    gccfg;
 328:../STLibs//STM32_USB-Host-Device_Lib_V2.1.0/Libraries/STM32_USB_OTG_Driver/src/usb_core.c ****   USB_OTG_GAHBCFG_TypeDef  ahbcfg;
 329:../STLibs//STM32_USB-Host-Device_Lib_V2.1.0/Libraries/STM32_USB_OTG_Driver/src/usb_core.c ****   
 330:../STLibs//STM32_USB-Host-Device_Lib_V2.1.0/Libraries/STM32_USB_OTG_Driver/src/usb_core.c ****   usbcfg.d32 = 0;
 331:../STLibs//STM32_USB-Host-Device_Lib_V2.1.0/Libraries/STM32_USB_OTG_Driver/src/usb_core.c ****   gccfg.d32 = 0;
 332:../STLibs//STM32_USB-Host-Device_Lib_V2.1.0/Libraries/STM32_USB_OTG_Driver/src/usb_core.c ****   ahbcfg.d32 = 0;
 397              		.loc 1 332 0
 398 0158 0024     		movs	r4, #0
 399              	.LVL44:
 333:../STLibs//STM32_USB-Host-Device_Lib_V2.1.0/Libraries/STM32_USB_OTG_Driver/src/usb_core.c ****   
 334:../STLibs//STM32_USB-Host-Device_Lib_V2.1.0/Libraries/STM32_USB_OTG_Driver/src/usb_core.c ****   
 335:../STLibs//STM32_USB-Host-Device_Lib_V2.1.0/Libraries/STM32_USB_OTG_Driver/src/usb_core.c ****   
 336:../STLibs//STM32_USB-Host-Device_Lib_V2.1.0/Libraries/STM32_USB_OTG_Driver/src/usb_core.c ****   if (pdev->cfg.phy_itface == USB_OTG_ULPI_PHY)
 400              		.loc 1 336 0
 401 015a 2B7A     		ldrb	r3, [r5, #8]	@ zero_extendqisi2
 402 015c 50F80C2F 		ldr	r2, [r0, #12]!
 403              	.LVL45:
 404 0160 012B     		cmp	r3, #1
 405 0162 2AD1     		bne	.L41
 337:../STLibs//STM32_USB-Host-Device_Lib_V2.1.0/Libraries/STM32_USB_OTG_Driver/src/usb_core.c ****   {
 338:../STLibs//STM32_USB-Host-Device_Lib_V2.1.0/Libraries/STM32_USB_OTG_Driver/src/usb_core.c ****     gccfg.d32 = USB_OTG_READ_REG32(&pdev->regs.GREGS->GCCFG);
 406              		.loc 1 338 0
 407 0164 936B     		ldr	r3, [r2, #56]
 408              	.LVL46:
 339:../STLibs//STM32_USB-Host-Device_Lib_V2.1.0/Libraries/STM32_USB_OTG_Driver/src/usb_core.c ****     gccfg.b.pwdn = 0;
 340:../STLibs//STM32_USB-Host-Device_Lib_V2.1.0/Libraries/STM32_USB_OTG_Driver/src/usb_core.c ****     
 341:../STLibs//STM32_USB-Host-Device_Lib_V2.1.0/Libraries/STM32_USB_OTG_Driver/src/usb_core.c ****     if (pdev->cfg.Sof_output)
 409              		.loc 1 341 0
 410 0166 697A     		ldrb	r1, [r5, #9]	@ zero_extendqisi2
 411              	.LVL47:
 339:../STLibs//STM32_USB-Host-Device_Lib_V2.1.0/Libraries/STM32_USB_OTG_Driver/src/usb_core.c ****     gccfg.b.pwdn = 0;
 412              		.loc 1 339 0
 413 0168 64F31043 		bfi	r3, r4, #16, #1
 414              		.loc 1 341 0
 415 016c 09B1     		cbz	r1, .L42
 342:../STLibs//STM32_USB-Host-Device_Lib_V2.1.0/Libraries/STM32_USB_OTG_Driver/src/usb_core.c ****     {
 343:../STLibs//STM32_USB-Host-Device_Lib_V2.1.0/Libraries/STM32_USB_OTG_Driver/src/usb_core.c ****       gccfg.b.sofouten = 1;   
 416              		.loc 1 343 0
 417 016e 43F48013 		orr	r3, r3, #1048576
 418              	.LVL48:
 419              	.L42:
 344:../STLibs//STM32_USB-Host-Device_Lib_V2.1.0/Libraries/STM32_USB_OTG_Driver/src/usb_core.c ****     }
 345:../STLibs//STM32_USB-Host-Device_Lib_V2.1.0/Libraries/STM32_USB_OTG_Driver/src/usb_core.c ****     USB_OTG_WRITE_REG32 (&pdev->regs.GREGS->GCCFG, gccfg.d32);
 420              		.loc 1 345 0
 421 0172 9363     		str	r3, [r2, #56]
 346:../STLibs//STM32_USB-Host-Device_Lib_V2.1.0/Libraries/STM32_USB_OTG_Driver/src/usb_core.c ****     
 347:../STLibs//STM32_USB-Host-Device_Lib_V2.1.0/Libraries/STM32_USB_OTG_Driver/src/usb_core.c ****     /* Init The ULPI Interface */
 348:../STLibs//STM32_USB-Host-Device_Lib_V2.1.0/Libraries/STM32_USB_OTG_Driver/src/usb_core.c ****     usbcfg.d32 = 0;
 349:../STLibs//STM32_USB-Host-Device_Lib_V2.1.0/Libraries/STM32_USB_OTG_Driver/src/usb_core.c ****     usbcfg.d32 = USB_OTG_READ_REG32(&pdev->regs.GREGS->GUSBCFG);
 422              		.loc 1 349 0
 423 0174 D368     		ldr	r3, [r2, #12]
 424              	.LVL49:
 350:../STLibs//STM32_USB-Host-Device_Lib_V2.1.0/Libraries/STM32_USB_OTG_Driver/src/usb_core.c ****     
 351:../STLibs//STM32_USB-Host-Device_Lib_V2.1.0/Libraries/STM32_USB_OTG_Driver/src/usb_core.c ****     usbcfg.b.physel            = 0; /* HS Interface */
 425              		.loc 1 351 0
 426 0176 6FF38613 		bfc	r3, #6, #1
 427              	.LVL50:
 352:../STLibs//STM32_USB-Host-Device_Lib_V2.1.0/Libraries/STM32_USB_OTG_Driver/src/usb_core.c **** #ifdef USB_OTG_INTERNAL_VBUS_ENABLED
 353:../STLibs//STM32_USB-Host-Device_Lib_V2.1.0/Libraries/STM32_USB_OTG_Driver/src/usb_core.c ****     usbcfg.b.ulpi_ext_vbus_drv = 0; /* Use internal VBUS */
 354:../STLibs//STM32_USB-Host-Device_Lib_V2.1.0/Libraries/STM32_USB_OTG_Driver/src/usb_core.c **** #else
 355:../STLibs//STM32_USB-Host-Device_Lib_V2.1.0/Libraries/STM32_USB_OTG_Driver/src/usb_core.c **** #ifdef USB_OTG_EXTERNAL_VBUS_ENABLED    
 356:../STLibs//STM32_USB-Host-Device_Lib_V2.1.0/Libraries/STM32_USB_OTG_Driver/src/usb_core.c ****     usbcfg.b.ulpi_ext_vbus_drv = 1; /* Use external VBUS */
 357:../STLibs//STM32_USB-Host-Device_Lib_V2.1.0/Libraries/STM32_USB_OTG_Driver/src/usb_core.c **** #endif
 358:../STLibs//STM32_USB-Host-Device_Lib_V2.1.0/Libraries/STM32_USB_OTG_Driver/src/usb_core.c **** #endif 
 359:../STLibs//STM32_USB-Host-Device_Lib_V2.1.0/Libraries/STM32_USB_OTG_Driver/src/usb_core.c ****     usbcfg.b.term_sel_dl_pulse = 0; /* Data line pulsing using utmi_txvalid */    
 428              		.loc 1 359 0
 429 017a 6FF39653 		bfc	r3, #22, #1
 360:../STLibs//STM32_USB-Host-Device_Lib_V2.1.0/Libraries/STM32_USB_OTG_Driver/src/usb_core.c ****     
 361:../STLibs//STM32_USB-Host-Device_Lib_V2.1.0/Libraries/STM32_USB_OTG_Driver/src/usb_core.c ****     usbcfg.b.ulpi_fsls = 0;
 430              		.loc 1 361 0
 431 017e 6FF35143 		bfc	r3, #17, #1
 362:../STLibs//STM32_USB-Host-Device_Lib_V2.1.0/Libraries/STM32_USB_OTG_Driver/src/usb_core.c ****     usbcfg.b.ulpi_clk_sus_m = 0;
 432              		.loc 1 362 0
 433 0182 6FF3D343 		bfc	r3, #19, #1
 363:../STLibs//STM32_USB-Host-Device_Lib_V2.1.0/Libraries/STM32_USB_OTG_Driver/src/usb_core.c ****     USB_OTG_WRITE_REG32 (&pdev->regs.GREGS->GUSBCFG, usbcfg.d32);
 434              		.loc 1 363 0
 435 0186 D360     		str	r3, [r2, #12]
 364:../STLibs//STM32_USB-Host-Device_Lib_V2.1.0/Libraries/STM32_USB_OTG_Driver/src/usb_core.c ****     
 365:../STLibs//STM32_USB-Host-Device_Lib_V2.1.0/Libraries/STM32_USB_OTG_Driver/src/usb_core.c ****     /* Reset after a PHY select  */
 366:../STLibs//STM32_USB-Host-Device_Lib_V2.1.0/Libraries/STM32_USB_OTG_Driver/src/usb_core.c ****     USB_OTG_CoreReset(pdev);
 436              		.loc 1 366 0
 437 0188 FFF73AFF 		bl	USB_OTG_CoreReset.isra.1
 438              	.LVL51:
 367:../STLibs//STM32_USB-Host-Device_Lib_V2.1.0/Libraries/STM32_USB_OTG_Driver/src/usb_core.c ****     
 368:../STLibs//STM32_USB-Host-Device_Lib_V2.1.0/Libraries/STM32_USB_OTG_Driver/src/usb_core.c ****     if(pdev->cfg.dma_enable == 1)
 439              		.loc 1 368 0
 440 018c EB78     		ldrb	r3, [r5, #3]	@ zero_extendqisi2
 441 018e 012B     		cmp	r3, #1
 442 0190 06D1     		bne	.L43
 369:../STLibs//STM32_USB-Host-Device_Lib_V2.1.0/Libraries/STM32_USB_OTG_Driver/src/usb_core.c ****     {
 370:../STLibs//STM32_USB-Host-Device_Lib_V2.1.0/Libraries/STM32_USB_OTG_Driver/src/usb_core.c ****       
 371:../STLibs//STM32_USB-Host-Device_Lib_V2.1.0/Libraries/STM32_USB_OTG_Driver/src/usb_core.c ****       ahbcfg.b.hburstlen = 5; /* 64 x 32-bits*/
 443              		.loc 1 371 0
 444 0192 0523     		movs	r3, #5
 445 0194 63F34404 		bfi	r4, r3, #1, #4
 372:../STLibs//STM32_USB-Host-Device_Lib_V2.1.0/Libraries/STM32_USB_OTG_Driver/src/usb_core.c ****       ahbcfg.b.dmaenable = 1;
 373:../STLibs//STM32_USB-Host-Device_Lib_V2.1.0/Libraries/STM32_USB_OTG_Driver/src/usb_core.c ****       USB_OTG_WRITE_REG32(&pdev->regs.GREGS->GAHBCFG, ahbcfg.d32);
 446              		.loc 1 373 0
 447 0198 EB68     		ldr	r3, [r5, #12]
 372:../STLibs//STM32_USB-Host-Device_Lib_V2.1.0/Libraries/STM32_USB_OTG_Driver/src/usb_core.c ****       ahbcfg.b.dmaenable = 1;
 448              		.loc 1 372 0
 449 019a 44F02004 		orr	r4, r4, #32
 450              	.LVL52:
 451              		.loc 1 373 0
 452 019e 9C60     		str	r4, [r3, #8]
 453              	.L43:
 374:../STLibs//STM32_USB-Host-Device_Lib_V2.1.0/Libraries/STM32_USB_OTG_Driver/src/usb_core.c ****       
 375:../STLibs//STM32_USB-Host-Device_Lib_V2.1.0/Libraries/STM32_USB_OTG_Driver/src/usb_core.c ****     }    
 376:../STLibs//STM32_USB-Host-Device_Lib_V2.1.0/Libraries/STM32_USB_OTG_Driver/src/usb_core.c ****   }
 377:../STLibs//STM32_USB-Host-Device_Lib_V2.1.0/Libraries/STM32_USB_OTG_Driver/src/usb_core.c ****   else /* FS interface (embedded Phy) */
 378:../STLibs//STM32_USB-Host-Device_Lib_V2.1.0/Libraries/STM32_USB_OTG_Driver/src/usb_core.c ****   {
 379:../STLibs//STM32_USB-Host-Device_Lib_V2.1.0/Libraries/STM32_USB_OTG_Driver/src/usb_core.c ****     
 380:../STLibs//STM32_USB-Host-Device_Lib_V2.1.0/Libraries/STM32_USB_OTG_Driver/src/usb_core.c ****     usbcfg.d32 = USB_OTG_READ_REG32(&pdev->regs.GREGS->GUSBCFG);;
 381:../STLibs//STM32_USB-Host-Device_Lib_V2.1.0/Libraries/STM32_USB_OTG_Driver/src/usb_core.c ****     usbcfg.b.physel  = 1; /* FS Interface */
 382:../STLibs//STM32_USB-Host-Device_Lib_V2.1.0/Libraries/STM32_USB_OTG_Driver/src/usb_core.c ****     USB_OTG_WRITE_REG32 (&pdev->regs.GREGS->GUSBCFG, usbcfg.d32);
 383:../STLibs//STM32_USB-Host-Device_Lib_V2.1.0/Libraries/STM32_USB_OTG_Driver/src/usb_core.c ****     /* Reset after a PHY select and set Host mode */
 384:../STLibs//STM32_USB-Host-Device_Lib_V2.1.0/Libraries/STM32_USB_OTG_Driver/src/usb_core.c ****     USB_OTG_CoreReset(pdev);
 385:../STLibs//STM32_USB-Host-Device_Lib_V2.1.0/Libraries/STM32_USB_OTG_Driver/src/usb_core.c ****     /* Deactivate the power down*/
 386:../STLibs//STM32_USB-Host-Device_Lib_V2.1.0/Libraries/STM32_USB_OTG_Driver/src/usb_core.c ****     gccfg.d32 = 0;
 387:../STLibs//STM32_USB-Host-Device_Lib_V2.1.0/Libraries/STM32_USB_OTG_Driver/src/usb_core.c ****     gccfg.b.pwdn = 1;
 388:../STLibs//STM32_USB-Host-Device_Lib_V2.1.0/Libraries/STM32_USB_OTG_Driver/src/usb_core.c ****     
 389:../STLibs//STM32_USB-Host-Device_Lib_V2.1.0/Libraries/STM32_USB_OTG_Driver/src/usb_core.c ****     gccfg.b.vbussensingA = 1 ;
 390:../STLibs//STM32_USB-Host-Device_Lib_V2.1.0/Libraries/STM32_USB_OTG_Driver/src/usb_core.c ****     gccfg.b.vbussensingB = 1 ;     
 391:../STLibs//STM32_USB-Host-Device_Lib_V2.1.0/Libraries/STM32_USB_OTG_Driver/src/usb_core.c **** #ifndef VBUS_SENSING_ENABLED
 392:../STLibs//STM32_USB-Host-Device_Lib_V2.1.0/Libraries/STM32_USB_OTG_Driver/src/usb_core.c ****     gccfg.b.disablevbussensing = 1; 
 393:../STLibs//STM32_USB-Host-Device_Lib_V2.1.0/Libraries/STM32_USB_OTG_Driver/src/usb_core.c **** #endif    
 394:../STLibs//STM32_USB-Host-Device_Lib_V2.1.0/Libraries/STM32_USB_OTG_Driver/src/usb_core.c ****     
 395:../STLibs//STM32_USB-Host-Device_Lib_V2.1.0/Libraries/STM32_USB_OTG_Driver/src/usb_core.c ****     if(pdev->cfg.Sof_output)
 396:../STLibs//STM32_USB-Host-Device_Lib_V2.1.0/Libraries/STM32_USB_OTG_Driver/src/usb_core.c ****     {
 397:../STLibs//STM32_USB-Host-Device_Lib_V2.1.0/Libraries/STM32_USB_OTG_Driver/src/usb_core.c ****       gccfg.b.sofouten = 1;  
 398:../STLibs//STM32_USB-Host-Device_Lib_V2.1.0/Libraries/STM32_USB_OTG_Driver/src/usb_core.c ****     }
 399:../STLibs//STM32_USB-Host-Device_Lib_V2.1.0/Libraries/STM32_USB_OTG_Driver/src/usb_core.c ****     
 400:../STLibs//STM32_USB-Host-Device_Lib_V2.1.0/Libraries/STM32_USB_OTG_Driver/src/usb_core.c ****     USB_OTG_WRITE_REG32 (&pdev->regs.GREGS->GCCFG, gccfg.d32);
 401:../STLibs//STM32_USB-Host-Device_Lib_V2.1.0/Libraries/STM32_USB_OTG_Driver/src/usb_core.c ****     USB_OTG_BSP_mDelay(20);
 402:../STLibs//STM32_USB-Host-Device_Lib_V2.1.0/Libraries/STM32_USB_OTG_Driver/src/usb_core.c ****   }
 403:../STLibs//STM32_USB-Host-Device_Lib_V2.1.0/Libraries/STM32_USB_OTG_Driver/src/usb_core.c ****   /* case the HS core is working in FS mode */
 404:../STLibs//STM32_USB-Host-Device_Lib_V2.1.0/Libraries/STM32_USB_OTG_Driver/src/usb_core.c ****   if(pdev->cfg.dma_enable == 1)
 454              		.loc 1 404 0
 455 01a0 EB78     		ldrb	r3, [r5, #3]	@ zero_extendqisi2
 456 01a2 012B     		cmp	r3, #1
 457 01a4 07D1     		bne	.L45
 405:../STLibs//STM32_USB-Host-Device_Lib_V2.1.0/Libraries/STM32_USB_OTG_Driver/src/usb_core.c ****   {
 406:../STLibs//STM32_USB-Host-Device_Lib_V2.1.0/Libraries/STM32_USB_OTG_Driver/src/usb_core.c ****     
 407:../STLibs//STM32_USB-Host-Device_Lib_V2.1.0/Libraries/STM32_USB_OTG_Driver/src/usb_core.c ****     ahbcfg.d32 = USB_OTG_READ_REG32(&pdev->regs.GREGS->GAHBCFG);
 458              		.loc 1 407 0
 459 01a6 EB68     		ldr	r3, [r5, #12]
 460 01a8 9C68     		ldr	r4, [r3, #8]
 461              	.LVL53:
 408:../STLibs//STM32_USB-Host-Device_Lib_V2.1.0/Libraries/STM32_USB_OTG_Driver/src/usb_core.c ****     ahbcfg.b.hburstlen = 5; /* 64 x 32-bits*/
 462              		.loc 1 408 0
 463 01aa 0522     		movs	r2, #5
 464 01ac 62F34404 		bfi	r4, r2, #1, #4
 465              	.LVL54:
 409:../STLibs//STM32_USB-Host-Device_Lib_V2.1.0/Libraries/STM32_USB_OTG_Driver/src/usb_core.c ****     ahbcfg.b.dmaenable = 1;
 466              		.loc 1 409 0
 467 01b0 44F02004 		orr	r4, r4, #32
 468              	.LVL55:
 410:../STLibs//STM32_USB-Host-Device_Lib_V2.1.0/Libraries/STM32_USB_OTG_Driver/src/usb_core.c ****     USB_OTG_WRITE_REG32(&pdev->regs.GREGS->GAHBCFG, ahbcfg.d32);
 469              		.loc 1 410 0
 470 01b4 9C60     		str	r4, [r3, #8]
 471              	.L45:
 411:../STLibs//STM32_USB-Host-Device_Lib_V2.1.0/Libraries/STM32_USB_OTG_Driver/src/usb_core.c ****     
 412:../STLibs//STM32_USB-Host-Device_Lib_V2.1.0/Libraries/STM32_USB_OTG_Driver/src/usb_core.c ****   }
 413:../STLibs//STM32_USB-Host-Device_Lib_V2.1.0/Libraries/STM32_USB_OTG_Driver/src/usb_core.c ****   /* initialize OTG features */
 414:../STLibs//STM32_USB-Host-Device_Lib_V2.1.0/Libraries/STM32_USB_OTG_Driver/src/usb_core.c **** #ifdef  USE_OTG_MODE
 415:../STLibs//STM32_USB-Host-Device_Lib_V2.1.0/Libraries/STM32_USB_OTG_Driver/src/usb_core.c ****   usbcfg.d32 = USB_OTG_READ_REG32(&pdev->regs.GREGS->GUSBCFG);
 416:../STLibs//STM32_USB-Host-Device_Lib_V2.1.0/Libraries/STM32_USB_OTG_Driver/src/usb_core.c ****   usbcfg.b.hnpcap = 1;
 417:../STLibs//STM32_USB-Host-Device_Lib_V2.1.0/Libraries/STM32_USB_OTG_Driver/src/usb_core.c ****   usbcfg.b.srpcap = 1;
 418:../STLibs//STM32_USB-Host-Device_Lib_V2.1.0/Libraries/STM32_USB_OTG_Driver/src/usb_core.c ****   USB_OTG_WRITE_REG32(&pdev->regs.GREGS->GUSBCFG, usbcfg.d32);
 419:../STLibs//STM32_USB-Host-Device_Lib_V2.1.0/Libraries/STM32_USB_OTG_Driver/src/usb_core.c ****   USB_OTG_EnableCommonInt(pdev);
 420:../STLibs//STM32_USB-Host-Device_Lib_V2.1.0/Libraries/STM32_USB_OTG_Driver/src/usb_core.c **** #endif
 421:../STLibs//STM32_USB-Host-Device_Lib_V2.1.0/Libraries/STM32_USB_OTG_Driver/src/usb_core.c ****   return status;
 422:../STLibs//STM32_USB-Host-Device_Lib_V2.1.0/Libraries/STM32_USB_OTG_Driver/src/usb_core.c **** }
 472              		.loc 1 422 0
 473 01b6 0020     		movs	r0, #0
 474 01b8 38BD     		pop	{r3, r4, r5, pc}
 475              	.LVL56:
 476              	.L41:
 380:../STLibs//STM32_USB-Host-Device_Lib_V2.1.0/Libraries/STM32_USB_OTG_Driver/src/usb_core.c ****     usbcfg.b.physel  = 1; /* FS Interface */
 477              		.loc 1 380 0
 478 01ba D368     		ldr	r3, [r2, #12]
 381:../STLibs//STM32_USB-Host-Device_Lib_V2.1.0/Libraries/STM32_USB_OTG_Driver/src/usb_core.c ****     USB_OTG_WRITE_REG32 (&pdev->regs.GREGS->GUSBCFG, usbcfg.d32);
 479              		.loc 1 381 0
 480 01bc 43F04003 		orr	r3, r3, #64
 481              	.LVL57:
 382:../STLibs//STM32_USB-Host-Device_Lib_V2.1.0/Libraries/STM32_USB_OTG_Driver/src/usb_core.c ****     /* Reset after a PHY select and set Host mode */
 482              		.loc 1 382 0
 483 01c0 D360     		str	r3, [r2, #12]
 384:../STLibs//STM32_USB-Host-Device_Lib_V2.1.0/Libraries/STM32_USB_OTG_Driver/src/usb_core.c ****     /* Deactivate the power down*/
 484              		.loc 1 384 0
 485 01c2 FFF71DFF 		bl	USB_OTG_CoreReset.isra.1
 486              	.LVL58:
 395:../STLibs//STM32_USB-Host-Device_Lib_V2.1.0/Libraries/STM32_USB_OTG_Driver/src/usb_core.c ****     {
 487              		.loc 1 395 0
 488 01c6 6B7A     		ldrb	r3, [r5, #9]	@ zero_extendqisi2
 400:../STLibs//STM32_USB-Host-Device_Lib_V2.1.0/Libraries/STM32_USB_OTG_Driver/src/usb_core.c ****     USB_OTG_BSP_mDelay(20);
 489              		.loc 1 400 0
 490 01c8 EA68     		ldr	r2, [r5, #12]
 397:../STLibs//STM32_USB-Host-Device_Lib_V2.1.0/Libraries/STM32_USB_OTG_Driver/src/usb_core.c ****     }
 491              		.loc 1 397 0
 492 01ca 002B     		cmp	r3, #0
 493 01cc 0CBF     		ite	eq
 494 01ce 4FF45023 		moveq	r3, #851968
 495 01d2 4FF4E813 		movne	r3, #1900544
 496              	.LVL59:
 400:../STLibs//STM32_USB-Host-Device_Lib_V2.1.0/Libraries/STM32_USB_OTG_Driver/src/usb_core.c ****     USB_OTG_BSP_mDelay(20);
 497              		.loc 1 400 0
 498 01d6 9363     		str	r3, [r2, #56]
 401:../STLibs//STM32_USB-Host-Device_Lib_V2.1.0/Libraries/STM32_USB_OTG_Driver/src/usb_core.c ****   }
 499              		.loc 1 401 0
 500 01d8 1420     		movs	r0, #20
 501 01da FFF7FEFF 		bl	USB_OTG_BSP_mDelay
 502              	.LVL60:
 503 01de DFE7     		b	.L43
 504              		.cfi_endproc
 505              	.LFE115:
 507              		.align	1
 508              		.global	USB_OTG_EnableGlobalInt
 509              		.syntax unified
 510              		.thumb
 511              		.thumb_func
 512              		.fpu fpv4-sp-d16
 514              	USB_OTG_EnableGlobalInt:
 515              	.LFB116:
 423:../STLibs//STM32_USB-Host-Device_Lib_V2.1.0/Libraries/STM32_USB_OTG_Driver/src/usb_core.c **** /**
 424:../STLibs//STM32_USB-Host-Device_Lib_V2.1.0/Libraries/STM32_USB_OTG_Driver/src/usb_core.c **** * @brief  USB_OTG_EnableGlobalInt
 425:../STLibs//STM32_USB-Host-Device_Lib_V2.1.0/Libraries/STM32_USB_OTG_Driver/src/usb_core.c **** *         Enables the controller's Global Int in the AHB Config reg
 426:../STLibs//STM32_USB-Host-Device_Lib_V2.1.0/Libraries/STM32_USB_OTG_Driver/src/usb_core.c **** * @param  pdev : Selected device
 427:../STLibs//STM32_USB-Host-Device_Lib_V2.1.0/Libraries/STM32_USB_OTG_Driver/src/usb_core.c **** * @retval USB_OTG_STS : status
 428:../STLibs//STM32_USB-Host-Device_Lib_V2.1.0/Libraries/STM32_USB_OTG_Driver/src/usb_core.c **** */
 429:../STLibs//STM32_USB-Host-Device_Lib_V2.1.0/Libraries/STM32_USB_OTG_Driver/src/usb_core.c **** USB_OTG_STS USB_OTG_EnableGlobalInt(USB_OTG_CORE_HANDLE *pdev)
 430:../STLibs//STM32_USB-Host-Device_Lib_V2.1.0/Libraries/STM32_USB_OTG_Driver/src/usb_core.c **** {
 516              		.loc 1 430 0
 517              		.cfi_startproc
 518              		@ args = 0, pretend = 0, frame = 0
 519              		@ frame_needed = 0, uses_anonymous_args = 0
 520              		@ link register save eliminated.
 521              	.LVL61:
 431:../STLibs//STM32_USB-Host-Device_Lib_V2.1.0/Libraries/STM32_USB_OTG_Driver/src/usb_core.c ****   USB_OTG_STS status = USB_OTG_OK;
 432:../STLibs//STM32_USB-Host-Device_Lib_V2.1.0/Libraries/STM32_USB_OTG_Driver/src/usb_core.c ****   USB_OTG_GAHBCFG_TypeDef  ahbcfg;
 433:../STLibs//STM32_USB-Host-Device_Lib_V2.1.0/Libraries/STM32_USB_OTG_Driver/src/usb_core.c ****   
 434:../STLibs//STM32_USB-Host-Device_Lib_V2.1.0/Libraries/STM32_USB_OTG_Driver/src/usb_core.c ****   ahbcfg.d32 = 0;
 435:../STLibs//STM32_USB-Host-Device_Lib_V2.1.0/Libraries/STM32_USB_OTG_Driver/src/usb_core.c ****   ahbcfg.b.glblintrmsk = 1; /* Enable interrupts */
 436:../STLibs//STM32_USB-Host-Device_Lib_V2.1.0/Libraries/STM32_USB_OTG_Driver/src/usb_core.c ****   USB_OTG_MODIFY_REG32(&pdev->regs.GREGS->GAHBCFG, 0, ahbcfg.d32);
 522              		.loc 1 436 0
 523 01e0 C268     		ldr	r2, [r0, #12]
 524 01e2 9368     		ldr	r3, [r2, #8]
 525 01e4 43F00103 		orr	r3, r3, #1
 526 01e8 9360     		str	r3, [r2, #8]
 437:../STLibs//STM32_USB-Host-Device_Lib_V2.1.0/Libraries/STM32_USB_OTG_Driver/src/usb_core.c ****   return status;
 438:../STLibs//STM32_USB-Host-Device_Lib_V2.1.0/Libraries/STM32_USB_OTG_Driver/src/usb_core.c **** }
 527              		.loc 1 438 0
 528 01ea 0020     		movs	r0, #0
 529              	.LVL62:
 530 01ec 7047     		bx	lr
 531              		.cfi_endproc
 532              	.LFE116:
 534              		.align	1
 535              		.global	USB_OTG_DisableGlobalInt
 536              		.syntax unified
 537              		.thumb
 538              		.thumb_func
 539              		.fpu fpv4-sp-d16
 541              	USB_OTG_DisableGlobalInt:
 542              	.LFB117:
 439:../STLibs//STM32_USB-Host-Device_Lib_V2.1.0/Libraries/STM32_USB_OTG_Driver/src/usb_core.c **** 
 440:../STLibs//STM32_USB-Host-Device_Lib_V2.1.0/Libraries/STM32_USB_OTG_Driver/src/usb_core.c **** 
 441:../STLibs//STM32_USB-Host-Device_Lib_V2.1.0/Libraries/STM32_USB_OTG_Driver/src/usb_core.c **** /**
 442:../STLibs//STM32_USB-Host-Device_Lib_V2.1.0/Libraries/STM32_USB_OTG_Driver/src/usb_core.c **** * @brief  USB_OTG_DisableGlobalInt
 443:../STLibs//STM32_USB-Host-Device_Lib_V2.1.0/Libraries/STM32_USB_OTG_Driver/src/usb_core.c **** *         Enables the controller's Global Int in the AHB Config reg
 444:../STLibs//STM32_USB-Host-Device_Lib_V2.1.0/Libraries/STM32_USB_OTG_Driver/src/usb_core.c **** * @param  pdev : Selected device
 445:../STLibs//STM32_USB-Host-Device_Lib_V2.1.0/Libraries/STM32_USB_OTG_Driver/src/usb_core.c **** * @retval USB_OTG_STS : status
 446:../STLibs//STM32_USB-Host-Device_Lib_V2.1.0/Libraries/STM32_USB_OTG_Driver/src/usb_core.c **** */
 447:../STLibs//STM32_USB-Host-Device_Lib_V2.1.0/Libraries/STM32_USB_OTG_Driver/src/usb_core.c **** USB_OTG_STS USB_OTG_DisableGlobalInt(USB_OTG_CORE_HANDLE *pdev)
 448:../STLibs//STM32_USB-Host-Device_Lib_V2.1.0/Libraries/STM32_USB_OTG_Driver/src/usb_core.c **** {
 543              		.loc 1 448 0
 544              		.cfi_startproc
 545              		@ args = 0, pretend = 0, frame = 0
 546              		@ frame_needed = 0, uses_anonymous_args = 0
 547              		@ link register save eliminated.
 548              	.LVL63:
 449:../STLibs//STM32_USB-Host-Device_Lib_V2.1.0/Libraries/STM32_USB_OTG_Driver/src/usb_core.c ****   USB_OTG_STS status = USB_OTG_OK;
 450:../STLibs//STM32_USB-Host-Device_Lib_V2.1.0/Libraries/STM32_USB_OTG_Driver/src/usb_core.c ****   USB_OTG_GAHBCFG_TypeDef  ahbcfg;
 451:../STLibs//STM32_USB-Host-Device_Lib_V2.1.0/Libraries/STM32_USB_OTG_Driver/src/usb_core.c ****   ahbcfg.d32 = 0;
 452:../STLibs//STM32_USB-Host-Device_Lib_V2.1.0/Libraries/STM32_USB_OTG_Driver/src/usb_core.c ****   ahbcfg.b.glblintrmsk = 1; /* Enable interrupts */
 453:../STLibs//STM32_USB-Host-Device_Lib_V2.1.0/Libraries/STM32_USB_OTG_Driver/src/usb_core.c ****   USB_OTG_MODIFY_REG32(&pdev->regs.GREGS->GAHBCFG, ahbcfg.d32, 0);
 549              		.loc 1 453 0
 550 01ee C268     		ldr	r2, [r0, #12]
 551 01f0 9368     		ldr	r3, [r2, #8]
 552 01f2 23F00103 		bic	r3, r3, #1
 553 01f6 9360     		str	r3, [r2, #8]
 454:../STLibs//STM32_USB-Host-Device_Lib_V2.1.0/Libraries/STM32_USB_OTG_Driver/src/usb_core.c ****   return status;
 455:../STLibs//STM32_USB-Host-Device_Lib_V2.1.0/Libraries/STM32_USB_OTG_Driver/src/usb_core.c **** }
 554              		.loc 1 455 0
 555 01f8 0020     		movs	r0, #0
 556              	.LVL64:
 557 01fa 7047     		bx	lr
 558              		.cfi_endproc
 559              	.LFE117:
 561              		.align	1
 562              		.global	USB_OTG_FlushTxFifo
 563              		.syntax unified
 564              		.thumb
 565              		.thumb_func
 566              		.fpu fpv4-sp-d16
 568              	USB_OTG_FlushTxFifo:
 569              	.LFB118:
 456:../STLibs//STM32_USB-Host-Device_Lib_V2.1.0/Libraries/STM32_USB_OTG_Driver/src/usb_core.c **** 
 457:../STLibs//STM32_USB-Host-Device_Lib_V2.1.0/Libraries/STM32_USB_OTG_Driver/src/usb_core.c **** 
 458:../STLibs//STM32_USB-Host-Device_Lib_V2.1.0/Libraries/STM32_USB_OTG_Driver/src/usb_core.c **** /**
 459:../STLibs//STM32_USB-Host-Device_Lib_V2.1.0/Libraries/STM32_USB_OTG_Driver/src/usb_core.c **** * @brief  USB_OTG_FlushTxFifo : Flush a Tx FIFO
 460:../STLibs//STM32_USB-Host-Device_Lib_V2.1.0/Libraries/STM32_USB_OTG_Driver/src/usb_core.c **** * @param  pdev : Selected device
 461:../STLibs//STM32_USB-Host-Device_Lib_V2.1.0/Libraries/STM32_USB_OTG_Driver/src/usb_core.c **** * @param  num : FO num
 462:../STLibs//STM32_USB-Host-Device_Lib_V2.1.0/Libraries/STM32_USB_OTG_Driver/src/usb_core.c **** * @retval USB_OTG_STS : status
 463:../STLibs//STM32_USB-Host-Device_Lib_V2.1.0/Libraries/STM32_USB_OTG_Driver/src/usb_core.c **** */
 464:../STLibs//STM32_USB-Host-Device_Lib_V2.1.0/Libraries/STM32_USB_OTG_Driver/src/usb_core.c **** USB_OTG_STS USB_OTG_FlushTxFifo (USB_OTG_CORE_HANDLE *pdev , uint32_t num )
 465:../STLibs//STM32_USB-Host-Device_Lib_V2.1.0/Libraries/STM32_USB_OTG_Driver/src/usb_core.c **** {
 570              		.loc 1 465 0
 571              		.cfi_startproc
 572              		@ args = 0, pretend = 0, frame = 8
 573              		@ frame_needed = 0, uses_anonymous_args = 0
 574              	.LVL65:
 575 01fc 07B5     		push	{r0, r1, r2, lr}
 576              	.LCFI6:
 577              		.cfi_def_cfa_offset 16
 578              		.cfi_offset 14, -4
 466:../STLibs//STM32_USB-Host-Device_Lib_V2.1.0/Libraries/STM32_USB_OTG_Driver/src/usb_core.c ****   USB_OTG_STS status = USB_OTG_OK;
 467:../STLibs//STM32_USB-Host-Device_Lib_V2.1.0/Libraries/STM32_USB_OTG_Driver/src/usb_core.c ****   __IO USB_OTG_GRSTCTL_TypeDef  greset;
 468:../STLibs//STM32_USB-Host-Device_Lib_V2.1.0/Libraries/STM32_USB_OTG_Driver/src/usb_core.c ****   
 469:../STLibs//STM32_USB-Host-Device_Lib_V2.1.0/Libraries/STM32_USB_OTG_Driver/src/usb_core.c ****   uint32_t count = 0;
 470:../STLibs//STM32_USB-Host-Device_Lib_V2.1.0/Libraries/STM32_USB_OTG_Driver/src/usb_core.c ****   greset.d32 = 0;
 579              		.loc 1 470 0
 580 01fe 0023     		movs	r3, #0
 581 0200 0193     		str	r3, [sp, #4]
 471:../STLibs//STM32_USB-Host-Device_Lib_V2.1.0/Libraries/STM32_USB_OTG_Driver/src/usb_core.c ****   greset.b.txfflsh = 1;
 582              		.loc 1 471 0
 583 0202 019B     		ldr	r3, [sp, #4]
 584 0204 43F02003 		orr	r3, r3, #32
 585 0208 0193     		str	r3, [sp, #4]
 472:../STLibs//STM32_USB-Host-Device_Lib_V2.1.0/Libraries/STM32_USB_OTG_Driver/src/usb_core.c ****   greset.b.txfnum  = num;
 586              		.loc 1 472 0
 587 020a 019B     		ldr	r3, [sp, #4]
 588 020c 61F38A13 		bfi	r3, r1, #6, #5
 589 0210 0193     		str	r3, [sp, #4]
 473:../STLibs//STM32_USB-Host-Device_Lib_V2.1.0/Libraries/STM32_USB_OTG_Driver/src/usb_core.c ****   USB_OTG_WRITE_REG32( &pdev->regs.GREGS->GRSTCTL, greset.d32 );
 590              		.loc 1 473 0
 591 0212 C268     		ldr	r2, [r0, #12]
 592 0214 019B     		ldr	r3, [sp, #4]
 593 0216 1361     		str	r3, [r2, #16]
 594 0218 074B     		ldr	r3, .L62
 595              	.LVL66:
 596              	.L55:
 474:../STLibs//STM32_USB-Host-Device_Lib_V2.1.0/Libraries/STM32_USB_OTG_Driver/src/usb_core.c ****   do
 475:../STLibs//STM32_USB-Host-Device_Lib_V2.1.0/Libraries/STM32_USB_OTG_Driver/src/usb_core.c ****   {
 476:../STLibs//STM32_USB-Host-Device_Lib_V2.1.0/Libraries/STM32_USB_OTG_Driver/src/usb_core.c ****     greset.d32 = USB_OTG_READ_REG32( &pdev->regs.GREGS->GRSTCTL);
 597              		.loc 1 476 0
 598 021a 1169     		ldr	r1, [r2, #16]
 599 021c 0191     		str	r1, [sp, #4]
 600              	.LVL67:
 477:../STLibs//STM32_USB-Host-Device_Lib_V2.1.0/Libraries/STM32_USB_OTG_Driver/src/usb_core.c ****     if (++count > 200000)
 601              		.loc 1 477 0
 602 021e 013B     		subs	r3, r3, #1
 603              	.LVL68:
 604 0220 02D0     		beq	.L54
 605              	.LVL69:
 478:../STLibs//STM32_USB-Host-Device_Lib_V2.1.0/Libraries/STM32_USB_OTG_Driver/src/usb_core.c ****     {
 479:../STLibs//STM32_USB-Host-Device_Lib_V2.1.0/Libraries/STM32_USB_OTG_Driver/src/usb_core.c ****       break;
 480:../STLibs//STM32_USB-Host-Device_Lib_V2.1.0/Libraries/STM32_USB_OTG_Driver/src/usb_core.c ****     }
 481:../STLibs//STM32_USB-Host-Device_Lib_V2.1.0/Libraries/STM32_USB_OTG_Driver/src/usb_core.c ****   }
 482:../STLibs//STM32_USB-Host-Device_Lib_V2.1.0/Libraries/STM32_USB_OTG_Driver/src/usb_core.c ****   while (greset.b.txfflsh == 1);
 606              		.loc 1 482 0
 607 0222 0199     		ldr	r1, [sp, #4]
 608 0224 8906     		lsls	r1, r1, #26
 609 0226 F8D4     		bmi	.L55
 610              	.LVL70:
 611              	.L54:
 483:../STLibs//STM32_USB-Host-Device_Lib_V2.1.0/Libraries/STM32_USB_OTG_Driver/src/usb_core.c ****   /* Wait for 3 PHY Clocks*/
 484:../STLibs//STM32_USB-Host-Device_Lib_V2.1.0/Libraries/STM32_USB_OTG_Driver/src/usb_core.c ****   USB_OTG_BSP_uDelay(3);
 612              		.loc 1 484 0
 613 0228 0320     		movs	r0, #3
 614              	.LVL71:
 615 022a FFF7FEFF 		bl	USB_OTG_BSP_uDelay
 616              	.LVL72:
 485:../STLibs//STM32_USB-Host-Device_Lib_V2.1.0/Libraries/STM32_USB_OTG_Driver/src/usb_core.c ****   return status;
 486:../STLibs//STM32_USB-Host-Device_Lib_V2.1.0/Libraries/STM32_USB_OTG_Driver/src/usb_core.c **** }
 617              		.loc 1 486 0
 618 022e 0020     		movs	r0, #0
 619 0230 03B0     		add	sp, sp, #12
 620              	.LCFI7:
 621              		.cfi_def_cfa_offset 4
 622              		@ sp needed
 623 0232 5DF804FB 		ldr	pc, [sp], #4
 624              	.L63:
 625 0236 00BF     		.align	2
 626              	.L62:
 627 0238 410D0300 		.word	200001
 628              		.cfi_endproc
 629              	.LFE118:
 631              		.align	1
 632              		.global	USB_OTG_FlushRxFifo
 633              		.syntax unified
 634              		.thumb
 635              		.thumb_func
 636              		.fpu fpv4-sp-d16
 638              	USB_OTG_FlushRxFifo:
 639              	.LFB119:
 487:../STLibs//STM32_USB-Host-Device_Lib_V2.1.0/Libraries/STM32_USB_OTG_Driver/src/usb_core.c **** 
 488:../STLibs//STM32_USB-Host-Device_Lib_V2.1.0/Libraries/STM32_USB_OTG_Driver/src/usb_core.c **** 
 489:../STLibs//STM32_USB-Host-Device_Lib_V2.1.0/Libraries/STM32_USB_OTG_Driver/src/usb_core.c **** /**
 490:../STLibs//STM32_USB-Host-Device_Lib_V2.1.0/Libraries/STM32_USB_OTG_Driver/src/usb_core.c **** * @brief  USB_OTG_FlushRxFifo : Flush a Rx FIFO
 491:../STLibs//STM32_USB-Host-Device_Lib_V2.1.0/Libraries/STM32_USB_OTG_Driver/src/usb_core.c **** * @param  pdev : Selected device
 492:../STLibs//STM32_USB-Host-Device_Lib_V2.1.0/Libraries/STM32_USB_OTG_Driver/src/usb_core.c **** * @retval USB_OTG_STS : status
 493:../STLibs//STM32_USB-Host-Device_Lib_V2.1.0/Libraries/STM32_USB_OTG_Driver/src/usb_core.c **** */
 494:../STLibs//STM32_USB-Host-Device_Lib_V2.1.0/Libraries/STM32_USB_OTG_Driver/src/usb_core.c **** USB_OTG_STS USB_OTG_FlushRxFifo( USB_OTG_CORE_HANDLE *pdev )
 495:../STLibs//STM32_USB-Host-Device_Lib_V2.1.0/Libraries/STM32_USB_OTG_Driver/src/usb_core.c **** {
 640              		.loc 1 495 0
 641              		.cfi_startproc
 642              		@ args = 0, pretend = 0, frame = 8
 643              		@ frame_needed = 0, uses_anonymous_args = 0
 644              	.LVL73:
 645 023c 07B5     		push	{r0, r1, r2, lr}
 646              	.LCFI8:
 647              		.cfi_def_cfa_offset 16
 648              		.cfi_offset 14, -4
 496:../STLibs//STM32_USB-Host-Device_Lib_V2.1.0/Libraries/STM32_USB_OTG_Driver/src/usb_core.c ****   USB_OTG_STS status = USB_OTG_OK;
 497:../STLibs//STM32_USB-Host-Device_Lib_V2.1.0/Libraries/STM32_USB_OTG_Driver/src/usb_core.c ****   __IO USB_OTG_GRSTCTL_TypeDef  greset;
 498:../STLibs//STM32_USB-Host-Device_Lib_V2.1.0/Libraries/STM32_USB_OTG_Driver/src/usb_core.c ****   uint32_t count = 0;
 499:../STLibs//STM32_USB-Host-Device_Lib_V2.1.0/Libraries/STM32_USB_OTG_Driver/src/usb_core.c ****   
 500:../STLibs//STM32_USB-Host-Device_Lib_V2.1.0/Libraries/STM32_USB_OTG_Driver/src/usb_core.c ****   greset.d32 = 0;
 649              		.loc 1 500 0
 650 023e 0023     		movs	r3, #0
 651 0240 0193     		str	r3, [sp, #4]
 501:../STLibs//STM32_USB-Host-Device_Lib_V2.1.0/Libraries/STM32_USB_OTG_Driver/src/usb_core.c ****   greset.b.rxfflsh = 1;
 652              		.loc 1 501 0
 653 0242 019B     		ldr	r3, [sp, #4]
 654 0244 43F01003 		orr	r3, r3, #16
 655 0248 0193     		str	r3, [sp, #4]
 502:../STLibs//STM32_USB-Host-Device_Lib_V2.1.0/Libraries/STM32_USB_OTG_Driver/src/usb_core.c ****   USB_OTG_WRITE_REG32( &pdev->regs.GREGS->GRSTCTL, greset.d32 );
 656              		.loc 1 502 0
 657 024a C268     		ldr	r2, [r0, #12]
 658 024c 019B     		ldr	r3, [sp, #4]
 659 024e 1361     		str	r3, [r2, #16]
 660 0250 074B     		ldr	r3, .L73
 661              	.LVL74:
 662              	.L66:
 503:../STLibs//STM32_USB-Host-Device_Lib_V2.1.0/Libraries/STM32_USB_OTG_Driver/src/usb_core.c ****   do
 504:../STLibs//STM32_USB-Host-Device_Lib_V2.1.0/Libraries/STM32_USB_OTG_Driver/src/usb_core.c ****   {
 505:../STLibs//STM32_USB-Host-Device_Lib_V2.1.0/Libraries/STM32_USB_OTG_Driver/src/usb_core.c ****     greset.d32 = USB_OTG_READ_REG32( &pdev->regs.GREGS->GRSTCTL);
 663              		.loc 1 505 0
 664 0252 1169     		ldr	r1, [r2, #16]
 665 0254 0191     		str	r1, [sp, #4]
 666              	.LVL75:
 506:../STLibs//STM32_USB-Host-Device_Lib_V2.1.0/Libraries/STM32_USB_OTG_Driver/src/usb_core.c ****     if (++count > 200000)
 667              		.loc 1 506 0
 668 0256 013B     		subs	r3, r3, #1
 669              	.LVL76:
 670 0258 02D0     		beq	.L65
 671              	.LVL77:
 507:../STLibs//STM32_USB-Host-Device_Lib_V2.1.0/Libraries/STM32_USB_OTG_Driver/src/usb_core.c ****     {
 508:../STLibs//STM32_USB-Host-Device_Lib_V2.1.0/Libraries/STM32_USB_OTG_Driver/src/usb_core.c ****       break;
 509:../STLibs//STM32_USB-Host-Device_Lib_V2.1.0/Libraries/STM32_USB_OTG_Driver/src/usb_core.c ****     }
 510:../STLibs//STM32_USB-Host-Device_Lib_V2.1.0/Libraries/STM32_USB_OTG_Driver/src/usb_core.c ****   }
 511:../STLibs//STM32_USB-Host-Device_Lib_V2.1.0/Libraries/STM32_USB_OTG_Driver/src/usb_core.c ****   while (greset.b.rxfflsh == 1);
 672              		.loc 1 511 0
 673 025a 0199     		ldr	r1, [sp, #4]
 674 025c C906     		lsls	r1, r1, #27
 675 025e F8D4     		bmi	.L66
 676              	.LVL78:
 677              	.L65:
 512:../STLibs//STM32_USB-Host-Device_Lib_V2.1.0/Libraries/STM32_USB_OTG_Driver/src/usb_core.c ****   /* Wait for 3 PHY Clocks*/
 513:../STLibs//STM32_USB-Host-Device_Lib_V2.1.0/Libraries/STM32_USB_OTG_Driver/src/usb_core.c ****   USB_OTG_BSP_uDelay(3);
 678              		.loc 1 513 0
 679 0260 0320     		movs	r0, #3
 680              	.LVL79:
 681 0262 FFF7FEFF 		bl	USB_OTG_BSP_uDelay
 682              	.LVL80:
 514:../STLibs//STM32_USB-Host-Device_Lib_V2.1.0/Libraries/STM32_USB_OTG_Driver/src/usb_core.c ****   return status;
 515:../STLibs//STM32_USB-Host-Device_Lib_V2.1.0/Libraries/STM32_USB_OTG_Driver/src/usb_core.c **** }
 683              		.loc 1 515 0
 684 0266 0020     		movs	r0, #0
 685 0268 03B0     		add	sp, sp, #12
 686              	.LCFI9:
 687              		.cfi_def_cfa_offset 4
 688              		@ sp needed
 689 026a 5DF804FB 		ldr	pc, [sp], #4
 690              	.L74:
 691 026e 00BF     		.align	2
 692              	.L73:
 693 0270 410D0300 		.word	200001
 694              		.cfi_endproc
 695              	.LFE119:
 697              		.align	1
 698              		.global	USB_OTG_SetCurrentMode
 699              		.syntax unified
 700              		.thumb
 701              		.thumb_func
 702              		.fpu fpv4-sp-d16
 704              	USB_OTG_SetCurrentMode:
 705              	.LFB120:
 516:../STLibs//STM32_USB-Host-Device_Lib_V2.1.0/Libraries/STM32_USB_OTG_Driver/src/usb_core.c **** 
 517:../STLibs//STM32_USB-Host-Device_Lib_V2.1.0/Libraries/STM32_USB_OTG_Driver/src/usb_core.c **** 
 518:../STLibs//STM32_USB-Host-Device_Lib_V2.1.0/Libraries/STM32_USB_OTG_Driver/src/usb_core.c **** /**
 519:../STLibs//STM32_USB-Host-Device_Lib_V2.1.0/Libraries/STM32_USB_OTG_Driver/src/usb_core.c **** * @brief  USB_OTG_SetCurrentMode : Set ID line
 520:../STLibs//STM32_USB-Host-Device_Lib_V2.1.0/Libraries/STM32_USB_OTG_Driver/src/usb_core.c **** * @param  pdev : Selected device
 521:../STLibs//STM32_USB-Host-Device_Lib_V2.1.0/Libraries/STM32_USB_OTG_Driver/src/usb_core.c **** * @param  mode :  (Host/device)
 522:../STLibs//STM32_USB-Host-Device_Lib_V2.1.0/Libraries/STM32_USB_OTG_Driver/src/usb_core.c **** * @retval USB_OTG_STS : status
 523:../STLibs//STM32_USB-Host-Device_Lib_V2.1.0/Libraries/STM32_USB_OTG_Driver/src/usb_core.c **** */
 524:../STLibs//STM32_USB-Host-Device_Lib_V2.1.0/Libraries/STM32_USB_OTG_Driver/src/usb_core.c **** USB_OTG_STS USB_OTG_SetCurrentMode(USB_OTG_CORE_HANDLE *pdev , uint8_t mode)
 525:../STLibs//STM32_USB-Host-Device_Lib_V2.1.0/Libraries/STM32_USB_OTG_Driver/src/usb_core.c **** {
 706              		.loc 1 525 0
 707              		.cfi_startproc
 708              		@ args = 0, pretend = 0, frame = 0
 709              		@ frame_needed = 0, uses_anonymous_args = 0
 710              	.LVL81:
 526:../STLibs//STM32_USB-Host-Device_Lib_V2.1.0/Libraries/STM32_USB_OTG_Driver/src/usb_core.c ****   USB_OTG_STS status = USB_OTG_OK;
 527:../STLibs//STM32_USB-Host-Device_Lib_V2.1.0/Libraries/STM32_USB_OTG_Driver/src/usb_core.c ****   USB_OTG_GUSBCFG_TypeDef  usbcfg;
 528:../STLibs//STM32_USB-Host-Device_Lib_V2.1.0/Libraries/STM32_USB_OTG_Driver/src/usb_core.c ****   
 529:../STLibs//STM32_USB-Host-Device_Lib_V2.1.0/Libraries/STM32_USB_OTG_Driver/src/usb_core.c ****   usbcfg.d32 = USB_OTG_READ_REG32(&pdev->regs.GREGS->GUSBCFG);
 711              		.loc 1 529 0
 712 0274 C268     		ldr	r2, [r0, #12]
 525:../STLibs//STM32_USB-Host-Device_Lib_V2.1.0/Libraries/STM32_USB_OTG_Driver/src/usb_core.c ****   USB_OTG_STS status = USB_OTG_OK;
 713              		.loc 1 525 0
 714 0276 08B5     		push	{r3, lr}
 715              	.LCFI10:
 716              		.cfi_def_cfa_offset 8
 717              		.cfi_offset 3, -8
 718              		.cfi_offset 14, -4
 719              		.loc 1 529 0
 720 0278 D368     		ldr	r3, [r2, #12]
 721              	.LVL82:
 530:../STLibs//STM32_USB-Host-Device_Lib_V2.1.0/Libraries/STM32_USB_OTG_Driver/src/usb_core.c ****   
 531:../STLibs//STM32_USB-Host-Device_Lib_V2.1.0/Libraries/STM32_USB_OTG_Driver/src/usb_core.c ****   usbcfg.b.force_host = 0;
 532:../STLibs//STM32_USB-Host-Device_Lib_V2.1.0/Libraries/STM32_USB_OTG_Driver/src/usb_core.c ****   usbcfg.b.force_dev = 0;
 533:../STLibs//STM32_USB-Host-Device_Lib_V2.1.0/Libraries/STM32_USB_OTG_Driver/src/usb_core.c ****   
 534:../STLibs//STM32_USB-Host-Device_Lib_V2.1.0/Libraries/STM32_USB_OTG_Driver/src/usb_core.c ****   if ( mode == HOST_MODE)
 722              		.loc 1 534 0
 723 027a 0129     		cmp	r1, #1
 531:../STLibs//STM32_USB-Host-Device_Lib_V2.1.0/Libraries/STM32_USB_OTG_Driver/src/usb_core.c ****   usbcfg.b.force_dev = 0;
 724              		.loc 1 531 0
 725 027c 6FF35D73 		bfc	r3, #29, #1
 532:../STLibs//STM32_USB-Host-Device_Lib_V2.1.0/Libraries/STM32_USB_OTG_Driver/src/usb_core.c ****   
 726              		.loc 1 532 0
 727 0280 6FF39E73 		bfc	r3, #30, #1
 728              		.loc 1 534 0
 729 0284 07D1     		bne	.L76
 535:../STLibs//STM32_USB-Host-Device_Lib_V2.1.0/Libraries/STM32_USB_OTG_Driver/src/usb_core.c ****   {
 536:../STLibs//STM32_USB-Host-Device_Lib_V2.1.0/Libraries/STM32_USB_OTG_Driver/src/usb_core.c ****     usbcfg.b.force_host = 1;
 730              		.loc 1 536 0
 731 0286 43F00053 		orr	r3, r3, #536870912
 732              	.LVL83:
 733              	.L77:
 537:../STLibs//STM32_USB-Host-Device_Lib_V2.1.0/Libraries/STM32_USB_OTG_Driver/src/usb_core.c ****   }
 538:../STLibs//STM32_USB-Host-Device_Lib_V2.1.0/Libraries/STM32_USB_OTG_Driver/src/usb_core.c ****   else if ( mode == DEVICE_MODE)
 539:../STLibs//STM32_USB-Host-Device_Lib_V2.1.0/Libraries/STM32_USB_OTG_Driver/src/usb_core.c ****   {
 540:../STLibs//STM32_USB-Host-Device_Lib_V2.1.0/Libraries/STM32_USB_OTG_Driver/src/usb_core.c ****     usbcfg.b.force_dev = 1;
 541:../STLibs//STM32_USB-Host-Device_Lib_V2.1.0/Libraries/STM32_USB_OTG_Driver/src/usb_core.c ****   }
 542:../STLibs//STM32_USB-Host-Device_Lib_V2.1.0/Libraries/STM32_USB_OTG_Driver/src/usb_core.c ****   
 543:../STLibs//STM32_USB-Host-Device_Lib_V2.1.0/Libraries/STM32_USB_OTG_Driver/src/usb_core.c ****   USB_OTG_WRITE_REG32(&pdev->regs.GREGS->GUSBCFG, usbcfg.d32);
 734              		.loc 1 543 0
 735 028a D360     		str	r3, [r2, #12]
 544:../STLibs//STM32_USB-Host-Device_Lib_V2.1.0/Libraries/STM32_USB_OTG_Driver/src/usb_core.c ****   USB_OTG_BSP_mDelay(50);
 736              		.loc 1 544 0
 737 028c 3220     		movs	r0, #50
 738              	.LVL84:
 739 028e FFF7FEFF 		bl	USB_OTG_BSP_mDelay
 740              	.LVL85:
 545:../STLibs//STM32_USB-Host-Device_Lib_V2.1.0/Libraries/STM32_USB_OTG_Driver/src/usb_core.c ****   return status;
 546:../STLibs//STM32_USB-Host-Device_Lib_V2.1.0/Libraries/STM32_USB_OTG_Driver/src/usb_core.c **** }
 741              		.loc 1 546 0
 742 0292 0020     		movs	r0, #0
 743 0294 08BD     		pop	{r3, pc}
 744              	.LVL86:
 745              	.L76:
 538:../STLibs//STM32_USB-Host-Device_Lib_V2.1.0/Libraries/STM32_USB_OTG_Driver/src/usb_core.c ****   {
 746              		.loc 1 538 0
 747 0296 0029     		cmp	r1, #0
 748 0298 F7D1     		bne	.L77
 540:../STLibs//STM32_USB-Host-Device_Lib_V2.1.0/Libraries/STM32_USB_OTG_Driver/src/usb_core.c ****   }
 749              		.loc 1 540 0
 750 029a 43F08043 		orr	r3, r3, #1073741824
 751              	.LVL87:
 752 029e F4E7     		b	.L77
 753              		.cfi_endproc
 754              	.LFE120:
 756              		.align	1
 757              		.global	USB_OTG_GetMode
 758              		.syntax unified
 759              		.thumb
 760              		.thumb_func
 761              		.fpu fpv4-sp-d16
 763              	USB_OTG_GetMode:
 764              	.LFB121:
 547:../STLibs//STM32_USB-Host-Device_Lib_V2.1.0/Libraries/STM32_USB_OTG_Driver/src/usb_core.c **** 
 548:../STLibs//STM32_USB-Host-Device_Lib_V2.1.0/Libraries/STM32_USB_OTG_Driver/src/usb_core.c **** 
 549:../STLibs//STM32_USB-Host-Device_Lib_V2.1.0/Libraries/STM32_USB_OTG_Driver/src/usb_core.c **** /**
 550:../STLibs//STM32_USB-Host-Device_Lib_V2.1.0/Libraries/STM32_USB_OTG_Driver/src/usb_core.c **** * @brief  USB_OTG_GetMode : Get current mode
 551:../STLibs//STM32_USB-Host-Device_Lib_V2.1.0/Libraries/STM32_USB_OTG_Driver/src/usb_core.c **** * @param  pdev : Selected device
 552:../STLibs//STM32_USB-Host-Device_Lib_V2.1.0/Libraries/STM32_USB_OTG_Driver/src/usb_core.c **** * @retval current mode
 553:../STLibs//STM32_USB-Host-Device_Lib_V2.1.0/Libraries/STM32_USB_OTG_Driver/src/usb_core.c **** */
 554:../STLibs//STM32_USB-Host-Device_Lib_V2.1.0/Libraries/STM32_USB_OTG_Driver/src/usb_core.c **** uint32_t USB_OTG_GetMode(USB_OTG_CORE_HANDLE *pdev)
 555:../STLibs//STM32_USB-Host-Device_Lib_V2.1.0/Libraries/STM32_USB_OTG_Driver/src/usb_core.c **** {
 765              		.loc 1 555 0
 766              		.cfi_startproc
 767              		@ args = 0, pretend = 0, frame = 0
 768              		@ frame_needed = 0, uses_anonymous_args = 0
 769              		@ link register save eliminated.
 770              	.LVL88:
 556:../STLibs//STM32_USB-Host-Device_Lib_V2.1.0/Libraries/STM32_USB_OTG_Driver/src/usb_core.c ****   return (USB_OTG_READ_REG32(&pdev->regs.GREGS->GINTSTS ) & 0x1);
 771              		.loc 1 556 0
 772 02a0 C368     		ldr	r3, [r0, #12]
 773 02a2 5869     		ldr	r0, [r3, #20]
 774              	.LVL89:
 557:../STLibs//STM32_USB-Host-Device_Lib_V2.1.0/Libraries/STM32_USB_OTG_Driver/src/usb_core.c **** }
 775              		.loc 1 557 0
 776 02a4 00F00100 		and	r0, r0, #1
 777 02a8 7047     		bx	lr
 778              		.cfi_endproc
 779              	.LFE121:
 781              		.align	1
 782              		.global	USB_OTG_IsDeviceMode
 783              		.syntax unified
 784              		.thumb
 785              		.thumb_func
 786              		.fpu fpv4-sp-d16
 788              	USB_OTG_IsDeviceMode:
 789              	.LFB122:
 558:../STLibs//STM32_USB-Host-Device_Lib_V2.1.0/Libraries/STM32_USB_OTG_Driver/src/usb_core.c **** 
 559:../STLibs//STM32_USB-Host-Device_Lib_V2.1.0/Libraries/STM32_USB_OTG_Driver/src/usb_core.c **** 
 560:../STLibs//STM32_USB-Host-Device_Lib_V2.1.0/Libraries/STM32_USB_OTG_Driver/src/usb_core.c **** /**
 561:../STLibs//STM32_USB-Host-Device_Lib_V2.1.0/Libraries/STM32_USB_OTG_Driver/src/usb_core.c **** * @brief  USB_OTG_IsDeviceMode : Check if it is device mode
 562:../STLibs//STM32_USB-Host-Device_Lib_V2.1.0/Libraries/STM32_USB_OTG_Driver/src/usb_core.c **** * @param  pdev : Selected device
 563:../STLibs//STM32_USB-Host-Device_Lib_V2.1.0/Libraries/STM32_USB_OTG_Driver/src/usb_core.c **** * @retval num_in_ep
 564:../STLibs//STM32_USB-Host-Device_Lib_V2.1.0/Libraries/STM32_USB_OTG_Driver/src/usb_core.c **** */
 565:../STLibs//STM32_USB-Host-Device_Lib_V2.1.0/Libraries/STM32_USB_OTG_Driver/src/usb_core.c **** uint8_t USB_OTG_IsDeviceMode(USB_OTG_CORE_HANDLE *pdev)
 566:../STLibs//STM32_USB-Host-Device_Lib_V2.1.0/Libraries/STM32_USB_OTG_Driver/src/usb_core.c **** {
 790              		.loc 1 566 0
 791              		.cfi_startproc
 792              		@ args = 0, pretend = 0, frame = 0
 793              		@ frame_needed = 0, uses_anonymous_args = 0
 794              		@ link register save eliminated.
 795              	.LVL90:
 796              	.LBB17:
 797              	.LBB18:
 556:../STLibs//STM32_USB-Host-Device_Lib_V2.1.0/Libraries/STM32_USB_OTG_Driver/src/usb_core.c **** }
 798              		.loc 1 556 0
 799 02aa C368     		ldr	r3, [r0, #12]
 800 02ac 5869     		ldr	r0, [r3, #20]
 801              	.LVL91:
 802              	.LBE18:
 803              	.LBE17:
 567:../STLibs//STM32_USB-Host-Device_Lib_V2.1.0/Libraries/STM32_USB_OTG_Driver/src/usb_core.c ****   return (USB_OTG_GetMode(pdev) != HOST_MODE);
 804              		.loc 1 567 0
 805 02ae C043     		mvns	r0, r0
 568:../STLibs//STM32_USB-Host-Device_Lib_V2.1.0/Libraries/STM32_USB_OTG_Driver/src/usb_core.c **** }
 806              		.loc 1 568 0
 807 02b0 00F00100 		and	r0, r0, #1
 808 02b4 7047     		bx	lr
 809              		.cfi_endproc
 810              	.LFE122:
 812              		.align	1
 813              		.global	USB_OTG_IsHostMode
 814              		.syntax unified
 815              		.thumb
 816              		.thumb_func
 817              		.fpu fpv4-sp-d16
 819              	USB_OTG_IsHostMode:
 820              	.LFB123:
 569:../STLibs//STM32_USB-Host-Device_Lib_V2.1.0/Libraries/STM32_USB_OTG_Driver/src/usb_core.c **** 
 570:../STLibs//STM32_USB-Host-Device_Lib_V2.1.0/Libraries/STM32_USB_OTG_Driver/src/usb_core.c **** 
 571:../STLibs//STM32_USB-Host-Device_Lib_V2.1.0/Libraries/STM32_USB_OTG_Driver/src/usb_core.c **** /**
 572:../STLibs//STM32_USB-Host-Device_Lib_V2.1.0/Libraries/STM32_USB_OTG_Driver/src/usb_core.c **** * @brief  USB_OTG_IsHostMode : Check if it is host mode
 573:../STLibs//STM32_USB-Host-Device_Lib_V2.1.0/Libraries/STM32_USB_OTG_Driver/src/usb_core.c **** * @param  pdev : Selected device
 574:../STLibs//STM32_USB-Host-Device_Lib_V2.1.0/Libraries/STM32_USB_OTG_Driver/src/usb_core.c **** * @retval num_in_ep
 575:../STLibs//STM32_USB-Host-Device_Lib_V2.1.0/Libraries/STM32_USB_OTG_Driver/src/usb_core.c **** */
 576:../STLibs//STM32_USB-Host-Device_Lib_V2.1.0/Libraries/STM32_USB_OTG_Driver/src/usb_core.c **** uint8_t USB_OTG_IsHostMode(USB_OTG_CORE_HANDLE *pdev)
 577:../STLibs//STM32_USB-Host-Device_Lib_V2.1.0/Libraries/STM32_USB_OTG_Driver/src/usb_core.c **** {
 821              		.loc 1 577 0
 822              		.cfi_startproc
 823              		@ args = 0, pretend = 0, frame = 0
 824              		@ frame_needed = 0, uses_anonymous_args = 0
 825              		@ link register save eliminated.
 826              	.LVL92:
 827              	.LBB19:
 828              	.LBB20:
 556:../STLibs//STM32_USB-Host-Device_Lib_V2.1.0/Libraries/STM32_USB_OTG_Driver/src/usb_core.c **** }
 829              		.loc 1 556 0
 830 02b6 C368     		ldr	r3, [r0, #12]
 831 02b8 5869     		ldr	r0, [r3, #20]
 832              	.LVL93:
 833              	.LBE20:
 834              	.LBE19:
 578:../STLibs//STM32_USB-Host-Device_Lib_V2.1.0/Libraries/STM32_USB_OTG_Driver/src/usb_core.c ****   return (USB_OTG_GetMode(pdev) == HOST_MODE);
 579:../STLibs//STM32_USB-Host-Device_Lib_V2.1.0/Libraries/STM32_USB_OTG_Driver/src/usb_core.c **** }
 835              		.loc 1 579 0
 836 02ba 00F00100 		and	r0, r0, #1
 837 02be 7047     		bx	lr
 838              		.cfi_endproc
 839              	.LFE123:
 841              		.align	1
 842              		.global	USB_OTG_ReadCoreItr
 843              		.syntax unified
 844              		.thumb
 845              		.thumb_func
 846              		.fpu fpv4-sp-d16
 848              	USB_OTG_ReadCoreItr:
 849              	.LFB124:
 580:../STLibs//STM32_USB-Host-Device_Lib_V2.1.0/Libraries/STM32_USB_OTG_Driver/src/usb_core.c **** 
 581:../STLibs//STM32_USB-Host-Device_Lib_V2.1.0/Libraries/STM32_USB_OTG_Driver/src/usb_core.c **** 
 582:../STLibs//STM32_USB-Host-Device_Lib_V2.1.0/Libraries/STM32_USB_OTG_Driver/src/usb_core.c **** /**
 583:../STLibs//STM32_USB-Host-Device_Lib_V2.1.0/Libraries/STM32_USB_OTG_Driver/src/usb_core.c **** * @brief  USB_OTG_ReadCoreItr : returns the Core Interrupt register
 584:../STLibs//STM32_USB-Host-Device_Lib_V2.1.0/Libraries/STM32_USB_OTG_Driver/src/usb_core.c **** * @param  pdev : Selected device
 585:../STLibs//STM32_USB-Host-Device_Lib_V2.1.0/Libraries/STM32_USB_OTG_Driver/src/usb_core.c **** * @retval Status
 586:../STLibs//STM32_USB-Host-Device_Lib_V2.1.0/Libraries/STM32_USB_OTG_Driver/src/usb_core.c **** */
 587:../STLibs//STM32_USB-Host-Device_Lib_V2.1.0/Libraries/STM32_USB_OTG_Driver/src/usb_core.c **** uint32_t USB_OTG_ReadCoreItr(USB_OTG_CORE_HANDLE *pdev)
 588:../STLibs//STM32_USB-Host-Device_Lib_V2.1.0/Libraries/STM32_USB_OTG_Driver/src/usb_core.c **** {
 850              		.loc 1 588 0
 851              		.cfi_startproc
 852              		@ args = 0, pretend = 0, frame = 0
 853              		@ frame_needed = 0, uses_anonymous_args = 0
 854              		@ link register save eliminated.
 855              	.LVL94:
 589:../STLibs//STM32_USB-Host-Device_Lib_V2.1.0/Libraries/STM32_USB_OTG_Driver/src/usb_core.c ****   uint32_t v = 0;
 590:../STLibs//STM32_USB-Host-Device_Lib_V2.1.0/Libraries/STM32_USB_OTG_Driver/src/usb_core.c ****   v = USB_OTG_READ_REG32(&pdev->regs.GREGS->GINTSTS);
 856              		.loc 1 590 0
 857 02c0 C368     		ldr	r3, [r0, #12]
 858 02c2 5869     		ldr	r0, [r3, #20]
 859              	.LVL95:
 591:../STLibs//STM32_USB-Host-Device_Lib_V2.1.0/Libraries/STM32_USB_OTG_Driver/src/usb_core.c ****   v &= USB_OTG_READ_REG32(&pdev->regs.GREGS->GINTMSK);
 860              		.loc 1 591 0
 861 02c4 9B69     		ldr	r3, [r3, #24]
 862              	.LVL96:
 592:../STLibs//STM32_USB-Host-Device_Lib_V2.1.0/Libraries/STM32_USB_OTG_Driver/src/usb_core.c ****   return v;
 593:../STLibs//STM32_USB-Host-Device_Lib_V2.1.0/Libraries/STM32_USB_OTG_Driver/src/usb_core.c **** }
 863              		.loc 1 593 0
 864 02c6 1840     		ands	r0, r0, r3
 865              	.LVL97:
 866 02c8 7047     		bx	lr
 867              		.cfi_endproc
 868              	.LFE124:
 870              		.align	1
 871              		.global	USB_OTG_ReadOtgItr
 872              		.syntax unified
 873              		.thumb
 874              		.thumb_func
 875              		.fpu fpv4-sp-d16
 877              	USB_OTG_ReadOtgItr:
 878              	.LFB125:
 594:../STLibs//STM32_USB-Host-Device_Lib_V2.1.0/Libraries/STM32_USB_OTG_Driver/src/usb_core.c **** 
 595:../STLibs//STM32_USB-Host-Device_Lib_V2.1.0/Libraries/STM32_USB_OTG_Driver/src/usb_core.c **** 
 596:../STLibs//STM32_USB-Host-Device_Lib_V2.1.0/Libraries/STM32_USB_OTG_Driver/src/usb_core.c **** /**
 597:../STLibs//STM32_USB-Host-Device_Lib_V2.1.0/Libraries/STM32_USB_OTG_Driver/src/usb_core.c **** * @brief  USB_OTG_ReadOtgItr : returns the USB_OTG Interrupt register
 598:../STLibs//STM32_USB-Host-Device_Lib_V2.1.0/Libraries/STM32_USB_OTG_Driver/src/usb_core.c **** * @param  pdev : Selected device
 599:../STLibs//STM32_USB-Host-Device_Lib_V2.1.0/Libraries/STM32_USB_OTG_Driver/src/usb_core.c **** * @retval Status
 600:../STLibs//STM32_USB-Host-Device_Lib_V2.1.0/Libraries/STM32_USB_OTG_Driver/src/usb_core.c **** */
 601:../STLibs//STM32_USB-Host-Device_Lib_V2.1.0/Libraries/STM32_USB_OTG_Driver/src/usb_core.c **** uint32_t USB_OTG_ReadOtgItr (USB_OTG_CORE_HANDLE *pdev)
 602:../STLibs//STM32_USB-Host-Device_Lib_V2.1.0/Libraries/STM32_USB_OTG_Driver/src/usb_core.c **** {
 879              		.loc 1 602 0
 880              		.cfi_startproc
 881              		@ args = 0, pretend = 0, frame = 0
 882              		@ frame_needed = 0, uses_anonymous_args = 0
 883              		@ link register save eliminated.
 884              	.LVL98:
 603:../STLibs//STM32_USB-Host-Device_Lib_V2.1.0/Libraries/STM32_USB_OTG_Driver/src/usb_core.c ****   return (USB_OTG_READ_REG32 (&pdev->regs.GREGS->GOTGINT));
 885              		.loc 1 603 0
 886 02ca C368     		ldr	r3, [r0, #12]
 887 02cc 5868     		ldr	r0, [r3, #4]
 888              	.LVL99:
 604:../STLibs//STM32_USB-Host-Device_Lib_V2.1.0/Libraries/STM32_USB_OTG_Driver/src/usb_core.c **** }
 889              		.loc 1 604 0
 890 02ce 7047     		bx	lr
 891              		.cfi_endproc
 892              	.LFE125:
 894              		.align	1
 895              		.global	USB_OTG_InitDevSpeed
 896              		.syntax unified
 897              		.thumb
 898              		.thumb_func
 899              		.fpu fpv4-sp-d16
 901              	USB_OTG_InitDevSpeed:
 902              	.LFB126:
 605:../STLibs//STM32_USB-Host-Device_Lib_V2.1.0/Libraries/STM32_USB_OTG_Driver/src/usb_core.c **** 
 606:../STLibs//STM32_USB-Host-Device_Lib_V2.1.0/Libraries/STM32_USB_OTG_Driver/src/usb_core.c **** #ifdef USE_HOST_MODE
 607:../STLibs//STM32_USB-Host-Device_Lib_V2.1.0/Libraries/STM32_USB_OTG_Driver/src/usb_core.c **** /**
 608:../STLibs//STM32_USB-Host-Device_Lib_V2.1.0/Libraries/STM32_USB_OTG_Driver/src/usb_core.c **** * @brief  USB_OTG_CoreInitHost : Initializes USB_OTG controller for host mode
 609:../STLibs//STM32_USB-Host-Device_Lib_V2.1.0/Libraries/STM32_USB_OTG_Driver/src/usb_core.c **** * @param  pdev : Selected device
 610:../STLibs//STM32_USB-Host-Device_Lib_V2.1.0/Libraries/STM32_USB_OTG_Driver/src/usb_core.c **** * @retval status
 611:../STLibs//STM32_USB-Host-Device_Lib_V2.1.0/Libraries/STM32_USB_OTG_Driver/src/usb_core.c **** */
 612:../STLibs//STM32_USB-Host-Device_Lib_V2.1.0/Libraries/STM32_USB_OTG_Driver/src/usb_core.c **** USB_OTG_STS USB_OTG_CoreInitHost(USB_OTG_CORE_HANDLE *pdev)
 613:../STLibs//STM32_USB-Host-Device_Lib_V2.1.0/Libraries/STM32_USB_OTG_Driver/src/usb_core.c **** {
 614:../STLibs//STM32_USB-Host-Device_Lib_V2.1.0/Libraries/STM32_USB_OTG_Driver/src/usb_core.c ****   USB_OTG_STS                     status = USB_OTG_OK;
 615:../STLibs//STM32_USB-Host-Device_Lib_V2.1.0/Libraries/STM32_USB_OTG_Driver/src/usb_core.c ****   USB_OTG_FSIZ_TypeDef            nptxfifosize;
 616:../STLibs//STM32_USB-Host-Device_Lib_V2.1.0/Libraries/STM32_USB_OTG_Driver/src/usb_core.c ****   USB_OTG_FSIZ_TypeDef            ptxfifosize;  
 617:../STLibs//STM32_USB-Host-Device_Lib_V2.1.0/Libraries/STM32_USB_OTG_Driver/src/usb_core.c ****   USB_OTG_HCFG_TypeDef            hcfg;
 618:../STLibs//STM32_USB-Host-Device_Lib_V2.1.0/Libraries/STM32_USB_OTG_Driver/src/usb_core.c ****   
 619:../STLibs//STM32_USB-Host-Device_Lib_V2.1.0/Libraries/STM32_USB_OTG_Driver/src/usb_core.c **** #ifdef USE_OTG_MODE
 620:../STLibs//STM32_USB-Host-Device_Lib_V2.1.0/Libraries/STM32_USB_OTG_Driver/src/usb_core.c ****   USB_OTG_OTGCTL_TypeDef          gotgctl;
 621:../STLibs//STM32_USB-Host-Device_Lib_V2.1.0/Libraries/STM32_USB_OTG_Driver/src/usb_core.c **** #endif
 622:../STLibs//STM32_USB-Host-Device_Lib_V2.1.0/Libraries/STM32_USB_OTG_Driver/src/usb_core.c ****   
 623:../STLibs//STM32_USB-Host-Device_Lib_V2.1.0/Libraries/STM32_USB_OTG_Driver/src/usb_core.c ****   uint32_t                        i = 0;
 624:../STLibs//STM32_USB-Host-Device_Lib_V2.1.0/Libraries/STM32_USB_OTG_Driver/src/usb_core.c ****   
 625:../STLibs//STM32_USB-Host-Device_Lib_V2.1.0/Libraries/STM32_USB_OTG_Driver/src/usb_core.c ****   nptxfifosize.d32 = 0;  
 626:../STLibs//STM32_USB-Host-Device_Lib_V2.1.0/Libraries/STM32_USB_OTG_Driver/src/usb_core.c ****   ptxfifosize.d32 = 0;
 627:../STLibs//STM32_USB-Host-Device_Lib_V2.1.0/Libraries/STM32_USB_OTG_Driver/src/usb_core.c **** #ifdef USE_OTG_MODE
 628:../STLibs//STM32_USB-Host-Device_Lib_V2.1.0/Libraries/STM32_USB_OTG_Driver/src/usb_core.c ****   gotgctl.d32 = 0;
 629:../STLibs//STM32_USB-Host-Device_Lib_V2.1.0/Libraries/STM32_USB_OTG_Driver/src/usb_core.c **** #endif
 630:../STLibs//STM32_USB-Host-Device_Lib_V2.1.0/Libraries/STM32_USB_OTG_Driver/src/usb_core.c ****   hcfg.d32 = 0;
 631:../STLibs//STM32_USB-Host-Device_Lib_V2.1.0/Libraries/STM32_USB_OTG_Driver/src/usb_core.c ****   
 632:../STLibs//STM32_USB-Host-Device_Lib_V2.1.0/Libraries/STM32_USB_OTG_Driver/src/usb_core.c ****   
 633:../STLibs//STM32_USB-Host-Device_Lib_V2.1.0/Libraries/STM32_USB_OTG_Driver/src/usb_core.c ****   /* configure charge pump IO */
 634:../STLibs//STM32_USB-Host-Device_Lib_V2.1.0/Libraries/STM32_USB_OTG_Driver/src/usb_core.c ****   USB_OTG_BSP_ConfigVBUS(pdev);
 635:../STLibs//STM32_USB-Host-Device_Lib_V2.1.0/Libraries/STM32_USB_OTG_Driver/src/usb_core.c ****   
 636:../STLibs//STM32_USB-Host-Device_Lib_V2.1.0/Libraries/STM32_USB_OTG_Driver/src/usb_core.c ****   /* Restart the Phy Clock */
 637:../STLibs//STM32_USB-Host-Device_Lib_V2.1.0/Libraries/STM32_USB_OTG_Driver/src/usb_core.c ****   USB_OTG_WRITE_REG32(pdev->regs.PCGCCTL, 0);
 638:../STLibs//STM32_USB-Host-Device_Lib_V2.1.0/Libraries/STM32_USB_OTG_Driver/src/usb_core.c ****   
 639:../STLibs//STM32_USB-Host-Device_Lib_V2.1.0/Libraries/STM32_USB_OTG_Driver/src/usb_core.c ****   /* Initialize Host Configuration Register */
 640:../STLibs//STM32_USB-Host-Device_Lib_V2.1.0/Libraries/STM32_USB_OTG_Driver/src/usb_core.c ****   if (pdev->cfg.phy_itface == USB_OTG_ULPI_PHY)
 641:../STLibs//STM32_USB-Host-Device_Lib_V2.1.0/Libraries/STM32_USB_OTG_Driver/src/usb_core.c ****   {
 642:../STLibs//STM32_USB-Host-Device_Lib_V2.1.0/Libraries/STM32_USB_OTG_Driver/src/usb_core.c ****     USB_OTG_InitFSLSPClkSel(pdev , HCFG_30_60_MHZ); 
 643:../STLibs//STM32_USB-Host-Device_Lib_V2.1.0/Libraries/STM32_USB_OTG_Driver/src/usb_core.c ****   }
 644:../STLibs//STM32_USB-Host-Device_Lib_V2.1.0/Libraries/STM32_USB_OTG_Driver/src/usb_core.c ****   else
 645:../STLibs//STM32_USB-Host-Device_Lib_V2.1.0/Libraries/STM32_USB_OTG_Driver/src/usb_core.c ****   {
 646:../STLibs//STM32_USB-Host-Device_Lib_V2.1.0/Libraries/STM32_USB_OTG_Driver/src/usb_core.c ****     USB_OTG_InitFSLSPClkSel(pdev , HCFG_48_MHZ); 
 647:../STLibs//STM32_USB-Host-Device_Lib_V2.1.0/Libraries/STM32_USB_OTG_Driver/src/usb_core.c ****   }
 648:../STLibs//STM32_USB-Host-Device_Lib_V2.1.0/Libraries/STM32_USB_OTG_Driver/src/usb_core.c ****   USB_OTG_ResetPort(pdev);
 649:../STLibs//STM32_USB-Host-Device_Lib_V2.1.0/Libraries/STM32_USB_OTG_Driver/src/usb_core.c ****   
 650:../STLibs//STM32_USB-Host-Device_Lib_V2.1.0/Libraries/STM32_USB_OTG_Driver/src/usb_core.c ****   hcfg.d32 = USB_OTG_READ_REG32(&pdev->regs.HREGS->HCFG);
 651:../STLibs//STM32_USB-Host-Device_Lib_V2.1.0/Libraries/STM32_USB_OTG_Driver/src/usb_core.c ****   hcfg.b.fslssupp = 0;
 652:../STLibs//STM32_USB-Host-Device_Lib_V2.1.0/Libraries/STM32_USB_OTG_Driver/src/usb_core.c ****   USB_OTG_WRITE_REG32(&pdev->regs.HREGS->HCFG, hcfg.d32);
 653:../STLibs//STM32_USB-Host-Device_Lib_V2.1.0/Libraries/STM32_USB_OTG_Driver/src/usb_core.c ****   
 654:../STLibs//STM32_USB-Host-Device_Lib_V2.1.0/Libraries/STM32_USB_OTG_Driver/src/usb_core.c ****   /* Configure data FIFO sizes */
 655:../STLibs//STM32_USB-Host-Device_Lib_V2.1.0/Libraries/STM32_USB_OTG_Driver/src/usb_core.c ****   /* Rx FIFO */
 656:../STLibs//STM32_USB-Host-Device_Lib_V2.1.0/Libraries/STM32_USB_OTG_Driver/src/usb_core.c **** #ifdef USB_OTG_FS_CORE
 657:../STLibs//STM32_USB-Host-Device_Lib_V2.1.0/Libraries/STM32_USB_OTG_Driver/src/usb_core.c ****   if(pdev->cfg.coreID == USB_OTG_FS_CORE_ID)
 658:../STLibs//STM32_USB-Host-Device_Lib_V2.1.0/Libraries/STM32_USB_OTG_Driver/src/usb_core.c ****   {
 659:../STLibs//STM32_USB-Host-Device_Lib_V2.1.0/Libraries/STM32_USB_OTG_Driver/src/usb_core.c ****     /* set Rx FIFO size */
 660:../STLibs//STM32_USB-Host-Device_Lib_V2.1.0/Libraries/STM32_USB_OTG_Driver/src/usb_core.c ****     USB_OTG_WRITE_REG32(&pdev->regs.GREGS->GRXFSIZ, RX_FIFO_FS_SIZE);
 661:../STLibs//STM32_USB-Host-Device_Lib_V2.1.0/Libraries/STM32_USB_OTG_Driver/src/usb_core.c ****     nptxfifosize.b.startaddr = RX_FIFO_FS_SIZE;   
 662:../STLibs//STM32_USB-Host-Device_Lib_V2.1.0/Libraries/STM32_USB_OTG_Driver/src/usb_core.c ****     nptxfifosize.b.depth = TXH_NP_FS_FIFOSIZ;  
 663:../STLibs//STM32_USB-Host-Device_Lib_V2.1.0/Libraries/STM32_USB_OTG_Driver/src/usb_core.c ****     USB_OTG_WRITE_REG32(&pdev->regs.GREGS->DIEPTXF0_HNPTXFSIZ, nptxfifosize.d32);
 664:../STLibs//STM32_USB-Host-Device_Lib_V2.1.0/Libraries/STM32_USB_OTG_Driver/src/usb_core.c ****     
 665:../STLibs//STM32_USB-Host-Device_Lib_V2.1.0/Libraries/STM32_USB_OTG_Driver/src/usb_core.c ****     ptxfifosize.b.startaddr = RX_FIFO_FS_SIZE + TXH_NP_FS_FIFOSIZ;
 666:../STLibs//STM32_USB-Host-Device_Lib_V2.1.0/Libraries/STM32_USB_OTG_Driver/src/usb_core.c ****     ptxfifosize.b.depth     = TXH_P_FS_FIFOSIZ;
 667:../STLibs//STM32_USB-Host-Device_Lib_V2.1.0/Libraries/STM32_USB_OTG_Driver/src/usb_core.c ****     USB_OTG_WRITE_REG32(&pdev->regs.GREGS->HPTXFSIZ, ptxfifosize.d32);      
 668:../STLibs//STM32_USB-Host-Device_Lib_V2.1.0/Libraries/STM32_USB_OTG_Driver/src/usb_core.c ****   }
 669:../STLibs//STM32_USB-Host-Device_Lib_V2.1.0/Libraries/STM32_USB_OTG_Driver/src/usb_core.c **** #endif
 670:../STLibs//STM32_USB-Host-Device_Lib_V2.1.0/Libraries/STM32_USB_OTG_Driver/src/usb_core.c **** #ifdef USB_OTG_HS_CORE  
 671:../STLibs//STM32_USB-Host-Device_Lib_V2.1.0/Libraries/STM32_USB_OTG_Driver/src/usb_core.c ****   if (pdev->cfg.coreID == USB_OTG_HS_CORE_ID)
 672:../STLibs//STM32_USB-Host-Device_Lib_V2.1.0/Libraries/STM32_USB_OTG_Driver/src/usb_core.c ****   {
 673:../STLibs//STM32_USB-Host-Device_Lib_V2.1.0/Libraries/STM32_USB_OTG_Driver/src/usb_core.c ****     /* set Rx FIFO size */
 674:../STLibs//STM32_USB-Host-Device_Lib_V2.1.0/Libraries/STM32_USB_OTG_Driver/src/usb_core.c ****     USB_OTG_WRITE_REG32(&pdev->regs.GREGS->GRXFSIZ, RX_FIFO_HS_SIZE);
 675:../STLibs//STM32_USB-Host-Device_Lib_V2.1.0/Libraries/STM32_USB_OTG_Driver/src/usb_core.c ****     nptxfifosize.b.startaddr = RX_FIFO_HS_SIZE;   
 676:../STLibs//STM32_USB-Host-Device_Lib_V2.1.0/Libraries/STM32_USB_OTG_Driver/src/usb_core.c ****     nptxfifosize.b.depth = TXH_NP_HS_FIFOSIZ;  
 677:../STLibs//STM32_USB-Host-Device_Lib_V2.1.0/Libraries/STM32_USB_OTG_Driver/src/usb_core.c ****     USB_OTG_WRITE_REG32(&pdev->regs.GREGS->DIEPTXF0_HNPTXFSIZ, nptxfifosize.d32);
 678:../STLibs//STM32_USB-Host-Device_Lib_V2.1.0/Libraries/STM32_USB_OTG_Driver/src/usb_core.c ****     
 679:../STLibs//STM32_USB-Host-Device_Lib_V2.1.0/Libraries/STM32_USB_OTG_Driver/src/usb_core.c ****     ptxfifosize.b.startaddr = RX_FIFO_HS_SIZE + TXH_NP_HS_FIFOSIZ;
 680:../STLibs//STM32_USB-Host-Device_Lib_V2.1.0/Libraries/STM32_USB_OTG_Driver/src/usb_core.c ****     ptxfifosize.b.depth     = TXH_P_HS_FIFOSIZ;
 681:../STLibs//STM32_USB-Host-Device_Lib_V2.1.0/Libraries/STM32_USB_OTG_Driver/src/usb_core.c ****     USB_OTG_WRITE_REG32(&pdev->regs.GREGS->HPTXFSIZ, ptxfifosize.d32);      
 682:../STLibs//STM32_USB-Host-Device_Lib_V2.1.0/Libraries/STM32_USB_OTG_Driver/src/usb_core.c ****   }
 683:../STLibs//STM32_USB-Host-Device_Lib_V2.1.0/Libraries/STM32_USB_OTG_Driver/src/usb_core.c **** #endif  
 684:../STLibs//STM32_USB-Host-Device_Lib_V2.1.0/Libraries/STM32_USB_OTG_Driver/src/usb_core.c ****   
 685:../STLibs//STM32_USB-Host-Device_Lib_V2.1.0/Libraries/STM32_USB_OTG_Driver/src/usb_core.c **** #ifdef USE_OTG_MODE
 686:../STLibs//STM32_USB-Host-Device_Lib_V2.1.0/Libraries/STM32_USB_OTG_Driver/src/usb_core.c ****   /* Clear Host Set HNP Enable in the USB_OTG Control Register */
 687:../STLibs//STM32_USB-Host-Device_Lib_V2.1.0/Libraries/STM32_USB_OTG_Driver/src/usb_core.c ****   gotgctl.b.hstsethnpen = 1;
 688:../STLibs//STM32_USB-Host-Device_Lib_V2.1.0/Libraries/STM32_USB_OTG_Driver/src/usb_core.c ****   USB_OTG_MODIFY_REG32( &pdev->regs.GREGS->GOTGCTL, gotgctl.d32, 0);
 689:../STLibs//STM32_USB-Host-Device_Lib_V2.1.0/Libraries/STM32_USB_OTG_Driver/src/usb_core.c **** #endif
 690:../STLibs//STM32_USB-Host-Device_Lib_V2.1.0/Libraries/STM32_USB_OTG_Driver/src/usb_core.c ****   
 691:../STLibs//STM32_USB-Host-Device_Lib_V2.1.0/Libraries/STM32_USB_OTG_Driver/src/usb_core.c ****   /* Make sure the FIFOs are flushed. */
 692:../STLibs//STM32_USB-Host-Device_Lib_V2.1.0/Libraries/STM32_USB_OTG_Driver/src/usb_core.c ****   USB_OTG_FlushTxFifo(pdev, 0x10 );         /* all Tx FIFOs */
 693:../STLibs//STM32_USB-Host-Device_Lib_V2.1.0/Libraries/STM32_USB_OTG_Driver/src/usb_core.c ****   USB_OTG_FlushRxFifo(pdev);
 694:../STLibs//STM32_USB-Host-Device_Lib_V2.1.0/Libraries/STM32_USB_OTG_Driver/src/usb_core.c ****   
 695:../STLibs//STM32_USB-Host-Device_Lib_V2.1.0/Libraries/STM32_USB_OTG_Driver/src/usb_core.c ****   
 696:../STLibs//STM32_USB-Host-Device_Lib_V2.1.0/Libraries/STM32_USB_OTG_Driver/src/usb_core.c ****   /* Clear all pending HC Interrupts */
 697:../STLibs//STM32_USB-Host-Device_Lib_V2.1.0/Libraries/STM32_USB_OTG_Driver/src/usb_core.c ****   for (i = 0; i < pdev->cfg.host_channels; i++)
 698:../STLibs//STM32_USB-Host-Device_Lib_V2.1.0/Libraries/STM32_USB_OTG_Driver/src/usb_core.c ****   {
 699:../STLibs//STM32_USB-Host-Device_Lib_V2.1.0/Libraries/STM32_USB_OTG_Driver/src/usb_core.c ****     USB_OTG_WRITE_REG32( &pdev->regs.HC_REGS[i]->HCINT, 0xFFFFFFFF );
 700:../STLibs//STM32_USB-Host-Device_Lib_V2.1.0/Libraries/STM32_USB_OTG_Driver/src/usb_core.c ****     USB_OTG_WRITE_REG32( &pdev->regs.HC_REGS[i]->HCINTMSK, 0 );
 701:../STLibs//STM32_USB-Host-Device_Lib_V2.1.0/Libraries/STM32_USB_OTG_Driver/src/usb_core.c ****   }
 702:../STLibs//STM32_USB-Host-Device_Lib_V2.1.0/Libraries/STM32_USB_OTG_Driver/src/usb_core.c **** #ifndef USE_OTG_MODE
 703:../STLibs//STM32_USB-Host-Device_Lib_V2.1.0/Libraries/STM32_USB_OTG_Driver/src/usb_core.c ****   USB_OTG_DriveVbus(pdev, 1);
 704:../STLibs//STM32_USB-Host-Device_Lib_V2.1.0/Libraries/STM32_USB_OTG_Driver/src/usb_core.c **** #endif
 705:../STLibs//STM32_USB-Host-Device_Lib_V2.1.0/Libraries/STM32_USB_OTG_Driver/src/usb_core.c ****   
 706:../STLibs//STM32_USB-Host-Device_Lib_V2.1.0/Libraries/STM32_USB_OTG_Driver/src/usb_core.c ****   USB_OTG_EnableHostInt(pdev);
 707:../STLibs//STM32_USB-Host-Device_Lib_V2.1.0/Libraries/STM32_USB_OTG_Driver/src/usb_core.c ****   return status;
 708:../STLibs//STM32_USB-Host-Device_Lib_V2.1.0/Libraries/STM32_USB_OTG_Driver/src/usb_core.c **** }
 709:../STLibs//STM32_USB-Host-Device_Lib_V2.1.0/Libraries/STM32_USB_OTG_Driver/src/usb_core.c **** 
 710:../STLibs//STM32_USB-Host-Device_Lib_V2.1.0/Libraries/STM32_USB_OTG_Driver/src/usb_core.c **** /**
 711:../STLibs//STM32_USB-Host-Device_Lib_V2.1.0/Libraries/STM32_USB_OTG_Driver/src/usb_core.c **** * @brief  USB_OTG_IsEvenFrame 
 712:../STLibs//STM32_USB-Host-Device_Lib_V2.1.0/Libraries/STM32_USB_OTG_Driver/src/usb_core.c **** *         This function returns the frame number for sof packet
 713:../STLibs//STM32_USB-Host-Device_Lib_V2.1.0/Libraries/STM32_USB_OTG_Driver/src/usb_core.c **** * @param  pdev : Selected device
 714:../STLibs//STM32_USB-Host-Device_Lib_V2.1.0/Libraries/STM32_USB_OTG_Driver/src/usb_core.c **** * @retval Frame number
 715:../STLibs//STM32_USB-Host-Device_Lib_V2.1.0/Libraries/STM32_USB_OTG_Driver/src/usb_core.c **** */
 716:../STLibs//STM32_USB-Host-Device_Lib_V2.1.0/Libraries/STM32_USB_OTG_Driver/src/usb_core.c **** uint8_t USB_OTG_IsEvenFrame (USB_OTG_CORE_HANDLE *pdev) 
 717:../STLibs//STM32_USB-Host-Device_Lib_V2.1.0/Libraries/STM32_USB_OTG_Driver/src/usb_core.c **** {
 718:../STLibs//STM32_USB-Host-Device_Lib_V2.1.0/Libraries/STM32_USB_OTG_Driver/src/usb_core.c ****   return !(USB_OTG_READ_REG32(&pdev->regs.HREGS->HFNUM) & 0x1);
 719:../STLibs//STM32_USB-Host-Device_Lib_V2.1.0/Libraries/STM32_USB_OTG_Driver/src/usb_core.c **** }
 720:../STLibs//STM32_USB-Host-Device_Lib_V2.1.0/Libraries/STM32_USB_OTG_Driver/src/usb_core.c **** 
 721:../STLibs//STM32_USB-Host-Device_Lib_V2.1.0/Libraries/STM32_USB_OTG_Driver/src/usb_core.c **** /**
 722:../STLibs//STM32_USB-Host-Device_Lib_V2.1.0/Libraries/STM32_USB_OTG_Driver/src/usb_core.c **** * @brief  USB_OTG_DriveVbus : set/reset vbus
 723:../STLibs//STM32_USB-Host-Device_Lib_V2.1.0/Libraries/STM32_USB_OTG_Driver/src/usb_core.c **** * @param  pdev : Selected device
 724:../STLibs//STM32_USB-Host-Device_Lib_V2.1.0/Libraries/STM32_USB_OTG_Driver/src/usb_core.c **** * @param  state : VBUS state
 725:../STLibs//STM32_USB-Host-Device_Lib_V2.1.0/Libraries/STM32_USB_OTG_Driver/src/usb_core.c **** * @retval None
 726:../STLibs//STM32_USB-Host-Device_Lib_V2.1.0/Libraries/STM32_USB_OTG_Driver/src/usb_core.c **** */
 727:../STLibs//STM32_USB-Host-Device_Lib_V2.1.0/Libraries/STM32_USB_OTG_Driver/src/usb_core.c **** void USB_OTG_DriveVbus (USB_OTG_CORE_HANDLE *pdev, uint8_t state)
 728:../STLibs//STM32_USB-Host-Device_Lib_V2.1.0/Libraries/STM32_USB_OTG_Driver/src/usb_core.c **** {
 729:../STLibs//STM32_USB-Host-Device_Lib_V2.1.0/Libraries/STM32_USB_OTG_Driver/src/usb_core.c ****   USB_OTG_HPRT0_TypeDef     hprt0;
 730:../STLibs//STM32_USB-Host-Device_Lib_V2.1.0/Libraries/STM32_USB_OTG_Driver/src/usb_core.c ****   
 731:../STLibs//STM32_USB-Host-Device_Lib_V2.1.0/Libraries/STM32_USB_OTG_Driver/src/usb_core.c ****   hprt0.d32 = 0;
 732:../STLibs//STM32_USB-Host-Device_Lib_V2.1.0/Libraries/STM32_USB_OTG_Driver/src/usb_core.c ****   
 733:../STLibs//STM32_USB-Host-Device_Lib_V2.1.0/Libraries/STM32_USB_OTG_Driver/src/usb_core.c ****   /* enable disable the external charge pump */
 734:../STLibs//STM32_USB-Host-Device_Lib_V2.1.0/Libraries/STM32_USB_OTG_Driver/src/usb_core.c ****   USB_OTG_BSP_DriveVBUS(pdev, state);
 735:../STLibs//STM32_USB-Host-Device_Lib_V2.1.0/Libraries/STM32_USB_OTG_Driver/src/usb_core.c ****   
 736:../STLibs//STM32_USB-Host-Device_Lib_V2.1.0/Libraries/STM32_USB_OTG_Driver/src/usb_core.c ****   /* Turn on the Host port power. */
 737:../STLibs//STM32_USB-Host-Device_Lib_V2.1.0/Libraries/STM32_USB_OTG_Driver/src/usb_core.c ****   hprt0.d32 = USB_OTG_ReadHPRT0(pdev);
 738:../STLibs//STM32_USB-Host-Device_Lib_V2.1.0/Libraries/STM32_USB_OTG_Driver/src/usb_core.c ****   if ((hprt0.b.prtpwr == 0 ) && (state == 1 ))
 739:../STLibs//STM32_USB-Host-Device_Lib_V2.1.0/Libraries/STM32_USB_OTG_Driver/src/usb_core.c ****   {
 740:../STLibs//STM32_USB-Host-Device_Lib_V2.1.0/Libraries/STM32_USB_OTG_Driver/src/usb_core.c ****     hprt0.b.prtpwr = 1;
 741:../STLibs//STM32_USB-Host-Device_Lib_V2.1.0/Libraries/STM32_USB_OTG_Driver/src/usb_core.c ****     USB_OTG_WRITE_REG32(pdev->regs.HPRT0, hprt0.d32);
 742:../STLibs//STM32_USB-Host-Device_Lib_V2.1.0/Libraries/STM32_USB_OTG_Driver/src/usb_core.c ****   }
 743:../STLibs//STM32_USB-Host-Device_Lib_V2.1.0/Libraries/STM32_USB_OTG_Driver/src/usb_core.c ****   if ((hprt0.b.prtpwr == 1 ) && (state == 0 ))
 744:../STLibs//STM32_USB-Host-Device_Lib_V2.1.0/Libraries/STM32_USB_OTG_Driver/src/usb_core.c ****   {
 745:../STLibs//STM32_USB-Host-Device_Lib_V2.1.0/Libraries/STM32_USB_OTG_Driver/src/usb_core.c ****     hprt0.b.prtpwr = 0;
 746:../STLibs//STM32_USB-Host-Device_Lib_V2.1.0/Libraries/STM32_USB_OTG_Driver/src/usb_core.c ****     USB_OTG_WRITE_REG32(pdev->regs.HPRT0, hprt0.d32);
 747:../STLibs//STM32_USB-Host-Device_Lib_V2.1.0/Libraries/STM32_USB_OTG_Driver/src/usb_core.c ****   }
 748:../STLibs//STM32_USB-Host-Device_Lib_V2.1.0/Libraries/STM32_USB_OTG_Driver/src/usb_core.c ****   
 749:../STLibs//STM32_USB-Host-Device_Lib_V2.1.0/Libraries/STM32_USB_OTG_Driver/src/usb_core.c ****   USB_OTG_BSP_mDelay(200);
 750:../STLibs//STM32_USB-Host-Device_Lib_V2.1.0/Libraries/STM32_USB_OTG_Driver/src/usb_core.c **** }
 751:../STLibs//STM32_USB-Host-Device_Lib_V2.1.0/Libraries/STM32_USB_OTG_Driver/src/usb_core.c **** /**
 752:../STLibs//STM32_USB-Host-Device_Lib_V2.1.0/Libraries/STM32_USB_OTG_Driver/src/usb_core.c **** * @brief  USB_OTG_EnableHostInt: Enables the Host mode interrupts
 753:../STLibs//STM32_USB-Host-Device_Lib_V2.1.0/Libraries/STM32_USB_OTG_Driver/src/usb_core.c **** * @param  pdev : Selected device
 754:../STLibs//STM32_USB-Host-Device_Lib_V2.1.0/Libraries/STM32_USB_OTG_Driver/src/usb_core.c **** * @retval USB_OTG_STS : status
 755:../STLibs//STM32_USB-Host-Device_Lib_V2.1.0/Libraries/STM32_USB_OTG_Driver/src/usb_core.c **** */
 756:../STLibs//STM32_USB-Host-Device_Lib_V2.1.0/Libraries/STM32_USB_OTG_Driver/src/usb_core.c **** USB_OTG_STS USB_OTG_EnableHostInt(USB_OTG_CORE_HANDLE *pdev)
 757:../STLibs//STM32_USB-Host-Device_Lib_V2.1.0/Libraries/STM32_USB_OTG_Driver/src/usb_core.c **** {
 758:../STLibs//STM32_USB-Host-Device_Lib_V2.1.0/Libraries/STM32_USB_OTG_Driver/src/usb_core.c ****   USB_OTG_STS       status = USB_OTG_OK;
 759:../STLibs//STM32_USB-Host-Device_Lib_V2.1.0/Libraries/STM32_USB_OTG_Driver/src/usb_core.c ****   USB_OTG_GINTMSK_TypeDef  intmsk;
 760:../STLibs//STM32_USB-Host-Device_Lib_V2.1.0/Libraries/STM32_USB_OTG_Driver/src/usb_core.c ****   intmsk.d32 = 0;
 761:../STLibs//STM32_USB-Host-Device_Lib_V2.1.0/Libraries/STM32_USB_OTG_Driver/src/usb_core.c ****   /* Disable all interrupts. */
 762:../STLibs//STM32_USB-Host-Device_Lib_V2.1.0/Libraries/STM32_USB_OTG_Driver/src/usb_core.c ****   USB_OTG_WRITE_REG32(&pdev->regs.GREGS->GINTMSK, 0);
 763:../STLibs//STM32_USB-Host-Device_Lib_V2.1.0/Libraries/STM32_USB_OTG_Driver/src/usb_core.c ****   
 764:../STLibs//STM32_USB-Host-Device_Lib_V2.1.0/Libraries/STM32_USB_OTG_Driver/src/usb_core.c ****   /* Clear any pending interrupts. */
 765:../STLibs//STM32_USB-Host-Device_Lib_V2.1.0/Libraries/STM32_USB_OTG_Driver/src/usb_core.c ****   USB_OTG_WRITE_REG32(&pdev->regs.GREGS->GINTSTS, 0xFFFFFFFF);
 766:../STLibs//STM32_USB-Host-Device_Lib_V2.1.0/Libraries/STM32_USB_OTG_Driver/src/usb_core.c ****   
 767:../STLibs//STM32_USB-Host-Device_Lib_V2.1.0/Libraries/STM32_USB_OTG_Driver/src/usb_core.c ****   /* Enable the common interrupts */
 768:../STLibs//STM32_USB-Host-Device_Lib_V2.1.0/Libraries/STM32_USB_OTG_Driver/src/usb_core.c ****   USB_OTG_EnableCommonInt(pdev);
 769:../STLibs//STM32_USB-Host-Device_Lib_V2.1.0/Libraries/STM32_USB_OTG_Driver/src/usb_core.c ****   
 770:../STLibs//STM32_USB-Host-Device_Lib_V2.1.0/Libraries/STM32_USB_OTG_Driver/src/usb_core.c ****   if (pdev->cfg.dma_enable == 0)
 771:../STLibs//STM32_USB-Host-Device_Lib_V2.1.0/Libraries/STM32_USB_OTG_Driver/src/usb_core.c ****   {  
 772:../STLibs//STM32_USB-Host-Device_Lib_V2.1.0/Libraries/STM32_USB_OTG_Driver/src/usb_core.c ****     intmsk.b.rxstsqlvl  = 1;
 773:../STLibs//STM32_USB-Host-Device_Lib_V2.1.0/Libraries/STM32_USB_OTG_Driver/src/usb_core.c ****   }  
 774:../STLibs//STM32_USB-Host-Device_Lib_V2.1.0/Libraries/STM32_USB_OTG_Driver/src/usb_core.c ****   intmsk.b.portintr   = 1;
 775:../STLibs//STM32_USB-Host-Device_Lib_V2.1.0/Libraries/STM32_USB_OTG_Driver/src/usb_core.c ****   intmsk.b.hcintr     = 1;
 776:../STLibs//STM32_USB-Host-Device_Lib_V2.1.0/Libraries/STM32_USB_OTG_Driver/src/usb_core.c ****   intmsk.b.disconnect = 1;  
 777:../STLibs//STM32_USB-Host-Device_Lib_V2.1.0/Libraries/STM32_USB_OTG_Driver/src/usb_core.c ****   intmsk.b.sofintr    = 1;  
 778:../STLibs//STM32_USB-Host-Device_Lib_V2.1.0/Libraries/STM32_USB_OTG_Driver/src/usb_core.c ****   intmsk.b.incomplisoout  = 1; 
 779:../STLibs//STM32_USB-Host-Device_Lib_V2.1.0/Libraries/STM32_USB_OTG_Driver/src/usb_core.c ****   USB_OTG_MODIFY_REG32(&pdev->regs.GREGS->GINTMSK, intmsk.d32, intmsk.d32);
 780:../STLibs//STM32_USB-Host-Device_Lib_V2.1.0/Libraries/STM32_USB_OTG_Driver/src/usb_core.c ****   return status;
 781:../STLibs//STM32_USB-Host-Device_Lib_V2.1.0/Libraries/STM32_USB_OTG_Driver/src/usb_core.c **** }
 782:../STLibs//STM32_USB-Host-Device_Lib_V2.1.0/Libraries/STM32_USB_OTG_Driver/src/usb_core.c **** 
 783:../STLibs//STM32_USB-Host-Device_Lib_V2.1.0/Libraries/STM32_USB_OTG_Driver/src/usb_core.c **** /**
 784:../STLibs//STM32_USB-Host-Device_Lib_V2.1.0/Libraries/STM32_USB_OTG_Driver/src/usb_core.c **** * @brief  USB_OTG_InitFSLSPClkSel : Initializes the FSLSPClkSel field of the 
 785:../STLibs//STM32_USB-Host-Device_Lib_V2.1.0/Libraries/STM32_USB_OTG_Driver/src/usb_core.c **** *         HCFG register on the PHY type
 786:../STLibs//STM32_USB-Host-Device_Lib_V2.1.0/Libraries/STM32_USB_OTG_Driver/src/usb_core.c **** * @param  pdev : Selected device
 787:../STLibs//STM32_USB-Host-Device_Lib_V2.1.0/Libraries/STM32_USB_OTG_Driver/src/usb_core.c **** * @param  freq : clock frequency
 788:../STLibs//STM32_USB-Host-Device_Lib_V2.1.0/Libraries/STM32_USB_OTG_Driver/src/usb_core.c **** * @retval None
 789:../STLibs//STM32_USB-Host-Device_Lib_V2.1.0/Libraries/STM32_USB_OTG_Driver/src/usb_core.c **** */
 790:../STLibs//STM32_USB-Host-Device_Lib_V2.1.0/Libraries/STM32_USB_OTG_Driver/src/usb_core.c **** void USB_OTG_InitFSLSPClkSel(USB_OTG_CORE_HANDLE *pdev , uint8_t freq)
 791:../STLibs//STM32_USB-Host-Device_Lib_V2.1.0/Libraries/STM32_USB_OTG_Driver/src/usb_core.c **** {
 792:../STLibs//STM32_USB-Host-Device_Lib_V2.1.0/Libraries/STM32_USB_OTG_Driver/src/usb_core.c ****   USB_OTG_HCFG_TypeDef   hcfg;
 793:../STLibs//STM32_USB-Host-Device_Lib_V2.1.0/Libraries/STM32_USB_OTG_Driver/src/usb_core.c ****   
 794:../STLibs//STM32_USB-Host-Device_Lib_V2.1.0/Libraries/STM32_USB_OTG_Driver/src/usb_core.c ****   hcfg.d32 = USB_OTG_READ_REG32(&pdev->regs.HREGS->HCFG);
 795:../STLibs//STM32_USB-Host-Device_Lib_V2.1.0/Libraries/STM32_USB_OTG_Driver/src/usb_core.c ****   hcfg.b.fslspclksel = freq;
 796:../STLibs//STM32_USB-Host-Device_Lib_V2.1.0/Libraries/STM32_USB_OTG_Driver/src/usb_core.c ****   USB_OTG_WRITE_REG32(&pdev->regs.HREGS->HCFG, hcfg.d32);
 797:../STLibs//STM32_USB-Host-Device_Lib_V2.1.0/Libraries/STM32_USB_OTG_Driver/src/usb_core.c **** }
 798:../STLibs//STM32_USB-Host-Device_Lib_V2.1.0/Libraries/STM32_USB_OTG_Driver/src/usb_core.c **** 
 799:../STLibs//STM32_USB-Host-Device_Lib_V2.1.0/Libraries/STM32_USB_OTG_Driver/src/usb_core.c **** 
 800:../STLibs//STM32_USB-Host-Device_Lib_V2.1.0/Libraries/STM32_USB_OTG_Driver/src/usb_core.c **** /**
 801:../STLibs//STM32_USB-Host-Device_Lib_V2.1.0/Libraries/STM32_USB_OTG_Driver/src/usb_core.c **** * @brief  USB_OTG_ReadHPRT0 : Reads HPRT0 to modify later
 802:../STLibs//STM32_USB-Host-Device_Lib_V2.1.0/Libraries/STM32_USB_OTG_Driver/src/usb_core.c **** * @param  pdev : Selected device
 803:../STLibs//STM32_USB-Host-Device_Lib_V2.1.0/Libraries/STM32_USB_OTG_Driver/src/usb_core.c **** * @retval HPRT0 value
 804:../STLibs//STM32_USB-Host-Device_Lib_V2.1.0/Libraries/STM32_USB_OTG_Driver/src/usb_core.c **** */
 805:../STLibs//STM32_USB-Host-Device_Lib_V2.1.0/Libraries/STM32_USB_OTG_Driver/src/usb_core.c **** uint32_t USB_OTG_ReadHPRT0(USB_OTG_CORE_HANDLE *pdev)
 806:../STLibs//STM32_USB-Host-Device_Lib_V2.1.0/Libraries/STM32_USB_OTG_Driver/src/usb_core.c **** {
 807:../STLibs//STM32_USB-Host-Device_Lib_V2.1.0/Libraries/STM32_USB_OTG_Driver/src/usb_core.c ****   USB_OTG_HPRT0_TypeDef  hprt0;
 808:../STLibs//STM32_USB-Host-Device_Lib_V2.1.0/Libraries/STM32_USB_OTG_Driver/src/usb_core.c ****   
 809:../STLibs//STM32_USB-Host-Device_Lib_V2.1.0/Libraries/STM32_USB_OTG_Driver/src/usb_core.c ****   hprt0.d32 = USB_OTG_READ_REG32(pdev->regs.HPRT0);
 810:../STLibs//STM32_USB-Host-Device_Lib_V2.1.0/Libraries/STM32_USB_OTG_Driver/src/usb_core.c ****   hprt0.b.prtena = 0;
 811:../STLibs//STM32_USB-Host-Device_Lib_V2.1.0/Libraries/STM32_USB_OTG_Driver/src/usb_core.c ****   hprt0.b.prtconndet = 0;
 812:../STLibs//STM32_USB-Host-Device_Lib_V2.1.0/Libraries/STM32_USB_OTG_Driver/src/usb_core.c ****   hprt0.b.prtenchng = 0;
 813:../STLibs//STM32_USB-Host-Device_Lib_V2.1.0/Libraries/STM32_USB_OTG_Driver/src/usb_core.c ****   hprt0.b.prtovrcurrchng = 0;
 814:../STLibs//STM32_USB-Host-Device_Lib_V2.1.0/Libraries/STM32_USB_OTG_Driver/src/usb_core.c ****   return hprt0.d32;
 815:../STLibs//STM32_USB-Host-Device_Lib_V2.1.0/Libraries/STM32_USB_OTG_Driver/src/usb_core.c **** }
 816:../STLibs//STM32_USB-Host-Device_Lib_V2.1.0/Libraries/STM32_USB_OTG_Driver/src/usb_core.c **** 
 817:../STLibs//STM32_USB-Host-Device_Lib_V2.1.0/Libraries/STM32_USB_OTG_Driver/src/usb_core.c **** 
 818:../STLibs//STM32_USB-Host-Device_Lib_V2.1.0/Libraries/STM32_USB_OTG_Driver/src/usb_core.c **** /**
 819:../STLibs//STM32_USB-Host-Device_Lib_V2.1.0/Libraries/STM32_USB_OTG_Driver/src/usb_core.c **** * @brief  USB_OTG_ReadHostAllChannels_intr : Register PCD Callbacks
 820:../STLibs//STM32_USB-Host-Device_Lib_V2.1.0/Libraries/STM32_USB_OTG_Driver/src/usb_core.c **** * @param  pdev : Selected device
 821:../STLibs//STM32_USB-Host-Device_Lib_V2.1.0/Libraries/STM32_USB_OTG_Driver/src/usb_core.c **** * @retval Status
 822:../STLibs//STM32_USB-Host-Device_Lib_V2.1.0/Libraries/STM32_USB_OTG_Driver/src/usb_core.c **** */
 823:../STLibs//STM32_USB-Host-Device_Lib_V2.1.0/Libraries/STM32_USB_OTG_Driver/src/usb_core.c **** uint32_t USB_OTG_ReadHostAllChannels_intr (USB_OTG_CORE_HANDLE *pdev)
 824:../STLibs//STM32_USB-Host-Device_Lib_V2.1.0/Libraries/STM32_USB_OTG_Driver/src/usb_core.c **** {
 825:../STLibs//STM32_USB-Host-Device_Lib_V2.1.0/Libraries/STM32_USB_OTG_Driver/src/usb_core.c ****   return (USB_OTG_READ_REG32 (&pdev->regs.HREGS->HAINT));
 826:../STLibs//STM32_USB-Host-Device_Lib_V2.1.0/Libraries/STM32_USB_OTG_Driver/src/usb_core.c **** }
 827:../STLibs//STM32_USB-Host-Device_Lib_V2.1.0/Libraries/STM32_USB_OTG_Driver/src/usb_core.c **** 
 828:../STLibs//STM32_USB-Host-Device_Lib_V2.1.0/Libraries/STM32_USB_OTG_Driver/src/usb_core.c **** 
 829:../STLibs//STM32_USB-Host-Device_Lib_V2.1.0/Libraries/STM32_USB_OTG_Driver/src/usb_core.c **** /**
 830:../STLibs//STM32_USB-Host-Device_Lib_V2.1.0/Libraries/STM32_USB_OTG_Driver/src/usb_core.c **** * @brief  USB_OTG_ResetPort : Reset Host Port
 831:../STLibs//STM32_USB-Host-Device_Lib_V2.1.0/Libraries/STM32_USB_OTG_Driver/src/usb_core.c **** * @param  pdev : Selected device
 832:../STLibs//STM32_USB-Host-Device_Lib_V2.1.0/Libraries/STM32_USB_OTG_Driver/src/usb_core.c **** * @retval status
 833:../STLibs//STM32_USB-Host-Device_Lib_V2.1.0/Libraries/STM32_USB_OTG_Driver/src/usb_core.c **** * @note : (1)The application must wait at least 10 ms (+ 10 ms security)
 834:../STLibs//STM32_USB-Host-Device_Lib_V2.1.0/Libraries/STM32_USB_OTG_Driver/src/usb_core.c **** *   before clearing the reset bit.
 835:../STLibs//STM32_USB-Host-Device_Lib_V2.1.0/Libraries/STM32_USB_OTG_Driver/src/usb_core.c **** */
 836:../STLibs//STM32_USB-Host-Device_Lib_V2.1.0/Libraries/STM32_USB_OTG_Driver/src/usb_core.c **** uint32_t USB_OTG_ResetPort(USB_OTG_CORE_HANDLE *pdev)
 837:../STLibs//STM32_USB-Host-Device_Lib_V2.1.0/Libraries/STM32_USB_OTG_Driver/src/usb_core.c **** {
 838:../STLibs//STM32_USB-Host-Device_Lib_V2.1.0/Libraries/STM32_USB_OTG_Driver/src/usb_core.c ****   USB_OTG_HPRT0_TypeDef  hprt0;
 839:../STLibs//STM32_USB-Host-Device_Lib_V2.1.0/Libraries/STM32_USB_OTG_Driver/src/usb_core.c ****   
 840:../STLibs//STM32_USB-Host-Device_Lib_V2.1.0/Libraries/STM32_USB_OTG_Driver/src/usb_core.c ****   hprt0.d32 = USB_OTG_ReadHPRT0(pdev);
 841:../STLibs//STM32_USB-Host-Device_Lib_V2.1.0/Libraries/STM32_USB_OTG_Driver/src/usb_core.c ****   hprt0.b.prtrst = 1;
 842:../STLibs//STM32_USB-Host-Device_Lib_V2.1.0/Libraries/STM32_USB_OTG_Driver/src/usb_core.c ****   USB_OTG_WRITE_REG32(pdev->regs.HPRT0, hprt0.d32);
 843:../STLibs//STM32_USB-Host-Device_Lib_V2.1.0/Libraries/STM32_USB_OTG_Driver/src/usb_core.c ****   USB_OTG_BSP_mDelay (10);                                /* See Note #1 */
 844:../STLibs//STM32_USB-Host-Device_Lib_V2.1.0/Libraries/STM32_USB_OTG_Driver/src/usb_core.c ****   hprt0.b.prtrst = 0;
 845:../STLibs//STM32_USB-Host-Device_Lib_V2.1.0/Libraries/STM32_USB_OTG_Driver/src/usb_core.c ****   USB_OTG_WRITE_REG32(pdev->regs.HPRT0, hprt0.d32);
 846:../STLibs//STM32_USB-Host-Device_Lib_V2.1.0/Libraries/STM32_USB_OTG_Driver/src/usb_core.c ****   USB_OTG_BSP_mDelay (20);   
 847:../STLibs//STM32_USB-Host-Device_Lib_V2.1.0/Libraries/STM32_USB_OTG_Driver/src/usb_core.c ****   return 1;
 848:../STLibs//STM32_USB-Host-Device_Lib_V2.1.0/Libraries/STM32_USB_OTG_Driver/src/usb_core.c **** }
 849:../STLibs//STM32_USB-Host-Device_Lib_V2.1.0/Libraries/STM32_USB_OTG_Driver/src/usb_core.c **** 
 850:../STLibs//STM32_USB-Host-Device_Lib_V2.1.0/Libraries/STM32_USB_OTG_Driver/src/usb_core.c **** 
 851:../STLibs//STM32_USB-Host-Device_Lib_V2.1.0/Libraries/STM32_USB_OTG_Driver/src/usb_core.c **** /**
 852:../STLibs//STM32_USB-Host-Device_Lib_V2.1.0/Libraries/STM32_USB_OTG_Driver/src/usb_core.c **** * @brief  USB_OTG_HC_Init : Prepares a host channel for transferring packets
 853:../STLibs//STM32_USB-Host-Device_Lib_V2.1.0/Libraries/STM32_USB_OTG_Driver/src/usb_core.c **** * @param  pdev : Selected device
 854:../STLibs//STM32_USB-Host-Device_Lib_V2.1.0/Libraries/STM32_USB_OTG_Driver/src/usb_core.c **** * @param  hc_num : channel number
 855:../STLibs//STM32_USB-Host-Device_Lib_V2.1.0/Libraries/STM32_USB_OTG_Driver/src/usb_core.c **** * @retval USB_OTG_STS : status
 856:../STLibs//STM32_USB-Host-Device_Lib_V2.1.0/Libraries/STM32_USB_OTG_Driver/src/usb_core.c **** */
 857:../STLibs//STM32_USB-Host-Device_Lib_V2.1.0/Libraries/STM32_USB_OTG_Driver/src/usb_core.c **** USB_OTG_STS USB_OTG_HC_Init(USB_OTG_CORE_HANDLE *pdev , uint8_t hc_num)
 858:../STLibs//STM32_USB-Host-Device_Lib_V2.1.0/Libraries/STM32_USB_OTG_Driver/src/usb_core.c **** {
 859:../STLibs//STM32_USB-Host-Device_Lib_V2.1.0/Libraries/STM32_USB_OTG_Driver/src/usb_core.c ****   USB_OTG_STS status = USB_OTG_OK;
 860:../STLibs//STM32_USB-Host-Device_Lib_V2.1.0/Libraries/STM32_USB_OTG_Driver/src/usb_core.c ****   uint32_t intr_enable = 0;
 861:../STLibs//STM32_USB-Host-Device_Lib_V2.1.0/Libraries/STM32_USB_OTG_Driver/src/usb_core.c ****   USB_OTG_HCINTMSK_TypeDef  hcintmsk;
 862:../STLibs//STM32_USB-Host-Device_Lib_V2.1.0/Libraries/STM32_USB_OTG_Driver/src/usb_core.c ****   USB_OTG_GINTMSK_TypeDef    gintmsk;
 863:../STLibs//STM32_USB-Host-Device_Lib_V2.1.0/Libraries/STM32_USB_OTG_Driver/src/usb_core.c ****   USB_OTG_HCCHAR_TypeDef     hcchar;
 864:../STLibs//STM32_USB-Host-Device_Lib_V2.1.0/Libraries/STM32_USB_OTG_Driver/src/usb_core.c ****   USB_OTG_HCINTn_TypeDef     hcint;
 865:../STLibs//STM32_USB-Host-Device_Lib_V2.1.0/Libraries/STM32_USB_OTG_Driver/src/usb_core.c ****   
 866:../STLibs//STM32_USB-Host-Device_Lib_V2.1.0/Libraries/STM32_USB_OTG_Driver/src/usb_core.c ****   
 867:../STLibs//STM32_USB-Host-Device_Lib_V2.1.0/Libraries/STM32_USB_OTG_Driver/src/usb_core.c ****   gintmsk.d32 = 0;
 868:../STLibs//STM32_USB-Host-Device_Lib_V2.1.0/Libraries/STM32_USB_OTG_Driver/src/usb_core.c ****   hcintmsk.d32 = 0;
 869:../STLibs//STM32_USB-Host-Device_Lib_V2.1.0/Libraries/STM32_USB_OTG_Driver/src/usb_core.c ****   hcchar.d32 = 0;
 870:../STLibs//STM32_USB-Host-Device_Lib_V2.1.0/Libraries/STM32_USB_OTG_Driver/src/usb_core.c ****   
 871:../STLibs//STM32_USB-Host-Device_Lib_V2.1.0/Libraries/STM32_USB_OTG_Driver/src/usb_core.c ****   /* Clear old interrupt conditions for this host channel. */
 872:../STLibs//STM32_USB-Host-Device_Lib_V2.1.0/Libraries/STM32_USB_OTG_Driver/src/usb_core.c ****   hcint.d32 = 0xFFFFFFFF;
 873:../STLibs//STM32_USB-Host-Device_Lib_V2.1.0/Libraries/STM32_USB_OTG_Driver/src/usb_core.c ****   USB_OTG_WRITE_REG32(&pdev->regs.HC_REGS[hc_num]->HCINT, hcint.d32);
 874:../STLibs//STM32_USB-Host-Device_Lib_V2.1.0/Libraries/STM32_USB_OTG_Driver/src/usb_core.c ****   
 875:../STLibs//STM32_USB-Host-Device_Lib_V2.1.0/Libraries/STM32_USB_OTG_Driver/src/usb_core.c ****   /* Enable channel interrupts required for this transfer. */
 876:../STLibs//STM32_USB-Host-Device_Lib_V2.1.0/Libraries/STM32_USB_OTG_Driver/src/usb_core.c ****   hcintmsk.d32 = 0;
 877:../STLibs//STM32_USB-Host-Device_Lib_V2.1.0/Libraries/STM32_USB_OTG_Driver/src/usb_core.c ****   
 878:../STLibs//STM32_USB-Host-Device_Lib_V2.1.0/Libraries/STM32_USB_OTG_Driver/src/usb_core.c ****   if (pdev->cfg.dma_enable == 1)
 879:../STLibs//STM32_USB-Host-Device_Lib_V2.1.0/Libraries/STM32_USB_OTG_Driver/src/usb_core.c ****   {
 880:../STLibs//STM32_USB-Host-Device_Lib_V2.1.0/Libraries/STM32_USB_OTG_Driver/src/usb_core.c ****     hcintmsk.b.ahberr = 1;
 881:../STLibs//STM32_USB-Host-Device_Lib_V2.1.0/Libraries/STM32_USB_OTG_Driver/src/usb_core.c ****   }
 882:../STLibs//STM32_USB-Host-Device_Lib_V2.1.0/Libraries/STM32_USB_OTG_Driver/src/usb_core.c ****   
 883:../STLibs//STM32_USB-Host-Device_Lib_V2.1.0/Libraries/STM32_USB_OTG_Driver/src/usb_core.c ****   switch (pdev->host.hc[hc_num].ep_type) 
 884:../STLibs//STM32_USB-Host-Device_Lib_V2.1.0/Libraries/STM32_USB_OTG_Driver/src/usb_core.c ****   {
 885:../STLibs//STM32_USB-Host-Device_Lib_V2.1.0/Libraries/STM32_USB_OTG_Driver/src/usb_core.c ****   case EP_TYPE_CTRL:
 886:../STLibs//STM32_USB-Host-Device_Lib_V2.1.0/Libraries/STM32_USB_OTG_Driver/src/usb_core.c ****   case EP_TYPE_BULK:
 887:../STLibs//STM32_USB-Host-Device_Lib_V2.1.0/Libraries/STM32_USB_OTG_Driver/src/usb_core.c ****     hcintmsk.b.xfercompl = 1;
 888:../STLibs//STM32_USB-Host-Device_Lib_V2.1.0/Libraries/STM32_USB_OTG_Driver/src/usb_core.c ****     hcintmsk.b.stall = 1;
 889:../STLibs//STM32_USB-Host-Device_Lib_V2.1.0/Libraries/STM32_USB_OTG_Driver/src/usb_core.c ****     hcintmsk.b.xacterr = 1;
 890:../STLibs//STM32_USB-Host-Device_Lib_V2.1.0/Libraries/STM32_USB_OTG_Driver/src/usb_core.c ****     hcintmsk.b.datatglerr = 1;
 891:../STLibs//STM32_USB-Host-Device_Lib_V2.1.0/Libraries/STM32_USB_OTG_Driver/src/usb_core.c ****     hcintmsk.b.nak = 1;  
 892:../STLibs//STM32_USB-Host-Device_Lib_V2.1.0/Libraries/STM32_USB_OTG_Driver/src/usb_core.c ****     if (pdev->host.hc[hc_num].ep_is_in) 
 893:../STLibs//STM32_USB-Host-Device_Lib_V2.1.0/Libraries/STM32_USB_OTG_Driver/src/usb_core.c ****     {
 894:../STLibs//STM32_USB-Host-Device_Lib_V2.1.0/Libraries/STM32_USB_OTG_Driver/src/usb_core.c ****       hcintmsk.b.bblerr = 1;
 895:../STLibs//STM32_USB-Host-Device_Lib_V2.1.0/Libraries/STM32_USB_OTG_Driver/src/usb_core.c ****     } 
 896:../STLibs//STM32_USB-Host-Device_Lib_V2.1.0/Libraries/STM32_USB_OTG_Driver/src/usb_core.c ****     else 
 897:../STLibs//STM32_USB-Host-Device_Lib_V2.1.0/Libraries/STM32_USB_OTG_Driver/src/usb_core.c ****     {
 898:../STLibs//STM32_USB-Host-Device_Lib_V2.1.0/Libraries/STM32_USB_OTG_Driver/src/usb_core.c ****       hcintmsk.b.nyet = 1;
 899:../STLibs//STM32_USB-Host-Device_Lib_V2.1.0/Libraries/STM32_USB_OTG_Driver/src/usb_core.c ****       if (pdev->host.hc[hc_num].do_ping) 
 900:../STLibs//STM32_USB-Host-Device_Lib_V2.1.0/Libraries/STM32_USB_OTG_Driver/src/usb_core.c ****       {
 901:../STLibs//STM32_USB-Host-Device_Lib_V2.1.0/Libraries/STM32_USB_OTG_Driver/src/usb_core.c ****         hcintmsk.b.ack = 1;
 902:../STLibs//STM32_USB-Host-Device_Lib_V2.1.0/Libraries/STM32_USB_OTG_Driver/src/usb_core.c ****       }
 903:../STLibs//STM32_USB-Host-Device_Lib_V2.1.0/Libraries/STM32_USB_OTG_Driver/src/usb_core.c ****     }
 904:../STLibs//STM32_USB-Host-Device_Lib_V2.1.0/Libraries/STM32_USB_OTG_Driver/src/usb_core.c ****     break;
 905:../STLibs//STM32_USB-Host-Device_Lib_V2.1.0/Libraries/STM32_USB_OTG_Driver/src/usb_core.c ****   case EP_TYPE_INTR:
 906:../STLibs//STM32_USB-Host-Device_Lib_V2.1.0/Libraries/STM32_USB_OTG_Driver/src/usb_core.c ****     hcintmsk.b.xfercompl = 1;
 907:../STLibs//STM32_USB-Host-Device_Lib_V2.1.0/Libraries/STM32_USB_OTG_Driver/src/usb_core.c ****     hcintmsk.b.nak = 1;
 908:../STLibs//STM32_USB-Host-Device_Lib_V2.1.0/Libraries/STM32_USB_OTG_Driver/src/usb_core.c ****     hcintmsk.b.stall = 1;
 909:../STLibs//STM32_USB-Host-Device_Lib_V2.1.0/Libraries/STM32_USB_OTG_Driver/src/usb_core.c ****     hcintmsk.b.xacterr = 1;
 910:../STLibs//STM32_USB-Host-Device_Lib_V2.1.0/Libraries/STM32_USB_OTG_Driver/src/usb_core.c ****     hcintmsk.b.datatglerr = 1;
 911:../STLibs//STM32_USB-Host-Device_Lib_V2.1.0/Libraries/STM32_USB_OTG_Driver/src/usb_core.c ****     hcintmsk.b.frmovrun = 1;
 912:../STLibs//STM32_USB-Host-Device_Lib_V2.1.0/Libraries/STM32_USB_OTG_Driver/src/usb_core.c ****     
 913:../STLibs//STM32_USB-Host-Device_Lib_V2.1.0/Libraries/STM32_USB_OTG_Driver/src/usb_core.c ****     if (pdev->host.hc[hc_num].ep_is_in) 
 914:../STLibs//STM32_USB-Host-Device_Lib_V2.1.0/Libraries/STM32_USB_OTG_Driver/src/usb_core.c ****     {
 915:../STLibs//STM32_USB-Host-Device_Lib_V2.1.0/Libraries/STM32_USB_OTG_Driver/src/usb_core.c ****       hcintmsk.b.bblerr = 1;
 916:../STLibs//STM32_USB-Host-Device_Lib_V2.1.0/Libraries/STM32_USB_OTG_Driver/src/usb_core.c ****     }
 917:../STLibs//STM32_USB-Host-Device_Lib_V2.1.0/Libraries/STM32_USB_OTG_Driver/src/usb_core.c ****     
 918:../STLibs//STM32_USB-Host-Device_Lib_V2.1.0/Libraries/STM32_USB_OTG_Driver/src/usb_core.c ****     break;
 919:../STLibs//STM32_USB-Host-Device_Lib_V2.1.0/Libraries/STM32_USB_OTG_Driver/src/usb_core.c ****   case EP_TYPE_ISOC:
 920:../STLibs//STM32_USB-Host-Device_Lib_V2.1.0/Libraries/STM32_USB_OTG_Driver/src/usb_core.c ****     hcintmsk.b.xfercompl = 1;
 921:../STLibs//STM32_USB-Host-Device_Lib_V2.1.0/Libraries/STM32_USB_OTG_Driver/src/usb_core.c ****     hcintmsk.b.frmovrun = 1;
 922:../STLibs//STM32_USB-Host-Device_Lib_V2.1.0/Libraries/STM32_USB_OTG_Driver/src/usb_core.c ****     hcintmsk.b.ack = 1;
 923:../STLibs//STM32_USB-Host-Device_Lib_V2.1.0/Libraries/STM32_USB_OTG_Driver/src/usb_core.c ****     
 924:../STLibs//STM32_USB-Host-Device_Lib_V2.1.0/Libraries/STM32_USB_OTG_Driver/src/usb_core.c ****     if (pdev->host.hc[hc_num].ep_is_in) 
 925:../STLibs//STM32_USB-Host-Device_Lib_V2.1.0/Libraries/STM32_USB_OTG_Driver/src/usb_core.c ****     {
 926:../STLibs//STM32_USB-Host-Device_Lib_V2.1.0/Libraries/STM32_USB_OTG_Driver/src/usb_core.c ****       hcintmsk.b.xacterr = 1;
 927:../STLibs//STM32_USB-Host-Device_Lib_V2.1.0/Libraries/STM32_USB_OTG_Driver/src/usb_core.c ****       hcintmsk.b.bblerr = 1;
 928:../STLibs//STM32_USB-Host-Device_Lib_V2.1.0/Libraries/STM32_USB_OTG_Driver/src/usb_core.c ****     }
 929:../STLibs//STM32_USB-Host-Device_Lib_V2.1.0/Libraries/STM32_USB_OTG_Driver/src/usb_core.c ****     break;
 930:../STLibs//STM32_USB-Host-Device_Lib_V2.1.0/Libraries/STM32_USB_OTG_Driver/src/usb_core.c ****   }
 931:../STLibs//STM32_USB-Host-Device_Lib_V2.1.0/Libraries/STM32_USB_OTG_Driver/src/usb_core.c ****   
 932:../STLibs//STM32_USB-Host-Device_Lib_V2.1.0/Libraries/STM32_USB_OTG_Driver/src/usb_core.c ****   
 933:../STLibs//STM32_USB-Host-Device_Lib_V2.1.0/Libraries/STM32_USB_OTG_Driver/src/usb_core.c ****   USB_OTG_WRITE_REG32(&pdev->regs.HC_REGS[hc_num]->HCINTMSK, hcintmsk.d32);
 934:../STLibs//STM32_USB-Host-Device_Lib_V2.1.0/Libraries/STM32_USB_OTG_Driver/src/usb_core.c ****   
 935:../STLibs//STM32_USB-Host-Device_Lib_V2.1.0/Libraries/STM32_USB_OTG_Driver/src/usb_core.c ****   
 936:../STLibs//STM32_USB-Host-Device_Lib_V2.1.0/Libraries/STM32_USB_OTG_Driver/src/usb_core.c ****   /* Enable the top level host channel interrupt. */
 937:../STLibs//STM32_USB-Host-Device_Lib_V2.1.0/Libraries/STM32_USB_OTG_Driver/src/usb_core.c ****   intr_enable = (1 << hc_num);
 938:../STLibs//STM32_USB-Host-Device_Lib_V2.1.0/Libraries/STM32_USB_OTG_Driver/src/usb_core.c ****   USB_OTG_MODIFY_REG32(&pdev->regs.HREGS->HAINTMSK, 0, intr_enable);
 939:../STLibs//STM32_USB-Host-Device_Lib_V2.1.0/Libraries/STM32_USB_OTG_Driver/src/usb_core.c ****   
 940:../STLibs//STM32_USB-Host-Device_Lib_V2.1.0/Libraries/STM32_USB_OTG_Driver/src/usb_core.c ****   /* Make sure host channel interrupts are enabled. */
 941:../STLibs//STM32_USB-Host-Device_Lib_V2.1.0/Libraries/STM32_USB_OTG_Driver/src/usb_core.c ****   gintmsk.b.hcintr = 1;
 942:../STLibs//STM32_USB-Host-Device_Lib_V2.1.0/Libraries/STM32_USB_OTG_Driver/src/usb_core.c ****   USB_OTG_MODIFY_REG32(&pdev->regs.GREGS->GINTMSK, 0, gintmsk.d32);
 943:../STLibs//STM32_USB-Host-Device_Lib_V2.1.0/Libraries/STM32_USB_OTG_Driver/src/usb_core.c ****   
 944:../STLibs//STM32_USB-Host-Device_Lib_V2.1.0/Libraries/STM32_USB_OTG_Driver/src/usb_core.c ****   /* Program the HCCHAR register */
 945:../STLibs//STM32_USB-Host-Device_Lib_V2.1.0/Libraries/STM32_USB_OTG_Driver/src/usb_core.c ****   hcchar.d32 = 0;
 946:../STLibs//STM32_USB-Host-Device_Lib_V2.1.0/Libraries/STM32_USB_OTG_Driver/src/usb_core.c ****   hcchar.b.devaddr = pdev->host.hc[hc_num].dev_addr;
 947:../STLibs//STM32_USB-Host-Device_Lib_V2.1.0/Libraries/STM32_USB_OTG_Driver/src/usb_core.c ****   hcchar.b.epnum   = pdev->host.hc[hc_num].ep_num;
 948:../STLibs//STM32_USB-Host-Device_Lib_V2.1.0/Libraries/STM32_USB_OTG_Driver/src/usb_core.c ****   hcchar.b.epdir   = pdev->host.hc[hc_num].ep_is_in;
 949:../STLibs//STM32_USB-Host-Device_Lib_V2.1.0/Libraries/STM32_USB_OTG_Driver/src/usb_core.c ****   hcchar.b.lspddev = (pdev->host.hc[hc_num].speed == HPRT0_PRTSPD_LOW_SPEED);
 950:../STLibs//STM32_USB-Host-Device_Lib_V2.1.0/Libraries/STM32_USB_OTG_Driver/src/usb_core.c ****   hcchar.b.eptype  = pdev->host.hc[hc_num].ep_type;
 951:../STLibs//STM32_USB-Host-Device_Lib_V2.1.0/Libraries/STM32_USB_OTG_Driver/src/usb_core.c ****   hcchar.b.mps     = pdev->host.hc[hc_num].max_packet;
 952:../STLibs//STM32_USB-Host-Device_Lib_V2.1.0/Libraries/STM32_USB_OTG_Driver/src/usb_core.c ****   if (pdev->host.hc[hc_num].ep_type == HCCHAR_INTR)
 953:../STLibs//STM32_USB-Host-Device_Lib_V2.1.0/Libraries/STM32_USB_OTG_Driver/src/usb_core.c ****   {
 954:../STLibs//STM32_USB-Host-Device_Lib_V2.1.0/Libraries/STM32_USB_OTG_Driver/src/usb_core.c ****     hcchar.b.oddfrm  = 1;
 955:../STLibs//STM32_USB-Host-Device_Lib_V2.1.0/Libraries/STM32_USB_OTG_Driver/src/usb_core.c ****   }
 956:../STLibs//STM32_USB-Host-Device_Lib_V2.1.0/Libraries/STM32_USB_OTG_Driver/src/usb_core.c ****   USB_OTG_WRITE_REG32(&pdev->regs.HC_REGS[hc_num]->HCCHAR, hcchar.d32);
 957:../STLibs//STM32_USB-Host-Device_Lib_V2.1.0/Libraries/STM32_USB_OTG_Driver/src/usb_core.c ****   return status;
 958:../STLibs//STM32_USB-Host-Device_Lib_V2.1.0/Libraries/STM32_USB_OTG_Driver/src/usb_core.c **** }
 959:../STLibs//STM32_USB-Host-Device_Lib_V2.1.0/Libraries/STM32_USB_OTG_Driver/src/usb_core.c **** 
 960:../STLibs//STM32_USB-Host-Device_Lib_V2.1.0/Libraries/STM32_USB_OTG_Driver/src/usb_core.c **** 
 961:../STLibs//STM32_USB-Host-Device_Lib_V2.1.0/Libraries/STM32_USB_OTG_Driver/src/usb_core.c **** /**
 962:../STLibs//STM32_USB-Host-Device_Lib_V2.1.0/Libraries/STM32_USB_OTG_Driver/src/usb_core.c **** * @brief  USB_OTG_HC_StartXfer : Start transfer
 963:../STLibs//STM32_USB-Host-Device_Lib_V2.1.0/Libraries/STM32_USB_OTG_Driver/src/usb_core.c **** * @param  pdev : Selected device
 964:../STLibs//STM32_USB-Host-Device_Lib_V2.1.0/Libraries/STM32_USB_OTG_Driver/src/usb_core.c **** * @param  hc_num : channel number
 965:../STLibs//STM32_USB-Host-Device_Lib_V2.1.0/Libraries/STM32_USB_OTG_Driver/src/usb_core.c **** * @retval USB_OTG_STS : status
 966:../STLibs//STM32_USB-Host-Device_Lib_V2.1.0/Libraries/STM32_USB_OTG_Driver/src/usb_core.c **** */
 967:../STLibs//STM32_USB-Host-Device_Lib_V2.1.0/Libraries/STM32_USB_OTG_Driver/src/usb_core.c **** USB_OTG_STS USB_OTG_HC_StartXfer(USB_OTG_CORE_HANDLE *pdev , uint8_t hc_num)
 968:../STLibs//STM32_USB-Host-Device_Lib_V2.1.0/Libraries/STM32_USB_OTG_Driver/src/usb_core.c **** {
 969:../STLibs//STM32_USB-Host-Device_Lib_V2.1.0/Libraries/STM32_USB_OTG_Driver/src/usb_core.c ****   USB_OTG_STS status = USB_OTG_OK;
 970:../STLibs//STM32_USB-Host-Device_Lib_V2.1.0/Libraries/STM32_USB_OTG_Driver/src/usb_core.c ****   USB_OTG_HCCHAR_TypeDef   hcchar;
 971:../STLibs//STM32_USB-Host-Device_Lib_V2.1.0/Libraries/STM32_USB_OTG_Driver/src/usb_core.c ****   USB_OTG_HCTSIZn_TypeDef  hctsiz;
 972:../STLibs//STM32_USB-Host-Device_Lib_V2.1.0/Libraries/STM32_USB_OTG_Driver/src/usb_core.c ****   USB_OTG_HNPTXSTS_TypeDef hnptxsts; 
 973:../STLibs//STM32_USB-Host-Device_Lib_V2.1.0/Libraries/STM32_USB_OTG_Driver/src/usb_core.c ****   USB_OTG_HPTXSTS_TypeDef  hptxsts; 
 974:../STLibs//STM32_USB-Host-Device_Lib_V2.1.0/Libraries/STM32_USB_OTG_Driver/src/usb_core.c ****   USB_OTG_GINTMSK_TypeDef  intmsk;
 975:../STLibs//STM32_USB-Host-Device_Lib_V2.1.0/Libraries/STM32_USB_OTG_Driver/src/usb_core.c ****   uint16_t                 len_words = 0;   
 976:../STLibs//STM32_USB-Host-Device_Lib_V2.1.0/Libraries/STM32_USB_OTG_Driver/src/usb_core.c ****   
 977:../STLibs//STM32_USB-Host-Device_Lib_V2.1.0/Libraries/STM32_USB_OTG_Driver/src/usb_core.c ****   uint16_t num_packets;
 978:../STLibs//STM32_USB-Host-Device_Lib_V2.1.0/Libraries/STM32_USB_OTG_Driver/src/usb_core.c ****   uint16_t max_hc_pkt_count;
 979:../STLibs//STM32_USB-Host-Device_Lib_V2.1.0/Libraries/STM32_USB_OTG_Driver/src/usb_core.c ****   
 980:../STLibs//STM32_USB-Host-Device_Lib_V2.1.0/Libraries/STM32_USB_OTG_Driver/src/usb_core.c ****   max_hc_pkt_count = 256;
 981:../STLibs//STM32_USB-Host-Device_Lib_V2.1.0/Libraries/STM32_USB_OTG_Driver/src/usb_core.c ****   hctsiz.d32 = 0;
 982:../STLibs//STM32_USB-Host-Device_Lib_V2.1.0/Libraries/STM32_USB_OTG_Driver/src/usb_core.c ****   hcchar.d32 = 0;
 983:../STLibs//STM32_USB-Host-Device_Lib_V2.1.0/Libraries/STM32_USB_OTG_Driver/src/usb_core.c ****   intmsk.d32 = 0;
 984:../STLibs//STM32_USB-Host-Device_Lib_V2.1.0/Libraries/STM32_USB_OTG_Driver/src/usb_core.c ****   
 985:../STLibs//STM32_USB-Host-Device_Lib_V2.1.0/Libraries/STM32_USB_OTG_Driver/src/usb_core.c ****   /* Compute the expected number of packets associated to the transfer */
 986:../STLibs//STM32_USB-Host-Device_Lib_V2.1.0/Libraries/STM32_USB_OTG_Driver/src/usb_core.c ****   if (pdev->host.hc[hc_num].xfer_len > 0)
 987:../STLibs//STM32_USB-Host-Device_Lib_V2.1.0/Libraries/STM32_USB_OTG_Driver/src/usb_core.c ****   {
 988:../STLibs//STM32_USB-Host-Device_Lib_V2.1.0/Libraries/STM32_USB_OTG_Driver/src/usb_core.c ****     num_packets = (pdev->host.hc[hc_num].xfer_len + \
 989:../STLibs//STM32_USB-Host-Device_Lib_V2.1.0/Libraries/STM32_USB_OTG_Driver/src/usb_core.c ****       pdev->host.hc[hc_num].max_packet - 1) / pdev->host.hc[hc_num].max_packet;
 990:../STLibs//STM32_USB-Host-Device_Lib_V2.1.0/Libraries/STM32_USB_OTG_Driver/src/usb_core.c ****     
 991:../STLibs//STM32_USB-Host-Device_Lib_V2.1.0/Libraries/STM32_USB_OTG_Driver/src/usb_core.c ****     if (num_packets > max_hc_pkt_count)
 992:../STLibs//STM32_USB-Host-Device_Lib_V2.1.0/Libraries/STM32_USB_OTG_Driver/src/usb_core.c ****     {
 993:../STLibs//STM32_USB-Host-Device_Lib_V2.1.0/Libraries/STM32_USB_OTG_Driver/src/usb_core.c ****       num_packets = max_hc_pkt_count;
 994:../STLibs//STM32_USB-Host-Device_Lib_V2.1.0/Libraries/STM32_USB_OTG_Driver/src/usb_core.c ****       pdev->host.hc[hc_num].xfer_len = num_packets * \
 995:../STLibs//STM32_USB-Host-Device_Lib_V2.1.0/Libraries/STM32_USB_OTG_Driver/src/usb_core.c ****         pdev->host.hc[hc_num].max_packet;
 996:../STLibs//STM32_USB-Host-Device_Lib_V2.1.0/Libraries/STM32_USB_OTG_Driver/src/usb_core.c ****     }
 997:../STLibs//STM32_USB-Host-Device_Lib_V2.1.0/Libraries/STM32_USB_OTG_Driver/src/usb_core.c ****   }
 998:../STLibs//STM32_USB-Host-Device_Lib_V2.1.0/Libraries/STM32_USB_OTG_Driver/src/usb_core.c ****   else
 999:../STLibs//STM32_USB-Host-Device_Lib_V2.1.0/Libraries/STM32_USB_OTG_Driver/src/usb_core.c ****   {
1000:../STLibs//STM32_USB-Host-Device_Lib_V2.1.0/Libraries/STM32_USB_OTG_Driver/src/usb_core.c ****     num_packets = 1;
1001:../STLibs//STM32_USB-Host-Device_Lib_V2.1.0/Libraries/STM32_USB_OTG_Driver/src/usb_core.c ****   }
1002:../STLibs//STM32_USB-Host-Device_Lib_V2.1.0/Libraries/STM32_USB_OTG_Driver/src/usb_core.c ****   if (pdev->host.hc[hc_num].ep_is_in)
1003:../STLibs//STM32_USB-Host-Device_Lib_V2.1.0/Libraries/STM32_USB_OTG_Driver/src/usb_core.c ****   {
1004:../STLibs//STM32_USB-Host-Device_Lib_V2.1.0/Libraries/STM32_USB_OTG_Driver/src/usb_core.c ****     pdev->host.hc[hc_num].xfer_len = num_packets * \
1005:../STLibs//STM32_USB-Host-Device_Lib_V2.1.0/Libraries/STM32_USB_OTG_Driver/src/usb_core.c ****       pdev->host.hc[hc_num].max_packet;
1006:../STLibs//STM32_USB-Host-Device_Lib_V2.1.0/Libraries/STM32_USB_OTG_Driver/src/usb_core.c ****   }
1007:../STLibs//STM32_USB-Host-Device_Lib_V2.1.0/Libraries/STM32_USB_OTG_Driver/src/usb_core.c ****   /* Initialize the HCTSIZn register */
1008:../STLibs//STM32_USB-Host-Device_Lib_V2.1.0/Libraries/STM32_USB_OTG_Driver/src/usb_core.c ****   hctsiz.b.xfersize = pdev->host.hc[hc_num].xfer_len;
1009:../STLibs//STM32_USB-Host-Device_Lib_V2.1.0/Libraries/STM32_USB_OTG_Driver/src/usb_core.c ****   hctsiz.b.pktcnt = num_packets;
1010:../STLibs//STM32_USB-Host-Device_Lib_V2.1.0/Libraries/STM32_USB_OTG_Driver/src/usb_core.c ****   hctsiz.b.pid = pdev->host.hc[hc_num].data_pid;
1011:../STLibs//STM32_USB-Host-Device_Lib_V2.1.0/Libraries/STM32_USB_OTG_Driver/src/usb_core.c ****   USB_OTG_WRITE_REG32(&pdev->regs.HC_REGS[hc_num]->HCTSIZ, hctsiz.d32);
1012:../STLibs//STM32_USB-Host-Device_Lib_V2.1.0/Libraries/STM32_USB_OTG_Driver/src/usb_core.c ****   
1013:../STLibs//STM32_USB-Host-Device_Lib_V2.1.0/Libraries/STM32_USB_OTG_Driver/src/usb_core.c ****   if (pdev->cfg.dma_enable == 1)
1014:../STLibs//STM32_USB-Host-Device_Lib_V2.1.0/Libraries/STM32_USB_OTG_Driver/src/usb_core.c ****   {
1015:../STLibs//STM32_USB-Host-Device_Lib_V2.1.0/Libraries/STM32_USB_OTG_Driver/src/usb_core.c ****     USB_OTG_WRITE_REG32(&pdev->regs.HC_REGS[hc_num]->HCDMA, (unsigned int)pdev->host.hc[hc_num].xfe
1016:../STLibs//STM32_USB-Host-Device_Lib_V2.1.0/Libraries/STM32_USB_OTG_Driver/src/usb_core.c ****   }
1017:../STLibs//STM32_USB-Host-Device_Lib_V2.1.0/Libraries/STM32_USB_OTG_Driver/src/usb_core.c ****   
1018:../STLibs//STM32_USB-Host-Device_Lib_V2.1.0/Libraries/STM32_USB_OTG_Driver/src/usb_core.c ****   
1019:../STLibs//STM32_USB-Host-Device_Lib_V2.1.0/Libraries/STM32_USB_OTG_Driver/src/usb_core.c ****   hcchar.d32 = USB_OTG_READ_REG32(&pdev->regs.HC_REGS[hc_num]->HCCHAR);
1020:../STLibs//STM32_USB-Host-Device_Lib_V2.1.0/Libraries/STM32_USB_OTG_Driver/src/usb_core.c ****   hcchar.b.oddfrm = USB_OTG_IsEvenFrame(pdev);
1021:../STLibs//STM32_USB-Host-Device_Lib_V2.1.0/Libraries/STM32_USB_OTG_Driver/src/usb_core.c ****   
1022:../STLibs//STM32_USB-Host-Device_Lib_V2.1.0/Libraries/STM32_USB_OTG_Driver/src/usb_core.c ****   /* Set host channel enable */
1023:../STLibs//STM32_USB-Host-Device_Lib_V2.1.0/Libraries/STM32_USB_OTG_Driver/src/usb_core.c ****   hcchar.b.chen = 1;
1024:../STLibs//STM32_USB-Host-Device_Lib_V2.1.0/Libraries/STM32_USB_OTG_Driver/src/usb_core.c ****   hcchar.b.chdis = 0;
1025:../STLibs//STM32_USB-Host-Device_Lib_V2.1.0/Libraries/STM32_USB_OTG_Driver/src/usb_core.c ****   USB_OTG_WRITE_REG32(&pdev->regs.HC_REGS[hc_num]->HCCHAR, hcchar.d32);
1026:../STLibs//STM32_USB-Host-Device_Lib_V2.1.0/Libraries/STM32_USB_OTG_Driver/src/usb_core.c ****   
1027:../STLibs//STM32_USB-Host-Device_Lib_V2.1.0/Libraries/STM32_USB_OTG_Driver/src/usb_core.c ****   if (pdev->cfg.dma_enable == 0) /* Slave mode */
1028:../STLibs//STM32_USB-Host-Device_Lib_V2.1.0/Libraries/STM32_USB_OTG_Driver/src/usb_core.c ****   {  
1029:../STLibs//STM32_USB-Host-Device_Lib_V2.1.0/Libraries/STM32_USB_OTG_Driver/src/usb_core.c ****     if((pdev->host.hc[hc_num].ep_is_in == 0) && 
1030:../STLibs//STM32_USB-Host-Device_Lib_V2.1.0/Libraries/STM32_USB_OTG_Driver/src/usb_core.c ****        (pdev->host.hc[hc_num].xfer_len > 0))
1031:../STLibs//STM32_USB-Host-Device_Lib_V2.1.0/Libraries/STM32_USB_OTG_Driver/src/usb_core.c ****     {
1032:../STLibs//STM32_USB-Host-Device_Lib_V2.1.0/Libraries/STM32_USB_OTG_Driver/src/usb_core.c ****       switch(pdev->host.hc[hc_num].ep_type) 
1033:../STLibs//STM32_USB-Host-Device_Lib_V2.1.0/Libraries/STM32_USB_OTG_Driver/src/usb_core.c ****       {
1034:../STLibs//STM32_USB-Host-Device_Lib_V2.1.0/Libraries/STM32_USB_OTG_Driver/src/usb_core.c ****         /* Non periodic transfer */
1035:../STLibs//STM32_USB-Host-Device_Lib_V2.1.0/Libraries/STM32_USB_OTG_Driver/src/usb_core.c ****       case EP_TYPE_CTRL:
1036:../STLibs//STM32_USB-Host-Device_Lib_V2.1.0/Libraries/STM32_USB_OTG_Driver/src/usb_core.c ****       case EP_TYPE_BULK:
1037:../STLibs//STM32_USB-Host-Device_Lib_V2.1.0/Libraries/STM32_USB_OTG_Driver/src/usb_core.c ****         
1038:../STLibs//STM32_USB-Host-Device_Lib_V2.1.0/Libraries/STM32_USB_OTG_Driver/src/usb_core.c ****         hnptxsts.d32 = USB_OTG_READ_REG32(&pdev->regs.GREGS->HNPTXSTS);
1039:../STLibs//STM32_USB-Host-Device_Lib_V2.1.0/Libraries/STM32_USB_OTG_Driver/src/usb_core.c ****         len_words = (pdev->host.hc[hc_num].xfer_len + 3) / 4;
1040:../STLibs//STM32_USB-Host-Device_Lib_V2.1.0/Libraries/STM32_USB_OTG_Driver/src/usb_core.c ****         
1041:../STLibs//STM32_USB-Host-Device_Lib_V2.1.0/Libraries/STM32_USB_OTG_Driver/src/usb_core.c ****         /* check if there is enough space in FIFO space */
1042:../STLibs//STM32_USB-Host-Device_Lib_V2.1.0/Libraries/STM32_USB_OTG_Driver/src/usb_core.c ****         if(len_words > hnptxsts.b.nptxfspcavail)
1043:../STLibs//STM32_USB-Host-Device_Lib_V2.1.0/Libraries/STM32_USB_OTG_Driver/src/usb_core.c ****         {
1044:../STLibs//STM32_USB-Host-Device_Lib_V2.1.0/Libraries/STM32_USB_OTG_Driver/src/usb_core.c ****           /* need to process data in nptxfempty interrupt */
1045:../STLibs//STM32_USB-Host-Device_Lib_V2.1.0/Libraries/STM32_USB_OTG_Driver/src/usb_core.c ****           intmsk.b.nptxfempty = 1;
1046:../STLibs//STM32_USB-Host-Device_Lib_V2.1.0/Libraries/STM32_USB_OTG_Driver/src/usb_core.c ****           USB_OTG_MODIFY_REG32( &pdev->regs.GREGS->GINTMSK, 0, intmsk.d32);  
1047:../STLibs//STM32_USB-Host-Device_Lib_V2.1.0/Libraries/STM32_USB_OTG_Driver/src/usb_core.c ****         }
1048:../STLibs//STM32_USB-Host-Device_Lib_V2.1.0/Libraries/STM32_USB_OTG_Driver/src/usb_core.c ****         
1049:../STLibs//STM32_USB-Host-Device_Lib_V2.1.0/Libraries/STM32_USB_OTG_Driver/src/usb_core.c ****         break;
1050:../STLibs//STM32_USB-Host-Device_Lib_V2.1.0/Libraries/STM32_USB_OTG_Driver/src/usb_core.c ****         /* Periodic transfer */
1051:../STLibs//STM32_USB-Host-Device_Lib_V2.1.0/Libraries/STM32_USB_OTG_Driver/src/usb_core.c ****       case EP_TYPE_INTR:
1052:../STLibs//STM32_USB-Host-Device_Lib_V2.1.0/Libraries/STM32_USB_OTG_Driver/src/usb_core.c ****       case EP_TYPE_ISOC:
1053:../STLibs//STM32_USB-Host-Device_Lib_V2.1.0/Libraries/STM32_USB_OTG_Driver/src/usb_core.c ****         hptxsts.d32 = USB_OTG_READ_REG32(&pdev->regs.HREGS->HPTXSTS);
1054:../STLibs//STM32_USB-Host-Device_Lib_V2.1.0/Libraries/STM32_USB_OTG_Driver/src/usb_core.c ****         len_words = (pdev->host.hc[hc_num].xfer_len + 3) / 4;
1055:../STLibs//STM32_USB-Host-Device_Lib_V2.1.0/Libraries/STM32_USB_OTG_Driver/src/usb_core.c ****         /* check if there is enough space in FIFO space */
1056:../STLibs//STM32_USB-Host-Device_Lib_V2.1.0/Libraries/STM32_USB_OTG_Driver/src/usb_core.c ****         if(len_words > hptxsts.b.ptxfspcavail) /* split the transfer */
1057:../STLibs//STM32_USB-Host-Device_Lib_V2.1.0/Libraries/STM32_USB_OTG_Driver/src/usb_core.c ****         {
1058:../STLibs//STM32_USB-Host-Device_Lib_V2.1.0/Libraries/STM32_USB_OTG_Driver/src/usb_core.c ****           /* need to process data in ptxfempty interrupt */
1059:../STLibs//STM32_USB-Host-Device_Lib_V2.1.0/Libraries/STM32_USB_OTG_Driver/src/usb_core.c ****           intmsk.b.ptxfempty = 1;
1060:../STLibs//STM32_USB-Host-Device_Lib_V2.1.0/Libraries/STM32_USB_OTG_Driver/src/usb_core.c ****           USB_OTG_MODIFY_REG32( &pdev->regs.GREGS->GINTMSK, 0, intmsk.d32);  
1061:../STLibs//STM32_USB-Host-Device_Lib_V2.1.0/Libraries/STM32_USB_OTG_Driver/src/usb_core.c ****         }
1062:../STLibs//STM32_USB-Host-Device_Lib_V2.1.0/Libraries/STM32_USB_OTG_Driver/src/usb_core.c ****         break;
1063:../STLibs//STM32_USB-Host-Device_Lib_V2.1.0/Libraries/STM32_USB_OTG_Driver/src/usb_core.c ****         
1064:../STLibs//STM32_USB-Host-Device_Lib_V2.1.0/Libraries/STM32_USB_OTG_Driver/src/usb_core.c ****       default:
1065:../STLibs//STM32_USB-Host-Device_Lib_V2.1.0/Libraries/STM32_USB_OTG_Driver/src/usb_core.c ****         break;
1066:../STLibs//STM32_USB-Host-Device_Lib_V2.1.0/Libraries/STM32_USB_OTG_Driver/src/usb_core.c ****       }
1067:../STLibs//STM32_USB-Host-Device_Lib_V2.1.0/Libraries/STM32_USB_OTG_Driver/src/usb_core.c ****       
1068:../STLibs//STM32_USB-Host-Device_Lib_V2.1.0/Libraries/STM32_USB_OTG_Driver/src/usb_core.c ****       /* Write packet into the Tx FIFO. */
1069:../STLibs//STM32_USB-Host-Device_Lib_V2.1.0/Libraries/STM32_USB_OTG_Driver/src/usb_core.c ****       USB_OTG_WritePacket(pdev, 
1070:../STLibs//STM32_USB-Host-Device_Lib_V2.1.0/Libraries/STM32_USB_OTG_Driver/src/usb_core.c ****                           pdev->host.hc[hc_num].xfer_buff , 
1071:../STLibs//STM32_USB-Host-Device_Lib_V2.1.0/Libraries/STM32_USB_OTG_Driver/src/usb_core.c ****                           hc_num, pdev->host.hc[hc_num].xfer_len);
1072:../STLibs//STM32_USB-Host-Device_Lib_V2.1.0/Libraries/STM32_USB_OTG_Driver/src/usb_core.c ****     }
1073:../STLibs//STM32_USB-Host-Device_Lib_V2.1.0/Libraries/STM32_USB_OTG_Driver/src/usb_core.c ****   }
1074:../STLibs//STM32_USB-Host-Device_Lib_V2.1.0/Libraries/STM32_USB_OTG_Driver/src/usb_core.c ****   return status;
1075:../STLibs//STM32_USB-Host-Device_Lib_V2.1.0/Libraries/STM32_USB_OTG_Driver/src/usb_core.c **** }
1076:../STLibs//STM32_USB-Host-Device_Lib_V2.1.0/Libraries/STM32_USB_OTG_Driver/src/usb_core.c **** 
1077:../STLibs//STM32_USB-Host-Device_Lib_V2.1.0/Libraries/STM32_USB_OTG_Driver/src/usb_core.c **** 
1078:../STLibs//STM32_USB-Host-Device_Lib_V2.1.0/Libraries/STM32_USB_OTG_Driver/src/usb_core.c **** /**
1079:../STLibs//STM32_USB-Host-Device_Lib_V2.1.0/Libraries/STM32_USB_OTG_Driver/src/usb_core.c **** * @brief  USB_OTG_HC_Halt : Halt channel
1080:../STLibs//STM32_USB-Host-Device_Lib_V2.1.0/Libraries/STM32_USB_OTG_Driver/src/usb_core.c **** * @param  pdev : Selected device
1081:../STLibs//STM32_USB-Host-Device_Lib_V2.1.0/Libraries/STM32_USB_OTG_Driver/src/usb_core.c **** * @param  hc_num : channel number
1082:../STLibs//STM32_USB-Host-Device_Lib_V2.1.0/Libraries/STM32_USB_OTG_Driver/src/usb_core.c **** * @retval USB_OTG_STS : status
1083:../STLibs//STM32_USB-Host-Device_Lib_V2.1.0/Libraries/STM32_USB_OTG_Driver/src/usb_core.c **** */
1084:../STLibs//STM32_USB-Host-Device_Lib_V2.1.0/Libraries/STM32_USB_OTG_Driver/src/usb_core.c **** USB_OTG_STS USB_OTG_HC_Halt(USB_OTG_CORE_HANDLE *pdev , uint8_t hc_num)
1085:../STLibs//STM32_USB-Host-Device_Lib_V2.1.0/Libraries/STM32_USB_OTG_Driver/src/usb_core.c **** {
1086:../STLibs//STM32_USB-Host-Device_Lib_V2.1.0/Libraries/STM32_USB_OTG_Driver/src/usb_core.c ****   USB_OTG_STS status = USB_OTG_OK;
1087:../STLibs//STM32_USB-Host-Device_Lib_V2.1.0/Libraries/STM32_USB_OTG_Driver/src/usb_core.c ****   USB_OTG_HNPTXSTS_TypeDef            nptxsts;
1088:../STLibs//STM32_USB-Host-Device_Lib_V2.1.0/Libraries/STM32_USB_OTG_Driver/src/usb_core.c ****   USB_OTG_HPTXSTS_TypeDef             hptxsts;
1089:../STLibs//STM32_USB-Host-Device_Lib_V2.1.0/Libraries/STM32_USB_OTG_Driver/src/usb_core.c ****   USB_OTG_HCCHAR_TypeDef              hcchar;
1090:../STLibs//STM32_USB-Host-Device_Lib_V2.1.0/Libraries/STM32_USB_OTG_Driver/src/usb_core.c ****   
1091:../STLibs//STM32_USB-Host-Device_Lib_V2.1.0/Libraries/STM32_USB_OTG_Driver/src/usb_core.c ****   nptxsts.d32 = 0;
1092:../STLibs//STM32_USB-Host-Device_Lib_V2.1.0/Libraries/STM32_USB_OTG_Driver/src/usb_core.c ****   hptxsts.d32 = 0;
1093:../STLibs//STM32_USB-Host-Device_Lib_V2.1.0/Libraries/STM32_USB_OTG_Driver/src/usb_core.c ****   hcchar.d32 = USB_OTG_READ_REG32(&pdev->regs.HC_REGS[hc_num]->HCCHAR);
1094:../STLibs//STM32_USB-Host-Device_Lib_V2.1.0/Libraries/STM32_USB_OTG_Driver/src/usb_core.c ****   hcchar.b.chen = 1;
1095:../STLibs//STM32_USB-Host-Device_Lib_V2.1.0/Libraries/STM32_USB_OTG_Driver/src/usb_core.c ****   hcchar.b.chdis = 1;
1096:../STLibs//STM32_USB-Host-Device_Lib_V2.1.0/Libraries/STM32_USB_OTG_Driver/src/usb_core.c ****   
1097:../STLibs//STM32_USB-Host-Device_Lib_V2.1.0/Libraries/STM32_USB_OTG_Driver/src/usb_core.c ****   /* Check for space in the request queue to issue the halt. */
1098:../STLibs//STM32_USB-Host-Device_Lib_V2.1.0/Libraries/STM32_USB_OTG_Driver/src/usb_core.c ****   if (hcchar.b.eptype == HCCHAR_CTRL || hcchar.b.eptype == HCCHAR_BULK)
1099:../STLibs//STM32_USB-Host-Device_Lib_V2.1.0/Libraries/STM32_USB_OTG_Driver/src/usb_core.c ****   {
1100:../STLibs//STM32_USB-Host-Device_Lib_V2.1.0/Libraries/STM32_USB_OTG_Driver/src/usb_core.c ****     nptxsts.d32 = USB_OTG_READ_REG32(&pdev->regs.GREGS->HNPTXSTS);
1101:../STLibs//STM32_USB-Host-Device_Lib_V2.1.0/Libraries/STM32_USB_OTG_Driver/src/usb_core.c ****     if (nptxsts.b.nptxqspcavail == 0)
1102:../STLibs//STM32_USB-Host-Device_Lib_V2.1.0/Libraries/STM32_USB_OTG_Driver/src/usb_core.c ****     {
1103:../STLibs//STM32_USB-Host-Device_Lib_V2.1.0/Libraries/STM32_USB_OTG_Driver/src/usb_core.c ****       hcchar.b.chen = 0;
1104:../STLibs//STM32_USB-Host-Device_Lib_V2.1.0/Libraries/STM32_USB_OTG_Driver/src/usb_core.c ****     }
1105:../STLibs//STM32_USB-Host-Device_Lib_V2.1.0/Libraries/STM32_USB_OTG_Driver/src/usb_core.c ****   }
1106:../STLibs//STM32_USB-Host-Device_Lib_V2.1.0/Libraries/STM32_USB_OTG_Driver/src/usb_core.c ****   else
1107:../STLibs//STM32_USB-Host-Device_Lib_V2.1.0/Libraries/STM32_USB_OTG_Driver/src/usb_core.c ****   {
1108:../STLibs//STM32_USB-Host-Device_Lib_V2.1.0/Libraries/STM32_USB_OTG_Driver/src/usb_core.c ****     hptxsts.d32 = USB_OTG_READ_REG32(&pdev->regs.HREGS->HPTXSTS);
1109:../STLibs//STM32_USB-Host-Device_Lib_V2.1.0/Libraries/STM32_USB_OTG_Driver/src/usb_core.c ****     if (hptxsts.b.ptxqspcavail == 0)
1110:../STLibs//STM32_USB-Host-Device_Lib_V2.1.0/Libraries/STM32_USB_OTG_Driver/src/usb_core.c ****     {
1111:../STLibs//STM32_USB-Host-Device_Lib_V2.1.0/Libraries/STM32_USB_OTG_Driver/src/usb_core.c ****       hcchar.b.chen = 0;
1112:../STLibs//STM32_USB-Host-Device_Lib_V2.1.0/Libraries/STM32_USB_OTG_Driver/src/usb_core.c ****     }
1113:../STLibs//STM32_USB-Host-Device_Lib_V2.1.0/Libraries/STM32_USB_OTG_Driver/src/usb_core.c ****   }
1114:../STLibs//STM32_USB-Host-Device_Lib_V2.1.0/Libraries/STM32_USB_OTG_Driver/src/usb_core.c ****   USB_OTG_WRITE_REG32(&pdev->regs.HC_REGS[hc_num]->HCCHAR, hcchar.d32);
1115:../STLibs//STM32_USB-Host-Device_Lib_V2.1.0/Libraries/STM32_USB_OTG_Driver/src/usb_core.c ****   return status;
1116:../STLibs//STM32_USB-Host-Device_Lib_V2.1.0/Libraries/STM32_USB_OTG_Driver/src/usb_core.c **** }
1117:../STLibs//STM32_USB-Host-Device_Lib_V2.1.0/Libraries/STM32_USB_OTG_Driver/src/usb_core.c **** 
1118:../STLibs//STM32_USB-Host-Device_Lib_V2.1.0/Libraries/STM32_USB_OTG_Driver/src/usb_core.c **** /**
1119:../STLibs//STM32_USB-Host-Device_Lib_V2.1.0/Libraries/STM32_USB_OTG_Driver/src/usb_core.c **** * @brief  Issue a ping token
1120:../STLibs//STM32_USB-Host-Device_Lib_V2.1.0/Libraries/STM32_USB_OTG_Driver/src/usb_core.c **** * @param  None
1121:../STLibs//STM32_USB-Host-Device_Lib_V2.1.0/Libraries/STM32_USB_OTG_Driver/src/usb_core.c **** * @retval : None
1122:../STLibs//STM32_USB-Host-Device_Lib_V2.1.0/Libraries/STM32_USB_OTG_Driver/src/usb_core.c **** */
1123:../STLibs//STM32_USB-Host-Device_Lib_V2.1.0/Libraries/STM32_USB_OTG_Driver/src/usb_core.c **** USB_OTG_STS USB_OTG_HC_DoPing(USB_OTG_CORE_HANDLE *pdev , uint8_t hc_num)
1124:../STLibs//STM32_USB-Host-Device_Lib_V2.1.0/Libraries/STM32_USB_OTG_Driver/src/usb_core.c **** {
1125:../STLibs//STM32_USB-Host-Device_Lib_V2.1.0/Libraries/STM32_USB_OTG_Driver/src/usb_core.c ****   USB_OTG_STS               status = USB_OTG_OK;
1126:../STLibs//STM32_USB-Host-Device_Lib_V2.1.0/Libraries/STM32_USB_OTG_Driver/src/usb_core.c ****   USB_OTG_HCCHAR_TypeDef    hcchar;
1127:../STLibs//STM32_USB-Host-Device_Lib_V2.1.0/Libraries/STM32_USB_OTG_Driver/src/usb_core.c ****   USB_OTG_HCTSIZn_TypeDef   hctsiz;  
1128:../STLibs//STM32_USB-Host-Device_Lib_V2.1.0/Libraries/STM32_USB_OTG_Driver/src/usb_core.c ****   
1129:../STLibs//STM32_USB-Host-Device_Lib_V2.1.0/Libraries/STM32_USB_OTG_Driver/src/usb_core.c ****   hctsiz.d32 = 0;
1130:../STLibs//STM32_USB-Host-Device_Lib_V2.1.0/Libraries/STM32_USB_OTG_Driver/src/usb_core.c ****   hctsiz.b.dopng = 1;
1131:../STLibs//STM32_USB-Host-Device_Lib_V2.1.0/Libraries/STM32_USB_OTG_Driver/src/usb_core.c ****   hctsiz.b.pktcnt = 1;
1132:../STLibs//STM32_USB-Host-Device_Lib_V2.1.0/Libraries/STM32_USB_OTG_Driver/src/usb_core.c ****   USB_OTG_WRITE_REG32(&pdev->regs.HC_REGS[hc_num]->HCTSIZ, hctsiz.d32);
1133:../STLibs//STM32_USB-Host-Device_Lib_V2.1.0/Libraries/STM32_USB_OTG_Driver/src/usb_core.c ****   
1134:../STLibs//STM32_USB-Host-Device_Lib_V2.1.0/Libraries/STM32_USB_OTG_Driver/src/usb_core.c ****   hcchar.d32 = USB_OTG_READ_REG32(&pdev->regs.HC_REGS[hc_num]->HCCHAR);
1135:../STLibs//STM32_USB-Host-Device_Lib_V2.1.0/Libraries/STM32_USB_OTG_Driver/src/usb_core.c ****   hcchar.b.chen = 1;
1136:../STLibs//STM32_USB-Host-Device_Lib_V2.1.0/Libraries/STM32_USB_OTG_Driver/src/usb_core.c ****   hcchar.b.chdis = 0;
1137:../STLibs//STM32_USB-Host-Device_Lib_V2.1.0/Libraries/STM32_USB_OTG_Driver/src/usb_core.c ****   USB_OTG_WRITE_REG32(&pdev->regs.HC_REGS[hc_num]->HCCHAR, hcchar.d32);
1138:../STLibs//STM32_USB-Host-Device_Lib_V2.1.0/Libraries/STM32_USB_OTG_Driver/src/usb_core.c ****   return status;  
1139:../STLibs//STM32_USB-Host-Device_Lib_V2.1.0/Libraries/STM32_USB_OTG_Driver/src/usb_core.c **** }
1140:../STLibs//STM32_USB-Host-Device_Lib_V2.1.0/Libraries/STM32_USB_OTG_Driver/src/usb_core.c **** 
1141:../STLibs//STM32_USB-Host-Device_Lib_V2.1.0/Libraries/STM32_USB_OTG_Driver/src/usb_core.c **** /**
1142:../STLibs//STM32_USB-Host-Device_Lib_V2.1.0/Libraries/STM32_USB_OTG_Driver/src/usb_core.c **** * @brief  Stop the device and clean up fifo's
1143:../STLibs//STM32_USB-Host-Device_Lib_V2.1.0/Libraries/STM32_USB_OTG_Driver/src/usb_core.c **** * @param  None
1144:../STLibs//STM32_USB-Host-Device_Lib_V2.1.0/Libraries/STM32_USB_OTG_Driver/src/usb_core.c **** * @retval : None
1145:../STLibs//STM32_USB-Host-Device_Lib_V2.1.0/Libraries/STM32_USB_OTG_Driver/src/usb_core.c **** */
1146:../STLibs//STM32_USB-Host-Device_Lib_V2.1.0/Libraries/STM32_USB_OTG_Driver/src/usb_core.c **** void USB_OTG_StopHost(USB_OTG_CORE_HANDLE *pdev)
1147:../STLibs//STM32_USB-Host-Device_Lib_V2.1.0/Libraries/STM32_USB_OTG_Driver/src/usb_core.c **** {
1148:../STLibs//STM32_USB-Host-Device_Lib_V2.1.0/Libraries/STM32_USB_OTG_Driver/src/usb_core.c ****   USB_OTG_HCCHAR_TypeDef  hcchar;
1149:../STLibs//STM32_USB-Host-Device_Lib_V2.1.0/Libraries/STM32_USB_OTG_Driver/src/usb_core.c ****   uint32_t                i;
1150:../STLibs//STM32_USB-Host-Device_Lib_V2.1.0/Libraries/STM32_USB_OTG_Driver/src/usb_core.c ****   
1151:../STLibs//STM32_USB-Host-Device_Lib_V2.1.0/Libraries/STM32_USB_OTG_Driver/src/usb_core.c ****   USB_OTG_WRITE_REG32(&pdev->regs.HREGS->HAINTMSK , 0);
1152:../STLibs//STM32_USB-Host-Device_Lib_V2.1.0/Libraries/STM32_USB_OTG_Driver/src/usb_core.c ****   USB_OTG_WRITE_REG32(&pdev->regs.HREGS->HAINT,      0xFFFFFFFF);
1153:../STLibs//STM32_USB-Host-Device_Lib_V2.1.0/Libraries/STM32_USB_OTG_Driver/src/usb_core.c ****   /* Flush out any leftover queued requests. */
1154:../STLibs//STM32_USB-Host-Device_Lib_V2.1.0/Libraries/STM32_USB_OTG_Driver/src/usb_core.c ****   
1155:../STLibs//STM32_USB-Host-Device_Lib_V2.1.0/Libraries/STM32_USB_OTG_Driver/src/usb_core.c ****   for (i = 0; i < pdev->cfg.host_channels; i++)
1156:../STLibs//STM32_USB-Host-Device_Lib_V2.1.0/Libraries/STM32_USB_OTG_Driver/src/usb_core.c ****   {
1157:../STLibs//STM32_USB-Host-Device_Lib_V2.1.0/Libraries/STM32_USB_OTG_Driver/src/usb_core.c ****     hcchar.d32 = USB_OTG_READ_REG32(&pdev->regs.HC_REGS[i]->HCCHAR);
1158:../STLibs//STM32_USB-Host-Device_Lib_V2.1.0/Libraries/STM32_USB_OTG_Driver/src/usb_core.c ****     hcchar.b.chen = 0;
1159:../STLibs//STM32_USB-Host-Device_Lib_V2.1.0/Libraries/STM32_USB_OTG_Driver/src/usb_core.c ****     hcchar.b.chdis = 1;
1160:../STLibs//STM32_USB-Host-Device_Lib_V2.1.0/Libraries/STM32_USB_OTG_Driver/src/usb_core.c ****     hcchar.b.epdir = 0;
1161:../STLibs//STM32_USB-Host-Device_Lib_V2.1.0/Libraries/STM32_USB_OTG_Driver/src/usb_core.c ****     USB_OTG_WRITE_REG32(&pdev->regs.HC_REGS[i]->HCCHAR, hcchar.d32);
1162:../STLibs//STM32_USB-Host-Device_Lib_V2.1.0/Libraries/STM32_USB_OTG_Driver/src/usb_core.c ****   }
1163:../STLibs//STM32_USB-Host-Device_Lib_V2.1.0/Libraries/STM32_USB_OTG_Driver/src/usb_core.c ****   
1164:../STLibs//STM32_USB-Host-Device_Lib_V2.1.0/Libraries/STM32_USB_OTG_Driver/src/usb_core.c ****   /* Flush the FIFO */
1165:../STLibs//STM32_USB-Host-Device_Lib_V2.1.0/Libraries/STM32_USB_OTG_Driver/src/usb_core.c ****   USB_OTG_FlushRxFifo(pdev);
1166:../STLibs//STM32_USB-Host-Device_Lib_V2.1.0/Libraries/STM32_USB_OTG_Driver/src/usb_core.c ****   USB_OTG_FlushTxFifo(pdev ,  0x10 );  
1167:../STLibs//STM32_USB-Host-Device_Lib_V2.1.0/Libraries/STM32_USB_OTG_Driver/src/usb_core.c **** }
1168:../STLibs//STM32_USB-Host-Device_Lib_V2.1.0/Libraries/STM32_USB_OTG_Driver/src/usb_core.c **** #endif
1169:../STLibs//STM32_USB-Host-Device_Lib_V2.1.0/Libraries/STM32_USB_OTG_Driver/src/usb_core.c **** #ifdef USE_DEVICE_MODE
1170:../STLibs//STM32_USB-Host-Device_Lib_V2.1.0/Libraries/STM32_USB_OTG_Driver/src/usb_core.c **** /*         PCD Core Layer       */
1171:../STLibs//STM32_USB-Host-Device_Lib_V2.1.0/Libraries/STM32_USB_OTG_Driver/src/usb_core.c **** 
1172:../STLibs//STM32_USB-Host-Device_Lib_V2.1.0/Libraries/STM32_USB_OTG_Driver/src/usb_core.c **** /**
1173:../STLibs//STM32_USB-Host-Device_Lib_V2.1.0/Libraries/STM32_USB_OTG_Driver/src/usb_core.c **** * @brief  USB_OTG_InitDevSpeed :Initializes the DevSpd field of DCFG register 
1174:../STLibs//STM32_USB-Host-Device_Lib_V2.1.0/Libraries/STM32_USB_OTG_Driver/src/usb_core.c **** *         depending the PHY type and the enumeration speed of the device.
1175:../STLibs//STM32_USB-Host-Device_Lib_V2.1.0/Libraries/STM32_USB_OTG_Driver/src/usb_core.c **** * @param  pdev : Selected device
1176:../STLibs//STM32_USB-Host-Device_Lib_V2.1.0/Libraries/STM32_USB_OTG_Driver/src/usb_core.c **** * @retval : None
1177:../STLibs//STM32_USB-Host-Device_Lib_V2.1.0/Libraries/STM32_USB_OTG_Driver/src/usb_core.c **** */
1178:../STLibs//STM32_USB-Host-Device_Lib_V2.1.0/Libraries/STM32_USB_OTG_Driver/src/usb_core.c **** void USB_OTG_InitDevSpeed(USB_OTG_CORE_HANDLE *pdev , uint8_t speed)
1179:../STLibs//STM32_USB-Host-Device_Lib_V2.1.0/Libraries/STM32_USB_OTG_Driver/src/usb_core.c **** {
 903              		.loc 1 1179 0
 904              		.cfi_startproc
 905              		@ args = 0, pretend = 0, frame = 0
 906              		@ frame_needed = 0, uses_anonymous_args = 0
 907              		@ link register save eliminated.
 908              	.LVL100:
1180:../STLibs//STM32_USB-Host-Device_Lib_V2.1.0/Libraries/STM32_USB_OTG_Driver/src/usb_core.c ****   USB_OTG_DCFG_TypeDef   dcfg;
1181:../STLibs//STM32_USB-Host-Device_Lib_V2.1.0/Libraries/STM32_USB_OTG_Driver/src/usb_core.c ****   
1182:../STLibs//STM32_USB-Host-Device_Lib_V2.1.0/Libraries/STM32_USB_OTG_Driver/src/usb_core.c ****   dcfg.d32 = USB_OTG_READ_REG32(&pdev->regs.DREGS->DCFG);
 909              		.loc 1 1182 0
 910 02d0 0269     		ldr	r2, [r0, #16]
 911 02d2 1368     		ldr	r3, [r2]
1183:../STLibs//STM32_USB-Host-Device_Lib_V2.1.0/Libraries/STM32_USB_OTG_Driver/src/usb_core.c ****   dcfg.b.devspd = speed;
 912              		.loc 1 1183 0
 913 02d4 61F30103 		bfi	r3, r1, #0, #2
 914              	.LVL101:
1184:../STLibs//STM32_USB-Host-Device_Lib_V2.1.0/Libraries/STM32_USB_OTG_Driver/src/usb_core.c ****   USB_OTG_WRITE_REG32(&pdev->regs.DREGS->DCFG, dcfg.d32);
 915              		.loc 1 1184 0
 916 02d8 1360     		str	r3, [r2]
1185:../STLibs//STM32_USB-Host-Device_Lib_V2.1.0/Libraries/STM32_USB_OTG_Driver/src/usb_core.c **** }
 917              		.loc 1 1185 0
 918 02da 7047     		bx	lr
 919              		.cfi_endproc
 920              	.LFE126:
 922              		.align	1
 923              		.global	USB_OTG_EnableDevInt
 924              		.syntax unified
 925              		.thumb
 926              		.thumb_func
 927              		.fpu fpv4-sp-d16
 929              	USB_OTG_EnableDevInt:
 930              	.LFB128:
1186:../STLibs//STM32_USB-Host-Device_Lib_V2.1.0/Libraries/STM32_USB_OTG_Driver/src/usb_core.c **** 
1187:../STLibs//STM32_USB-Host-Device_Lib_V2.1.0/Libraries/STM32_USB_OTG_Driver/src/usb_core.c **** 
1188:../STLibs//STM32_USB-Host-Device_Lib_V2.1.0/Libraries/STM32_USB_OTG_Driver/src/usb_core.c **** /**
1189:../STLibs//STM32_USB-Host-Device_Lib_V2.1.0/Libraries/STM32_USB_OTG_Driver/src/usb_core.c **** * @brief  USB_OTG_CoreInitDev : Initializes the USB_OTG controller registers 
1190:../STLibs//STM32_USB-Host-Device_Lib_V2.1.0/Libraries/STM32_USB_OTG_Driver/src/usb_core.c **** *         for device mode
1191:../STLibs//STM32_USB-Host-Device_Lib_V2.1.0/Libraries/STM32_USB_OTG_Driver/src/usb_core.c **** * @param  pdev : Selected device
1192:../STLibs//STM32_USB-Host-Device_Lib_V2.1.0/Libraries/STM32_USB_OTG_Driver/src/usb_core.c **** * @retval USB_OTG_STS : status
1193:../STLibs//STM32_USB-Host-Device_Lib_V2.1.0/Libraries/STM32_USB_OTG_Driver/src/usb_core.c **** */
1194:../STLibs//STM32_USB-Host-Device_Lib_V2.1.0/Libraries/STM32_USB_OTG_Driver/src/usb_core.c **** USB_OTG_STS USB_OTG_CoreInitDev (USB_OTG_CORE_HANDLE *pdev)
1195:../STLibs//STM32_USB-Host-Device_Lib_V2.1.0/Libraries/STM32_USB_OTG_Driver/src/usb_core.c **** {
1196:../STLibs//STM32_USB-Host-Device_Lib_V2.1.0/Libraries/STM32_USB_OTG_Driver/src/usb_core.c ****   USB_OTG_STS             status       = USB_OTG_OK;
1197:../STLibs//STM32_USB-Host-Device_Lib_V2.1.0/Libraries/STM32_USB_OTG_Driver/src/usb_core.c ****   USB_OTG_DEPCTL_TypeDef  depctl;
1198:../STLibs//STM32_USB-Host-Device_Lib_V2.1.0/Libraries/STM32_USB_OTG_Driver/src/usb_core.c ****   uint32_t i;
1199:../STLibs//STM32_USB-Host-Device_Lib_V2.1.0/Libraries/STM32_USB_OTG_Driver/src/usb_core.c ****   USB_OTG_DCFG_TypeDef    dcfg;
1200:../STLibs//STM32_USB-Host-Device_Lib_V2.1.0/Libraries/STM32_USB_OTG_Driver/src/usb_core.c ****   USB_OTG_FSIZ_TypeDef    nptxfifosize;
1201:../STLibs//STM32_USB-Host-Device_Lib_V2.1.0/Libraries/STM32_USB_OTG_Driver/src/usb_core.c ****   USB_OTG_FSIZ_TypeDef    txfifosize;
1202:../STLibs//STM32_USB-Host-Device_Lib_V2.1.0/Libraries/STM32_USB_OTG_Driver/src/usb_core.c ****   USB_OTG_DIEPMSK_TypeDef msk;
1203:../STLibs//STM32_USB-Host-Device_Lib_V2.1.0/Libraries/STM32_USB_OTG_Driver/src/usb_core.c ****   USB_OTG_DTHRCTL_TypeDef dthrctl;  
1204:../STLibs//STM32_USB-Host-Device_Lib_V2.1.0/Libraries/STM32_USB_OTG_Driver/src/usb_core.c ****   
1205:../STLibs//STM32_USB-Host-Device_Lib_V2.1.0/Libraries/STM32_USB_OTG_Driver/src/usb_core.c ****   depctl.d32 = 0;
1206:../STLibs//STM32_USB-Host-Device_Lib_V2.1.0/Libraries/STM32_USB_OTG_Driver/src/usb_core.c ****   dcfg.d32 = 0;
1207:../STLibs//STM32_USB-Host-Device_Lib_V2.1.0/Libraries/STM32_USB_OTG_Driver/src/usb_core.c ****   nptxfifosize.d32 = 0;
1208:../STLibs//STM32_USB-Host-Device_Lib_V2.1.0/Libraries/STM32_USB_OTG_Driver/src/usb_core.c ****   txfifosize.d32 = 0;
1209:../STLibs//STM32_USB-Host-Device_Lib_V2.1.0/Libraries/STM32_USB_OTG_Driver/src/usb_core.c ****   msk.d32 = 0;
1210:../STLibs//STM32_USB-Host-Device_Lib_V2.1.0/Libraries/STM32_USB_OTG_Driver/src/usb_core.c ****   
1211:../STLibs//STM32_USB-Host-Device_Lib_V2.1.0/Libraries/STM32_USB_OTG_Driver/src/usb_core.c ****   /* Restart the Phy Clock */
1212:../STLibs//STM32_USB-Host-Device_Lib_V2.1.0/Libraries/STM32_USB_OTG_Driver/src/usb_core.c ****   USB_OTG_WRITE_REG32(pdev->regs.PCGCCTL, 0);
1213:../STLibs//STM32_USB-Host-Device_Lib_V2.1.0/Libraries/STM32_USB_OTG_Driver/src/usb_core.c ****   /* Device configuration register */
1214:../STLibs//STM32_USB-Host-Device_Lib_V2.1.0/Libraries/STM32_USB_OTG_Driver/src/usb_core.c ****   dcfg.d32 = USB_OTG_READ_REG32( &pdev->regs.DREGS->DCFG);
1215:../STLibs//STM32_USB-Host-Device_Lib_V2.1.0/Libraries/STM32_USB_OTG_Driver/src/usb_core.c ****   dcfg.b.perfrint = DCFG_FRAME_INTERVAL_80;
1216:../STLibs//STM32_USB-Host-Device_Lib_V2.1.0/Libraries/STM32_USB_OTG_Driver/src/usb_core.c ****   USB_OTG_WRITE_REG32( &pdev->regs.DREGS->DCFG, dcfg.d32 );
1217:../STLibs//STM32_USB-Host-Device_Lib_V2.1.0/Libraries/STM32_USB_OTG_Driver/src/usb_core.c ****   
1218:../STLibs//STM32_USB-Host-Device_Lib_V2.1.0/Libraries/STM32_USB_OTG_Driver/src/usb_core.c **** #ifdef USB_OTG_FS_CORE
1219:../STLibs//STM32_USB-Host-Device_Lib_V2.1.0/Libraries/STM32_USB_OTG_Driver/src/usb_core.c ****   if(pdev->cfg.coreID == USB_OTG_FS_CORE_ID  )
1220:../STLibs//STM32_USB-Host-Device_Lib_V2.1.0/Libraries/STM32_USB_OTG_Driver/src/usb_core.c ****   {  
1221:../STLibs//STM32_USB-Host-Device_Lib_V2.1.0/Libraries/STM32_USB_OTG_Driver/src/usb_core.c ****     
1222:../STLibs//STM32_USB-Host-Device_Lib_V2.1.0/Libraries/STM32_USB_OTG_Driver/src/usb_core.c ****     /* Set Full speed phy */
1223:../STLibs//STM32_USB-Host-Device_Lib_V2.1.0/Libraries/STM32_USB_OTG_Driver/src/usb_core.c ****     USB_OTG_InitDevSpeed (pdev , USB_OTG_SPEED_PARAM_FULL);
1224:../STLibs//STM32_USB-Host-Device_Lib_V2.1.0/Libraries/STM32_USB_OTG_Driver/src/usb_core.c ****     
1225:../STLibs//STM32_USB-Host-Device_Lib_V2.1.0/Libraries/STM32_USB_OTG_Driver/src/usb_core.c ****     /* set Rx FIFO size */
1226:../STLibs//STM32_USB-Host-Device_Lib_V2.1.0/Libraries/STM32_USB_OTG_Driver/src/usb_core.c ****     USB_OTG_WRITE_REG32(&pdev->regs.GREGS->GRXFSIZ, RX_FIFO_FS_SIZE);
1227:../STLibs//STM32_USB-Host-Device_Lib_V2.1.0/Libraries/STM32_USB_OTG_Driver/src/usb_core.c ****     
1228:../STLibs//STM32_USB-Host-Device_Lib_V2.1.0/Libraries/STM32_USB_OTG_Driver/src/usb_core.c ****     /* EP0 TX*/
1229:../STLibs//STM32_USB-Host-Device_Lib_V2.1.0/Libraries/STM32_USB_OTG_Driver/src/usb_core.c ****     nptxfifosize.b.depth     = TX0_FIFO_FS_SIZE;
1230:../STLibs//STM32_USB-Host-Device_Lib_V2.1.0/Libraries/STM32_USB_OTG_Driver/src/usb_core.c ****     nptxfifosize.b.startaddr = RX_FIFO_FS_SIZE;
1231:../STLibs//STM32_USB-Host-Device_Lib_V2.1.0/Libraries/STM32_USB_OTG_Driver/src/usb_core.c ****     USB_OTG_WRITE_REG32( &pdev->regs.GREGS->DIEPTXF0_HNPTXFSIZ, nptxfifosize.d32 );
1232:../STLibs//STM32_USB-Host-Device_Lib_V2.1.0/Libraries/STM32_USB_OTG_Driver/src/usb_core.c ****     
1233:../STLibs//STM32_USB-Host-Device_Lib_V2.1.0/Libraries/STM32_USB_OTG_Driver/src/usb_core.c ****     
1234:../STLibs//STM32_USB-Host-Device_Lib_V2.1.0/Libraries/STM32_USB_OTG_Driver/src/usb_core.c ****     /* EP1 TX*/
1235:../STLibs//STM32_USB-Host-Device_Lib_V2.1.0/Libraries/STM32_USB_OTG_Driver/src/usb_core.c ****     txfifosize.b.startaddr = nptxfifosize.b.startaddr + nptxfifosize.b.depth;
1236:../STLibs//STM32_USB-Host-Device_Lib_V2.1.0/Libraries/STM32_USB_OTG_Driver/src/usb_core.c ****     txfifosize.b.depth = TX1_FIFO_FS_SIZE;
1237:../STLibs//STM32_USB-Host-Device_Lib_V2.1.0/Libraries/STM32_USB_OTG_Driver/src/usb_core.c ****     USB_OTG_WRITE_REG32( &pdev->regs.GREGS->DIEPTXF[0], txfifosize.d32 );
1238:../STLibs//STM32_USB-Host-Device_Lib_V2.1.0/Libraries/STM32_USB_OTG_Driver/src/usb_core.c ****     
1239:../STLibs//STM32_USB-Host-Device_Lib_V2.1.0/Libraries/STM32_USB_OTG_Driver/src/usb_core.c ****     
1240:../STLibs//STM32_USB-Host-Device_Lib_V2.1.0/Libraries/STM32_USB_OTG_Driver/src/usb_core.c ****     /* EP2 TX*/
1241:../STLibs//STM32_USB-Host-Device_Lib_V2.1.0/Libraries/STM32_USB_OTG_Driver/src/usb_core.c ****     txfifosize.b.startaddr += txfifosize.b.depth;
1242:../STLibs//STM32_USB-Host-Device_Lib_V2.1.0/Libraries/STM32_USB_OTG_Driver/src/usb_core.c ****     txfifosize.b.depth = TX2_FIFO_FS_SIZE;
1243:../STLibs//STM32_USB-Host-Device_Lib_V2.1.0/Libraries/STM32_USB_OTG_Driver/src/usb_core.c ****     USB_OTG_WRITE_REG32( &pdev->regs.GREGS->DIEPTXF[1], txfifosize.d32 );
1244:../STLibs//STM32_USB-Host-Device_Lib_V2.1.0/Libraries/STM32_USB_OTG_Driver/src/usb_core.c ****     
1245:../STLibs//STM32_USB-Host-Device_Lib_V2.1.0/Libraries/STM32_USB_OTG_Driver/src/usb_core.c ****     
1246:../STLibs//STM32_USB-Host-Device_Lib_V2.1.0/Libraries/STM32_USB_OTG_Driver/src/usb_core.c ****     /* EP3 TX*/  
1247:../STLibs//STM32_USB-Host-Device_Lib_V2.1.0/Libraries/STM32_USB_OTG_Driver/src/usb_core.c ****     txfifosize.b.startaddr += txfifosize.b.depth;
1248:../STLibs//STM32_USB-Host-Device_Lib_V2.1.0/Libraries/STM32_USB_OTG_Driver/src/usb_core.c ****     txfifosize.b.depth = TX3_FIFO_FS_SIZE;
1249:../STLibs//STM32_USB-Host-Device_Lib_V2.1.0/Libraries/STM32_USB_OTG_Driver/src/usb_core.c ****     USB_OTG_WRITE_REG32( &pdev->regs.GREGS->DIEPTXF[2], txfifosize.d32 );
1250:../STLibs//STM32_USB-Host-Device_Lib_V2.1.0/Libraries/STM32_USB_OTG_Driver/src/usb_core.c ****   }
1251:../STLibs//STM32_USB-Host-Device_Lib_V2.1.0/Libraries/STM32_USB_OTG_Driver/src/usb_core.c **** #endif
1252:../STLibs//STM32_USB-Host-Device_Lib_V2.1.0/Libraries/STM32_USB_OTG_Driver/src/usb_core.c **** #ifdef USB_OTG_HS_CORE
1253:../STLibs//STM32_USB-Host-Device_Lib_V2.1.0/Libraries/STM32_USB_OTG_Driver/src/usb_core.c ****   if(pdev->cfg.coreID == USB_OTG_HS_CORE_ID  )
1254:../STLibs//STM32_USB-Host-Device_Lib_V2.1.0/Libraries/STM32_USB_OTG_Driver/src/usb_core.c ****   {
1255:../STLibs//STM32_USB-Host-Device_Lib_V2.1.0/Libraries/STM32_USB_OTG_Driver/src/usb_core.c ****     
1256:../STLibs//STM32_USB-Host-Device_Lib_V2.1.0/Libraries/STM32_USB_OTG_Driver/src/usb_core.c ****     /* Set High speed phy */
1257:../STLibs//STM32_USB-Host-Device_Lib_V2.1.0/Libraries/STM32_USB_OTG_Driver/src/usb_core.c ****     
1258:../STLibs//STM32_USB-Host-Device_Lib_V2.1.0/Libraries/STM32_USB_OTG_Driver/src/usb_core.c ****     if(pdev->cfg.phy_itface  == USB_OTG_ULPI_PHY)
1259:../STLibs//STM32_USB-Host-Device_Lib_V2.1.0/Libraries/STM32_USB_OTG_Driver/src/usb_core.c ****     {
1260:../STLibs//STM32_USB-Host-Device_Lib_V2.1.0/Libraries/STM32_USB_OTG_Driver/src/usb_core.c ****       USB_OTG_InitDevSpeed (pdev , USB_OTG_SPEED_PARAM_HIGH);
1261:../STLibs//STM32_USB-Host-Device_Lib_V2.1.0/Libraries/STM32_USB_OTG_Driver/src/usb_core.c ****     }
1262:../STLibs//STM32_USB-Host-Device_Lib_V2.1.0/Libraries/STM32_USB_OTG_Driver/src/usb_core.c ****     else /* set High speed phy in Full speed mode */
1263:../STLibs//STM32_USB-Host-Device_Lib_V2.1.0/Libraries/STM32_USB_OTG_Driver/src/usb_core.c ****     {
1264:../STLibs//STM32_USB-Host-Device_Lib_V2.1.0/Libraries/STM32_USB_OTG_Driver/src/usb_core.c ****       USB_OTG_InitDevSpeed (pdev , USB_OTG_SPEED_PARAM_HIGH_IN_FULL);
1265:../STLibs//STM32_USB-Host-Device_Lib_V2.1.0/Libraries/STM32_USB_OTG_Driver/src/usb_core.c ****     }
1266:../STLibs//STM32_USB-Host-Device_Lib_V2.1.0/Libraries/STM32_USB_OTG_Driver/src/usb_core.c ****     
1267:../STLibs//STM32_USB-Host-Device_Lib_V2.1.0/Libraries/STM32_USB_OTG_Driver/src/usb_core.c ****     /* set Rx FIFO size */
1268:../STLibs//STM32_USB-Host-Device_Lib_V2.1.0/Libraries/STM32_USB_OTG_Driver/src/usb_core.c ****     USB_OTG_WRITE_REG32(&pdev->regs.GREGS->GRXFSIZ, RX_FIFO_HS_SIZE);
1269:../STLibs//STM32_USB-Host-Device_Lib_V2.1.0/Libraries/STM32_USB_OTG_Driver/src/usb_core.c ****     
1270:../STLibs//STM32_USB-Host-Device_Lib_V2.1.0/Libraries/STM32_USB_OTG_Driver/src/usb_core.c ****     /* EP0 TX*/
1271:../STLibs//STM32_USB-Host-Device_Lib_V2.1.0/Libraries/STM32_USB_OTG_Driver/src/usb_core.c ****     nptxfifosize.b.depth     = TX0_FIFO_HS_SIZE;
1272:../STLibs//STM32_USB-Host-Device_Lib_V2.1.0/Libraries/STM32_USB_OTG_Driver/src/usb_core.c ****     nptxfifosize.b.startaddr = RX_FIFO_HS_SIZE;
1273:../STLibs//STM32_USB-Host-Device_Lib_V2.1.0/Libraries/STM32_USB_OTG_Driver/src/usb_core.c ****     USB_OTG_WRITE_REG32( &pdev->regs.GREGS->DIEPTXF0_HNPTXFSIZ, nptxfifosize.d32 );
1274:../STLibs//STM32_USB-Host-Device_Lib_V2.1.0/Libraries/STM32_USB_OTG_Driver/src/usb_core.c ****     
1275:../STLibs//STM32_USB-Host-Device_Lib_V2.1.0/Libraries/STM32_USB_OTG_Driver/src/usb_core.c ****     
1276:../STLibs//STM32_USB-Host-Device_Lib_V2.1.0/Libraries/STM32_USB_OTG_Driver/src/usb_core.c ****     /* EP1 TX*/
1277:../STLibs//STM32_USB-Host-Device_Lib_V2.1.0/Libraries/STM32_USB_OTG_Driver/src/usb_core.c ****     txfifosize.b.startaddr = nptxfifosize.b.startaddr + nptxfifosize.b.depth;
1278:../STLibs//STM32_USB-Host-Device_Lib_V2.1.0/Libraries/STM32_USB_OTG_Driver/src/usb_core.c ****     txfifosize.b.depth = TX1_FIFO_HS_SIZE;
1279:../STLibs//STM32_USB-Host-Device_Lib_V2.1.0/Libraries/STM32_USB_OTG_Driver/src/usb_core.c ****     USB_OTG_WRITE_REG32( &pdev->regs.GREGS->DIEPTXF[0], txfifosize.d32 );
1280:../STLibs//STM32_USB-Host-Device_Lib_V2.1.0/Libraries/STM32_USB_OTG_Driver/src/usb_core.c ****     
1281:../STLibs//STM32_USB-Host-Device_Lib_V2.1.0/Libraries/STM32_USB_OTG_Driver/src/usb_core.c ****     
1282:../STLibs//STM32_USB-Host-Device_Lib_V2.1.0/Libraries/STM32_USB_OTG_Driver/src/usb_core.c ****     /* EP2 TX*/
1283:../STLibs//STM32_USB-Host-Device_Lib_V2.1.0/Libraries/STM32_USB_OTG_Driver/src/usb_core.c ****     txfifosize.b.startaddr += txfifosize.b.depth;
1284:../STLibs//STM32_USB-Host-Device_Lib_V2.1.0/Libraries/STM32_USB_OTG_Driver/src/usb_core.c ****     txfifosize.b.depth = TX2_FIFO_HS_SIZE;
1285:../STLibs//STM32_USB-Host-Device_Lib_V2.1.0/Libraries/STM32_USB_OTG_Driver/src/usb_core.c ****     USB_OTG_WRITE_REG32( &pdev->regs.GREGS->DIEPTXF[1], txfifosize.d32 );
1286:../STLibs//STM32_USB-Host-Device_Lib_V2.1.0/Libraries/STM32_USB_OTG_Driver/src/usb_core.c ****     
1287:../STLibs//STM32_USB-Host-Device_Lib_V2.1.0/Libraries/STM32_USB_OTG_Driver/src/usb_core.c ****     
1288:../STLibs//STM32_USB-Host-Device_Lib_V2.1.0/Libraries/STM32_USB_OTG_Driver/src/usb_core.c ****     /* EP3 TX*/  
1289:../STLibs//STM32_USB-Host-Device_Lib_V2.1.0/Libraries/STM32_USB_OTG_Driver/src/usb_core.c ****     txfifosize.b.startaddr += txfifosize.b.depth;
1290:../STLibs//STM32_USB-Host-Device_Lib_V2.1.0/Libraries/STM32_USB_OTG_Driver/src/usb_core.c ****     txfifosize.b.depth = TX3_FIFO_HS_SIZE;
1291:../STLibs//STM32_USB-Host-Device_Lib_V2.1.0/Libraries/STM32_USB_OTG_Driver/src/usb_core.c ****     USB_OTG_WRITE_REG32( &pdev->regs.GREGS->DIEPTXF[2], txfifosize.d32 );
1292:../STLibs//STM32_USB-Host-Device_Lib_V2.1.0/Libraries/STM32_USB_OTG_Driver/src/usb_core.c ****     
1293:../STLibs//STM32_USB-Host-Device_Lib_V2.1.0/Libraries/STM32_USB_OTG_Driver/src/usb_core.c ****     /* EP4 TX*/
1294:../STLibs//STM32_USB-Host-Device_Lib_V2.1.0/Libraries/STM32_USB_OTG_Driver/src/usb_core.c ****     txfifosize.b.startaddr += txfifosize.b.depth;
1295:../STLibs//STM32_USB-Host-Device_Lib_V2.1.0/Libraries/STM32_USB_OTG_Driver/src/usb_core.c ****     txfifosize.b.depth = TX4_FIFO_HS_SIZE;
1296:../STLibs//STM32_USB-Host-Device_Lib_V2.1.0/Libraries/STM32_USB_OTG_Driver/src/usb_core.c ****     USB_OTG_WRITE_REG32( &pdev->regs.GREGS->DIEPTXF[3], txfifosize.d32 );
1297:../STLibs//STM32_USB-Host-Device_Lib_V2.1.0/Libraries/STM32_USB_OTG_Driver/src/usb_core.c ****     
1298:../STLibs//STM32_USB-Host-Device_Lib_V2.1.0/Libraries/STM32_USB_OTG_Driver/src/usb_core.c ****     
1299:../STLibs//STM32_USB-Host-Device_Lib_V2.1.0/Libraries/STM32_USB_OTG_Driver/src/usb_core.c ****     /* EP5 TX*/  
1300:../STLibs//STM32_USB-Host-Device_Lib_V2.1.0/Libraries/STM32_USB_OTG_Driver/src/usb_core.c ****     txfifosize.b.startaddr += txfifosize.b.depth;
1301:../STLibs//STM32_USB-Host-Device_Lib_V2.1.0/Libraries/STM32_USB_OTG_Driver/src/usb_core.c ****     txfifosize.b.depth = TX5_FIFO_HS_SIZE;
1302:../STLibs//STM32_USB-Host-Device_Lib_V2.1.0/Libraries/STM32_USB_OTG_Driver/src/usb_core.c ****     USB_OTG_WRITE_REG32( &pdev->regs.GREGS->DIEPTXF[4], txfifosize.d32 );
1303:../STLibs//STM32_USB-Host-Device_Lib_V2.1.0/Libraries/STM32_USB_OTG_Driver/src/usb_core.c ****   }
1304:../STLibs//STM32_USB-Host-Device_Lib_V2.1.0/Libraries/STM32_USB_OTG_Driver/src/usb_core.c **** #endif  
1305:../STLibs//STM32_USB-Host-Device_Lib_V2.1.0/Libraries/STM32_USB_OTG_Driver/src/usb_core.c ****   /* Flush the FIFOs */
1306:../STLibs//STM32_USB-Host-Device_Lib_V2.1.0/Libraries/STM32_USB_OTG_Driver/src/usb_core.c ****   USB_OTG_FlushTxFifo(pdev , 0x10); /* all Tx FIFOs */
1307:../STLibs//STM32_USB-Host-Device_Lib_V2.1.0/Libraries/STM32_USB_OTG_Driver/src/usb_core.c ****   USB_OTG_FlushRxFifo(pdev);
1308:../STLibs//STM32_USB-Host-Device_Lib_V2.1.0/Libraries/STM32_USB_OTG_Driver/src/usb_core.c ****   /* Clear all pending Device Interrupts */
1309:../STLibs//STM32_USB-Host-Device_Lib_V2.1.0/Libraries/STM32_USB_OTG_Driver/src/usb_core.c ****   USB_OTG_WRITE_REG32( &pdev->regs.DREGS->DIEPMSK, 0 );
1310:../STLibs//STM32_USB-Host-Device_Lib_V2.1.0/Libraries/STM32_USB_OTG_Driver/src/usb_core.c ****   USB_OTG_WRITE_REG32( &pdev->regs.DREGS->DOEPMSK, 0 );
1311:../STLibs//STM32_USB-Host-Device_Lib_V2.1.0/Libraries/STM32_USB_OTG_Driver/src/usb_core.c ****   USB_OTG_WRITE_REG32( &pdev->regs.DREGS->DAINT, 0xFFFFFFFF );
1312:../STLibs//STM32_USB-Host-Device_Lib_V2.1.0/Libraries/STM32_USB_OTG_Driver/src/usb_core.c ****   USB_OTG_WRITE_REG32( &pdev->regs.DREGS->DAINTMSK, 0 );
1313:../STLibs//STM32_USB-Host-Device_Lib_V2.1.0/Libraries/STM32_USB_OTG_Driver/src/usb_core.c ****   
1314:../STLibs//STM32_USB-Host-Device_Lib_V2.1.0/Libraries/STM32_USB_OTG_Driver/src/usb_core.c ****   for (i = 0; i < pdev->cfg.dev_endpoints; i++)
1315:../STLibs//STM32_USB-Host-Device_Lib_V2.1.0/Libraries/STM32_USB_OTG_Driver/src/usb_core.c ****   {
1316:../STLibs//STM32_USB-Host-Device_Lib_V2.1.0/Libraries/STM32_USB_OTG_Driver/src/usb_core.c ****     depctl.d32 = USB_OTG_READ_REG32(&pdev->regs.INEP_REGS[i]->DIEPCTL);
1317:../STLibs//STM32_USB-Host-Device_Lib_V2.1.0/Libraries/STM32_USB_OTG_Driver/src/usb_core.c ****     if (depctl.b.epena)
1318:../STLibs//STM32_USB-Host-Device_Lib_V2.1.0/Libraries/STM32_USB_OTG_Driver/src/usb_core.c ****     {
1319:../STLibs//STM32_USB-Host-Device_Lib_V2.1.0/Libraries/STM32_USB_OTG_Driver/src/usb_core.c ****       depctl.d32 = 0;
1320:../STLibs//STM32_USB-Host-Device_Lib_V2.1.0/Libraries/STM32_USB_OTG_Driver/src/usb_core.c ****       depctl.b.epdis = 1;
1321:../STLibs//STM32_USB-Host-Device_Lib_V2.1.0/Libraries/STM32_USB_OTG_Driver/src/usb_core.c ****       depctl.b.snak = 1;
1322:../STLibs//STM32_USB-Host-Device_Lib_V2.1.0/Libraries/STM32_USB_OTG_Driver/src/usb_core.c ****     }
1323:../STLibs//STM32_USB-Host-Device_Lib_V2.1.0/Libraries/STM32_USB_OTG_Driver/src/usb_core.c ****     else
1324:../STLibs//STM32_USB-Host-Device_Lib_V2.1.0/Libraries/STM32_USB_OTG_Driver/src/usb_core.c ****     {
1325:../STLibs//STM32_USB-Host-Device_Lib_V2.1.0/Libraries/STM32_USB_OTG_Driver/src/usb_core.c ****       depctl.d32 = 0;
1326:../STLibs//STM32_USB-Host-Device_Lib_V2.1.0/Libraries/STM32_USB_OTG_Driver/src/usb_core.c ****     }
1327:../STLibs//STM32_USB-Host-Device_Lib_V2.1.0/Libraries/STM32_USB_OTG_Driver/src/usb_core.c ****     USB_OTG_WRITE_REG32( &pdev->regs.INEP_REGS[i]->DIEPCTL, depctl.d32);
1328:../STLibs//STM32_USB-Host-Device_Lib_V2.1.0/Libraries/STM32_USB_OTG_Driver/src/usb_core.c ****     USB_OTG_WRITE_REG32( &pdev->regs.INEP_REGS[i]->DIEPTSIZ, 0);
1329:../STLibs//STM32_USB-Host-Device_Lib_V2.1.0/Libraries/STM32_USB_OTG_Driver/src/usb_core.c ****     USB_OTG_WRITE_REG32( &pdev->regs.INEP_REGS[i]->DIEPINT, 0xFF);
1330:../STLibs//STM32_USB-Host-Device_Lib_V2.1.0/Libraries/STM32_USB_OTG_Driver/src/usb_core.c ****   }
1331:../STLibs//STM32_USB-Host-Device_Lib_V2.1.0/Libraries/STM32_USB_OTG_Driver/src/usb_core.c ****   for (i = 0; i <  pdev->cfg.dev_endpoints; i++)
1332:../STLibs//STM32_USB-Host-Device_Lib_V2.1.0/Libraries/STM32_USB_OTG_Driver/src/usb_core.c ****   {
1333:../STLibs//STM32_USB-Host-Device_Lib_V2.1.0/Libraries/STM32_USB_OTG_Driver/src/usb_core.c ****     USB_OTG_DEPCTL_TypeDef  depctl;
1334:../STLibs//STM32_USB-Host-Device_Lib_V2.1.0/Libraries/STM32_USB_OTG_Driver/src/usb_core.c ****     depctl.d32 = USB_OTG_READ_REG32(&pdev->regs.OUTEP_REGS[i]->DOEPCTL);
1335:../STLibs//STM32_USB-Host-Device_Lib_V2.1.0/Libraries/STM32_USB_OTG_Driver/src/usb_core.c ****     if (depctl.b.epena)
1336:../STLibs//STM32_USB-Host-Device_Lib_V2.1.0/Libraries/STM32_USB_OTG_Driver/src/usb_core.c ****     {
1337:../STLibs//STM32_USB-Host-Device_Lib_V2.1.0/Libraries/STM32_USB_OTG_Driver/src/usb_core.c ****       depctl.d32 = 0;
1338:../STLibs//STM32_USB-Host-Device_Lib_V2.1.0/Libraries/STM32_USB_OTG_Driver/src/usb_core.c ****       depctl.b.epdis = 1;
1339:../STLibs//STM32_USB-Host-Device_Lib_V2.1.0/Libraries/STM32_USB_OTG_Driver/src/usb_core.c ****       depctl.b.snak = 1;
1340:../STLibs//STM32_USB-Host-Device_Lib_V2.1.0/Libraries/STM32_USB_OTG_Driver/src/usb_core.c ****     }
1341:../STLibs//STM32_USB-Host-Device_Lib_V2.1.0/Libraries/STM32_USB_OTG_Driver/src/usb_core.c ****     else
1342:../STLibs//STM32_USB-Host-Device_Lib_V2.1.0/Libraries/STM32_USB_OTG_Driver/src/usb_core.c ****     {
1343:../STLibs//STM32_USB-Host-Device_Lib_V2.1.0/Libraries/STM32_USB_OTG_Driver/src/usb_core.c ****       depctl.d32 = 0;
1344:../STLibs//STM32_USB-Host-Device_Lib_V2.1.0/Libraries/STM32_USB_OTG_Driver/src/usb_core.c ****     }
1345:../STLibs//STM32_USB-Host-Device_Lib_V2.1.0/Libraries/STM32_USB_OTG_Driver/src/usb_core.c ****     USB_OTG_WRITE_REG32( &pdev->regs.OUTEP_REGS[i]->DOEPCTL, depctl.d32);
1346:../STLibs//STM32_USB-Host-Device_Lib_V2.1.0/Libraries/STM32_USB_OTG_Driver/src/usb_core.c ****     USB_OTG_WRITE_REG32( &pdev->regs.OUTEP_REGS[i]->DOEPTSIZ, 0);
1347:../STLibs//STM32_USB-Host-Device_Lib_V2.1.0/Libraries/STM32_USB_OTG_Driver/src/usb_core.c ****     USB_OTG_WRITE_REG32( &pdev->regs.OUTEP_REGS[i]->DOEPINT, 0xFF);
1348:../STLibs//STM32_USB-Host-Device_Lib_V2.1.0/Libraries/STM32_USB_OTG_Driver/src/usb_core.c ****   }
1349:../STLibs//STM32_USB-Host-Device_Lib_V2.1.0/Libraries/STM32_USB_OTG_Driver/src/usb_core.c ****   msk.d32 = 0;
1350:../STLibs//STM32_USB-Host-Device_Lib_V2.1.0/Libraries/STM32_USB_OTG_Driver/src/usb_core.c ****   msk.b.txfifoundrn = 1;
1351:../STLibs//STM32_USB-Host-Device_Lib_V2.1.0/Libraries/STM32_USB_OTG_Driver/src/usb_core.c ****   USB_OTG_MODIFY_REG32(&pdev->regs.DREGS->DIEPMSK, msk.d32, msk.d32);
1352:../STLibs//STM32_USB-Host-Device_Lib_V2.1.0/Libraries/STM32_USB_OTG_Driver/src/usb_core.c ****   
1353:../STLibs//STM32_USB-Host-Device_Lib_V2.1.0/Libraries/STM32_USB_OTG_Driver/src/usb_core.c ****   if (pdev->cfg.dma_enable == 1)
1354:../STLibs//STM32_USB-Host-Device_Lib_V2.1.0/Libraries/STM32_USB_OTG_Driver/src/usb_core.c ****   {
1355:../STLibs//STM32_USB-Host-Device_Lib_V2.1.0/Libraries/STM32_USB_OTG_Driver/src/usb_core.c ****     dthrctl.d32 = 0;
1356:../STLibs//STM32_USB-Host-Device_Lib_V2.1.0/Libraries/STM32_USB_OTG_Driver/src/usb_core.c ****     dthrctl.b.non_iso_thr_en = 1;
1357:../STLibs//STM32_USB-Host-Device_Lib_V2.1.0/Libraries/STM32_USB_OTG_Driver/src/usb_core.c ****     dthrctl.b.iso_thr_en = 1;
1358:../STLibs//STM32_USB-Host-Device_Lib_V2.1.0/Libraries/STM32_USB_OTG_Driver/src/usb_core.c ****     dthrctl.b.tx_thr_len = 64;
1359:../STLibs//STM32_USB-Host-Device_Lib_V2.1.0/Libraries/STM32_USB_OTG_Driver/src/usb_core.c ****     dthrctl.b.rx_thr_en = 1;
1360:../STLibs//STM32_USB-Host-Device_Lib_V2.1.0/Libraries/STM32_USB_OTG_Driver/src/usb_core.c ****     dthrctl.b.rx_thr_len = 64;
1361:../STLibs//STM32_USB-Host-Device_Lib_V2.1.0/Libraries/STM32_USB_OTG_Driver/src/usb_core.c ****     USB_OTG_WRITE_REG32(&pdev->regs.DREGS->DTHRCTL, dthrctl.d32);  
1362:../STLibs//STM32_USB-Host-Device_Lib_V2.1.0/Libraries/STM32_USB_OTG_Driver/src/usb_core.c ****   }
1363:../STLibs//STM32_USB-Host-Device_Lib_V2.1.0/Libraries/STM32_USB_OTG_Driver/src/usb_core.c ****   USB_OTG_EnableDevInt(pdev);
1364:../STLibs//STM32_USB-Host-Device_Lib_V2.1.0/Libraries/STM32_USB_OTG_Driver/src/usb_core.c ****   return status;
1365:../STLibs//STM32_USB-Host-Device_Lib_V2.1.0/Libraries/STM32_USB_OTG_Driver/src/usb_core.c **** }
1366:../STLibs//STM32_USB-Host-Device_Lib_V2.1.0/Libraries/STM32_USB_OTG_Driver/src/usb_core.c **** 
1367:../STLibs//STM32_USB-Host-Device_Lib_V2.1.0/Libraries/STM32_USB_OTG_Driver/src/usb_core.c **** 
1368:../STLibs//STM32_USB-Host-Device_Lib_V2.1.0/Libraries/STM32_USB_OTG_Driver/src/usb_core.c **** /**
1369:../STLibs//STM32_USB-Host-Device_Lib_V2.1.0/Libraries/STM32_USB_OTG_Driver/src/usb_core.c **** * @brief  USB_OTG_EnableDevInt : Enables the Device mode interrupts
1370:../STLibs//STM32_USB-Host-Device_Lib_V2.1.0/Libraries/STM32_USB_OTG_Driver/src/usb_core.c **** * @param  pdev : Selected device
1371:../STLibs//STM32_USB-Host-Device_Lib_V2.1.0/Libraries/STM32_USB_OTG_Driver/src/usb_core.c **** * @retval USB_OTG_STS : status
1372:../STLibs//STM32_USB-Host-Device_Lib_V2.1.0/Libraries/STM32_USB_OTG_Driver/src/usb_core.c **** */
1373:../STLibs//STM32_USB-Host-Device_Lib_V2.1.0/Libraries/STM32_USB_OTG_Driver/src/usb_core.c **** USB_OTG_STS USB_OTG_EnableDevInt(USB_OTG_CORE_HANDLE *pdev)
1374:../STLibs//STM32_USB-Host-Device_Lib_V2.1.0/Libraries/STM32_USB_OTG_Driver/src/usb_core.c **** {
 931              		.loc 1 1374 0
 932              		.cfi_startproc
 933              		@ args = 0, pretend = 0, frame = 0
 934              		@ frame_needed = 0, uses_anonymous_args = 0
 935              	.LVL102:
 936 02dc 10B5     		push	{r4, lr}
 937              	.LCFI11:
 938              		.cfi_def_cfa_offset 8
 939              		.cfi_offset 4, -8
 940              		.cfi_offset 14, -4
1375:../STLibs//STM32_USB-Host-Device_Lib_V2.1.0/Libraries/STM32_USB_OTG_Driver/src/usb_core.c ****   USB_OTG_STS status = USB_OTG_OK;
1376:../STLibs//STM32_USB-Host-Device_Lib_V2.1.0/Libraries/STM32_USB_OTG_Driver/src/usb_core.c ****   USB_OTG_GINTMSK_TypeDef  intmsk;
1377:../STLibs//STM32_USB-Host-Device_Lib_V2.1.0/Libraries/STM32_USB_OTG_Driver/src/usb_core.c ****   
1378:../STLibs//STM32_USB-Host-Device_Lib_V2.1.0/Libraries/STM32_USB_OTG_Driver/src/usb_core.c ****   intmsk.d32 = 0;
1379:../STLibs//STM32_USB-Host-Device_Lib_V2.1.0/Libraries/STM32_USB_OTG_Driver/src/usb_core.c ****   
1380:../STLibs//STM32_USB-Host-Device_Lib_V2.1.0/Libraries/STM32_USB_OTG_Driver/src/usb_core.c ****   /* Disable all interrupts. */
1381:../STLibs//STM32_USB-Host-Device_Lib_V2.1.0/Libraries/STM32_USB_OTG_Driver/src/usb_core.c ****   USB_OTG_WRITE_REG32( &pdev->regs.GREGS->GINTMSK, 0);
 941              		.loc 1 1381 0
 942 02de C268     		ldr	r2, [r0, #12]
1378:../STLibs//STM32_USB-Host-Device_Lib_V2.1.0/Libraries/STM32_USB_OTG_Driver/src/usb_core.c ****   
 943              		.loc 1 1378 0
 944 02e0 0023     		movs	r3, #0
 945              	.LVL103:
1382:../STLibs//STM32_USB-Host-Device_Lib_V2.1.0/Libraries/STM32_USB_OTG_Driver/src/usb_core.c ****   /* Clear any pending interrupts */
1383:../STLibs//STM32_USB-Host-Device_Lib_V2.1.0/Libraries/STM32_USB_OTG_Driver/src/usb_core.c ****   USB_OTG_WRITE_REG32( &pdev->regs.GREGS->GINTSTS, 0xBFFFFFFF);
 946              		.loc 1 1383 0
 947 02e2 6FF08041 		mvn	r1, #1073741824
 948              	.LBB23:
 949              	.LBB24:
 102:../STLibs//STM32_USB-Host-Device_Lib_V2.1.0/Libraries/STM32_USB_OTG_Driver/src/usb_core.c **** #endif
 950              		.loc 1 102 0
 951 02e6 4FF0FF34 		mov	r4, #-1
 952              	.LVL104:
 953              	.LBE24:
 954              	.LBE23:
1381:../STLibs//STM32_USB-Host-Device_Lib_V2.1.0/Libraries/STM32_USB_OTG_Driver/src/usb_core.c ****   /* Clear any pending interrupts */
 955              		.loc 1 1381 0
 956 02ea 9361     		str	r3, [r2, #24]
 957              		.loc 1 1383 0
 958 02ec 5161     		str	r1, [r2, #20]
 959              	.LVL105:
 960              	.LBB26:
 961              	.LBB25:
 102:../STLibs//STM32_USB-Host-Device_Lib_V2.1.0/Libraries/STM32_USB_OTG_Driver/src/usb_core.c **** #endif
 962              		.loc 1 102 0
 963 02ee 5460     		str	r4, [r2, #4]
 105:../STLibs//STM32_USB-Host-Device_Lib_V2.1.0/Libraries/STM32_USB_OTG_Driver/src/usb_core.c ****   /* Enable the interrupts in the INTMSK */
 964              		.loc 1 105 0
 965 02f0 5161     		str	r1, [r2, #20]
 108:../STLibs//STM32_USB-Host-Device_Lib_V2.1.0/Libraries/STM32_USB_OTG_Driver/src/usb_core.c ****   
 966              		.loc 1 108 0
 967 02f2 0949     		ldr	r1, .L86
 968              	.LVL106:
 115:../STLibs//STM32_USB-Host-Device_Lib_V2.1.0/Libraries/STM32_USB_OTG_Driver/src/usb_core.c **** }
 969              		.loc 1 115 0
 970 02f4 9161     		str	r1, [r2, #24]
 971              	.LBE25:
 972              	.LBE26:
1384:../STLibs//STM32_USB-Host-Device_Lib_V2.1.0/Libraries/STM32_USB_OTG_Driver/src/usb_core.c ****   /* Enable the common interrupts */
1385:../STLibs//STM32_USB-Host-Device_Lib_V2.1.0/Libraries/STM32_USB_OTG_Driver/src/usb_core.c ****   USB_OTG_EnableCommonInt(pdev);
1386:../STLibs//STM32_USB-Host-Device_Lib_V2.1.0/Libraries/STM32_USB_OTG_Driver/src/usb_core.c ****   
1387:../STLibs//STM32_USB-Host-Device_Lib_V2.1.0/Libraries/STM32_USB_OTG_Driver/src/usb_core.c ****   if (pdev->cfg.dma_enable == 0)
 973              		.loc 1 1387 0
 974 02f6 C178     		ldrb	r1, [r0, #3]	@ zero_extendqisi2
 975              	.LVL107:
 976 02f8 9942     		cmp	r1, r3
 977              	.LVL108:
1388:../STLibs//STM32_USB-Host-Device_Lib_V2.1.0/Libraries/STM32_USB_OTG_Driver/src/usb_core.c ****   {
1389:../STLibs//STM32_USB-Host-Device_Lib_V2.1.0/Libraries/STM32_USB_OTG_Driver/src/usb_core.c ****     intmsk.b.rxstsqlvl = 1;
 978              		.loc 1 1389 0
 979 02fa 08BF     		it	eq
 980 02fc 1023     		moveq	r3, #16
 981              	.LVL109:
1390:../STLibs//STM32_USB-Host-Device_Lib_V2.1.0/Libraries/STM32_USB_OTG_Driver/src/usb_core.c ****   }
1391:../STLibs//STM32_USB-Host-Device_Lib_V2.1.0/Libraries/STM32_USB_OTG_Driver/src/usb_core.c ****   
1392:../STLibs//STM32_USB-Host-Device_Lib_V2.1.0/Libraries/STM32_USB_OTG_Driver/src/usb_core.c ****   /* Enable interrupts matching to the Device mode ONLY */
1393:../STLibs//STM32_USB-Host-Device_Lib_V2.1.0/Libraries/STM32_USB_OTG_Driver/src/usb_core.c ****   intmsk.b.usbsuspend = 1;
1394:../STLibs//STM32_USB-Host-Device_Lib_V2.1.0/Libraries/STM32_USB_OTG_Driver/src/usb_core.c ****   intmsk.b.usbreset   = 1;
1395:../STLibs//STM32_USB-Host-Device_Lib_V2.1.0/Libraries/STM32_USB_OTG_Driver/src/usb_core.c ****   intmsk.b.enumdone   = 1;
1396:../STLibs//STM32_USB-Host-Device_Lib_V2.1.0/Libraries/STM32_USB_OTG_Driver/src/usb_core.c ****   intmsk.b.inepintr   = 1;
1397:../STLibs//STM32_USB-Host-Device_Lib_V2.1.0/Libraries/STM32_USB_OTG_Driver/src/usb_core.c ****   intmsk.b.outepintr  = 1;
1398:../STLibs//STM32_USB-Host-Device_Lib_V2.1.0/Libraries/STM32_USB_OTG_Driver/src/usb_core.c ****   intmsk.b.sofintr    = 1; 
1399:../STLibs//STM32_USB-Host-Device_Lib_V2.1.0/Libraries/STM32_USB_OTG_Driver/src/usb_core.c ****   
1400:../STLibs//STM32_USB-Host-Device_Lib_V2.1.0/Libraries/STM32_USB_OTG_Driver/src/usb_core.c ****   intmsk.b.incomplisoin    = 1; 
1401:../STLibs//STM32_USB-Host-Device_Lib_V2.1.0/Libraries/STM32_USB_OTG_Driver/src/usb_core.c ****   intmsk.b.incomplisoout    = 1;   
1402:../STLibs//STM32_USB-Host-Device_Lib_V2.1.0/Libraries/STM32_USB_OTG_Driver/src/usb_core.c **** #ifdef VBUS_SENSING_ENABLED
1403:../STLibs//STM32_USB-Host-Device_Lib_V2.1.0/Libraries/STM32_USB_OTG_Driver/src/usb_core.c ****   intmsk.b.sessreqintr    = 1; 
1404:../STLibs//STM32_USB-Host-Device_Lib_V2.1.0/Libraries/STM32_USB_OTG_Driver/src/usb_core.c ****   intmsk.b.otgintr    = 1;    
 982              		.loc 1 1404 0
 983 02fe 43F08043 		orr	r3, r3, #1073741824
 984              	.LVL110:
 985 0302 43F47013 		orr	r3, r3, #3932160
 986              	.LVL111:
1405:../STLibs//STM32_USB-Host-Device_Lib_V2.1.0/Libraries/STM32_USB_OTG_Driver/src/usb_core.c **** #endif  
1406:../STLibs//STM32_USB-Host-Device_Lib_V2.1.0/Libraries/STM32_USB_OTG_Driver/src/usb_core.c ****   USB_OTG_MODIFY_REG32( &pdev->regs.GREGS->GINTMSK, intmsk.d32, intmsk.d32);
 987              		.loc 1 1406 0
 988 0306 9169     		ldr	r1, [r2, #24]
 989              	.LVL112:
1404:../STLibs//STM32_USB-Host-Device_Lib_V2.1.0/Libraries/STM32_USB_OTG_Driver/src/usb_core.c **** #endif  
 990              		.loc 1 1404 0
 991 0308 43F46053 		orr	r3, r3, #14336
 992              	.LVL113:
 993 030c 43F00C03 		orr	r3, r3, #12
 994              	.LVL114:
 995              		.loc 1 1406 0
 996 0310 0B43     		orrs	r3, r3, r1
 997              	.LVL115:
 998 0312 9361     		str	r3, [r2, #24]
1407:../STLibs//STM32_USB-Host-Device_Lib_V2.1.0/Libraries/STM32_USB_OTG_Driver/src/usb_core.c ****   return status;
1408:../STLibs//STM32_USB-Host-Device_Lib_V2.1.0/Libraries/STM32_USB_OTG_Driver/src/usb_core.c **** }
 999              		.loc 1 1408 0
 1000 0314 0020     		movs	r0, #0
 1001              	.LVL116:
 1002 0316 10BD     		pop	{r4, pc}
 1003              	.L87:
 1004              		.align	2
 1005              	.L86:
 1006 0318 00080080 		.word	-2147481600
 1007              		.cfi_endproc
 1008              	.LFE128:
 1010              		.align	1
 1011              		.global	USB_OTG_CoreInitDev
 1012              		.syntax unified
 1013              		.thumb
 1014              		.thumb_func
 1015              		.fpu fpv4-sp-d16
 1017              	USB_OTG_CoreInitDev:
 1018              	.LFB127:
1195:../STLibs//STM32_USB-Host-Device_Lib_V2.1.0/Libraries/STM32_USB_OTG_Driver/src/usb_core.c ****   USB_OTG_STS             status       = USB_OTG_OK;
 1019              		.loc 1 1195 0
 1020              		.cfi_startproc
 1021              		@ args = 0, pretend = 0, frame = 0
 1022              		@ frame_needed = 0, uses_anonymous_args = 0
 1023              	.LVL117:
 1024 031c F8B5     		push	{r3, r4, r5, r6, r7, lr}
 1025              	.LCFI12:
 1026              		.cfi_def_cfa_offset 24
 1027              		.cfi_offset 3, -24
 1028              		.cfi_offset 4, -20
 1029              		.cfi_offset 5, -16
 1030              		.cfi_offset 6, -12
 1031              		.cfi_offset 7, -8
 1032              		.cfi_offset 14, -4
1212:../STLibs//STM32_USB-Host-Device_Lib_V2.1.0/Libraries/STM32_USB_OTG_Driver/src/usb_core.c ****   /* Device configuration register */
 1033              		.loc 1 1212 0
 1034 031e D0F80C31 		ldr	r3, [r0, #268]
1214:../STLibs//STM32_USB-Host-Device_Lib_V2.1.0/Libraries/STM32_USB_OTG_Driver/src/usb_core.c ****   dcfg.b.perfrint = DCFG_FRAME_INTERVAL_80;
 1035              		.loc 1 1214 0
 1036 0322 0269     		ldr	r2, [r0, #16]
1212:../STLibs//STM32_USB-Host-Device_Lib_V2.1.0/Libraries/STM32_USB_OTG_Driver/src/usb_core.c ****   /* Device configuration register */
 1037              		.loc 1 1212 0
 1038 0324 0021     		movs	r1, #0
 1039 0326 1960     		str	r1, [r3]
1214:../STLibs//STM32_USB-Host-Device_Lib_V2.1.0/Libraries/STM32_USB_OTG_Driver/src/usb_core.c ****   dcfg.b.perfrint = DCFG_FRAME_INTERVAL_80;
 1040              		.loc 1 1214 0
 1041 0328 1368     		ldr	r3, [r2]
1215:../STLibs//STM32_USB-Host-Device_Lib_V2.1.0/Libraries/STM32_USB_OTG_Driver/src/usb_core.c ****   USB_OTG_WRITE_REG32( &pdev->regs.DREGS->DCFG, dcfg.d32 );
 1042              		.loc 1 1215 0
 1043 032a 61F3CC23 		bfi	r3, r1, #11, #2
 1044              	.LVL118:
1216:../STLibs//STM32_USB-Host-Device_Lib_V2.1.0/Libraries/STM32_USB_OTG_Driver/src/usb_core.c ****   
 1045              		.loc 1 1216 0
 1046 032e 1360     		str	r3, [r2]
1219:../STLibs//STM32_USB-Host-Device_Lib_V2.1.0/Libraries/STM32_USB_OTG_Driver/src/usb_core.c ****   {  
 1047              		.loc 1 1219 0
 1048 0330 C37A     		ldrb	r3, [r0, #11]	@ zero_extendqisi2
 1049              	.LVL119:
 1050 0332 012B     		cmp	r3, #1
1195:../STLibs//STM32_USB-Host-Device_Lib_V2.1.0/Libraries/STM32_USB_OTG_Driver/src/usb_core.c ****   USB_OTG_STS             status       = USB_OTG_OK;
 1051              		.loc 1 1195 0
 1052 0334 0446     		mov	r4, r0
1219:../STLibs//STM32_USB-Host-Device_Lib_V2.1.0/Libraries/STM32_USB_OTG_Driver/src/usb_core.c ****   {  
 1053              		.loc 1 1219 0
 1054 0336 12D1     		bne	.L89
1223:../STLibs//STM32_USB-Host-Device_Lib_V2.1.0/Libraries/STM32_USB_OTG_Driver/src/usb_core.c ****     
 1055              		.loc 1 1223 0
 1056 0338 0321     		movs	r1, #3
 1057 033a FFF7FEFF 		bl	USB_OTG_InitDevSpeed
 1058              	.LVL120:
1226:../STLibs//STM32_USB-Host-Device_Lib_V2.1.0/Libraries/STM32_USB_OTG_Driver/src/usb_core.c ****     
 1059              		.loc 1 1226 0
 1060 033e C368     		ldr	r3, [r0, #12]
 1061 0340 8022     		movs	r2, #128
 1062 0342 5A62     		str	r2, [r3, #36]
 1063              	.LVL121:
1230:../STLibs//STM32_USB-Host-Device_Lib_V2.1.0/Libraries/STM32_USB_OTG_Driver/src/usb_core.c ****     USB_OTG_WRITE_REG32( &pdev->regs.GREGS->DIEPTXF0_HNPTXFSIZ, nptxfifosize.d32 );
 1064              		.loc 1 1230 0
 1065 0344 02F50012 		add	r2, r2, #2097152
 1066              	.LVL122:
1231:../STLibs//STM32_USB-Host-Device_Lib_V2.1.0/Libraries/STM32_USB_OTG_Driver/src/usb_core.c ****     
 1067              		.loc 1 1231 0
 1068 0348 9A62     		str	r2, [r3, #40]
1235:../STLibs//STM32_USB-Host-Device_Lib_V2.1.0/Libraries/STM32_USB_OTG_Driver/src/usb_core.c ****     txfifosize.b.depth = TX1_FIFO_FS_SIZE;
 1069              		.loc 1 1235 0
 1070 034a 284A     		ldr	r2, .L99
 1071              	.LVL123:
1237:../STLibs//STM32_USB-Host-Device_Lib_V2.1.0/Libraries/STM32_USB_OTG_Driver/src/usb_core.c ****     
 1072              		.loc 1 1237 0
 1073 034c C3F80421 		str	r2, [r3, #260]
1241:../STLibs//STM32_USB-Host-Device_Lib_V2.1.0/Libraries/STM32_USB_OTG_Driver/src/usb_core.c ****     txfifosize.b.depth = TX2_FIFO_FS_SIZE;
 1074              		.loc 1 1241 0
 1075 0350 274A     		ldr	r2, .L99+4
 1076              	.LVL124:
1243:../STLibs//STM32_USB-Host-Device_Lib_V2.1.0/Libraries/STM32_USB_OTG_Driver/src/usb_core.c ****     
 1077              		.loc 1 1243 0
 1078 0352 C3F80821 		str	r2, [r3, #264]
1247:../STLibs//STM32_USB-Host-Device_Lib_V2.1.0/Libraries/STM32_USB_OTG_Driver/src/usb_core.c ****     txfifosize.b.depth = TX3_FIFO_FS_SIZE;
 1079              		.loc 1 1247 0
 1080 0356 4FF4A072 		mov	r2, #320
 1081              	.LVL125:
1249:../STLibs//STM32_USB-Host-Device_Lib_V2.1.0/Libraries/STM32_USB_OTG_Driver/src/usb_core.c ****   }
 1082              		.loc 1 1249 0
 1083 035a C3F80C21 		str	r2, [r3, #268]
 1084              	.L89:
1306:../STLibs//STM32_USB-Host-Device_Lib_V2.1.0/Libraries/STM32_USB_OTG_Driver/src/usb_core.c ****   USB_OTG_FlushRxFifo(pdev);
 1085              		.loc 1 1306 0
 1086 035e 1021     		movs	r1, #16
 1087 0360 2046     		mov	r0, r4
 1088              	.LVL126:
 1089 0362 FFF7FEFF 		bl	USB_OTG_FlushTxFifo
 1090              	.LVL127:
1307:../STLibs//STM32_USB-Host-Device_Lib_V2.1.0/Libraries/STM32_USB_OTG_Driver/src/usb_core.c ****   /* Clear all pending Device Interrupts */
 1091              		.loc 1 1307 0
 1092 0366 2046     		mov	r0, r4
 1093 0368 FFF7FEFF 		bl	USB_OTG_FlushRxFifo
 1094              	.LVL128:
1309:../STLibs//STM32_USB-Host-Device_Lib_V2.1.0/Libraries/STM32_USB_OTG_Driver/src/usb_core.c ****   USB_OTG_WRITE_REG32( &pdev->regs.DREGS->DOEPMSK, 0 );
 1095              		.loc 1 1309 0
 1096 036c 2269     		ldr	r2, [r4, #16]
 1097 036e 2069     		ldr	r0, [r4, #16]
 1098 0370 0023     		movs	r3, #0
1311:../STLibs//STM32_USB-Host-Device_Lib_V2.1.0/Libraries/STM32_USB_OTG_Driver/src/usb_core.c ****   USB_OTG_WRITE_REG32( &pdev->regs.DREGS->DAINTMSK, 0 );
 1099              		.loc 1 1311 0
 1100 0372 4FF0FF31 		mov	r1, #-1
1309:../STLibs//STM32_USB-Host-Device_Lib_V2.1.0/Libraries/STM32_USB_OTG_Driver/src/usb_core.c ****   USB_OTG_WRITE_REG32( &pdev->regs.DREGS->DOEPMSK, 0 );
 1101              		.loc 1 1309 0
 1102 0376 1361     		str	r3, [r2, #16]
1310:../STLibs//STM32_USB-Host-Device_Lib_V2.1.0/Libraries/STM32_USB_OTG_Driver/src/usb_core.c ****   USB_OTG_WRITE_REG32( &pdev->regs.DREGS->DAINT, 0xFFFFFFFF );
 1103              		.loc 1 1310 0
 1104 0378 5361     		str	r3, [r2, #20]
1311:../STLibs//STM32_USB-Host-Device_Lib_V2.1.0/Libraries/STM32_USB_OTG_Driver/src/usb_core.c ****   USB_OTG_WRITE_REG32( &pdev->regs.DREGS->DAINTMSK, 0 );
 1105              		.loc 1 1311 0
 1106 037a 9161     		str	r1, [r2, #24]
1312:../STLibs//STM32_USB-Host-Device_Lib_V2.1.0/Libraries/STM32_USB_OTG_Driver/src/usb_core.c ****   
 1107              		.loc 1 1312 0
 1108 037c D361     		str	r3, [r2, #28]
 1109              	.LVL129:
 1110 037e 6578     		ldrb	r5, [r4, #1]	@ zero_extendqisi2
 1111 0380 04F11802 		add	r2, r4, #24
 1112 0384 02EB8505 		add	r5, r2, r5, lsl #2
1329:../STLibs//STM32_USB-Host-Device_Lib_V2.1.0/Libraries/STM32_USB_OTG_Driver/src/usb_core.c ****   }
 1113              		.loc 1 1329 0
 1114 0388 FF26     		movs	r6, #255
 1115              	.LVL130:
 1116              	.L90:
1314:../STLibs//STM32_USB-Host-Device_Lib_V2.1.0/Libraries/STM32_USB_OTG_Driver/src/usb_core.c ****   {
 1117              		.loc 1 1314 0 discriminator 1
 1118 038a 9542     		cmp	r5, r2
 1119 038c 15D1     		bne	.L93
1331:../STLibs//STM32_USB-Host-Device_Lib_V2.1.0/Libraries/STM32_USB_OTG_Driver/src/usb_core.c ****   {
 1120              		.loc 1 1331 0
 1121 038e 0023     		movs	r3, #0
 1122 0390 04F15401 		add	r1, r4, #84
 1123 0394 1D46     		mov	r5, r3
 1124              	.LBB27:
1347:../STLibs//STM32_USB-Host-Device_Lib_V2.1.0/Libraries/STM32_USB_OTG_Driver/src/usb_core.c ****   }
 1125              		.loc 1 1347 0
 1126 0396 FF26     		movs	r6, #255
 1127              	.LVL131:
 1128              	.L94:
 1129              	.LBE27:
1331:../STLibs//STM32_USB-Host-Device_Lib_V2.1.0/Libraries/STM32_USB_OTG_Driver/src/usb_core.c ****   {
 1130              		.loc 1 1331 0 discriminator 1
 1131 0398 6278     		ldrb	r2, [r4, #1]	@ zero_extendqisi2
 1132 039a 9A42     		cmp	r2, r3
 1133 039c 19D8     		bhi	.L97
1351:../STLibs//STM32_USB-Host-Device_Lib_V2.1.0/Libraries/STM32_USB_OTG_Driver/src/usb_core.c ****   
 1134              		.loc 1 1351 0
 1135 039e 0369     		ldr	r3, [r0, #16]
 1136              	.LVL132:
 1137 03a0 43F48073 		orr	r3, r3, #256
 1138 03a4 0361     		str	r3, [r0, #16]
1353:../STLibs//STM32_USB-Host-Device_Lib_V2.1.0/Libraries/STM32_USB_OTG_Driver/src/usb_core.c ****   {
 1139              		.loc 1 1353 0
 1140 03a6 E378     		ldrb	r3, [r4, #3]	@ zero_extendqisi2
 1141 03a8 012B     		cmp	r3, #1
1355:../STLibs//STM32_USB-Host-Device_Lib_V2.1.0/Libraries/STM32_USB_OTG_Driver/src/usb_core.c ****     dthrctl.b.non_iso_thr_en = 1;
 1142              		.loc 1 1355 0
 1143 03aa 04BF     		itt	eq
 1144 03ac 114B     		ldreq	r3, .L99+8
 1145              	.LVL133:
1361:../STLibs//STM32_USB-Host-Device_Lib_V2.1.0/Libraries/STM32_USB_OTG_Driver/src/usb_core.c ****   }
 1146              		.loc 1 1361 0
 1147 03ae 0363     		streq	r3, [r0, #48]
1363:../STLibs//STM32_USB-Host-Device_Lib_V2.1.0/Libraries/STM32_USB_OTG_Driver/src/usb_core.c ****   return status;
 1148              		.loc 1 1363 0
 1149 03b0 2046     		mov	r0, r4
 1150 03b2 FFF7FEFF 		bl	USB_OTG_EnableDevInt
 1151              	.LVL134:
1365:../STLibs//STM32_USB-Host-Device_Lib_V2.1.0/Libraries/STM32_USB_OTG_Driver/src/usb_core.c **** 
 1152              		.loc 1 1365 0
 1153 03b6 0020     		movs	r0, #0
 1154 03b8 F8BD     		pop	{r3, r4, r5, r6, r7, pc}
 1155              	.LVL135:
 1156              	.L93:
1316:../STLibs//STM32_USB-Host-Device_Lib_V2.1.0/Libraries/STM32_USB_OTG_Driver/src/usb_core.c ****     if (depctl.b.epena)
 1157              		.loc 1 1316 0
 1158 03ba 52F8041B 		ldr	r1, [r2], #4
 1159 03be 0F68     		ldr	r7, [r1]
 1160              	.LVL136:
1319:../STLibs//STM32_USB-Host-Device_Lib_V2.1.0/Libraries/STM32_USB_OTG_Driver/src/usb_core.c ****       depctl.b.epdis = 1;
 1161              		.loc 1 1319 0
 1162 03c0 002F     		cmp	r7, #0
 1163 03c2 ACBF     		ite	ge
 1164 03c4 0027     		movge	r7, #0
 1165 03c6 4FF09047 		movlt	r7, #1207959552
 1166              	.LVL137:
1327:../STLibs//STM32_USB-Host-Device_Lib_V2.1.0/Libraries/STM32_USB_OTG_Driver/src/usb_core.c ****     USB_OTG_WRITE_REG32( &pdev->regs.INEP_REGS[i]->DIEPTSIZ, 0);
 1167              		.loc 1 1327 0
 1168 03ca 0F60     		str	r7, [r1]
1328:../STLibs//STM32_USB-Host-Device_Lib_V2.1.0/Libraries/STM32_USB_OTG_Driver/src/usb_core.c ****     USB_OTG_WRITE_REG32( &pdev->regs.INEP_REGS[i]->DIEPINT, 0xFF);
 1169              		.loc 1 1328 0
 1170 03cc 0B61     		str	r3, [r1, #16]
1329:../STLibs//STM32_USB-Host-Device_Lib_V2.1.0/Libraries/STM32_USB_OTG_Driver/src/usb_core.c ****   }
 1171              		.loc 1 1329 0
 1172 03ce 8E60     		str	r6, [r1, #8]
 1173 03d0 DBE7     		b	.L90
 1174              	.LVL138:
 1175              	.L97:
 1176              	.LBB28:
1334:../STLibs//STM32_USB-Host-Device_Lib_V2.1.0/Libraries/STM32_USB_OTG_Driver/src/usb_core.c ****     if (depctl.b.epena)
 1177              		.loc 1 1334 0
 1178 03d2 51F8042B 		ldr	r2, [r1], #4
 1179 03d6 1768     		ldr	r7, [r2]
 1180              	.LVL139:
1337:../STLibs//STM32_USB-Host-Device_Lib_V2.1.0/Libraries/STM32_USB_OTG_Driver/src/usb_core.c ****       depctl.b.epdis = 1;
 1181              		.loc 1 1337 0
 1182 03d8 002F     		cmp	r7, #0
 1183 03da ACBF     		ite	ge
 1184 03dc 0027     		movge	r7, #0
 1185 03de 4FF09047 		movlt	r7, #1207959552
 1186              	.LVL140:
1345:../STLibs//STM32_USB-Host-Device_Lib_V2.1.0/Libraries/STM32_USB_OTG_Driver/src/usb_core.c ****     USB_OTG_WRITE_REG32( &pdev->regs.OUTEP_REGS[i]->DOEPTSIZ, 0);
 1187              		.loc 1 1345 0
 1188 03e2 1760     		str	r7, [r2]
 1189              	.LBE28:
1331:../STLibs//STM32_USB-Host-Device_Lib_V2.1.0/Libraries/STM32_USB_OTG_Driver/src/usb_core.c ****   {
 1190              		.loc 1 1331 0
 1191 03e4 0133     		adds	r3, r3, #1
 1192              	.LVL141:
 1193              	.LBB29:
1346:../STLibs//STM32_USB-Host-Device_Lib_V2.1.0/Libraries/STM32_USB_OTG_Driver/src/usb_core.c ****     USB_OTG_WRITE_REG32( &pdev->regs.OUTEP_REGS[i]->DOEPINT, 0xFF);
 1194              		.loc 1 1346 0
 1195 03e6 1561     		str	r5, [r2, #16]
1347:../STLibs//STM32_USB-Host-Device_Lib_V2.1.0/Libraries/STM32_USB_OTG_Driver/src/usb_core.c ****   }
 1196              		.loc 1 1347 0
 1197 03e8 9660     		str	r6, [r2, #8]
 1198 03ea D5E7     		b	.L94
 1199              	.L100:
 1200              		.align	2
 1201              	.L99:
 1202 03ec A0008000 		.word	8388768
 1203 03f0 20012000 		.word	2097440
 1204 03f4 03018100 		.word	8454403
 1205              	.LBE29:
 1206              		.cfi_endproc
 1207              	.LFE127:
 1209              		.align	1
 1210              		.global	USB_OTG_GetDeviceSpeed
 1211              		.syntax unified
 1212              		.thumb
 1213              		.thumb_func
 1214              		.fpu fpv4-sp-d16
 1216              	USB_OTG_GetDeviceSpeed:
 1217              	.LFB129:
1409:../STLibs//STM32_USB-Host-Device_Lib_V2.1.0/Libraries/STM32_USB_OTG_Driver/src/usb_core.c **** 
1410:../STLibs//STM32_USB-Host-Device_Lib_V2.1.0/Libraries/STM32_USB_OTG_Driver/src/usb_core.c **** 
1411:../STLibs//STM32_USB-Host-Device_Lib_V2.1.0/Libraries/STM32_USB_OTG_Driver/src/usb_core.c **** /**
1412:../STLibs//STM32_USB-Host-Device_Lib_V2.1.0/Libraries/STM32_USB_OTG_Driver/src/usb_core.c **** * @brief  USB_OTG_GetDeviceSpeed
1413:../STLibs//STM32_USB-Host-Device_Lib_V2.1.0/Libraries/STM32_USB_OTG_Driver/src/usb_core.c **** *         Get the device speed from the device status register
1414:../STLibs//STM32_USB-Host-Device_Lib_V2.1.0/Libraries/STM32_USB_OTG_Driver/src/usb_core.c **** * @param  None
1415:../STLibs//STM32_USB-Host-Device_Lib_V2.1.0/Libraries/STM32_USB_OTG_Driver/src/usb_core.c **** * @retval status
1416:../STLibs//STM32_USB-Host-Device_Lib_V2.1.0/Libraries/STM32_USB_OTG_Driver/src/usb_core.c **** */
1417:../STLibs//STM32_USB-Host-Device_Lib_V2.1.0/Libraries/STM32_USB_OTG_Driver/src/usb_core.c **** enum USB_OTG_SPEED USB_OTG_GetDeviceSpeed (USB_OTG_CORE_HANDLE *pdev)
1418:../STLibs//STM32_USB-Host-Device_Lib_V2.1.0/Libraries/STM32_USB_OTG_Driver/src/usb_core.c **** {
 1218              		.loc 1 1418 0
 1219              		.cfi_startproc
 1220              		@ args = 0, pretend = 0, frame = 0
 1221              		@ frame_needed = 0, uses_anonymous_args = 0
 1222              		@ link register save eliminated.
 1223              	.LVL142:
1419:../STLibs//STM32_USB-Host-Device_Lib_V2.1.0/Libraries/STM32_USB_OTG_Driver/src/usb_core.c ****   USB_OTG_DSTS_TypeDef  dsts;
1420:../STLibs//STM32_USB-Host-Device_Lib_V2.1.0/Libraries/STM32_USB_OTG_Driver/src/usb_core.c ****   enum USB_OTG_SPEED speed = USB_SPEED_UNKNOWN;
1421:../STLibs//STM32_USB-Host-Device_Lib_V2.1.0/Libraries/STM32_USB_OTG_Driver/src/usb_core.c ****   
1422:../STLibs//STM32_USB-Host-Device_Lib_V2.1.0/Libraries/STM32_USB_OTG_Driver/src/usb_core.c ****   
1423:../STLibs//STM32_USB-Host-Device_Lib_V2.1.0/Libraries/STM32_USB_OTG_Driver/src/usb_core.c ****   dsts.d32 = USB_OTG_READ_REG32(&pdev->regs.DREGS->DSTS);
 1224              		.loc 1 1423 0
 1225 03f8 0369     		ldr	r3, [r0, #16]
 1226 03fa 9B68     		ldr	r3, [r3, #8]
1424:../STLibs//STM32_USB-Host-Device_Lib_V2.1.0/Libraries/STM32_USB_OTG_Driver/src/usb_core.c ****   
1425:../STLibs//STM32_USB-Host-Device_Lib_V2.1.0/Libraries/STM32_USB_OTG_Driver/src/usb_core.c ****   switch (dsts.b.enumspd)
 1227              		.loc 1 1425 0
 1228 03fc C3F34103 		ubfx	r3, r3, #1, #2
 1229 0400 022B     		cmp	r3, #2
 1230 0402 04D0     		beq	.L103
 1231 0404 01D8     		bhi	.L104
 1232 0406 012B     		cmp	r3, #1
 1233 0408 03D1     		bne	.L109
 1234              	.L104:
1426:../STLibs//STM32_USB-Host-Device_Lib_V2.1.0/Libraries/STM32_USB_OTG_Driver/src/usb_core.c ****   {
1427:../STLibs//STM32_USB-Host-Device_Lib_V2.1.0/Libraries/STM32_USB_OTG_Driver/src/usb_core.c ****   case DSTS_ENUMSPD_HS_PHY_30MHZ_OR_60MHZ:
1428:../STLibs//STM32_USB-Host-Device_Lib_V2.1.0/Libraries/STM32_USB_OTG_Driver/src/usb_core.c ****     speed = USB_SPEED_HIGH;
1429:../STLibs//STM32_USB-Host-Device_Lib_V2.1.0/Libraries/STM32_USB_OTG_Driver/src/usb_core.c ****     break;
1430:../STLibs//STM32_USB-Host-Device_Lib_V2.1.0/Libraries/STM32_USB_OTG_Driver/src/usb_core.c ****   case DSTS_ENUMSPD_FS_PHY_30MHZ_OR_60MHZ:
1431:../STLibs//STM32_USB-Host-Device_Lib_V2.1.0/Libraries/STM32_USB_OTG_Driver/src/usb_core.c ****   case DSTS_ENUMSPD_FS_PHY_48MHZ:
1432:../STLibs//STM32_USB-Host-Device_Lib_V2.1.0/Libraries/STM32_USB_OTG_Driver/src/usb_core.c ****     speed = USB_SPEED_FULL;
 1235              		.loc 1 1432 0
 1236 040a 0220     		movs	r0, #2
 1237              	.LVL143:
 1238 040c 7047     		bx	lr
 1239              	.LVL144:
 1240              	.L103:
1433:../STLibs//STM32_USB-Host-Device_Lib_V2.1.0/Libraries/STM32_USB_OTG_Driver/src/usb_core.c ****     break;
1434:../STLibs//STM32_USB-Host-Device_Lib_V2.1.0/Libraries/STM32_USB_OTG_Driver/src/usb_core.c ****     
1435:../STLibs//STM32_USB-Host-Device_Lib_V2.1.0/Libraries/STM32_USB_OTG_Driver/src/usb_core.c ****   case DSTS_ENUMSPD_LS_PHY_6MHZ:
1436:../STLibs//STM32_USB-Host-Device_Lib_V2.1.0/Libraries/STM32_USB_OTG_Driver/src/usb_core.c ****     speed = USB_SPEED_LOW;
 1241              		.loc 1 1436 0
 1242 040e 0120     		movs	r0, #1
 1243              	.LVL145:
1437:../STLibs//STM32_USB-Host-Device_Lib_V2.1.0/Libraries/STM32_USB_OTG_Driver/src/usb_core.c ****     break;
 1244              		.loc 1 1437 0
 1245 0410 7047     		bx	lr
 1246              	.LVL146:
 1247              	.L109:
1428:../STLibs//STM32_USB-Host-Device_Lib_V2.1.0/Libraries/STM32_USB_OTG_Driver/src/usb_core.c ****     break;
 1248              		.loc 1 1428 0
 1249 0412 0320     		movs	r0, #3
 1250              	.LVL147:
1438:../STLibs//STM32_USB-Host-Device_Lib_V2.1.0/Libraries/STM32_USB_OTG_Driver/src/usb_core.c ****   }
1439:../STLibs//STM32_USB-Host-Device_Lib_V2.1.0/Libraries/STM32_USB_OTG_Driver/src/usb_core.c ****   
1440:../STLibs//STM32_USB-Host-Device_Lib_V2.1.0/Libraries/STM32_USB_OTG_Driver/src/usb_core.c ****   return speed;
1441:../STLibs//STM32_USB-Host-Device_Lib_V2.1.0/Libraries/STM32_USB_OTG_Driver/src/usb_core.c **** }
 1251              		.loc 1 1441 0
 1252 0414 7047     		bx	lr
 1253              		.cfi_endproc
 1254              	.LFE129:
 1256              		.align	1
 1257              		.global	USB_OTG_EP0Activate
 1258              		.syntax unified
 1259              		.thumb
 1260              		.thumb_func
 1261              		.fpu fpv4-sp-d16
 1263              	USB_OTG_EP0Activate:
 1264              	.LFB130:
1442:../STLibs//STM32_USB-Host-Device_Lib_V2.1.0/Libraries/STM32_USB_OTG_Driver/src/usb_core.c **** /**
1443:../STLibs//STM32_USB-Host-Device_Lib_V2.1.0/Libraries/STM32_USB_OTG_Driver/src/usb_core.c **** * @brief  enables EP0 OUT to receive SETUP packets and configures EP0
1444:../STLibs//STM32_USB-Host-Device_Lib_V2.1.0/Libraries/STM32_USB_OTG_Driver/src/usb_core.c **** *   for transmitting packets
1445:../STLibs//STM32_USB-Host-Device_Lib_V2.1.0/Libraries/STM32_USB_OTG_Driver/src/usb_core.c **** * @param  None
1446:../STLibs//STM32_USB-Host-Device_Lib_V2.1.0/Libraries/STM32_USB_OTG_Driver/src/usb_core.c **** * @retval USB_OTG_STS : status
1447:../STLibs//STM32_USB-Host-Device_Lib_V2.1.0/Libraries/STM32_USB_OTG_Driver/src/usb_core.c **** */
1448:../STLibs//STM32_USB-Host-Device_Lib_V2.1.0/Libraries/STM32_USB_OTG_Driver/src/usb_core.c **** USB_OTG_STS  USB_OTG_EP0Activate(USB_OTG_CORE_HANDLE *pdev)
1449:../STLibs//STM32_USB-Host-Device_Lib_V2.1.0/Libraries/STM32_USB_OTG_Driver/src/usb_core.c **** {
 1265              		.loc 1 1449 0
 1266              		.cfi_startproc
 1267              		@ args = 0, pretend = 0, frame = 0
 1268              		@ frame_needed = 0, uses_anonymous_args = 0
 1269              		@ link register save eliminated.
 1270              	.LVL148:
1450:../STLibs//STM32_USB-Host-Device_Lib_V2.1.0/Libraries/STM32_USB_OTG_Driver/src/usb_core.c ****   USB_OTG_STS             status = USB_OTG_OK;
1451:../STLibs//STM32_USB-Host-Device_Lib_V2.1.0/Libraries/STM32_USB_OTG_Driver/src/usb_core.c ****   USB_OTG_DSTS_TypeDef    dsts;
1452:../STLibs//STM32_USB-Host-Device_Lib_V2.1.0/Libraries/STM32_USB_OTG_Driver/src/usb_core.c ****   USB_OTG_DEPCTL_TypeDef  diepctl;
1453:../STLibs//STM32_USB-Host-Device_Lib_V2.1.0/Libraries/STM32_USB_OTG_Driver/src/usb_core.c ****   USB_OTG_DCTL_TypeDef    dctl;
1454:../STLibs//STM32_USB-Host-Device_Lib_V2.1.0/Libraries/STM32_USB_OTG_Driver/src/usb_core.c ****   
1455:../STLibs//STM32_USB-Host-Device_Lib_V2.1.0/Libraries/STM32_USB_OTG_Driver/src/usb_core.c ****   dctl.d32 = 0;
1456:../STLibs//STM32_USB-Host-Device_Lib_V2.1.0/Libraries/STM32_USB_OTG_Driver/src/usb_core.c ****   /* Read the Device Status and Endpoint 0 Control registers */
1457:../STLibs//STM32_USB-Host-Device_Lib_V2.1.0/Libraries/STM32_USB_OTG_Driver/src/usb_core.c ****   dsts.d32 = USB_OTG_READ_REG32(&pdev->regs.DREGS->DSTS);
 1271              		.loc 1 1457 0
 1272 0416 0369     		ldr	r3, [r0, #16]
1458:../STLibs//STM32_USB-Host-Device_Lib_V2.1.0/Libraries/STM32_USB_OTG_Driver/src/usb_core.c ****   diepctl.d32 = USB_OTG_READ_REG32(&pdev->regs.INEP_REGS[0]->DIEPCTL);
 1273              		.loc 1 1458 0
 1274 0418 8069     		ldr	r0, [r0, #24]
 1275              	.LVL149:
1457:../STLibs//STM32_USB-Host-Device_Lib_V2.1.0/Libraries/STM32_USB_OTG_Driver/src/usb_core.c ****   diepctl.d32 = USB_OTG_READ_REG32(&pdev->regs.INEP_REGS[0]->DIEPCTL);
 1276              		.loc 1 1457 0
 1277 041a 9968     		ldr	r1, [r3, #8]
 1278              		.loc 1 1458 0
 1279 041c 0268     		ldr	r2, [r0]
 1280              	.LVL150:
1459:../STLibs//STM32_USB-Host-Device_Lib_V2.1.0/Libraries/STM32_USB_OTG_Driver/src/usb_core.c ****   /* Set the MPS of the IN EP based on the enumeration speed */
1460:../STLibs//STM32_USB-Host-Device_Lib_V2.1.0/Libraries/STM32_USB_OTG_Driver/src/usb_core.c ****   switch (dsts.b.enumspd)
 1281              		.loc 1 1460 0
 1282 041e C1F34101 		ubfx	r1, r1, #1, #2
 1283 0422 0229     		cmp	r1, #2
1461:../STLibs//STM32_USB-Host-Device_Lib_V2.1.0/Libraries/STM32_USB_OTG_Driver/src/usb_core.c ****   {
1462:../STLibs//STM32_USB-Host-Device_Lib_V2.1.0/Libraries/STM32_USB_OTG_Driver/src/usb_core.c ****   case DSTS_ENUMSPD_HS_PHY_30MHZ_OR_60MHZ:
1463:../STLibs//STM32_USB-Host-Device_Lib_V2.1.0/Libraries/STM32_USB_OTG_Driver/src/usb_core.c ****   case DSTS_ENUMSPD_FS_PHY_30MHZ_OR_60MHZ:
1464:../STLibs//STM32_USB-Host-Device_Lib_V2.1.0/Libraries/STM32_USB_OTG_Driver/src/usb_core.c ****   case DSTS_ENUMSPD_FS_PHY_48MHZ:
1465:../STLibs//STM32_USB-Host-Device_Lib_V2.1.0/Libraries/STM32_USB_OTG_Driver/src/usb_core.c ****     diepctl.b.mps = DEP0CTL_MPS_64;
1466:../STLibs//STM32_USB-Host-Device_Lib_V2.1.0/Libraries/STM32_USB_OTG_Driver/src/usb_core.c ****     break;
1467:../STLibs//STM32_USB-Host-Device_Lib_V2.1.0/Libraries/STM32_USB_OTG_Driver/src/usb_core.c ****   case DSTS_ENUMSPD_LS_PHY_6MHZ:
1468:../STLibs//STM32_USB-Host-Device_Lib_V2.1.0/Libraries/STM32_USB_OTG_Driver/src/usb_core.c ****     diepctl.b.mps = DEP0CTL_MPS_8;
 1284              		.loc 1 1468 0
 1285 0424 0ABF     		itet	eq
 1286 0426 0321     		moveq	r1, #3
1465:../STLibs//STM32_USB-Host-Device_Lib_V2.1.0/Libraries/STM32_USB_OTG_Driver/src/usb_core.c ****     break;
 1287              		.loc 1 1465 0
 1288 0428 6FF30A02 		bfcne	r2, #0, #11
 1289              		.loc 1 1468 0
 1290 042c 61F30A02 		bfieq	r2, r1, #0, #11
1469:../STLibs//STM32_USB-Host-Device_Lib_V2.1.0/Libraries/STM32_USB_OTG_Driver/src/usb_core.c ****     break;
1470:../STLibs//STM32_USB-Host-Device_Lib_V2.1.0/Libraries/STM32_USB_OTG_Driver/src/usb_core.c ****   }
1471:../STLibs//STM32_USB-Host-Device_Lib_V2.1.0/Libraries/STM32_USB_OTG_Driver/src/usb_core.c ****   USB_OTG_WRITE_REG32(&pdev->regs.INEP_REGS[0]->DIEPCTL, diepctl.d32);
 1291              		.loc 1 1471 0
 1292 0430 0260     		str	r2, [r0]
1472:../STLibs//STM32_USB-Host-Device_Lib_V2.1.0/Libraries/STM32_USB_OTG_Driver/src/usb_core.c ****   dctl.b.cgnpinnak = 1;
1473:../STLibs//STM32_USB-Host-Device_Lib_V2.1.0/Libraries/STM32_USB_OTG_Driver/src/usb_core.c ****   USB_OTG_MODIFY_REG32(&pdev->regs.DREGS->DCTL, dctl.d32, dctl.d32);
 1293              		.loc 1 1473 0
 1294 0432 5A68     		ldr	r2, [r3, #4]
 1295              	.LVL151:
 1296 0434 42F48072 		orr	r2, r2, #256
 1297 0438 5A60     		str	r2, [r3, #4]
1474:../STLibs//STM32_USB-Host-Device_Lib_V2.1.0/Libraries/STM32_USB_OTG_Driver/src/usb_core.c ****   return status;
1475:../STLibs//STM32_USB-Host-Device_Lib_V2.1.0/Libraries/STM32_USB_OTG_Driver/src/usb_core.c **** }
 1298              		.loc 1 1475 0
 1299 043a 0020     		movs	r0, #0
 1300 043c 7047     		bx	lr
 1301              		.cfi_endproc
 1302              	.LFE130:
 1304              		.align	1
 1305              		.global	USB_OTG_EPActivate
 1306              		.syntax unified
 1307              		.thumb
 1308              		.thumb_func
 1309              		.fpu fpv4-sp-d16
 1311              	USB_OTG_EPActivate:
 1312              	.LFB131:
1476:../STLibs//STM32_USB-Host-Device_Lib_V2.1.0/Libraries/STM32_USB_OTG_Driver/src/usb_core.c **** 
1477:../STLibs//STM32_USB-Host-Device_Lib_V2.1.0/Libraries/STM32_USB_OTG_Driver/src/usb_core.c **** 
1478:../STLibs//STM32_USB-Host-Device_Lib_V2.1.0/Libraries/STM32_USB_OTG_Driver/src/usb_core.c **** /**
1479:../STLibs//STM32_USB-Host-Device_Lib_V2.1.0/Libraries/STM32_USB_OTG_Driver/src/usb_core.c **** * @brief  USB_OTG_EPActivate : Activates an EP
1480:../STLibs//STM32_USB-Host-Device_Lib_V2.1.0/Libraries/STM32_USB_OTG_Driver/src/usb_core.c **** * @param  pdev : Selected device
1481:../STLibs//STM32_USB-Host-Device_Lib_V2.1.0/Libraries/STM32_USB_OTG_Driver/src/usb_core.c **** * @retval USB_OTG_STS : status
1482:../STLibs//STM32_USB-Host-Device_Lib_V2.1.0/Libraries/STM32_USB_OTG_Driver/src/usb_core.c **** */
1483:../STLibs//STM32_USB-Host-Device_Lib_V2.1.0/Libraries/STM32_USB_OTG_Driver/src/usb_core.c **** USB_OTG_STS USB_OTG_EPActivate(USB_OTG_CORE_HANDLE *pdev , USB_OTG_EP *ep)
1484:../STLibs//STM32_USB-Host-Device_Lib_V2.1.0/Libraries/STM32_USB_OTG_Driver/src/usb_core.c **** {
 1313              		.loc 1 1484 0
 1314              		.cfi_startproc
 1315              		@ args = 0, pretend = 0, frame = 0
 1316              		@ frame_needed = 0, uses_anonymous_args = 0
 1317              	.LVL152:
 1318 043e 0B78     		ldrb	r3, [r1]	@ zero_extendqisi2
 1319 0440 30B5     		push	{r4, r5, lr}
 1320              	.LCFI13:
 1321              		.cfi_def_cfa_offset 12
 1322              		.cfi_offset 4, -12
 1323              		.cfi_offset 5, -8
 1324              		.cfi_offset 14, -4
 1325 0442 0122     		movs	r2, #1
1485:../STLibs//STM32_USB-Host-Device_Lib_V2.1.0/Libraries/STM32_USB_OTG_Driver/src/usb_core.c ****   USB_OTG_STS status = USB_OTG_OK;
1486:../STLibs//STM32_USB-Host-Device_Lib_V2.1.0/Libraries/STM32_USB_OTG_Driver/src/usb_core.c ****   USB_OTG_DEPCTL_TypeDef  depctl;
1487:../STLibs//STM32_USB-Host-Device_Lib_V2.1.0/Libraries/STM32_USB_OTG_Driver/src/usb_core.c ****   USB_OTG_DAINT_TypeDef  daintmsk;
1488:../STLibs//STM32_USB-Host-Device_Lib_V2.1.0/Libraries/STM32_USB_OTG_Driver/src/usb_core.c ****   __IO uint32_t *addr;
1489:../STLibs//STM32_USB-Host-Device_Lib_V2.1.0/Libraries/STM32_USB_OTG_Driver/src/usb_core.c ****   
1490:../STLibs//STM32_USB-Host-Device_Lib_V2.1.0/Libraries/STM32_USB_OTG_Driver/src/usb_core.c ****   
1491:../STLibs//STM32_USB-Host-Device_Lib_V2.1.0/Libraries/STM32_USB_OTG_Driver/src/usb_core.c ****   depctl.d32 = 0;
1492:../STLibs//STM32_USB-Host-Device_Lib_V2.1.0/Libraries/STM32_USB_OTG_Driver/src/usb_core.c ****   daintmsk.d32 = 0;
1493:../STLibs//STM32_USB-Host-Device_Lib_V2.1.0/Libraries/STM32_USB_OTG_Driver/src/usb_core.c ****   /* Read DEPCTLn register */
1494:../STLibs//STM32_USB-Host-Device_Lib_V2.1.0/Libraries/STM32_USB_OTG_Driver/src/usb_core.c ****   if (ep->is_in == 1)
 1326              		.loc 1 1494 0
 1327 0444 4D78     		ldrb	r5, [r1, #1]	@ zero_extendqisi2
 1328 0446 9A40     		lsls	r2, r2, r3
1495:../STLibs//STM32_USB-Host-Device_Lib_V2.1.0/Libraries/STM32_USB_OTG_Driver/src/usb_core.c ****   {
1496:../STLibs//STM32_USB-Host-Device_Lib_V2.1.0/Libraries/STM32_USB_OTG_Driver/src/usb_core.c ****     addr = &pdev->regs.INEP_REGS[ep->num]->DIEPCTL;
 1329              		.loc 1 1496 0
 1330 0448 00EB8303 		add	r3, r0, r3, lsl #2
1494:../STLibs//STM32_USB-Host-Device_Lib_V2.1.0/Libraries/STM32_USB_OTG_Driver/src/usb_core.c ****   {
 1331              		.loc 1 1494 0
 1332 044c 012D     		cmp	r5, #1
 1333              		.loc 1 1496 0
 1334 044e 0CBF     		ite	eq
 1335 0450 9D69     		ldreq	r5, [r3, #24]
 1336              	.LVL153:
1497:../STLibs//STM32_USB-Host-Device_Lib_V2.1.0/Libraries/STM32_USB_OTG_Driver/src/usb_core.c ****     daintmsk.ep.in = 1 << ep->num;
1498:../STLibs//STM32_USB-Host-Device_Lib_V2.1.0/Libraries/STM32_USB_OTG_Driver/src/usb_core.c ****   }
1499:../STLibs//STM32_USB-Host-Device_Lib_V2.1.0/Libraries/STM32_USB_OTG_Driver/src/usb_core.c ****   else
1500:../STLibs//STM32_USB-Host-Device_Lib_V2.1.0/Libraries/STM32_USB_OTG_Driver/src/usb_core.c ****   {
1501:../STLibs//STM32_USB-Host-Device_Lib_V2.1.0/Libraries/STM32_USB_OTG_Driver/src/usb_core.c ****     addr = &pdev->regs.OUTEP_REGS[ep->num]->DOEPCTL;
 1337              		.loc 1 1501 0
 1338 0452 5D6D     		ldrne	r5, [r3, #84]
 1339              	.LVL154:
1502:../STLibs//STM32_USB-Host-Device_Lib_V2.1.0/Libraries/STM32_USB_OTG_Driver/src/usb_core.c ****     daintmsk.ep.out = 1 << ep->num;
1503:../STLibs//STM32_USB-Host-Device_Lib_V2.1.0/Libraries/STM32_USB_OTG_Driver/src/usb_core.c ****   }
1504:../STLibs//STM32_USB-Host-Device_Lib_V2.1.0/Libraries/STM32_USB_OTG_Driver/src/usb_core.c ****   /* If the EP is already active don't change the EP Control
1505:../STLibs//STM32_USB-Host-Device_Lib_V2.1.0/Libraries/STM32_USB_OTG_Driver/src/usb_core.c ****   * register. */
1506:../STLibs//STM32_USB-Host-Device_Lib_V2.1.0/Libraries/STM32_USB_OTG_Driver/src/usb_core.c ****   depctl.d32 = USB_OTG_READ_REG32(addr);
 1340              		.loc 1 1506 0
 1341 0454 2B68     		ldr	r3, [r5]
 1342              	.LVL155:
 1343 0456 92B2     		uxth	r2, r2
1492:../STLibs//STM32_USB-Host-Device_Lib_V2.1.0/Libraries/STM32_USB_OTG_Driver/src/usb_core.c ****   /* Read DEPCTLn register */
 1344              		.loc 1 1492 0
 1345 0458 4FF00004 		mov	r4, #0
 1346              	.LVL156:
1497:../STLibs//STM32_USB-Host-Device_Lib_V2.1.0/Libraries/STM32_USB_OTG_Driver/src/usb_core.c ****     daintmsk.ep.in = 1 << ep->num;
 1347              		.loc 1 1497 0
 1348 045c 0CBF     		ite	eq
 1349 045e 62F30F04 		bfieq	r4, r2, #0, #16
 1350              	.LVL157:
1502:../STLibs//STM32_USB-Host-Device_Lib_V2.1.0/Libraries/STM32_USB_OTG_Driver/src/usb_core.c ****     daintmsk.ep.out = 1 << ep->num;
 1351              		.loc 1 1502 0
 1352 0462 62F31F44 		bfine	r4, r2, #16, #16
1507:../STLibs//STM32_USB-Host-Device_Lib_V2.1.0/Libraries/STM32_USB_OTG_Driver/src/usb_core.c ****   if (!depctl.b.usbactep)
 1353              		.loc 1 1507 0
 1354 0466 1A04     		lsls	r2, r3, #16
 1355 0468 0DD4     		bmi	.L117
1508:../STLibs//STM32_USB-Host-Device_Lib_V2.1.0/Libraries/STM32_USB_OTG_Driver/src/usb_core.c ****   {
1509:../STLibs//STM32_USB-Host-Device_Lib_V2.1.0/Libraries/STM32_USB_OTG_Driver/src/usb_core.c ****     depctl.b.mps    = ep->maxpacket;
 1356              		.loc 1 1509 0
 1357 046a 8A68     		ldr	r2, [r1, #8]
 1358 046c 62F30A03 		bfi	r3, r2, #0, #11
1510:../STLibs//STM32_USB-Host-Device_Lib_V2.1.0/Libraries/STM32_USB_OTG_Driver/src/usb_core.c ****     depctl.b.eptype = ep->type;
 1359              		.loc 1 1510 0
 1360 0470 CA78     		ldrb	r2, [r1, #3]	@ zero_extendqisi2
 1361 0472 62F39343 		bfi	r3, r2, #18, #2
1511:../STLibs//STM32_USB-Host-Device_Lib_V2.1.0/Libraries/STM32_USB_OTG_Driver/src/usb_core.c ****     depctl.b.txfnum = ep->tx_fifo_num;
 1362              		.loc 1 1511 0
 1363 0476 CA88     		ldrh	r2, [r1, #6]
 1364 0478 62F39953 		bfi	r3, r2, #22, #4
1512:../STLibs//STM32_USB-Host-Device_Lib_V2.1.0/Libraries/STM32_USB_OTG_Driver/src/usb_core.c ****     depctl.b.setd0pid = 1;
1513:../STLibs//STM32_USB-Host-Device_Lib_V2.1.0/Libraries/STM32_USB_OTG_Driver/src/usb_core.c ****     depctl.b.usbactep = 1;
 1365              		.loc 1 1513 0
 1366 047c 43F08053 		orr	r3, r3, #268435456
 1367              	.LVL158:
 1368 0480 43F40043 		orr	r3, r3, #32768
 1369              	.LVL159:
1514:../STLibs//STM32_USB-Host-Device_Lib_V2.1.0/Libraries/STM32_USB_OTG_Driver/src/usb_core.c ****     USB_OTG_WRITE_REG32(addr, depctl.d32);
 1370              		.loc 1 1514 0
 1371 0484 2B60     		str	r3, [r5]
 1372              	.L117:
1515:../STLibs//STM32_USB-Host-Device_Lib_V2.1.0/Libraries/STM32_USB_OTG_Driver/src/usb_core.c ****   }
1516:../STLibs//STM32_USB-Host-Device_Lib_V2.1.0/Libraries/STM32_USB_OTG_Driver/src/usb_core.c ****   /* Enable the Interrupt for this EP */
1517:../STLibs//STM32_USB-Host-Device_Lib_V2.1.0/Libraries/STM32_USB_OTG_Driver/src/usb_core.c **** #ifdef USB_OTG_HS_DEDICATED_EP1_ENABLED
1518:../STLibs//STM32_USB-Host-Device_Lib_V2.1.0/Libraries/STM32_USB_OTG_Driver/src/usb_core.c ****   if((ep->num == 1)&&(pdev->cfg.coreID == USB_OTG_HS_CORE_ID))
1519:../STLibs//STM32_USB-Host-Device_Lib_V2.1.0/Libraries/STM32_USB_OTG_Driver/src/usb_core.c ****   {
1520:../STLibs//STM32_USB-Host-Device_Lib_V2.1.0/Libraries/STM32_USB_OTG_Driver/src/usb_core.c ****     USB_OTG_MODIFY_REG32(&pdev->regs.DREGS->DEACHMSK, 0, daintmsk.d32);
1521:../STLibs//STM32_USB-Host-Device_Lib_V2.1.0/Libraries/STM32_USB_OTG_Driver/src/usb_core.c ****   }
1522:../STLibs//STM32_USB-Host-Device_Lib_V2.1.0/Libraries/STM32_USB_OTG_Driver/src/usb_core.c ****   else
1523:../STLibs//STM32_USB-Host-Device_Lib_V2.1.0/Libraries/STM32_USB_OTG_Driver/src/usb_core.c **** #endif   
1524:../STLibs//STM32_USB-Host-Device_Lib_V2.1.0/Libraries/STM32_USB_OTG_Driver/src/usb_core.c ****     USB_OTG_MODIFY_REG32(&pdev->regs.DREGS->DAINTMSK, 0, daintmsk.d32);
 1373              		.loc 1 1524 0
 1374 0486 0369     		ldr	r3, [r0, #16]
 1375              	.LVL160:
 1376 0488 DA69     		ldr	r2, [r3, #28]
 1377 048a 1443     		orrs	r4, r4, r2
 1378              	.LVL161:
 1379 048c DC61     		str	r4, [r3, #28]
1525:../STLibs//STM32_USB-Host-Device_Lib_V2.1.0/Libraries/STM32_USB_OTG_Driver/src/usb_core.c ****   return status;
1526:../STLibs//STM32_USB-Host-Device_Lib_V2.1.0/Libraries/STM32_USB_OTG_Driver/src/usb_core.c **** }
 1380              		.loc 1 1526 0
 1381 048e 0020     		movs	r0, #0
 1382              	.LVL162:
 1383 0490 30BD     		pop	{r4, r5, pc}
 1384              		.cfi_endproc
 1385              	.LFE131:
 1387              		.align	1
 1388              		.global	USB_OTG_EPDeactivate
 1389              		.syntax unified
 1390              		.thumb
 1391              		.thumb_func
 1392              		.fpu fpv4-sp-d16
 1394              	USB_OTG_EPDeactivate:
 1395              	.LFB132:
1527:../STLibs//STM32_USB-Host-Device_Lib_V2.1.0/Libraries/STM32_USB_OTG_Driver/src/usb_core.c **** 
1528:../STLibs//STM32_USB-Host-Device_Lib_V2.1.0/Libraries/STM32_USB_OTG_Driver/src/usb_core.c **** 
1529:../STLibs//STM32_USB-Host-Device_Lib_V2.1.0/Libraries/STM32_USB_OTG_Driver/src/usb_core.c **** /**
1530:../STLibs//STM32_USB-Host-Device_Lib_V2.1.0/Libraries/STM32_USB_OTG_Driver/src/usb_core.c **** * @brief  USB_OTG_EPDeactivate : Deactivates an EP
1531:../STLibs//STM32_USB-Host-Device_Lib_V2.1.0/Libraries/STM32_USB_OTG_Driver/src/usb_core.c **** * @param  pdev : Selected device
1532:../STLibs//STM32_USB-Host-Device_Lib_V2.1.0/Libraries/STM32_USB_OTG_Driver/src/usb_core.c **** * @retval USB_OTG_STS : status
1533:../STLibs//STM32_USB-Host-Device_Lib_V2.1.0/Libraries/STM32_USB_OTG_Driver/src/usb_core.c **** */
1534:../STLibs//STM32_USB-Host-Device_Lib_V2.1.0/Libraries/STM32_USB_OTG_Driver/src/usb_core.c **** USB_OTG_STS USB_OTG_EPDeactivate(USB_OTG_CORE_HANDLE *pdev , USB_OTG_EP *ep)
1535:../STLibs//STM32_USB-Host-Device_Lib_V2.1.0/Libraries/STM32_USB_OTG_Driver/src/usb_core.c **** {
 1396              		.loc 1 1535 0
 1397              		.cfi_startproc
 1398              		@ args = 0, pretend = 0, frame = 0
 1399              		@ frame_needed = 0, uses_anonymous_args = 0
 1400              	.LVL163:
 1401 0492 30B5     		push	{r4, r5, lr}
 1402              	.LCFI14:
 1403              		.cfi_def_cfa_offset 12
 1404              		.cfi_offset 4, -12
 1405              		.cfi_offset 5, -8
 1406              		.cfi_offset 14, -4
 1407 0494 0B78     		ldrb	r3, [r1]	@ zero_extendqisi2
1536:../STLibs//STM32_USB-Host-Device_Lib_V2.1.0/Libraries/STM32_USB_OTG_Driver/src/usb_core.c ****   USB_OTG_STS status = USB_OTG_OK;
1537:../STLibs//STM32_USB-Host-Device_Lib_V2.1.0/Libraries/STM32_USB_OTG_Driver/src/usb_core.c ****   USB_OTG_DEPCTL_TypeDef  depctl;
1538:../STLibs//STM32_USB-Host-Device_Lib_V2.1.0/Libraries/STM32_USB_OTG_Driver/src/usb_core.c ****   USB_OTG_DAINT_TypeDef  daintmsk;
1539:../STLibs//STM32_USB-Host-Device_Lib_V2.1.0/Libraries/STM32_USB_OTG_Driver/src/usb_core.c ****   __IO uint32_t *addr;
1540:../STLibs//STM32_USB-Host-Device_Lib_V2.1.0/Libraries/STM32_USB_OTG_Driver/src/usb_core.c ****   
1541:../STLibs//STM32_USB-Host-Device_Lib_V2.1.0/Libraries/STM32_USB_OTG_Driver/src/usb_core.c ****   depctl.d32 = 0;
1542:../STLibs//STM32_USB-Host-Device_Lib_V2.1.0/Libraries/STM32_USB_OTG_Driver/src/usb_core.c ****   daintmsk.d32 = 0;  
1543:../STLibs//STM32_USB-Host-Device_Lib_V2.1.0/Libraries/STM32_USB_OTG_Driver/src/usb_core.c ****   /* Read DEPCTLn register */
1544:../STLibs//STM32_USB-Host-Device_Lib_V2.1.0/Libraries/STM32_USB_OTG_Driver/src/usb_core.c ****   if (ep->is_in == 1)
 1408              		.loc 1 1544 0
 1409 0496 4978     		ldrb	r1, [r1, #1]	@ zero_extendqisi2
 1410              	.LVL164:
 1411 0498 0122     		movs	r2, #1
 1412 049a 9A40     		lsls	r2, r2, r3
1545:../STLibs//STM32_USB-Host-Device_Lib_V2.1.0/Libraries/STM32_USB_OTG_Driver/src/usb_core.c ****   {
1546:../STLibs//STM32_USB-Host-Device_Lib_V2.1.0/Libraries/STM32_USB_OTG_Driver/src/usb_core.c ****     addr = &pdev->regs.INEP_REGS[ep->num]->DIEPCTL;
 1413              		.loc 1 1546 0
 1414 049c 00EB8303 		add	r3, r0, r3, lsl #2
1544:../STLibs//STM32_USB-Host-Device_Lib_V2.1.0/Libraries/STM32_USB_OTG_Driver/src/usb_core.c ****   {
 1415              		.loc 1 1544 0
 1416 04a0 0129     		cmp	r1, #1
1541:../STLibs//STM32_USB-Host-Device_Lib_V2.1.0/Libraries/STM32_USB_OTG_Driver/src/usb_core.c ****   daintmsk.d32 = 0;  
 1417              		.loc 1 1541 0
 1418 04a2 4FF00005 		mov	r5, #0
 1419              	.LVL165:
1542:../STLibs//STM32_USB-Host-Device_Lib_V2.1.0/Libraries/STM32_USB_OTG_Driver/src/usb_core.c ****   /* Read DEPCTLn register */
 1420              		.loc 1 1542 0
 1421 04a6 2C46     		mov	r4, r5
 1422              	.LVL166:
 1423              		.loc 1 1546 0
 1424 04a8 0CBF     		ite	eq
 1425 04aa 9B69     		ldreq	r3, [r3, #24]
 1426              	.LVL167:
1547:../STLibs//STM32_USB-Host-Device_Lib_V2.1.0/Libraries/STM32_USB_OTG_Driver/src/usb_core.c ****     daintmsk.ep.in = 1 << ep->num;
1548:../STLibs//STM32_USB-Host-Device_Lib_V2.1.0/Libraries/STM32_USB_OTG_Driver/src/usb_core.c ****   }
1549:../STLibs//STM32_USB-Host-Device_Lib_V2.1.0/Libraries/STM32_USB_OTG_Driver/src/usb_core.c ****   else
1550:../STLibs//STM32_USB-Host-Device_Lib_V2.1.0/Libraries/STM32_USB_OTG_Driver/src/usb_core.c ****   {
1551:../STLibs//STM32_USB-Host-Device_Lib_V2.1.0/Libraries/STM32_USB_OTG_Driver/src/usb_core.c ****     addr = &pdev->regs.OUTEP_REGS[ep->num]->DOEPCTL;
 1427              		.loc 1 1551 0
 1428 04ac 5B6D     		ldrne	r3, [r3, #84]
 1429              	.LVL168:
 1430 04ae 92B2     		uxth	r2, r2
1547:../STLibs//STM32_USB-Host-Device_Lib_V2.1.0/Libraries/STM32_USB_OTG_Driver/src/usb_core.c ****     daintmsk.ep.in = 1 << ep->num;
 1431              		.loc 1 1547 0
 1432 04b0 0CBF     		ite	eq
 1433 04b2 62F30F04 		bfieq	r4, r2, #0, #16
 1434              	.LVL169:
1552:../STLibs//STM32_USB-Host-Device_Lib_V2.1.0/Libraries/STM32_USB_OTG_Driver/src/usb_core.c ****     daintmsk.ep.out = 1 << ep->num;
 1435              		.loc 1 1552 0
 1436 04b6 62F31F44 		bfine	r4, r2, #16, #16
1553:../STLibs//STM32_USB-Host-Device_Lib_V2.1.0/Libraries/STM32_USB_OTG_Driver/src/usb_core.c ****   }
1554:../STLibs//STM32_USB-Host-Device_Lib_V2.1.0/Libraries/STM32_USB_OTG_Driver/src/usb_core.c ****   depctl.b.usbactep = 0;
 1437              		.loc 1 1554 0
 1438 04ba 6FF3CF35 		bfc	r5, #15, #1
1555:../STLibs//STM32_USB-Host-Device_Lib_V2.1.0/Libraries/STM32_USB_OTG_Driver/src/usb_core.c ****   USB_OTG_WRITE_REG32(addr, depctl.d32);
1556:../STLibs//STM32_USB-Host-Device_Lib_V2.1.0/Libraries/STM32_USB_OTG_Driver/src/usb_core.c ****   /* Disable the Interrupt for this EP */
1557:../STLibs//STM32_USB-Host-Device_Lib_V2.1.0/Libraries/STM32_USB_OTG_Driver/src/usb_core.c ****   
1558:../STLibs//STM32_USB-Host-Device_Lib_V2.1.0/Libraries/STM32_USB_OTG_Driver/src/usb_core.c **** #ifdef USB_OTG_HS_DEDICATED_EP1_ENABLED
1559:../STLibs//STM32_USB-Host-Device_Lib_V2.1.0/Libraries/STM32_USB_OTG_Driver/src/usb_core.c ****   if((ep->num == 1)&&(pdev->cfg.coreID == USB_OTG_HS_CORE_ID))
1560:../STLibs//STM32_USB-Host-Device_Lib_V2.1.0/Libraries/STM32_USB_OTG_Driver/src/usb_core.c ****   {
1561:../STLibs//STM32_USB-Host-Device_Lib_V2.1.0/Libraries/STM32_USB_OTG_Driver/src/usb_core.c ****     USB_OTG_MODIFY_REG32(&pdev->regs.DREGS->DEACHMSK, daintmsk.d32, 0);
1562:../STLibs//STM32_USB-Host-Device_Lib_V2.1.0/Libraries/STM32_USB_OTG_Driver/src/usb_core.c ****   }
1563:../STLibs//STM32_USB-Host-Device_Lib_V2.1.0/Libraries/STM32_USB_OTG_Driver/src/usb_core.c ****   else
1564:../STLibs//STM32_USB-Host-Device_Lib_V2.1.0/Libraries/STM32_USB_OTG_Driver/src/usb_core.c **** #endif    
1565:../STLibs//STM32_USB-Host-Device_Lib_V2.1.0/Libraries/STM32_USB_OTG_Driver/src/usb_core.c ****     USB_OTG_MODIFY_REG32(&pdev->regs.DREGS->DAINTMSK, daintmsk.d32, 0);
 1439              		.loc 1 1565 0
 1440 04be 0269     		ldr	r2, [r0, #16]
1555:../STLibs//STM32_USB-Host-Device_Lib_V2.1.0/Libraries/STM32_USB_OTG_Driver/src/usb_core.c ****   USB_OTG_WRITE_REG32(addr, depctl.d32);
 1441              		.loc 1 1555 0
 1442 04c0 1D60     		str	r5, [r3]
 1443              		.loc 1 1565 0
 1444 04c2 D369     		ldr	r3, [r2, #28]
 1445              	.LVL170:
 1446 04c4 23EA0403 		bic	r3, r3, r4
 1447 04c8 D361     		str	r3, [r2, #28]
1566:../STLibs//STM32_USB-Host-Device_Lib_V2.1.0/Libraries/STM32_USB_OTG_Driver/src/usb_core.c ****   return status;
1567:../STLibs//STM32_USB-Host-Device_Lib_V2.1.0/Libraries/STM32_USB_OTG_Driver/src/usb_core.c **** }
 1448              		.loc 1 1567 0
 1449 04ca 0020     		movs	r0, #0
 1450              	.LVL171:
 1451 04cc 30BD     		pop	{r4, r5, pc}
 1452              		.cfi_endproc
 1453              	.LFE132:
 1455              		.align	1
 1456              		.global	USB_OTG_EPStartXfer
 1457              		.syntax unified
 1458              		.thumb
 1459              		.thumb_func
 1460              		.fpu fpv4-sp-d16
 1462              	USB_OTG_EPStartXfer:
 1463              	.LFB133:
1568:../STLibs//STM32_USB-Host-Device_Lib_V2.1.0/Libraries/STM32_USB_OTG_Driver/src/usb_core.c **** 
1569:../STLibs//STM32_USB-Host-Device_Lib_V2.1.0/Libraries/STM32_USB_OTG_Driver/src/usb_core.c **** 
1570:../STLibs//STM32_USB-Host-Device_Lib_V2.1.0/Libraries/STM32_USB_OTG_Driver/src/usb_core.c **** /**
1571:../STLibs//STM32_USB-Host-Device_Lib_V2.1.0/Libraries/STM32_USB_OTG_Driver/src/usb_core.c **** * @brief  USB_OTG_EPStartXfer : Handle the setup for data xfer for an EP and 
1572:../STLibs//STM32_USB-Host-Device_Lib_V2.1.0/Libraries/STM32_USB_OTG_Driver/src/usb_core.c **** *         starts the xfer
1573:../STLibs//STM32_USB-Host-Device_Lib_V2.1.0/Libraries/STM32_USB_OTG_Driver/src/usb_core.c **** * @param  pdev : Selected device
1574:../STLibs//STM32_USB-Host-Device_Lib_V2.1.0/Libraries/STM32_USB_OTG_Driver/src/usb_core.c **** * @retval USB_OTG_STS : status
1575:../STLibs//STM32_USB-Host-Device_Lib_V2.1.0/Libraries/STM32_USB_OTG_Driver/src/usb_core.c **** */
1576:../STLibs//STM32_USB-Host-Device_Lib_V2.1.0/Libraries/STM32_USB_OTG_Driver/src/usb_core.c **** USB_OTG_STS USB_OTG_EPStartXfer(USB_OTG_CORE_HANDLE *pdev , USB_OTG_EP *ep)
1577:../STLibs//STM32_USB-Host-Device_Lib_V2.1.0/Libraries/STM32_USB_OTG_Driver/src/usb_core.c **** {
 1464              		.loc 1 1577 0
 1465              		.cfi_startproc
 1466              		@ args = 0, pretend = 0, frame = 0
 1467              		@ frame_needed = 0, uses_anonymous_args = 0
 1468              	.LVL172:
 1469 04ce F8B5     		push	{r3, r4, r5, r6, r7, lr}
 1470              	.LCFI15:
 1471              		.cfi_def_cfa_offset 24
 1472              		.cfi_offset 3, -24
 1473              		.cfi_offset 4, -20
 1474              		.cfi_offset 5, -16
 1475              		.cfi_offset 6, -12
 1476              		.cfi_offset 7, -8
 1477              		.cfi_offset 14, -4
1578:../STLibs//STM32_USB-Host-Device_Lib_V2.1.0/Libraries/STM32_USB_OTG_Driver/src/usb_core.c ****   USB_OTG_STS status = USB_OTG_OK;
1579:../STLibs//STM32_USB-Host-Device_Lib_V2.1.0/Libraries/STM32_USB_OTG_Driver/src/usb_core.c ****   USB_OTG_DEPCTL_TypeDef     depctl;
1580:../STLibs//STM32_USB-Host-Device_Lib_V2.1.0/Libraries/STM32_USB_OTG_Driver/src/usb_core.c ****   USB_OTG_DEPXFRSIZ_TypeDef  deptsiz;
1581:../STLibs//STM32_USB-Host-Device_Lib_V2.1.0/Libraries/STM32_USB_OTG_Driver/src/usb_core.c ****   USB_OTG_DSTS_TypeDef       dsts;    
1582:../STLibs//STM32_USB-Host-Device_Lib_V2.1.0/Libraries/STM32_USB_OTG_Driver/src/usb_core.c ****   uint32_t fifoemptymsk = 0;  
1583:../STLibs//STM32_USB-Host-Device_Lib_V2.1.0/Libraries/STM32_USB_OTG_Driver/src/usb_core.c ****   
1584:../STLibs//STM32_USB-Host-Device_Lib_V2.1.0/Libraries/STM32_USB_OTG_Driver/src/usb_core.c ****   depctl.d32 = 0;
1585:../STLibs//STM32_USB-Host-Device_Lib_V2.1.0/Libraries/STM32_USB_OTG_Driver/src/usb_core.c ****   deptsiz.d32 = 0;
1586:../STLibs//STM32_USB-Host-Device_Lib_V2.1.0/Libraries/STM32_USB_OTG_Driver/src/usb_core.c ****   /* IN endpoint */
1587:../STLibs//STM32_USB-Host-Device_Lib_V2.1.0/Libraries/STM32_USB_OTG_Driver/src/usb_core.c ****   if (ep->is_in == 1)
 1478              		.loc 1 1587 0
 1479 04d0 91F801C0 		ldrb	ip, [r1, #1]	@ zero_extendqisi2
 1480 04d4 0A78     		ldrb	r2, [r1]	@ zero_extendqisi2
 1481 04d6 4B69     		ldr	r3, [r1, #20]
 1482 04d8 CE78     		ldrb	r6, [r1, #3]	@ zero_extendqisi2
 1483 04da BCF1010F 		cmp	ip, #1
 1484 04de 41D1     		bne	.L122
1588:../STLibs//STM32_USB-Host-Device_Lib_V2.1.0/Libraries/STM32_USB_OTG_Driver/src/usb_core.c ****   {
1589:../STLibs//STM32_USB-Host-Device_Lib_V2.1.0/Libraries/STM32_USB_OTG_Driver/src/usb_core.c ****     depctl.d32  = USB_OTG_READ_REG32(&(pdev->regs.INEP_REGS[ep->num]->DIEPCTL));
 1485              		.loc 1 1589 0
 1486 04e0 00EB8204 		add	r4, r0, r2, lsl #2
 1487 04e4 A769     		ldr	r7, [r4, #24]
 1488 04e6 3C68     		ldr	r4, [r7]
 1489              	.LVL173:
1590:../STLibs//STM32_USB-Host-Device_Lib_V2.1.0/Libraries/STM32_USB_OTG_Driver/src/usb_core.c ****     deptsiz.d32 = USB_OTG_READ_REG32(&(pdev->regs.INEP_REGS[ep->num]->DIEPTSIZ));
 1490              		.loc 1 1590 0
 1491 04e8 3D69     		ldr	r5, [r7, #16]
 1492              	.LVL174:
1591:../STLibs//STM32_USB-Host-Device_Lib_V2.1.0/Libraries/STM32_USB_OTG_Driver/src/usb_core.c ****     /* Zero Length Packet? */
1592:../STLibs//STM32_USB-Host-Device_Lib_V2.1.0/Libraries/STM32_USB_OTG_Driver/src/usb_core.c ****     if (ep->xfer_len == 0)
1593:../STLibs//STM32_USB-Host-Device_Lib_V2.1.0/Libraries/STM32_USB_OTG_Driver/src/usb_core.c ****     {
1594:../STLibs//STM32_USB-Host-Device_Lib_V2.1.0/Libraries/STM32_USB_OTG_Driver/src/usb_core.c ****       deptsiz.b.xfersize = 0;
 1493              		.loc 1 1594 0
 1494 04ea 63F31205 		bfi	r5, r3, #0, #19
1592:../STLibs//STM32_USB-Host-Device_Lib_V2.1.0/Libraries/STM32_USB_OTG_Driver/src/usb_core.c ****     {
 1495              		.loc 1 1592 0
 1496 04ee 93B9     		cbnz	r3, .L123
1595:../STLibs//STM32_USB-Host-Device_Lib_V2.1.0/Libraries/STM32_USB_OTG_Driver/src/usb_core.c ****       deptsiz.b.pktcnt = 1;
 1497              		.loc 1 1595 0
 1498 04f0 6CF3DC45 		bfi	r5, ip, #19, #10
 1499              	.L124:
1596:../STLibs//STM32_USB-Host-Device_Lib_V2.1.0/Libraries/STM32_USB_OTG_Driver/src/usb_core.c ****     }
1597:../STLibs//STM32_USB-Host-Device_Lib_V2.1.0/Libraries/STM32_USB_OTG_Driver/src/usb_core.c ****     else
1598:../STLibs//STM32_USB-Host-Device_Lib_V2.1.0/Libraries/STM32_USB_OTG_Driver/src/usb_core.c ****     {
1599:../STLibs//STM32_USB-Host-Device_Lib_V2.1.0/Libraries/STM32_USB_OTG_Driver/src/usb_core.c ****       /* Program the transfer size and packet count
1600:../STLibs//STM32_USB-Host-Device_Lib_V2.1.0/Libraries/STM32_USB_OTG_Driver/src/usb_core.c ****       * as follows: xfersize = N * maxpacket +
1601:../STLibs//STM32_USB-Host-Device_Lib_V2.1.0/Libraries/STM32_USB_OTG_Driver/src/usb_core.c ****       * short_packet pktcnt = N + (short_packet
1602:../STLibs//STM32_USB-Host-Device_Lib_V2.1.0/Libraries/STM32_USB_OTG_Driver/src/usb_core.c ****       * exist ? 1 : 0)
1603:../STLibs//STM32_USB-Host-Device_Lib_V2.1.0/Libraries/STM32_USB_OTG_Driver/src/usb_core.c ****       */
1604:../STLibs//STM32_USB-Host-Device_Lib_V2.1.0/Libraries/STM32_USB_OTG_Driver/src/usb_core.c ****       deptsiz.b.xfersize = ep->xfer_len;
1605:../STLibs//STM32_USB-Host-Device_Lib_V2.1.0/Libraries/STM32_USB_OTG_Driver/src/usb_core.c ****       deptsiz.b.pktcnt = (ep->xfer_len - 1 + ep->maxpacket) / ep->maxpacket;
1606:../STLibs//STM32_USB-Host-Device_Lib_V2.1.0/Libraries/STM32_USB_OTG_Driver/src/usb_core.c ****       
1607:../STLibs//STM32_USB-Host-Device_Lib_V2.1.0/Libraries/STM32_USB_OTG_Driver/src/usb_core.c ****       if (ep->type == EP_TYPE_ISOC)
1608:../STLibs//STM32_USB-Host-Device_Lib_V2.1.0/Libraries/STM32_USB_OTG_Driver/src/usb_core.c ****       {
1609:../STLibs//STM32_USB-Host-Device_Lib_V2.1.0/Libraries/STM32_USB_OTG_Driver/src/usb_core.c ****         deptsiz.b.mc = 1;
1610:../STLibs//STM32_USB-Host-Device_Lib_V2.1.0/Libraries/STM32_USB_OTG_Driver/src/usb_core.c ****       }       
1611:../STLibs//STM32_USB-Host-Device_Lib_V2.1.0/Libraries/STM32_USB_OTG_Driver/src/usb_core.c ****     }
1612:../STLibs//STM32_USB-Host-Device_Lib_V2.1.0/Libraries/STM32_USB_OTG_Driver/src/usb_core.c ****     USB_OTG_WRITE_REG32(&pdev->regs.INEP_REGS[ep->num]->DIEPTSIZ, deptsiz.d32);
 1500              		.loc 1 1612 0
 1501 04f4 3D61     		str	r5, [r7, #16]
1613:../STLibs//STM32_USB-Host-Device_Lib_V2.1.0/Libraries/STM32_USB_OTG_Driver/src/usb_core.c ****     
1614:../STLibs//STM32_USB-Host-Device_Lib_V2.1.0/Libraries/STM32_USB_OTG_Driver/src/usb_core.c ****     if (pdev->cfg.dma_enable == 1)
 1502              		.loc 1 1614 0
 1503 04f6 C578     		ldrb	r5, [r0, #3]	@ zero_extendqisi2
 1504              	.LVL175:
 1505 04f8 012D     		cmp	r5, #1
 1506 04fa 1BD1     		bne	.L125
1615:../STLibs//STM32_USB-Host-Device_Lib_V2.1.0/Libraries/STM32_USB_OTG_Driver/src/usb_core.c ****     {
1616:../STLibs//STM32_USB-Host-Device_Lib_V2.1.0/Libraries/STM32_USB_OTG_Driver/src/usb_core.c ****       USB_OTG_WRITE_REG32(&pdev->regs.INEP_REGS[ep->num]->DIEPDMA, ep->dma_addr);
 1507              		.loc 1 1616 0
 1508 04fc 0D69     		ldr	r5, [r1, #16]
 1509 04fe 7D61     		str	r5, [r7, #20]
1617:../STLibs//STM32_USB-Host-Device_Lib_V2.1.0/Libraries/STM32_USB_OTG_Driver/src/usb_core.c ****     }
1618:../STLibs//STM32_USB-Host-Device_Lib_V2.1.0/Libraries/STM32_USB_OTG_Driver/src/usb_core.c ****     else
1619:../STLibs//STM32_USB-Host-Device_Lib_V2.1.0/Libraries/STM32_USB_OTG_Driver/src/usb_core.c ****     {
1620:../STLibs//STM32_USB-Host-Device_Lib_V2.1.0/Libraries/STM32_USB_OTG_Driver/src/usb_core.c ****       if (ep->type != EP_TYPE_ISOC)
1621:../STLibs//STM32_USB-Host-Device_Lib_V2.1.0/Libraries/STM32_USB_OTG_Driver/src/usb_core.c ****       {
1622:../STLibs//STM32_USB-Host-Device_Lib_V2.1.0/Libraries/STM32_USB_OTG_Driver/src/usb_core.c ****         /* Enable the Tx FIFO Empty Interrupt for this EP */
1623:../STLibs//STM32_USB-Host-Device_Lib_V2.1.0/Libraries/STM32_USB_OTG_Driver/src/usb_core.c ****         if (ep->xfer_len > 0)
1624:../STLibs//STM32_USB-Host-Device_Lib_V2.1.0/Libraries/STM32_USB_OTG_Driver/src/usb_core.c ****         {
1625:../STLibs//STM32_USB-Host-Device_Lib_V2.1.0/Libraries/STM32_USB_OTG_Driver/src/usb_core.c ****           fifoemptymsk = 1 << ep->num;
1626:../STLibs//STM32_USB-Host-Device_Lib_V2.1.0/Libraries/STM32_USB_OTG_Driver/src/usb_core.c ****           USB_OTG_MODIFY_REG32(&pdev->regs.DREGS->DIEPEMPMSK, 0, fifoemptymsk);
1627:../STLibs//STM32_USB-Host-Device_Lib_V2.1.0/Libraries/STM32_USB_OTG_Driver/src/usb_core.c ****         }
1628:../STLibs//STM32_USB-Host-Device_Lib_V2.1.0/Libraries/STM32_USB_OTG_Driver/src/usb_core.c ****       }
1629:../STLibs//STM32_USB-Host-Device_Lib_V2.1.0/Libraries/STM32_USB_OTG_Driver/src/usb_core.c ****     }
1630:../STLibs//STM32_USB-Host-Device_Lib_V2.1.0/Libraries/STM32_USB_OTG_Driver/src/usb_core.c ****     
1631:../STLibs//STM32_USB-Host-Device_Lib_V2.1.0/Libraries/STM32_USB_OTG_Driver/src/usb_core.c ****     
1632:../STLibs//STM32_USB-Host-Device_Lib_V2.1.0/Libraries/STM32_USB_OTG_Driver/src/usb_core.c ****     if (ep->type == EP_TYPE_ISOC)
 1510              		.loc 1 1632 0
 1511 0500 012E     		cmp	r6, #1
 1512 0502 24D1     		bne	.L127
 1513              	.L126:
1633:../STLibs//STM32_USB-Host-Device_Lib_V2.1.0/Libraries/STM32_USB_OTG_Driver/src/usb_core.c ****     {
1634:../STLibs//STM32_USB-Host-Device_Lib_V2.1.0/Libraries/STM32_USB_OTG_Driver/src/usb_core.c ****       dsts.d32 = USB_OTG_READ_REG32(&pdev->regs.DREGS->DSTS);
 1514              		.loc 1 1634 0
 1515 0504 0569     		ldr	r5, [r0, #16]
 1516 0506 AD68     		ldr	r5, [r5, #8]
1635:../STLibs//STM32_USB-Host-Device_Lib_V2.1.0/Libraries/STM32_USB_OTG_Driver/src/usb_core.c ****       
1636:../STLibs//STM32_USB-Host-Device_Lib_V2.1.0/Libraries/STM32_USB_OTG_Driver/src/usb_core.c ****       if (((dsts.b.soffn)&0x1) == 0)
 1517              		.loc 1 1636 0
 1518 0508 ED05     		lsls	r5, r5, #23
1637:../STLibs//STM32_USB-Host-Device_Lib_V2.1.0/Libraries/STM32_USB_OTG_Driver/src/usb_core.c ****       {
1638:../STLibs//STM32_USB-Host-Device_Lib_V2.1.0/Libraries/STM32_USB_OTG_Driver/src/usb_core.c ****         depctl.b.setd1pid = 1;
 1519              		.loc 1 1638 0
 1520 050a 54BF     		ite	pl
 1521 050c 44F00054 		orrpl	r4, r4, #536870912
 1522              	.LVL176:
1639:../STLibs//STM32_USB-Host-Device_Lib_V2.1.0/Libraries/STM32_USB_OTG_Driver/src/usb_core.c ****       }
1640:../STLibs//STM32_USB-Host-Device_Lib_V2.1.0/Libraries/STM32_USB_OTG_Driver/src/usb_core.c ****       else
1641:../STLibs//STM32_USB-Host-Device_Lib_V2.1.0/Libraries/STM32_USB_OTG_Driver/src/usb_core.c ****       {
1642:../STLibs//STM32_USB-Host-Device_Lib_V2.1.0/Libraries/STM32_USB_OTG_Driver/src/usb_core.c ****         depctl.b.setd0pid = 1;
 1523              		.loc 1 1642 0
 1524 0510 44F08054 		orrmi	r4, r4, #268435456
 1525              	.LVL177:
 1526 0514 1BE0     		b	.L127
 1527              	.LVL178:
 1528              	.L123:
1605:../STLibs//STM32_USB-Host-Device_Lib_V2.1.0/Libraries/STM32_USB_OTG_Driver/src/usb_core.c ****       
 1529              		.loc 1 1605 0
 1530 0516 D1F808E0 		ldr	lr, [r1, #8]
 1531 051a 0EEB030C 		add	ip, lr, r3
 1532 051e 0CF1FF3C 		add	ip, ip, #-1
1607:../STLibs//STM32_USB-Host-Device_Lib_V2.1.0/Libraries/STM32_USB_OTG_Driver/src/usb_core.c ****       {
 1533              		.loc 1 1607 0
 1534 0522 012E     		cmp	r6, #1
1605:../STLibs//STM32_USB-Host-Device_Lib_V2.1.0/Libraries/STM32_USB_OTG_Driver/src/usb_core.c ****       
 1535              		.loc 1 1605 0
 1536 0524 BCFBFEFC 		udiv	ip, ip, lr
 1537 0528 6CF3DC45 		bfi	r5, ip, #19, #10
1609:../STLibs//STM32_USB-Host-Device_Lib_V2.1.0/Libraries/STM32_USB_OTG_Driver/src/usb_core.c ****       }       
 1538              		.loc 1 1609 0
 1539 052c 08BF     		it	eq
 1540 052e 66F35E75 		bfieq	r5, r6, #29, #2
 1541 0532 DFE7     		b	.L124
 1542              	.LVL179:
 1543              	.L125:
1620:../STLibs//STM32_USB-Host-Device_Lib_V2.1.0/Libraries/STM32_USB_OTG_Driver/src/usb_core.c ****       {
 1544              		.loc 1 1620 0
 1545 0534 012E     		cmp	r6, #1
 1546 0536 E5D0     		beq	.L126
1623:../STLibs//STM32_USB-Host-Device_Lib_V2.1.0/Libraries/STM32_USB_OTG_Driver/src/usb_core.c ****         {
 1547              		.loc 1 1623 0
 1548 0538 4BB1     		cbz	r3, .L127
 1549              	.LVL180:
1626:../STLibs//STM32_USB-Host-Device_Lib_V2.1.0/Libraries/STM32_USB_OTG_Driver/src/usb_core.c ****         }
 1550              		.loc 1 1626 0
 1551 053a D0F810C0 		ldr	ip, [r0, #16]
1625:../STLibs//STM32_USB-Host-Device_Lib_V2.1.0/Libraries/STM32_USB_OTG_Driver/src/usb_core.c ****           USB_OTG_MODIFY_REG32(&pdev->regs.DREGS->DIEPEMPMSK, 0, fifoemptymsk);
 1552              		.loc 1 1625 0
 1553 053e 0125     		movs	r5, #1
1626:../STLibs//STM32_USB-Host-Device_Lib_V2.1.0/Libraries/STM32_USB_OTG_Driver/src/usb_core.c ****         }
 1554              		.loc 1 1626 0
 1555 0540 DCF834E0 		ldr	lr, [ip, #52]
1625:../STLibs//STM32_USB-Host-Device_Lib_V2.1.0/Libraries/STM32_USB_OTG_Driver/src/usb_core.c ****           USB_OTG_MODIFY_REG32(&pdev->regs.DREGS->DIEPEMPMSK, 0, fifoemptymsk);
 1556              		.loc 1 1625 0
 1557 0544 9540     		lsls	r5, r5, r2
 1558              	.LVL181:
1626:../STLibs//STM32_USB-Host-Device_Lib_V2.1.0/Libraries/STM32_USB_OTG_Driver/src/usb_core.c ****         }
 1559              		.loc 1 1626 0
 1560 0546 45EA0E05 		orr	r5, r5, lr
 1561              	.LVL182:
 1562 054a CCF83450 		str	r5, [ip, #52]
 1563              	.LVL183:
 1564              	.L127:
1643:../STLibs//STM32_USB-Host-Device_Lib_V2.1.0/Libraries/STM32_USB_OTG_Driver/src/usb_core.c ****       }
1644:../STLibs//STM32_USB-Host-Device_Lib_V2.1.0/Libraries/STM32_USB_OTG_Driver/src/usb_core.c ****     } 
1645:../STLibs//STM32_USB-Host-Device_Lib_V2.1.0/Libraries/STM32_USB_OTG_Driver/src/usb_core.c ****     
1646:../STLibs//STM32_USB-Host-Device_Lib_V2.1.0/Libraries/STM32_USB_OTG_Driver/src/usb_core.c ****     /* EP enable, IN data in FIFO */
1647:../STLibs//STM32_USB-Host-Device_Lib_V2.1.0/Libraries/STM32_USB_OTG_Driver/src/usb_core.c ****     depctl.b.cnak = 1;
1648:../STLibs//STM32_USB-Host-Device_Lib_V2.1.0/Libraries/STM32_USB_OTG_Driver/src/usb_core.c ****     depctl.b.epena = 1;
 1565              		.loc 1 1648 0
 1566 054e 44F00444 		orr	r4, r4, #-2080374784
 1567              	.LVL184:
1649:../STLibs//STM32_USB-Host-Device_Lib_V2.1.0/Libraries/STM32_USB_OTG_Driver/src/usb_core.c ****     USB_OTG_WRITE_REG32(&pdev->regs.INEP_REGS[ep->num]->DIEPCTL, depctl.d32);
1650:../STLibs//STM32_USB-Host-Device_Lib_V2.1.0/Libraries/STM32_USB_OTG_Driver/src/usb_core.c ****     
1651:../STLibs//STM32_USB-Host-Device_Lib_V2.1.0/Libraries/STM32_USB_OTG_Driver/src/usb_core.c ****     if (ep->type == EP_TYPE_ISOC)
 1568              		.loc 1 1651 0
 1569 0552 012E     		cmp	r6, #1
 1570              	.LVL185:
1649:../STLibs//STM32_USB-Host-Device_Lib_V2.1.0/Libraries/STM32_USB_OTG_Driver/src/usb_core.c ****     USB_OTG_WRITE_REG32(&pdev->regs.INEP_REGS[ep->num]->DIEPCTL, depctl.d32);
 1571              		.loc 1 1649 0
 1572 0554 3C60     		str	r4, [r7]
 1573              		.loc 1 1651 0
 1574 0556 03D1     		bne	.L130
1652:../STLibs//STM32_USB-Host-Device_Lib_V2.1.0/Libraries/STM32_USB_OTG_Driver/src/usb_core.c ****     {
1653:../STLibs//STM32_USB-Host-Device_Lib_V2.1.0/Libraries/STM32_USB_OTG_Driver/src/usb_core.c ****       USB_OTG_WritePacket(pdev, ep->xfer_buff, ep->num, ep->xfer_len);   
 1575              		.loc 1 1653 0
 1576 0558 9BB2     		uxth	r3, r3
 1577 055a C968     		ldr	r1, [r1, #12]
 1578              	.LVL186:
 1579 055c FFF7FEFF 		bl	USB_OTG_WritePacket
 1580              	.LVL187:
 1581              	.L130:
1654:../STLibs//STM32_USB-Host-Device_Lib_V2.1.0/Libraries/STM32_USB_OTG_Driver/src/usb_core.c ****     }    
1655:../STLibs//STM32_USB-Host-Device_Lib_V2.1.0/Libraries/STM32_USB_OTG_Driver/src/usb_core.c ****   }
1656:../STLibs//STM32_USB-Host-Device_Lib_V2.1.0/Libraries/STM32_USB_OTG_Driver/src/usb_core.c ****   else
1657:../STLibs//STM32_USB-Host-Device_Lib_V2.1.0/Libraries/STM32_USB_OTG_Driver/src/usb_core.c ****   {
1658:../STLibs//STM32_USB-Host-Device_Lib_V2.1.0/Libraries/STM32_USB_OTG_Driver/src/usb_core.c ****     /* OUT endpoint */
1659:../STLibs//STM32_USB-Host-Device_Lib_V2.1.0/Libraries/STM32_USB_OTG_Driver/src/usb_core.c ****     depctl.d32  = USB_OTG_READ_REG32(&(pdev->regs.OUTEP_REGS[ep->num]->DOEPCTL));
1660:../STLibs//STM32_USB-Host-Device_Lib_V2.1.0/Libraries/STM32_USB_OTG_Driver/src/usb_core.c ****     deptsiz.d32 = USB_OTG_READ_REG32(&(pdev->regs.OUTEP_REGS[ep->num]->DOEPTSIZ));
1661:../STLibs//STM32_USB-Host-Device_Lib_V2.1.0/Libraries/STM32_USB_OTG_Driver/src/usb_core.c ****     /* Program the transfer size and packet count as follows:
1662:../STLibs//STM32_USB-Host-Device_Lib_V2.1.0/Libraries/STM32_USB_OTG_Driver/src/usb_core.c ****     * pktcnt = N
1663:../STLibs//STM32_USB-Host-Device_Lib_V2.1.0/Libraries/STM32_USB_OTG_Driver/src/usb_core.c ****     * xfersize = N * maxpacket
1664:../STLibs//STM32_USB-Host-Device_Lib_V2.1.0/Libraries/STM32_USB_OTG_Driver/src/usb_core.c ****     */
1665:../STLibs//STM32_USB-Host-Device_Lib_V2.1.0/Libraries/STM32_USB_OTG_Driver/src/usb_core.c ****     if (ep->xfer_len == 0)
1666:../STLibs//STM32_USB-Host-Device_Lib_V2.1.0/Libraries/STM32_USB_OTG_Driver/src/usb_core.c ****     {
1667:../STLibs//STM32_USB-Host-Device_Lib_V2.1.0/Libraries/STM32_USB_OTG_Driver/src/usb_core.c ****       deptsiz.b.xfersize = ep->maxpacket;
1668:../STLibs//STM32_USB-Host-Device_Lib_V2.1.0/Libraries/STM32_USB_OTG_Driver/src/usb_core.c ****       deptsiz.b.pktcnt = 1;
1669:../STLibs//STM32_USB-Host-Device_Lib_V2.1.0/Libraries/STM32_USB_OTG_Driver/src/usb_core.c ****     }
1670:../STLibs//STM32_USB-Host-Device_Lib_V2.1.0/Libraries/STM32_USB_OTG_Driver/src/usb_core.c ****     else
1671:../STLibs//STM32_USB-Host-Device_Lib_V2.1.0/Libraries/STM32_USB_OTG_Driver/src/usb_core.c ****     {
1672:../STLibs//STM32_USB-Host-Device_Lib_V2.1.0/Libraries/STM32_USB_OTG_Driver/src/usb_core.c ****       deptsiz.b.pktcnt = (ep->xfer_len + (ep->maxpacket - 1)) / ep->maxpacket;
1673:../STLibs//STM32_USB-Host-Device_Lib_V2.1.0/Libraries/STM32_USB_OTG_Driver/src/usb_core.c ****       deptsiz.b.xfersize = deptsiz.b.pktcnt * ep->maxpacket;
1674:../STLibs//STM32_USB-Host-Device_Lib_V2.1.0/Libraries/STM32_USB_OTG_Driver/src/usb_core.c ****     }
1675:../STLibs//STM32_USB-Host-Device_Lib_V2.1.0/Libraries/STM32_USB_OTG_Driver/src/usb_core.c ****     USB_OTG_WRITE_REG32(&pdev->regs.OUTEP_REGS[ep->num]->DOEPTSIZ, deptsiz.d32);
1676:../STLibs//STM32_USB-Host-Device_Lib_V2.1.0/Libraries/STM32_USB_OTG_Driver/src/usb_core.c ****     
1677:../STLibs//STM32_USB-Host-Device_Lib_V2.1.0/Libraries/STM32_USB_OTG_Driver/src/usb_core.c ****     if (pdev->cfg.dma_enable == 1)
1678:../STLibs//STM32_USB-Host-Device_Lib_V2.1.0/Libraries/STM32_USB_OTG_Driver/src/usb_core.c ****     {
1679:../STLibs//STM32_USB-Host-Device_Lib_V2.1.0/Libraries/STM32_USB_OTG_Driver/src/usb_core.c ****       USB_OTG_WRITE_REG32(&pdev->regs.OUTEP_REGS[ep->num]->DOEPDMA, ep->dma_addr);
1680:../STLibs//STM32_USB-Host-Device_Lib_V2.1.0/Libraries/STM32_USB_OTG_Driver/src/usb_core.c ****     }
1681:../STLibs//STM32_USB-Host-Device_Lib_V2.1.0/Libraries/STM32_USB_OTG_Driver/src/usb_core.c ****     
1682:../STLibs//STM32_USB-Host-Device_Lib_V2.1.0/Libraries/STM32_USB_OTG_Driver/src/usb_core.c ****     if (ep->type == EP_TYPE_ISOC)
1683:../STLibs//STM32_USB-Host-Device_Lib_V2.1.0/Libraries/STM32_USB_OTG_Driver/src/usb_core.c ****     {
1684:../STLibs//STM32_USB-Host-Device_Lib_V2.1.0/Libraries/STM32_USB_OTG_Driver/src/usb_core.c ****       if (ep->even_odd_frame)
1685:../STLibs//STM32_USB-Host-Device_Lib_V2.1.0/Libraries/STM32_USB_OTG_Driver/src/usb_core.c ****       {
1686:../STLibs//STM32_USB-Host-Device_Lib_V2.1.0/Libraries/STM32_USB_OTG_Driver/src/usb_core.c ****         depctl.b.setd1pid = 1;
1687:../STLibs//STM32_USB-Host-Device_Lib_V2.1.0/Libraries/STM32_USB_OTG_Driver/src/usb_core.c ****       }
1688:../STLibs//STM32_USB-Host-Device_Lib_V2.1.0/Libraries/STM32_USB_OTG_Driver/src/usb_core.c ****       else
1689:../STLibs//STM32_USB-Host-Device_Lib_V2.1.0/Libraries/STM32_USB_OTG_Driver/src/usb_core.c ****       {
1690:../STLibs//STM32_USB-Host-Device_Lib_V2.1.0/Libraries/STM32_USB_OTG_Driver/src/usb_core.c ****         depctl.b.setd0pid = 1;
1691:../STLibs//STM32_USB-Host-Device_Lib_V2.1.0/Libraries/STM32_USB_OTG_Driver/src/usb_core.c ****       }
1692:../STLibs//STM32_USB-Host-Device_Lib_V2.1.0/Libraries/STM32_USB_OTG_Driver/src/usb_core.c ****     }
1693:../STLibs//STM32_USB-Host-Device_Lib_V2.1.0/Libraries/STM32_USB_OTG_Driver/src/usb_core.c ****     /* EP enable */
1694:../STLibs//STM32_USB-Host-Device_Lib_V2.1.0/Libraries/STM32_USB_OTG_Driver/src/usb_core.c ****     depctl.b.cnak = 1;
1695:../STLibs//STM32_USB-Host-Device_Lib_V2.1.0/Libraries/STM32_USB_OTG_Driver/src/usb_core.c ****     depctl.b.epena = 1;
1696:../STLibs//STM32_USB-Host-Device_Lib_V2.1.0/Libraries/STM32_USB_OTG_Driver/src/usb_core.c ****     USB_OTG_WRITE_REG32(&pdev->regs.OUTEP_REGS[ep->num]->DOEPCTL, depctl.d32);
1697:../STLibs//STM32_USB-Host-Device_Lib_V2.1.0/Libraries/STM32_USB_OTG_Driver/src/usb_core.c ****   }
1698:../STLibs//STM32_USB-Host-Device_Lib_V2.1.0/Libraries/STM32_USB_OTG_Driver/src/usb_core.c ****   return status;
1699:../STLibs//STM32_USB-Host-Device_Lib_V2.1.0/Libraries/STM32_USB_OTG_Driver/src/usb_core.c **** }
 1582              		.loc 1 1699 0
 1583 0560 0020     		movs	r0, #0
 1584 0562 F8BD     		pop	{r3, r4, r5, r6, r7, pc}
 1585              	.LVL188:
 1586              	.L122:
1659:../STLibs//STM32_USB-Host-Device_Lib_V2.1.0/Libraries/STM32_USB_OTG_Driver/src/usb_core.c ****     deptsiz.d32 = USB_OTG_READ_REG32(&(pdev->regs.OUTEP_REGS[ep->num]->DOEPTSIZ));
 1587              		.loc 1 1659 0
 1588 0564 00EB8202 		add	r2, r0, r2, lsl #2
 1589 0568 D1F808C0 		ldr	ip, [r1, #8]
 1590 056c 526D     		ldr	r2, [r2, #84]
 1591 056e CCF31207 		ubfx	r7, ip, #0, #19
 1592 0572 1468     		ldr	r4, [r2]
 1593              	.LVL189:
1660:../STLibs//STM32_USB-Host-Device_Lib_V2.1.0/Libraries/STM32_USB_OTG_Driver/src/usb_core.c ****     /* Program the transfer size and packet count as follows:
 1594              		.loc 1 1660 0
 1595 0574 1569     		ldr	r5, [r2, #16]
 1596              	.LVL190:
1665:../STLibs//STM32_USB-Host-Device_Lib_V2.1.0/Libraries/STM32_USB_OTG_Driver/src/usb_core.c ****     {
 1597              		.loc 1 1665 0
 1598 0576 A3B9     		cbnz	r3, .L131
1667:../STLibs//STM32_USB-Host-Device_Lib_V2.1.0/Libraries/STM32_USB_OTG_Driver/src/usb_core.c ****       deptsiz.b.pktcnt = 1;
 1599              		.loc 1 1667 0
 1600 0578 67F31205 		bfi	r5, r7, #0, #19
1668:../STLibs//STM32_USB-Host-Device_Lib_V2.1.0/Libraries/STM32_USB_OTG_Driver/src/usb_core.c ****     }
 1601              		.loc 1 1668 0
 1602 057c 0123     		movs	r3, #1
 1603 057e 63F3DC45 		bfi	r5, r3, #19, #10
 1604              	.L132:
1675:../STLibs//STM32_USB-Host-Device_Lib_V2.1.0/Libraries/STM32_USB_OTG_Driver/src/usb_core.c ****     
 1605              		.loc 1 1675 0
 1606 0582 1561     		str	r5, [r2, #16]
1677:../STLibs//STM32_USB-Host-Device_Lib_V2.1.0/Libraries/STM32_USB_OTG_Driver/src/usb_core.c ****     {
 1607              		.loc 1 1677 0
 1608 0584 C378     		ldrb	r3, [r0, #3]	@ zero_extendqisi2
 1609 0586 012B     		cmp	r3, #1
1679:../STLibs//STM32_USB-Host-Device_Lib_V2.1.0/Libraries/STM32_USB_OTG_Driver/src/usb_core.c ****     }
 1610              		.loc 1 1679 0
 1611 0588 04BF     		itt	eq
 1612 058a 0B69     		ldreq	r3, [r1, #16]
 1613 058c 5361     		streq	r3, [r2, #20]
1682:../STLibs//STM32_USB-Host-Device_Lib_V2.1.0/Libraries/STM32_USB_OTG_Driver/src/usb_core.c ****     {
 1614              		.loc 1 1682 0
 1615 058e 012E     		cmp	r6, #1
 1616 0590 03D1     		bne	.L134
1684:../STLibs//STM32_USB-Host-Device_Lib_V2.1.0/Libraries/STM32_USB_OTG_Driver/src/usb_core.c ****       {
 1617              		.loc 1 1684 0
 1618 0592 4B79     		ldrb	r3, [r1, #5]	@ zero_extendqisi2
 1619 0594 8BB1     		cbz	r3, .L135
1686:../STLibs//STM32_USB-Host-Device_Lib_V2.1.0/Libraries/STM32_USB_OTG_Driver/src/usb_core.c ****       }
 1620              		.loc 1 1686 0
 1621 0596 44F00054 		orr	r4, r4, #536870912
 1622              	.LVL191:
 1623              	.L134:
1695:../STLibs//STM32_USB-Host-Device_Lib_V2.1.0/Libraries/STM32_USB_OTG_Driver/src/usb_core.c ****     USB_OTG_WRITE_REG32(&pdev->regs.OUTEP_REGS[ep->num]->DOEPCTL, depctl.d32);
 1624              		.loc 1 1695 0
 1625 059a 44F00444 		orr	r4, r4, #-2080374784
 1626              	.LVL192:
1696:../STLibs//STM32_USB-Host-Device_Lib_V2.1.0/Libraries/STM32_USB_OTG_Driver/src/usb_core.c ****   }
 1627              		.loc 1 1696 0
 1628 059e 1460     		str	r4, [r2]
 1629 05a0 DEE7     		b	.L130
 1630              	.L131:
1672:../STLibs//STM32_USB-Host-Device_Lib_V2.1.0/Libraries/STM32_USB_OTG_Driver/src/usb_core.c ****       deptsiz.b.xfersize = deptsiz.b.pktcnt * ep->maxpacket;
 1631              		.loc 1 1672 0
 1632 05a2 6344     		add	r3, r3, ip
 1633 05a4 013B     		subs	r3, r3, #1
 1634 05a6 B3FBFCF3 		udiv	r3, r3, ip
 1635 05aa C3F30903 		ubfx	r3, r3, #0, #10
 1636 05ae 63F3DC45 		bfi	r5, r3, #19, #10
1673:../STLibs//STM32_USB-Host-Device_Lib_V2.1.0/Libraries/STM32_USB_OTG_Driver/src/usb_core.c ****     }
 1637              		.loc 1 1673 0
 1638 05b2 7B43     		muls	r3, r7, r3
 1639 05b4 63F31205 		bfi	r5, r3, #0, #19
 1640 05b8 E3E7     		b	.L132
 1641              	.L135:
1690:../STLibs//STM32_USB-Host-Device_Lib_V2.1.0/Libraries/STM32_USB_OTG_Driver/src/usb_core.c ****       }
 1642              		.loc 1 1690 0
 1643 05ba 44F08054 		orr	r4, r4, #268435456
 1644              	.LVL193:
 1645 05be ECE7     		b	.L134
 1646              		.cfi_endproc
 1647              	.LFE133:
 1649              		.align	1
 1650              		.global	USB_OTG_EP0StartXfer
 1651              		.syntax unified
 1652              		.thumb
 1653              		.thumb_func
 1654              		.fpu fpv4-sp-d16
 1656              	USB_OTG_EP0StartXfer:
 1657              	.LFB134:
1700:../STLibs//STM32_USB-Host-Device_Lib_V2.1.0/Libraries/STM32_USB_OTG_Driver/src/usb_core.c **** 
1701:../STLibs//STM32_USB-Host-Device_Lib_V2.1.0/Libraries/STM32_USB_OTG_Driver/src/usb_core.c **** 
1702:../STLibs//STM32_USB-Host-Device_Lib_V2.1.0/Libraries/STM32_USB_OTG_Driver/src/usb_core.c **** /**
1703:../STLibs//STM32_USB-Host-Device_Lib_V2.1.0/Libraries/STM32_USB_OTG_Driver/src/usb_core.c **** * @brief  USB_OTG_EP0StartXfer : Handle the setup for a data xfer for EP0 and 
1704:../STLibs//STM32_USB-Host-Device_Lib_V2.1.0/Libraries/STM32_USB_OTG_Driver/src/usb_core.c **** *         starts the xfer
1705:../STLibs//STM32_USB-Host-Device_Lib_V2.1.0/Libraries/STM32_USB_OTG_Driver/src/usb_core.c **** * @param  pdev : Selected device
1706:../STLibs//STM32_USB-Host-Device_Lib_V2.1.0/Libraries/STM32_USB_OTG_Driver/src/usb_core.c **** * @retval USB_OTG_STS : status
1707:../STLibs//STM32_USB-Host-Device_Lib_V2.1.0/Libraries/STM32_USB_OTG_Driver/src/usb_core.c **** */
1708:../STLibs//STM32_USB-Host-Device_Lib_V2.1.0/Libraries/STM32_USB_OTG_Driver/src/usb_core.c **** USB_OTG_STS USB_OTG_EP0StartXfer(USB_OTG_CORE_HANDLE *pdev , USB_OTG_EP *ep)
1709:../STLibs//STM32_USB-Host-Device_Lib_V2.1.0/Libraries/STM32_USB_OTG_Driver/src/usb_core.c **** {
 1658              		.loc 1 1709 0
 1659              		.cfi_startproc
 1660              		@ args = 0, pretend = 0, frame = 8
 1661              		@ frame_needed = 0, uses_anonymous_args = 0
 1662              	.LVL194:
 1663 05c0 F7B5     		push	{r0, r1, r2, r4, r5, r6, r7, lr}
 1664              	.LCFI16:
 1665              		.cfi_def_cfa_offset 32
 1666              		.cfi_offset 4, -20
 1667              		.cfi_offset 5, -16
 1668              		.cfi_offset 6, -12
 1669              		.cfi_offset 7, -8
 1670              		.cfi_offset 14, -4
1710:../STLibs//STM32_USB-Host-Device_Lib_V2.1.0/Libraries/STM32_USB_OTG_Driver/src/usb_core.c ****   USB_OTG_STS                 status = USB_OTG_OK;
1711:../STLibs//STM32_USB-Host-Device_Lib_V2.1.0/Libraries/STM32_USB_OTG_Driver/src/usb_core.c ****   USB_OTG_DEPCTL_TypeDef      depctl;
1712:../STLibs//STM32_USB-Host-Device_Lib_V2.1.0/Libraries/STM32_USB_OTG_Driver/src/usb_core.c ****   USB_OTG_DEP0XFRSIZ_TypeDef  deptsiz;
1713:../STLibs//STM32_USB-Host-Device_Lib_V2.1.0/Libraries/STM32_USB_OTG_Driver/src/usb_core.c ****   USB_OTG_INEPREGS          *in_regs;
1714:../STLibs//STM32_USB-Host-Device_Lib_V2.1.0/Libraries/STM32_USB_OTG_Driver/src/usb_core.c ****   uint32_t fifoemptymsk = 0;
1715:../STLibs//STM32_USB-Host-Device_Lib_V2.1.0/Libraries/STM32_USB_OTG_Driver/src/usb_core.c ****   
1716:../STLibs//STM32_USB-Host-Device_Lib_V2.1.0/Libraries/STM32_USB_OTG_Driver/src/usb_core.c ****   depctl.d32   = 0;
1717:../STLibs//STM32_USB-Host-Device_Lib_V2.1.0/Libraries/STM32_USB_OTG_Driver/src/usb_core.c ****   deptsiz.d32  = 0;
1718:../STLibs//STM32_USB-Host-Device_Lib_V2.1.0/Libraries/STM32_USB_OTG_Driver/src/usb_core.c ****   /* IN endpoint */
1719:../STLibs//STM32_USB-Host-Device_Lib_V2.1.0/Libraries/STM32_USB_OTG_Driver/src/usb_core.c ****   if (ep->is_in == 1)
 1671              		.loc 1 1719 0
 1672 05c2 4F78     		ldrb	r7, [r1, #1]	@ zero_extendqisi2
 1673 05c4 4E69     		ldr	r6, [r1, #20]
 1674 05c6 012F     		cmp	r7, #1
 1675 05c8 3AD1     		bne	.L146
1720:../STLibs//STM32_USB-Host-Device_Lib_V2.1.0/Libraries/STM32_USB_OTG_Driver/src/usb_core.c ****   {
1721:../STLibs//STM32_USB-Host-Device_Lib_V2.1.0/Libraries/STM32_USB_OTG_Driver/src/usb_core.c ****     in_regs = pdev->regs.INEP_REGS[0];
 1676              		.loc 1 1721 0
 1677 05ca 8569     		ldr	r5, [r0, #24]
 1678              	.LVL195:
1722:../STLibs//STM32_USB-Host-Device_Lib_V2.1.0/Libraries/STM32_USB_OTG_Driver/src/usb_core.c ****     depctl.d32  = USB_OTG_READ_REG32(&in_regs->DIEPCTL);
 1679              		.loc 1 1722 0
 1680 05cc 2C68     		ldr	r4, [r5]
 1681              	.LVL196:
1723:../STLibs//STM32_USB-Host-Device_Lib_V2.1.0/Libraries/STM32_USB_OTG_Driver/src/usb_core.c ****     deptsiz.d32 = USB_OTG_READ_REG32(&in_regs->DIEPTSIZ);
 1682              		.loc 1 1723 0
 1683 05ce 2B69     		ldr	r3, [r5, #16]
 1684 05d0 0093     		str	r3, [sp]
 1685 05d2 DAB2     		uxtb	r2, r3
 1686 05d4 C3F30743 		ubfx	r3, r3, #16, #8
1724:../STLibs//STM32_USB-Host-Device_Lib_V2.1.0/Libraries/STM32_USB_OTG_Driver/src/usb_core.c ****     /* Zero Length Packet? */
1725:../STLibs//STM32_USB-Host-Device_Lib_V2.1.0/Libraries/STM32_USB_OTG_Driver/src/usb_core.c ****     if (ep->xfer_len == 0)
 1687              		.loc 1 1725 0
 1688 05d8 16BB     		cbnz	r6, .L147
1726:../STLibs//STM32_USB-Host-Device_Lib_V2.1.0/Libraries/STM32_USB_OTG_Driver/src/usb_core.c ****     {
1727:../STLibs//STM32_USB-Host-Device_Lib_V2.1.0/Libraries/STM32_USB_OTG_Driver/src/usb_core.c ****       deptsiz.b.xfersize = 0;
 1689              		.loc 1 1727 0
 1690 05da 66F30602 		bfi	r2, r6, #0, #7
 1691 05de 8DF80020 		strb	r2, [sp]
1728:../STLibs//STM32_USB-Host-Device_Lib_V2.1.0/Libraries/STM32_USB_OTG_Driver/src/usb_core.c ****       deptsiz.b.pktcnt = 1;
 1692              		.loc 1 1728 0
 1693 05e2 67F3C403 		bfi	r3, r7, #3, #2
 1694              	.L160:
1729:../STLibs//STM32_USB-Host-Device_Lib_V2.1.0/Libraries/STM32_USB_OTG_Driver/src/usb_core.c ****       
1730:../STLibs//STM32_USB-Host-Device_Lib_V2.1.0/Libraries/STM32_USB_OTG_Driver/src/usb_core.c ****     }
1731:../STLibs//STM32_USB-Host-Device_Lib_V2.1.0/Libraries/STM32_USB_OTG_Driver/src/usb_core.c ****     else
1732:../STLibs//STM32_USB-Host-Device_Lib_V2.1.0/Libraries/STM32_USB_OTG_Driver/src/usb_core.c ****     {
1733:../STLibs//STM32_USB-Host-Device_Lib_V2.1.0/Libraries/STM32_USB_OTG_Driver/src/usb_core.c ****       if (ep->xfer_len > ep->maxpacket)
1734:../STLibs//STM32_USB-Host-Device_Lib_V2.1.0/Libraries/STM32_USB_OTG_Driver/src/usb_core.c ****       {
1735:../STLibs//STM32_USB-Host-Device_Lib_V2.1.0/Libraries/STM32_USB_OTG_Driver/src/usb_core.c ****         ep->xfer_len = ep->maxpacket;
1736:../STLibs//STM32_USB-Host-Device_Lib_V2.1.0/Libraries/STM32_USB_OTG_Driver/src/usb_core.c ****         deptsiz.b.xfersize = ep->maxpacket;
1737:../STLibs//STM32_USB-Host-Device_Lib_V2.1.0/Libraries/STM32_USB_OTG_Driver/src/usb_core.c ****       }
1738:../STLibs//STM32_USB-Host-Device_Lib_V2.1.0/Libraries/STM32_USB_OTG_Driver/src/usb_core.c ****       else
1739:../STLibs//STM32_USB-Host-Device_Lib_V2.1.0/Libraries/STM32_USB_OTG_Driver/src/usb_core.c ****       {
1740:../STLibs//STM32_USB-Host-Device_Lib_V2.1.0/Libraries/STM32_USB_OTG_Driver/src/usb_core.c ****         deptsiz.b.xfersize = ep->xfer_len;
1741:../STLibs//STM32_USB-Host-Device_Lib_V2.1.0/Libraries/STM32_USB_OTG_Driver/src/usb_core.c ****       }
1742:../STLibs//STM32_USB-Host-Device_Lib_V2.1.0/Libraries/STM32_USB_OTG_Driver/src/usb_core.c ****       deptsiz.b.pktcnt = 1;
 1695              		.loc 1 1742 0
 1696 05e6 8DF80230 		strb	r3, [sp, #2]
1743:../STLibs//STM32_USB-Host-Device_Lib_V2.1.0/Libraries/STM32_USB_OTG_Driver/src/usb_core.c ****     }
1744:../STLibs//STM32_USB-Host-Device_Lib_V2.1.0/Libraries/STM32_USB_OTG_Driver/src/usb_core.c ****     USB_OTG_WRITE_REG32(&in_regs->DIEPTSIZ, deptsiz.d32);
 1697              		.loc 1 1744 0
 1698 05ea 009B     		ldr	r3, [sp]
 1699 05ec 2B61     		str	r3, [r5, #16]
1745:../STLibs//STM32_USB-Host-Device_Lib_V2.1.0/Libraries/STM32_USB_OTG_Driver/src/usb_core.c ****     
1746:../STLibs//STM32_USB-Host-Device_Lib_V2.1.0/Libraries/STM32_USB_OTG_Driver/src/usb_core.c ****     if (pdev->cfg.dma_enable == 1)
 1700              		.loc 1 1746 0
 1701 05ee C278     		ldrb	r2, [r0, #3]	@ zero_extendqisi2
 1702 05f0 012A     		cmp	r2, #1
 1703 05f2 05D1     		bne	.L151
1747:../STLibs//STM32_USB-Host-Device_Lib_V2.1.0/Libraries/STM32_USB_OTG_Driver/src/usb_core.c ****     {
1748:../STLibs//STM32_USB-Host-Device_Lib_V2.1.0/Libraries/STM32_USB_OTG_Driver/src/usb_core.c ****       USB_OTG_WRITE_REG32(&pdev->regs.INEP_REGS[ep->num]->DIEPDMA, ep->dma_addr);  
 1704              		.loc 1 1748 0
 1705 05f4 0B78     		ldrb	r3, [r1]	@ zero_extendqisi2
 1706 05f6 0E69     		ldr	r6, [r1, #16]
 1707 05f8 00EB8303 		add	r3, r0, r3, lsl #2
 1708 05fc 9B69     		ldr	r3, [r3, #24]
 1709 05fe 5E61     		str	r6, [r3, #20]
 1710              	.L151:
1749:../STLibs//STM32_USB-Host-Device_Lib_V2.1.0/Libraries/STM32_USB_OTG_Driver/src/usb_core.c ****     }
1750:../STLibs//STM32_USB-Host-Device_Lib_V2.1.0/Libraries/STM32_USB_OTG_Driver/src/usb_core.c ****     
1751:../STLibs//STM32_USB-Host-Device_Lib_V2.1.0/Libraries/STM32_USB_OTG_Driver/src/usb_core.c ****     /* EP enable, IN data in FIFO */
1752:../STLibs//STM32_USB-Host-Device_Lib_V2.1.0/Libraries/STM32_USB_OTG_Driver/src/usb_core.c ****     depctl.b.cnak = 1;
1753:../STLibs//STM32_USB-Host-Device_Lib_V2.1.0/Libraries/STM32_USB_OTG_Driver/src/usb_core.c ****     depctl.b.epena = 1;
 1711              		.loc 1 1753 0
 1712 0600 44F00444 		orr	r4, r4, #-2080374784
 1713              	.LVL197:
1754:../STLibs//STM32_USB-Host-Device_Lib_V2.1.0/Libraries/STM32_USB_OTG_Driver/src/usb_core.c ****     USB_OTG_WRITE_REG32(&in_regs->DIEPCTL, depctl.d32);
 1714              		.loc 1 1754 0
 1715 0604 2C60     		str	r4, [r5]
1755:../STLibs//STM32_USB-Host-Device_Lib_V2.1.0/Libraries/STM32_USB_OTG_Driver/src/usb_core.c ****     
1756:../STLibs//STM32_USB-Host-Device_Lib_V2.1.0/Libraries/STM32_USB_OTG_Driver/src/usb_core.c ****     
1757:../STLibs//STM32_USB-Host-Device_Lib_V2.1.0/Libraries/STM32_USB_OTG_Driver/src/usb_core.c ****     
1758:../STLibs//STM32_USB-Host-Device_Lib_V2.1.0/Libraries/STM32_USB_OTG_Driver/src/usb_core.c ****     if (pdev->cfg.dma_enable == 0)
 1716              		.loc 1 1758 0
 1717 0606 42B9     		cbnz	r2, .L152
1759:../STLibs//STM32_USB-Host-Device_Lib_V2.1.0/Libraries/STM32_USB_OTG_Driver/src/usb_core.c ****     {
1760:../STLibs//STM32_USB-Host-Device_Lib_V2.1.0/Libraries/STM32_USB_OTG_Driver/src/usb_core.c ****       /* Enable the Tx FIFO Empty Interrupt for this EP */
1761:../STLibs//STM32_USB-Host-Device_Lib_V2.1.0/Libraries/STM32_USB_OTG_Driver/src/usb_core.c ****       if (ep->xfer_len > 0)
 1718              		.loc 1 1761 0
 1719 0608 4B69     		ldr	r3, [r1, #20]
 1720 060a 33B1     		cbz	r3, .L152
 1721              	.LVL198:
1762:../STLibs//STM32_USB-Host-Device_Lib_V2.1.0/Libraries/STM32_USB_OTG_Driver/src/usb_core.c ****       {
1763:../STLibs//STM32_USB-Host-Device_Lib_V2.1.0/Libraries/STM32_USB_OTG_Driver/src/usb_core.c ****         {
1764:../STLibs//STM32_USB-Host-Device_Lib_V2.1.0/Libraries/STM32_USB_OTG_Driver/src/usb_core.c ****           fifoemptymsk |= 1 << ep->num;
1765:../STLibs//STM32_USB-Host-Device_Lib_V2.1.0/Libraries/STM32_USB_OTG_Driver/src/usb_core.c ****           USB_OTG_MODIFY_REG32(&pdev->regs.DREGS->DIEPEMPMSK, 0, fifoemptymsk);
 1722              		.loc 1 1765 0
 1723 060c 0269     		ldr	r2, [r0, #16]
1764:../STLibs//STM32_USB-Host-Device_Lib_V2.1.0/Libraries/STM32_USB_OTG_Driver/src/usb_core.c ****           USB_OTG_MODIFY_REG32(&pdev->regs.DREGS->DIEPEMPMSK, 0, fifoemptymsk);
 1724              		.loc 1 1764 0
 1725 060e 0978     		ldrb	r1, [r1]	@ zero_extendqisi2
 1726              	.LVL199:
 1727              		.loc 1 1765 0
 1728 0610 506B     		ldr	r0, [r2, #52]
 1729              	.LVL200:
1764:../STLibs//STM32_USB-Host-Device_Lib_V2.1.0/Libraries/STM32_USB_OTG_Driver/src/usb_core.c ****           USB_OTG_MODIFY_REG32(&pdev->regs.DREGS->DIEPEMPMSK, 0, fifoemptymsk);
 1730              		.loc 1 1764 0
 1731 0612 0123     		movs	r3, #1
 1732 0614 8B40     		lsls	r3, r3, r1
 1733              	.LVL201:
 1734              		.loc 1 1765 0
 1735 0616 0343     		orrs	r3, r3, r0
 1736              	.LVL202:
 1737 0618 5363     		str	r3, [r2, #52]
 1738              	.LVL203:
 1739              	.L152:
1766:../STLibs//STM32_USB-Host-Device_Lib_V2.1.0/Libraries/STM32_USB_OTG_Driver/src/usb_core.c ****         }
1767:../STLibs//STM32_USB-Host-Device_Lib_V2.1.0/Libraries/STM32_USB_OTG_Driver/src/usb_core.c ****       }
1768:../STLibs//STM32_USB-Host-Device_Lib_V2.1.0/Libraries/STM32_USB_OTG_Driver/src/usb_core.c ****     }
1769:../STLibs//STM32_USB-Host-Device_Lib_V2.1.0/Libraries/STM32_USB_OTG_Driver/src/usb_core.c ****   }
1770:../STLibs//STM32_USB-Host-Device_Lib_V2.1.0/Libraries/STM32_USB_OTG_Driver/src/usb_core.c ****   else
1771:../STLibs//STM32_USB-Host-Device_Lib_V2.1.0/Libraries/STM32_USB_OTG_Driver/src/usb_core.c ****   {
1772:../STLibs//STM32_USB-Host-Device_Lib_V2.1.0/Libraries/STM32_USB_OTG_Driver/src/usb_core.c ****     /* OUT endpoint */
1773:../STLibs//STM32_USB-Host-Device_Lib_V2.1.0/Libraries/STM32_USB_OTG_Driver/src/usb_core.c ****     depctl.d32  = USB_OTG_READ_REG32(&pdev->regs.OUTEP_REGS[ep->num]->DOEPCTL);
1774:../STLibs//STM32_USB-Host-Device_Lib_V2.1.0/Libraries/STM32_USB_OTG_Driver/src/usb_core.c ****     deptsiz.d32 = USB_OTG_READ_REG32(&pdev->regs.OUTEP_REGS[ep->num]->DOEPTSIZ);
1775:../STLibs//STM32_USB-Host-Device_Lib_V2.1.0/Libraries/STM32_USB_OTG_Driver/src/usb_core.c ****     /* Program the transfer size and packet count as follows:
1776:../STLibs//STM32_USB-Host-Device_Lib_V2.1.0/Libraries/STM32_USB_OTG_Driver/src/usb_core.c ****     * xfersize = N * (maxpacket + 4 - (maxpacket % 4))
1777:../STLibs//STM32_USB-Host-Device_Lib_V2.1.0/Libraries/STM32_USB_OTG_Driver/src/usb_core.c ****     * pktcnt = N           */
1778:../STLibs//STM32_USB-Host-Device_Lib_V2.1.0/Libraries/STM32_USB_OTG_Driver/src/usb_core.c ****     if (ep->xfer_len == 0)
1779:../STLibs//STM32_USB-Host-Device_Lib_V2.1.0/Libraries/STM32_USB_OTG_Driver/src/usb_core.c ****     {
1780:../STLibs//STM32_USB-Host-Device_Lib_V2.1.0/Libraries/STM32_USB_OTG_Driver/src/usb_core.c ****       deptsiz.b.xfersize = ep->maxpacket;
1781:../STLibs//STM32_USB-Host-Device_Lib_V2.1.0/Libraries/STM32_USB_OTG_Driver/src/usb_core.c ****       deptsiz.b.pktcnt = 1;
1782:../STLibs//STM32_USB-Host-Device_Lib_V2.1.0/Libraries/STM32_USB_OTG_Driver/src/usb_core.c ****     }
1783:../STLibs//STM32_USB-Host-Device_Lib_V2.1.0/Libraries/STM32_USB_OTG_Driver/src/usb_core.c ****     else
1784:../STLibs//STM32_USB-Host-Device_Lib_V2.1.0/Libraries/STM32_USB_OTG_Driver/src/usb_core.c ****     {
1785:../STLibs//STM32_USB-Host-Device_Lib_V2.1.0/Libraries/STM32_USB_OTG_Driver/src/usb_core.c ****       ep->xfer_len = ep->maxpacket;
1786:../STLibs//STM32_USB-Host-Device_Lib_V2.1.0/Libraries/STM32_USB_OTG_Driver/src/usb_core.c ****       deptsiz.b.xfersize = ep->maxpacket;
1787:../STLibs//STM32_USB-Host-Device_Lib_V2.1.0/Libraries/STM32_USB_OTG_Driver/src/usb_core.c ****       deptsiz.b.pktcnt = 1;
1788:../STLibs//STM32_USB-Host-Device_Lib_V2.1.0/Libraries/STM32_USB_OTG_Driver/src/usb_core.c ****     }
1789:../STLibs//STM32_USB-Host-Device_Lib_V2.1.0/Libraries/STM32_USB_OTG_Driver/src/usb_core.c ****     USB_OTG_WRITE_REG32(&pdev->regs.OUTEP_REGS[ep->num]->DOEPTSIZ, deptsiz.d32);
1790:../STLibs//STM32_USB-Host-Device_Lib_V2.1.0/Libraries/STM32_USB_OTG_Driver/src/usb_core.c ****     if (pdev->cfg.dma_enable == 1)
1791:../STLibs//STM32_USB-Host-Device_Lib_V2.1.0/Libraries/STM32_USB_OTG_Driver/src/usb_core.c ****     {
1792:../STLibs//STM32_USB-Host-Device_Lib_V2.1.0/Libraries/STM32_USB_OTG_Driver/src/usb_core.c ****       USB_OTG_WRITE_REG32(&pdev->regs.OUTEP_REGS[ep->num]->DOEPDMA, ep->dma_addr);
1793:../STLibs//STM32_USB-Host-Device_Lib_V2.1.0/Libraries/STM32_USB_OTG_Driver/src/usb_core.c ****     }
1794:../STLibs//STM32_USB-Host-Device_Lib_V2.1.0/Libraries/STM32_USB_OTG_Driver/src/usb_core.c ****     /* EP enable */
1795:../STLibs//STM32_USB-Host-Device_Lib_V2.1.0/Libraries/STM32_USB_OTG_Driver/src/usb_core.c ****     depctl.b.cnak = 1;
1796:../STLibs//STM32_USB-Host-Device_Lib_V2.1.0/Libraries/STM32_USB_OTG_Driver/src/usb_core.c ****     depctl.b.epena = 1;
1797:../STLibs//STM32_USB-Host-Device_Lib_V2.1.0/Libraries/STM32_USB_OTG_Driver/src/usb_core.c ****     USB_OTG_WRITE_REG32 (&(pdev->regs.OUTEP_REGS[ep->num]->DOEPCTL), depctl.d32);
1798:../STLibs//STM32_USB-Host-Device_Lib_V2.1.0/Libraries/STM32_USB_OTG_Driver/src/usb_core.c ****     
1799:../STLibs//STM32_USB-Host-Device_Lib_V2.1.0/Libraries/STM32_USB_OTG_Driver/src/usb_core.c ****   }
1800:../STLibs//STM32_USB-Host-Device_Lib_V2.1.0/Libraries/STM32_USB_OTG_Driver/src/usb_core.c ****   return status;
1801:../STLibs//STM32_USB-Host-Device_Lib_V2.1.0/Libraries/STM32_USB_OTG_Driver/src/usb_core.c **** }
 1740              		.loc 1 1801 0
 1741 061a 0020     		movs	r0, #0
 1742 061c 03B0     		add	sp, sp, #12
 1743              	.LCFI17:
 1744              		.cfi_remember_state
 1745              		.cfi_def_cfa_offset 20
 1746              		@ sp needed
 1747 061e F0BD     		pop	{r4, r5, r6, r7, pc}
 1748              	.LVL204:
 1749              	.L147:
 1750              	.LCFI18:
 1751              		.cfi_restore_state
1733:../STLibs//STM32_USB-Host-Device_Lib_V2.1.0/Libraries/STM32_USB_OTG_Driver/src/usb_core.c ****       {
 1752              		.loc 1 1733 0
 1753 0620 8F68     		ldr	r7, [r1, #8]
 1754 0622 B742     		cmp	r7, r6
1736:../STLibs//STM32_USB-Host-Device_Lib_V2.1.0/Libraries/STM32_USB_OTG_Driver/src/usb_core.c ****       }
 1755              		.loc 1 1736 0
 1756 0624 34BF     		ite	cc
 1757 0626 67F30602 		bficc	r2, r7, #0, #7
1740:../STLibs//STM32_USB-Host-Device_Lib_V2.1.0/Libraries/STM32_USB_OTG_Driver/src/usb_core.c ****       }
 1758              		.loc 1 1740 0
 1759 062a 66F30602 		bfics	r2, r6, #0, #7
 1760 062e 8DF80020 		strb	r2, [sp]
1742:../STLibs//STM32_USB-Host-Device_Lib_V2.1.0/Libraries/STM32_USB_OTG_Driver/src/usb_core.c ****     }
 1761              		.loc 1 1742 0
 1762 0632 4FF00102 		mov	r2, #1
1735:../STLibs//STM32_USB-Host-Device_Lib_V2.1.0/Libraries/STM32_USB_OTG_Driver/src/usb_core.c ****         deptsiz.b.xfersize = ep->maxpacket;
 1763              		.loc 1 1735 0
 1764 0636 38BF     		it	cc
 1765 0638 4F61     		strcc	r7, [r1, #20]
1742:../STLibs//STM32_USB-Host-Device_Lib_V2.1.0/Libraries/STM32_USB_OTG_Driver/src/usb_core.c ****     }
 1766              		.loc 1 1742 0
 1767 063a 62F3C403 		bfi	r3, r2, #3, #2
 1768 063e D2E7     		b	.L160
 1769              	.LVL205:
 1770              	.L146:
1773:../STLibs//STM32_USB-Host-Device_Lib_V2.1.0/Libraries/STM32_USB_OTG_Driver/src/usb_core.c ****     deptsiz.d32 = USB_OTG_READ_REG32(&pdev->regs.OUTEP_REGS[ep->num]->DOEPTSIZ);
 1771              		.loc 1 1773 0
 1772 0640 0B78     		ldrb	r3, [r1]	@ zero_extendqisi2
 1773 0642 D1F808C0 		ldr	ip, [r1, #8]
 1774 0646 00EB8303 		add	r3, r0, r3, lsl #2
 1775 064a 0CF07F07 		and	r7, ip, #127
 1776 064e 5D6D     		ldr	r5, [r3, #84]
 1777 0650 2C68     		ldr	r4, [r5]
 1778              	.LVL206:
1774:../STLibs//STM32_USB-Host-Device_Lib_V2.1.0/Libraries/STM32_USB_OTG_Driver/src/usb_core.c ****     /* Program the transfer size and packet count as follows:
 1779              		.loc 1 1774 0
 1780 0652 2B69     		ldr	r3, [r5, #16]
 1781 0654 0093     		str	r3, [sp]
 1782 0656 DAB2     		uxtb	r2, r3
 1783 0658 C3F30743 		ubfx	r3, r3, #16, #8
1778:../STLibs//STM32_USB-Host-Device_Lib_V2.1.0/Libraries/STM32_USB_OTG_Driver/src/usb_core.c ****     {
 1784              		.loc 1 1778 0
 1785 065c 9EB9     		cbnz	r6, .L153
 1786              	.L161:
1786:../STLibs//STM32_USB-Host-Device_Lib_V2.1.0/Libraries/STM32_USB_OTG_Driver/src/usb_core.c ****       deptsiz.b.pktcnt = 1;
 1787              		.loc 1 1786 0
 1788 065e 67F30602 		bfi	r2, r7, #0, #7
 1789 0662 8DF80020 		strb	r2, [sp]
1787:../STLibs//STM32_USB-Host-Device_Lib_V2.1.0/Libraries/STM32_USB_OTG_Driver/src/usb_core.c ****     }
 1790              		.loc 1 1787 0
 1791 0666 0122     		movs	r2, #1
 1792 0668 62F3C403 		bfi	r3, r2, #3, #2
 1793 066c 8DF80230 		strb	r3, [sp, #2]
1789:../STLibs//STM32_USB-Host-Device_Lib_V2.1.0/Libraries/STM32_USB_OTG_Driver/src/usb_core.c ****     if (pdev->cfg.dma_enable == 1)
 1794              		.loc 1 1789 0
 1795 0670 009B     		ldr	r3, [sp]
 1796 0672 2B61     		str	r3, [r5, #16]
1790:../STLibs//STM32_USB-Host-Device_Lib_V2.1.0/Libraries/STM32_USB_OTG_Driver/src/usb_core.c ****     {
 1797              		.loc 1 1790 0
 1798 0674 C378     		ldrb	r3, [r0, #3]	@ zero_extendqisi2
 1799 0676 012B     		cmp	r3, #1
1792:../STLibs//STM32_USB-Host-Device_Lib_V2.1.0/Libraries/STM32_USB_OTG_Driver/src/usb_core.c ****     }
 1800              		.loc 1 1792 0
 1801 0678 04BF     		itt	eq
 1802 067a 0B69     		ldreq	r3, [r1, #16]
 1803 067c 6B61     		streq	r3, [r5, #20]
1796:../STLibs//STM32_USB-Host-Device_Lib_V2.1.0/Libraries/STM32_USB_OTG_Driver/src/usb_core.c ****     USB_OTG_WRITE_REG32 (&(pdev->regs.OUTEP_REGS[ep->num]->DOEPCTL), depctl.d32);
 1804              		.loc 1 1796 0
 1805 067e 44F00444 		orr	r4, r4, #-2080374784
 1806              	.LVL207:
1797:../STLibs//STM32_USB-Host-Device_Lib_V2.1.0/Libraries/STM32_USB_OTG_Driver/src/usb_core.c ****     
 1807              		.loc 1 1797 0
 1808 0682 2C60     		str	r4, [r5]
 1809 0684 C9E7     		b	.L152
 1810              	.L153:
1785:../STLibs//STM32_USB-Host-Device_Lib_V2.1.0/Libraries/STM32_USB_OTG_Driver/src/usb_core.c ****       deptsiz.b.xfersize = ep->maxpacket;
 1811              		.loc 1 1785 0
 1812 0686 C1F814C0 		str	ip, [r1, #20]
 1813 068a E8E7     		b	.L161
 1814              		.cfi_endproc
 1815              	.LFE134:
 1817              		.align	1
 1818              		.global	USB_OTG_EPSetStall
 1819              		.syntax unified
 1820              		.thumb
 1821              		.thumb_func
 1822              		.fpu fpv4-sp-d16
 1824              	USB_OTG_EPSetStall:
 1825              	.LFB135:
1802:../STLibs//STM32_USB-Host-Device_Lib_V2.1.0/Libraries/STM32_USB_OTG_Driver/src/usb_core.c **** 
1803:../STLibs//STM32_USB-Host-Device_Lib_V2.1.0/Libraries/STM32_USB_OTG_Driver/src/usb_core.c **** 
1804:../STLibs//STM32_USB-Host-Device_Lib_V2.1.0/Libraries/STM32_USB_OTG_Driver/src/usb_core.c **** /**
1805:../STLibs//STM32_USB-Host-Device_Lib_V2.1.0/Libraries/STM32_USB_OTG_Driver/src/usb_core.c **** * @brief  USB_OTG_EPSetStall : Set the EP STALL
1806:../STLibs//STM32_USB-Host-Device_Lib_V2.1.0/Libraries/STM32_USB_OTG_Driver/src/usb_core.c **** * @param  pdev : Selected device
1807:../STLibs//STM32_USB-Host-Device_Lib_V2.1.0/Libraries/STM32_USB_OTG_Driver/src/usb_core.c **** * @retval USB_OTG_STS : status
1808:../STLibs//STM32_USB-Host-Device_Lib_V2.1.0/Libraries/STM32_USB_OTG_Driver/src/usb_core.c **** */
1809:../STLibs//STM32_USB-Host-Device_Lib_V2.1.0/Libraries/STM32_USB_OTG_Driver/src/usb_core.c **** USB_OTG_STS USB_OTG_EPSetStall(USB_OTG_CORE_HANDLE *pdev , USB_OTG_EP *ep)
1810:../STLibs//STM32_USB-Host-Device_Lib_V2.1.0/Libraries/STM32_USB_OTG_Driver/src/usb_core.c **** {
 1826              		.loc 1 1810 0
 1827              		.cfi_startproc
 1828              		@ args = 0, pretend = 0, frame = 0
 1829              		@ frame_needed = 0, uses_anonymous_args = 0
 1830              		@ link register save eliminated.
 1831              	.LVL208:
1811:../STLibs//STM32_USB-Host-Device_Lib_V2.1.0/Libraries/STM32_USB_OTG_Driver/src/usb_core.c ****   USB_OTG_STS status = USB_OTG_OK;
1812:../STLibs//STM32_USB-Host-Device_Lib_V2.1.0/Libraries/STM32_USB_OTG_Driver/src/usb_core.c ****   USB_OTG_DEPCTL_TypeDef  depctl;
1813:../STLibs//STM32_USB-Host-Device_Lib_V2.1.0/Libraries/STM32_USB_OTG_Driver/src/usb_core.c ****   __IO uint32_t *depctl_addr;
1814:../STLibs//STM32_USB-Host-Device_Lib_V2.1.0/Libraries/STM32_USB_OTG_Driver/src/usb_core.c ****   
1815:../STLibs//STM32_USB-Host-Device_Lib_V2.1.0/Libraries/STM32_USB_OTG_Driver/src/usb_core.c ****   depctl.d32 = 0;
1816:../STLibs//STM32_USB-Host-Device_Lib_V2.1.0/Libraries/STM32_USB_OTG_Driver/src/usb_core.c ****   if (ep->is_in == 1)
 1832              		.loc 1 1816 0
 1833 068c 4A78     		ldrb	r2, [r1, #1]	@ zero_extendqisi2
 1834 068e 0B78     		ldrb	r3, [r1]	@ zero_extendqisi2
 1835 0690 012A     		cmp	r2, #1
 1836              	.LBB32:
 1837              	.LBB33:
1817:../STLibs//STM32_USB-Host-Device_Lib_V2.1.0/Libraries/STM32_USB_OTG_Driver/src/usb_core.c ****   {
1818:../STLibs//STM32_USB-Host-Device_Lib_V2.1.0/Libraries/STM32_USB_OTG_Driver/src/usb_core.c ****     depctl_addr = &(pdev->regs.INEP_REGS[ep->num]->DIEPCTL);
 1838              		.loc 1 1818 0
 1839 0692 00EB8300 		add	r0, r0, r3, lsl #2
 1840              	.LVL209:
 1841              	.LBE33:
 1842              	.LBE32:
1816:../STLibs//STM32_USB-Host-Device_Lib_V2.1.0/Libraries/STM32_USB_OTG_Driver/src/usb_core.c ****   {
 1843              		.loc 1 1816 0
 1844 0696 0AD1     		bne	.L163
 1845              	.LVL210:
 1846              	.LBB35:
 1847              	.LBB34:
 1848              		.loc 1 1818 0
 1849 0698 8269     		ldr	r2, [r0, #24]
 1850              	.LVL211:
1819:../STLibs//STM32_USB-Host-Device_Lib_V2.1.0/Libraries/STM32_USB_OTG_Driver/src/usb_core.c ****     depctl.d32 = USB_OTG_READ_REG32(depctl_addr);
 1851              		.loc 1 1819 0
 1852 069a 1368     		ldr	r3, [r2]
 1853              	.LVL212:
1820:../STLibs//STM32_USB-Host-Device_Lib_V2.1.0/Libraries/STM32_USB_OTG_Driver/src/usb_core.c ****     /* set the disable and stall bits */
1821:../STLibs//STM32_USB-Host-Device_Lib_V2.1.0/Libraries/STM32_USB_OTG_Driver/src/usb_core.c ****     if (depctl.b.epena)
 1854              		.loc 1 1821 0
 1855 069c 002B     		cmp	r3, #0
 1856 069e 01DA     		bge	.L166
1822:../STLibs//STM32_USB-Host-Device_Lib_V2.1.0/Libraries/STM32_USB_OTG_Driver/src/usb_core.c ****     {
1823:../STLibs//STM32_USB-Host-Device_Lib_V2.1.0/Libraries/STM32_USB_OTG_Driver/src/usb_core.c ****       depctl.b.epdis = 1;
 1857              		.loc 1 1823 0
 1858 06a0 43F08043 		orr	r3, r3, #1073741824
 1859              	.LVL213:
 1860              	.L166:
 1861              	.LBE34:
 1862              	.LBE35:
1824:../STLibs//STM32_USB-Host-Device_Lib_V2.1.0/Libraries/STM32_USB_OTG_Driver/src/usb_core.c ****     }
1825:../STLibs//STM32_USB-Host-Device_Lib_V2.1.0/Libraries/STM32_USB_OTG_Driver/src/usb_core.c ****     depctl.b.stall = 1;
1826:../STLibs//STM32_USB-Host-Device_Lib_V2.1.0/Libraries/STM32_USB_OTG_Driver/src/usb_core.c ****     USB_OTG_WRITE_REG32(depctl_addr, depctl.d32);
1827:../STLibs//STM32_USB-Host-Device_Lib_V2.1.0/Libraries/STM32_USB_OTG_Driver/src/usb_core.c ****   }
1828:../STLibs//STM32_USB-Host-Device_Lib_V2.1.0/Libraries/STM32_USB_OTG_Driver/src/usb_core.c ****   else
1829:../STLibs//STM32_USB-Host-Device_Lib_V2.1.0/Libraries/STM32_USB_OTG_Driver/src/usb_core.c ****   {
1830:../STLibs//STM32_USB-Host-Device_Lib_V2.1.0/Libraries/STM32_USB_OTG_Driver/src/usb_core.c ****     depctl_addr = &(pdev->regs.OUTEP_REGS[ep->num]->DOEPCTL);
1831:../STLibs//STM32_USB-Host-Device_Lib_V2.1.0/Libraries/STM32_USB_OTG_Driver/src/usb_core.c ****     depctl.d32 = USB_OTG_READ_REG32(depctl_addr);
1832:../STLibs//STM32_USB-Host-Device_Lib_V2.1.0/Libraries/STM32_USB_OTG_Driver/src/usb_core.c ****     /* set the stall bit */
1833:../STLibs//STM32_USB-Host-Device_Lib_V2.1.0/Libraries/STM32_USB_OTG_Driver/src/usb_core.c ****     depctl.b.stall = 1;
 1863              		.loc 1 1833 0
 1864 06a4 43F40013 		orr	r3, r3, #2097152
 1865              	.LVL214:
1834:../STLibs//STM32_USB-Host-Device_Lib_V2.1.0/Libraries/STM32_USB_OTG_Driver/src/usb_core.c ****     USB_OTG_WRITE_REG32(depctl_addr, depctl.d32);
 1866              		.loc 1 1834 0
 1867 06a8 1360     		str	r3, [r2]
1835:../STLibs//STM32_USB-Host-Device_Lib_V2.1.0/Libraries/STM32_USB_OTG_Driver/src/usb_core.c ****   }
1836:../STLibs//STM32_USB-Host-Device_Lib_V2.1.0/Libraries/STM32_USB_OTG_Driver/src/usb_core.c ****   return status;
1837:../STLibs//STM32_USB-Host-Device_Lib_V2.1.0/Libraries/STM32_USB_OTG_Driver/src/usb_core.c **** }
 1868              		.loc 1 1837 0
 1869 06aa 0020     		movs	r0, #0
 1870 06ac 7047     		bx	lr
 1871              	.LVL215:
 1872              	.L163:
1830:../STLibs//STM32_USB-Host-Device_Lib_V2.1.0/Libraries/STM32_USB_OTG_Driver/src/usb_core.c ****     depctl.d32 = USB_OTG_READ_REG32(depctl_addr);
 1873              		.loc 1 1830 0
 1874 06ae 426D     		ldr	r2, [r0, #84]
 1875              	.LVL216:
1831:../STLibs//STM32_USB-Host-Device_Lib_V2.1.0/Libraries/STM32_USB_OTG_Driver/src/usb_core.c ****     /* set the stall bit */
 1876              		.loc 1 1831 0
 1877 06b0 1368     		ldr	r3, [r2]
 1878 06b2 F7E7     		b	.L166
 1879              		.cfi_endproc
 1880              	.LFE135:
 1882              		.align	1
 1883              		.global	USB_OTG_EPClearStall
 1884              		.syntax unified
 1885              		.thumb
 1886              		.thumb_func
 1887              		.fpu fpv4-sp-d16
 1889              	USB_OTG_EPClearStall:
 1890              	.LFB136:
1838:../STLibs//STM32_USB-Host-Device_Lib_V2.1.0/Libraries/STM32_USB_OTG_Driver/src/usb_core.c **** 
1839:../STLibs//STM32_USB-Host-Device_Lib_V2.1.0/Libraries/STM32_USB_OTG_Driver/src/usb_core.c **** 
1840:../STLibs//STM32_USB-Host-Device_Lib_V2.1.0/Libraries/STM32_USB_OTG_Driver/src/usb_core.c **** /**
1841:../STLibs//STM32_USB-Host-Device_Lib_V2.1.0/Libraries/STM32_USB_OTG_Driver/src/usb_core.c **** * @brief  Clear the EP STALL
1842:../STLibs//STM32_USB-Host-Device_Lib_V2.1.0/Libraries/STM32_USB_OTG_Driver/src/usb_core.c **** * @param  pdev : Selected device
1843:../STLibs//STM32_USB-Host-Device_Lib_V2.1.0/Libraries/STM32_USB_OTG_Driver/src/usb_core.c **** * @retval USB_OTG_STS : status
1844:../STLibs//STM32_USB-Host-Device_Lib_V2.1.0/Libraries/STM32_USB_OTG_Driver/src/usb_core.c **** */
1845:../STLibs//STM32_USB-Host-Device_Lib_V2.1.0/Libraries/STM32_USB_OTG_Driver/src/usb_core.c **** USB_OTG_STS USB_OTG_EPClearStall(USB_OTG_CORE_HANDLE *pdev , USB_OTG_EP *ep)
1846:../STLibs//STM32_USB-Host-Device_Lib_V2.1.0/Libraries/STM32_USB_OTG_Driver/src/usb_core.c **** {
 1891              		.loc 1 1846 0
 1892              		.cfi_startproc
 1893              		@ args = 0, pretend = 0, frame = 0
 1894              		@ frame_needed = 0, uses_anonymous_args = 0
 1895              		@ link register save eliminated.
 1896              	.LVL217:
 1897 06b4 0B78     		ldrb	r3, [r1]	@ zero_extendqisi2
1847:../STLibs//STM32_USB-Host-Device_Lib_V2.1.0/Libraries/STM32_USB_OTG_Driver/src/usb_core.c ****   USB_OTG_STS status = USB_OTG_OK;
1848:../STLibs//STM32_USB-Host-Device_Lib_V2.1.0/Libraries/STM32_USB_OTG_Driver/src/usb_core.c ****   USB_OTG_DEPCTL_TypeDef  depctl;
1849:../STLibs//STM32_USB-Host-Device_Lib_V2.1.0/Libraries/STM32_USB_OTG_Driver/src/usb_core.c ****   __IO uint32_t *depctl_addr;
1850:../STLibs//STM32_USB-Host-Device_Lib_V2.1.0/Libraries/STM32_USB_OTG_Driver/src/usb_core.c ****   
1851:../STLibs//STM32_USB-Host-Device_Lib_V2.1.0/Libraries/STM32_USB_OTG_Driver/src/usb_core.c ****   depctl.d32 = 0;
1852:../STLibs//STM32_USB-Host-Device_Lib_V2.1.0/Libraries/STM32_USB_OTG_Driver/src/usb_core.c ****   
1853:../STLibs//STM32_USB-Host-Device_Lib_V2.1.0/Libraries/STM32_USB_OTG_Driver/src/usb_core.c ****   if (ep->is_in == 1)
 1898              		.loc 1 1853 0
 1899 06b6 4A78     		ldrb	r2, [r1, #1]	@ zero_extendqisi2
1854:../STLibs//STM32_USB-Host-Device_Lib_V2.1.0/Libraries/STM32_USB_OTG_Driver/src/usb_core.c ****   {
1855:../STLibs//STM32_USB-Host-Device_Lib_V2.1.0/Libraries/STM32_USB_OTG_Driver/src/usb_core.c ****     depctl_addr = &(pdev->regs.INEP_REGS[ep->num]->DIEPCTL);
1856:../STLibs//STM32_USB-Host-Device_Lib_V2.1.0/Libraries/STM32_USB_OTG_Driver/src/usb_core.c ****   }
1857:../STLibs//STM32_USB-Host-Device_Lib_V2.1.0/Libraries/STM32_USB_OTG_Driver/src/usb_core.c ****   else
1858:../STLibs//STM32_USB-Host-Device_Lib_V2.1.0/Libraries/STM32_USB_OTG_Driver/src/usb_core.c ****   {
1859:../STLibs//STM32_USB-Host-Device_Lib_V2.1.0/Libraries/STM32_USB_OTG_Driver/src/usb_core.c ****     depctl_addr = &(pdev->regs.OUTEP_REGS[ep->num]->DOEPCTL);
1860:../STLibs//STM32_USB-Host-Device_Lib_V2.1.0/Libraries/STM32_USB_OTG_Driver/src/usb_core.c ****   }
1861:../STLibs//STM32_USB-Host-Device_Lib_V2.1.0/Libraries/STM32_USB_OTG_Driver/src/usb_core.c ****   depctl.d32 = USB_OTG_READ_REG32(depctl_addr);
1862:../STLibs//STM32_USB-Host-Device_Lib_V2.1.0/Libraries/STM32_USB_OTG_Driver/src/usb_core.c ****   /* clear the stall bits */
1863:../STLibs//STM32_USB-Host-Device_Lib_V2.1.0/Libraries/STM32_USB_OTG_Driver/src/usb_core.c ****   depctl.b.stall = 0;
1864:../STLibs//STM32_USB-Host-Device_Lib_V2.1.0/Libraries/STM32_USB_OTG_Driver/src/usb_core.c ****   if (ep->type == EP_TYPE_INTR || ep->type == EP_TYPE_BULK)
 1900              		.loc 1 1864 0
 1901 06b8 C978     		ldrb	r1, [r1, #3]	@ zero_extendqisi2
 1902              	.LVL218:
1855:../STLibs//STM32_USB-Host-Device_Lib_V2.1.0/Libraries/STM32_USB_OTG_Driver/src/usb_core.c ****   }
 1903              		.loc 1 1855 0
 1904 06ba 00EB8300 		add	r0, r0, r3, lsl #2
 1905              	.LVL219:
1853:../STLibs//STM32_USB-Host-Device_Lib_V2.1.0/Libraries/STM32_USB_OTG_Driver/src/usb_core.c ****   {
 1906              		.loc 1 1853 0
 1907 06be 012A     		cmp	r2, #1
1855:../STLibs//STM32_USB-Host-Device_Lib_V2.1.0/Libraries/STM32_USB_OTG_Driver/src/usb_core.c ****   }
 1908              		.loc 1 1855 0
 1909 06c0 0CBF     		ite	eq
 1910 06c2 8269     		ldreq	r2, [r0, #24]
 1911              	.LVL220:
1859:../STLibs//STM32_USB-Host-Device_Lib_V2.1.0/Libraries/STM32_USB_OTG_Driver/src/usb_core.c ****   }
 1912              		.loc 1 1859 0
 1913 06c4 426D     		ldrne	r2, [r0, #84]
 1914              	.LVL221:
 1915 06c6 1368     		ldr	r3, [r2]
 1916              		.loc 1 1864 0
 1917 06c8 0239     		subs	r1, r1, #2
1863:../STLibs//STM32_USB-Host-Device_Lib_V2.1.0/Libraries/STM32_USB_OTG_Driver/src/usb_core.c ****   if (ep->type == EP_TYPE_INTR || ep->type == EP_TYPE_BULK)
 1918              		.loc 1 1863 0
 1919 06ca 6FF35553 		bfc	r3, #21, #1
 1920              	.LVL222:
 1921              		.loc 1 1864 0
 1922 06ce 0129     		cmp	r1, #1
1865:../STLibs//STM32_USB-Host-Device_Lib_V2.1.0/Libraries/STM32_USB_OTG_Driver/src/usb_core.c ****   {
1866:../STLibs//STM32_USB-Host-Device_Lib_V2.1.0/Libraries/STM32_USB_OTG_Driver/src/usb_core.c ****     depctl.b.setd0pid = 1; /* DATA0 */
 1923              		.loc 1 1866 0
 1924 06d0 98BF     		it	ls
 1925 06d2 43F08053 		orrls	r3, r3, #268435456
 1926              	.LVL223:
1867:../STLibs//STM32_USB-Host-Device_Lib_V2.1.0/Libraries/STM32_USB_OTG_Driver/src/usb_core.c ****   }
1868:../STLibs//STM32_USB-Host-Device_Lib_V2.1.0/Libraries/STM32_USB_OTG_Driver/src/usb_core.c ****   USB_OTG_WRITE_REG32(depctl_addr, depctl.d32);
 1927              		.loc 1 1868 0
 1928 06d6 1360     		str	r3, [r2]
1869:../STLibs//STM32_USB-Host-Device_Lib_V2.1.0/Libraries/STM32_USB_OTG_Driver/src/usb_core.c ****   return status;
1870:../STLibs//STM32_USB-Host-Device_Lib_V2.1.0/Libraries/STM32_USB_OTG_Driver/src/usb_core.c **** }
 1929              		.loc 1 1870 0
 1930 06d8 0020     		movs	r0, #0
 1931 06da 7047     		bx	lr
 1932              		.cfi_endproc
 1933              	.LFE136:
 1935              		.align	1
 1936              		.global	USB_OTG_ReadDevAllOutEp_itr
 1937              		.syntax unified
 1938              		.thumb
 1939              		.thumb_func
 1940              		.fpu fpv4-sp-d16
 1942              	USB_OTG_ReadDevAllOutEp_itr:
 1943              	.LFB137:
1871:../STLibs//STM32_USB-Host-Device_Lib_V2.1.0/Libraries/STM32_USB_OTG_Driver/src/usb_core.c **** 
1872:../STLibs//STM32_USB-Host-Device_Lib_V2.1.0/Libraries/STM32_USB_OTG_Driver/src/usb_core.c **** 
1873:../STLibs//STM32_USB-Host-Device_Lib_V2.1.0/Libraries/STM32_USB_OTG_Driver/src/usb_core.c **** /**
1874:../STLibs//STM32_USB-Host-Device_Lib_V2.1.0/Libraries/STM32_USB_OTG_Driver/src/usb_core.c **** * @brief  USB_OTG_ReadDevAllOutEp_itr : returns OUT endpoint interrupt bits
1875:../STLibs//STM32_USB-Host-Device_Lib_V2.1.0/Libraries/STM32_USB_OTG_Driver/src/usb_core.c **** * @param  pdev : Selected device
1876:../STLibs//STM32_USB-Host-Device_Lib_V2.1.0/Libraries/STM32_USB_OTG_Driver/src/usb_core.c **** * @retval OUT endpoint interrupt bits
1877:../STLibs//STM32_USB-Host-Device_Lib_V2.1.0/Libraries/STM32_USB_OTG_Driver/src/usb_core.c **** */
1878:../STLibs//STM32_USB-Host-Device_Lib_V2.1.0/Libraries/STM32_USB_OTG_Driver/src/usb_core.c **** uint32_t USB_OTG_ReadDevAllOutEp_itr(USB_OTG_CORE_HANDLE *pdev)
1879:../STLibs//STM32_USB-Host-Device_Lib_V2.1.0/Libraries/STM32_USB_OTG_Driver/src/usb_core.c **** {
 1944              		.loc 1 1879 0
 1945              		.cfi_startproc
 1946              		@ args = 0, pretend = 0, frame = 0
 1947              		@ frame_needed = 0, uses_anonymous_args = 0
 1948              		@ link register save eliminated.
 1949              	.LVL224:
1880:../STLibs//STM32_USB-Host-Device_Lib_V2.1.0/Libraries/STM32_USB_OTG_Driver/src/usb_core.c ****   uint32_t v;
1881:../STLibs//STM32_USB-Host-Device_Lib_V2.1.0/Libraries/STM32_USB_OTG_Driver/src/usb_core.c ****   v  = USB_OTG_READ_REG32(&pdev->regs.DREGS->DAINT);
 1950              		.loc 1 1881 0
 1951 06dc 0369     		ldr	r3, [r0, #16]
 1952 06de 9869     		ldr	r0, [r3, #24]
 1953              	.LVL225:
1882:../STLibs//STM32_USB-Host-Device_Lib_V2.1.0/Libraries/STM32_USB_OTG_Driver/src/usb_core.c ****   v &= USB_OTG_READ_REG32(&pdev->regs.DREGS->DAINTMSK);
 1954              		.loc 1 1882 0
 1955 06e0 DB69     		ldr	r3, [r3, #28]
 1956              	.LVL226:
 1957 06e2 1840     		ands	r0, r0, r3
 1958              	.LVL227:
1883:../STLibs//STM32_USB-Host-Device_Lib_V2.1.0/Libraries/STM32_USB_OTG_Driver/src/usb_core.c ****   return ((v & 0xffff0000) >> 16);
1884:../STLibs//STM32_USB-Host-Device_Lib_V2.1.0/Libraries/STM32_USB_OTG_Driver/src/usb_core.c **** }
 1959              		.loc 1 1884 0
 1960 06e4 000C     		lsrs	r0, r0, #16
 1961              	.LVL228:
 1962 06e6 7047     		bx	lr
 1963              		.cfi_endproc
 1964              	.LFE137:
 1966              		.align	1
 1967              		.global	USB_OTG_ReadDevOutEP_itr
 1968              		.syntax unified
 1969              		.thumb
 1970              		.thumb_func
 1971              		.fpu fpv4-sp-d16
 1973              	USB_OTG_ReadDevOutEP_itr:
 1974              	.LFB138:
1885:../STLibs//STM32_USB-Host-Device_Lib_V2.1.0/Libraries/STM32_USB_OTG_Driver/src/usb_core.c **** 
1886:../STLibs//STM32_USB-Host-Device_Lib_V2.1.0/Libraries/STM32_USB_OTG_Driver/src/usb_core.c **** 
1887:../STLibs//STM32_USB-Host-Device_Lib_V2.1.0/Libraries/STM32_USB_OTG_Driver/src/usb_core.c **** /**
1888:../STLibs//STM32_USB-Host-Device_Lib_V2.1.0/Libraries/STM32_USB_OTG_Driver/src/usb_core.c **** * @brief  USB_OTG_ReadDevOutEP_itr : returns Device OUT EP Interrupt register
1889:../STLibs//STM32_USB-Host-Device_Lib_V2.1.0/Libraries/STM32_USB_OTG_Driver/src/usb_core.c **** * @param  pdev : Selected device
1890:../STLibs//STM32_USB-Host-Device_Lib_V2.1.0/Libraries/STM32_USB_OTG_Driver/src/usb_core.c **** * @param  ep : end point number
1891:../STLibs//STM32_USB-Host-Device_Lib_V2.1.0/Libraries/STM32_USB_OTG_Driver/src/usb_core.c **** * @retval Device OUT EP Interrupt register
1892:../STLibs//STM32_USB-Host-Device_Lib_V2.1.0/Libraries/STM32_USB_OTG_Driver/src/usb_core.c **** */
1893:../STLibs//STM32_USB-Host-Device_Lib_V2.1.0/Libraries/STM32_USB_OTG_Driver/src/usb_core.c **** uint32_t USB_OTG_ReadDevOutEP_itr(USB_OTG_CORE_HANDLE *pdev , uint8_t epnum)
1894:../STLibs//STM32_USB-Host-Device_Lib_V2.1.0/Libraries/STM32_USB_OTG_Driver/src/usb_core.c **** {
 1975              		.loc 1 1894 0
 1976              		.cfi_startproc
 1977              		@ args = 0, pretend = 0, frame = 0
 1978              		@ frame_needed = 0, uses_anonymous_args = 0
 1979              		@ link register save eliminated.
 1980              	.LVL229:
1895:../STLibs//STM32_USB-Host-Device_Lib_V2.1.0/Libraries/STM32_USB_OTG_Driver/src/usb_core.c ****   uint32_t v;
1896:../STLibs//STM32_USB-Host-Device_Lib_V2.1.0/Libraries/STM32_USB_OTG_Driver/src/usb_core.c ****   v  = USB_OTG_READ_REG32(&pdev->regs.OUTEP_REGS[epnum]->DOEPINT);
 1981              		.loc 1 1896 0
 1982 06e8 00EB8101 		add	r1, r0, r1, lsl #2
 1983              	.LVL230:
 1984 06ec 4B6D     		ldr	r3, [r1, #84]
 1985 06ee 9A68     		ldr	r2, [r3, #8]
 1986              	.LVL231:
1897:../STLibs//STM32_USB-Host-Device_Lib_V2.1.0/Libraries/STM32_USB_OTG_Driver/src/usb_core.c ****   v &= USB_OTG_READ_REG32(&pdev->regs.DREGS->DOEPMSK);
 1987              		.loc 1 1897 0
 1988 06f0 0369     		ldr	r3, [r0, #16]
 1989 06f2 5869     		ldr	r0, [r3, #20]
 1990              	.LVL232:
1898:../STLibs//STM32_USB-Host-Device_Lib_V2.1.0/Libraries/STM32_USB_OTG_Driver/src/usb_core.c ****   return v;
1899:../STLibs//STM32_USB-Host-Device_Lib_V2.1.0/Libraries/STM32_USB_OTG_Driver/src/usb_core.c **** }
 1991              		.loc 1 1899 0
 1992 06f4 1040     		ands	r0, r0, r2
 1993              	.LVL233:
 1994 06f6 7047     		bx	lr
 1995              		.cfi_endproc
 1996              	.LFE138:
 1998              		.align	1
 1999              		.global	USB_OTG_ReadDevAllInEPItr
 2000              		.syntax unified
 2001              		.thumb
 2002              		.thumb_func
 2003              		.fpu fpv4-sp-d16
 2005              	USB_OTG_ReadDevAllInEPItr:
 2006              	.LFB139:
1900:../STLibs//STM32_USB-Host-Device_Lib_V2.1.0/Libraries/STM32_USB_OTG_Driver/src/usb_core.c **** 
1901:../STLibs//STM32_USB-Host-Device_Lib_V2.1.0/Libraries/STM32_USB_OTG_Driver/src/usb_core.c **** 
1902:../STLibs//STM32_USB-Host-Device_Lib_V2.1.0/Libraries/STM32_USB_OTG_Driver/src/usb_core.c **** /**
1903:../STLibs//STM32_USB-Host-Device_Lib_V2.1.0/Libraries/STM32_USB_OTG_Driver/src/usb_core.c **** * @brief  USB_OTG_ReadDevAllInEPItr : Get int status register
1904:../STLibs//STM32_USB-Host-Device_Lib_V2.1.0/Libraries/STM32_USB_OTG_Driver/src/usb_core.c **** * @param  pdev : Selected device
1905:../STLibs//STM32_USB-Host-Device_Lib_V2.1.0/Libraries/STM32_USB_OTG_Driver/src/usb_core.c **** * @retval int status register
1906:../STLibs//STM32_USB-Host-Device_Lib_V2.1.0/Libraries/STM32_USB_OTG_Driver/src/usb_core.c **** */
1907:../STLibs//STM32_USB-Host-Device_Lib_V2.1.0/Libraries/STM32_USB_OTG_Driver/src/usb_core.c **** uint32_t USB_OTG_ReadDevAllInEPItr(USB_OTG_CORE_HANDLE *pdev)
1908:../STLibs//STM32_USB-Host-Device_Lib_V2.1.0/Libraries/STM32_USB_OTG_Driver/src/usb_core.c **** {
 2007              		.loc 1 1908 0
 2008              		.cfi_startproc
 2009              		@ args = 0, pretend = 0, frame = 0
 2010              		@ frame_needed = 0, uses_anonymous_args = 0
 2011              		@ link register save eliminated.
 2012              	.LVL234:
1909:../STLibs//STM32_USB-Host-Device_Lib_V2.1.0/Libraries/STM32_USB_OTG_Driver/src/usb_core.c ****   uint32_t v;
1910:../STLibs//STM32_USB-Host-Device_Lib_V2.1.0/Libraries/STM32_USB_OTG_Driver/src/usb_core.c ****   v = USB_OTG_READ_REG32(&pdev->regs.DREGS->DAINT);
 2013              		.loc 1 1910 0
 2014 06f8 0369     		ldr	r3, [r0, #16]
 2015 06fa 9869     		ldr	r0, [r3, #24]
 2016              	.LVL235:
1911:../STLibs//STM32_USB-Host-Device_Lib_V2.1.0/Libraries/STM32_USB_OTG_Driver/src/usb_core.c ****   v &= USB_OTG_READ_REG32(&pdev->regs.DREGS->DAINTMSK);
 2017              		.loc 1 1911 0
 2018 06fc DB69     		ldr	r3, [r3, #28]
 2019              	.LVL236:
 2020 06fe 1840     		ands	r0, r0, r3
 2021              	.LVL237:
1912:../STLibs//STM32_USB-Host-Device_Lib_V2.1.0/Libraries/STM32_USB_OTG_Driver/src/usb_core.c ****   return (v & 0xffff);
1913:../STLibs//STM32_USB-Host-Device_Lib_V2.1.0/Libraries/STM32_USB_OTG_Driver/src/usb_core.c **** }
 2022              		.loc 1 1913 0
 2023 0700 80B2     		uxth	r0, r0
 2024              	.LVL238:
 2025 0702 7047     		bx	lr
 2026              		.cfi_endproc
 2027              	.LFE139:
 2029              		.align	1
 2030              		.global	USB_OTG_EP0_OutStart
 2031              		.syntax unified
 2032              		.thumb
 2033              		.thumb_func
 2034              		.fpu fpv4-sp-d16
 2036              	USB_OTG_EP0_OutStart:
 2037              	.LFB140:
1914:../STLibs//STM32_USB-Host-Device_Lib_V2.1.0/Libraries/STM32_USB_OTG_Driver/src/usb_core.c **** 
1915:../STLibs//STM32_USB-Host-Device_Lib_V2.1.0/Libraries/STM32_USB_OTG_Driver/src/usb_core.c **** /**
1916:../STLibs//STM32_USB-Host-Device_Lib_V2.1.0/Libraries/STM32_USB_OTG_Driver/src/usb_core.c **** * @brief  configures EPO to receive SETUP packets
1917:../STLibs//STM32_USB-Host-Device_Lib_V2.1.0/Libraries/STM32_USB_OTG_Driver/src/usb_core.c **** * @param  None
1918:../STLibs//STM32_USB-Host-Device_Lib_V2.1.0/Libraries/STM32_USB_OTG_Driver/src/usb_core.c **** * @retval : None
1919:../STLibs//STM32_USB-Host-Device_Lib_V2.1.0/Libraries/STM32_USB_OTG_Driver/src/usb_core.c **** */
1920:../STLibs//STM32_USB-Host-Device_Lib_V2.1.0/Libraries/STM32_USB_OTG_Driver/src/usb_core.c **** void USB_OTG_EP0_OutStart(USB_OTG_CORE_HANDLE *pdev)
1921:../STLibs//STM32_USB-Host-Device_Lib_V2.1.0/Libraries/STM32_USB_OTG_Driver/src/usb_core.c **** {
 2038              		.loc 1 1921 0
 2039              		.cfi_startproc
 2040              		@ args = 0, pretend = 0, frame = 8
 2041              		@ frame_needed = 0, uses_anonymous_args = 0
 2042              		@ link register save eliminated.
 2043              	.LVL239:
1922:../STLibs//STM32_USB-Host-Device_Lib_V2.1.0/Libraries/STM32_USB_OTG_Driver/src/usb_core.c ****   USB_OTG_DEP0XFRSIZ_TypeDef  doeptsize0;
1923:../STLibs//STM32_USB-Host-Device_Lib_V2.1.0/Libraries/STM32_USB_OTG_Driver/src/usb_core.c ****   doeptsize0.d32 = 0;
1924:../STLibs//STM32_USB-Host-Device_Lib_V2.1.0/Libraries/STM32_USB_OTG_Driver/src/usb_core.c ****   doeptsize0.b.supcnt = 3;
1925:../STLibs//STM32_USB-Host-Device_Lib_V2.1.0/Libraries/STM32_USB_OTG_Driver/src/usb_core.c ****   doeptsize0.b.pktcnt = 1;
1926:../STLibs//STM32_USB-Host-Device_Lib_V2.1.0/Libraries/STM32_USB_OTG_Driver/src/usb_core.c ****   doeptsize0.b.xfersize = 8 * 3;
1927:../STLibs//STM32_USB-Host-Device_Lib_V2.1.0/Libraries/STM32_USB_OTG_Driver/src/usb_core.c ****   USB_OTG_WRITE_REG32( &pdev->regs.OUTEP_REGS[0]->DOEPTSIZ, doeptsize0.d32 );
 2044              		.loc 1 1927 0
 2045 0704 436D     		ldr	r3, [r0, #84]
1923:../STLibs//STM32_USB-Host-Device_Lib_V2.1.0/Libraries/STM32_USB_OTG_Driver/src/usb_core.c ****   doeptsize0.b.supcnt = 3;
 2046              		.loc 1 1923 0
 2047 0706 084A     		ldr	r2, .L177
 2048              		.loc 1 1927 0
 2049 0708 1A61     		str	r2, [r3, #16]
1921:../STLibs//STM32_USB-Host-Device_Lib_V2.1.0/Libraries/STM32_USB_OTG_Driver/src/usb_core.c ****   USB_OTG_DEP0XFRSIZ_TypeDef  doeptsize0;
 2050              		.loc 1 1921 0
 2051 070a 82B0     		sub	sp, sp, #8
 2052              	.LCFI19:
 2053              		.cfi_def_cfa_offset 8
1923:../STLibs//STM32_USB-Host-Device_Lib_V2.1.0/Libraries/STM32_USB_OTG_Driver/src/usb_core.c ****   doeptsize0.b.supcnt = 3;
 2054              		.loc 1 1923 0
 2055 070c 0092     		str	r2, [sp]
1928:../STLibs//STM32_USB-Host-Device_Lib_V2.1.0/Libraries/STM32_USB_OTG_Driver/src/usb_core.c ****   
1929:../STLibs//STM32_USB-Host-Device_Lib_V2.1.0/Libraries/STM32_USB_OTG_Driver/src/usb_core.c ****   if (pdev->cfg.dma_enable == 1)
 2056              		.loc 1 1929 0
 2057 070e C278     		ldrb	r2, [r0, #3]	@ zero_extendqisi2
 2058 0710 012A     		cmp	r2, #1
 2059 0712 06D1     		bne	.L175
 2060              	.LBB36:
1930:../STLibs//STM32_USB-Host-Device_Lib_V2.1.0/Libraries/STM32_USB_OTG_Driver/src/usb_core.c ****   {
1931:../STLibs//STM32_USB-Host-Device_Lib_V2.1.0/Libraries/STM32_USB_OTG_Driver/src/usb_core.c ****     USB_OTG_DEPCTL_TypeDef  doepctl;
1932:../STLibs//STM32_USB-Host-Device_Lib_V2.1.0/Libraries/STM32_USB_OTG_Driver/src/usb_core.c ****     doepctl.d32 = 0;
1933:../STLibs//STM32_USB-Host-Device_Lib_V2.1.0/Libraries/STM32_USB_OTG_Driver/src/usb_core.c ****     USB_OTG_WRITE_REG32( &pdev->regs.OUTEP_REGS[0]->DOEPDMA, 
 2061              		.loc 1 1933 0
 2062 0714 00F2CC50 		addw	r0, r0, #1484
 2063              	.LVL240:
 2064 0718 5861     		str	r0, [r3, #20]
1934:../STLibs//STM32_USB-Host-Device_Lib_V2.1.0/Libraries/STM32_USB_OTG_Driver/src/usb_core.c ****                         (uint32_t)&pdev->dev.setup_packet);
1935:../STLibs//STM32_USB-Host-Device_Lib_V2.1.0/Libraries/STM32_USB_OTG_Driver/src/usb_core.c ****     
1936:../STLibs//STM32_USB-Host-Device_Lib_V2.1.0/Libraries/STM32_USB_OTG_Driver/src/usb_core.c ****     /* EP enable */
1937:../STLibs//STM32_USB-Host-Device_Lib_V2.1.0/Libraries/STM32_USB_OTG_Driver/src/usb_core.c ****     doepctl.d32 = USB_OTG_READ_REG32(&pdev->regs.OUTEP_REGS[0]->DOEPCTL);
 2065              		.loc 1 1937 0
 2066 071a 1A68     		ldr	r2, [r3]
1938:../STLibs//STM32_USB-Host-Device_Lib_V2.1.0/Libraries/STM32_USB_OTG_Driver/src/usb_core.c ****     doepctl.b.epena = 1;
1939:../STLibs//STM32_USB-Host-Device_Lib_V2.1.0/Libraries/STM32_USB_OTG_Driver/src/usb_core.c ****     doepctl.d32 = 0x80008000;
1940:../STLibs//STM32_USB-Host-Device_Lib_V2.1.0/Libraries/STM32_USB_OTG_Driver/src/usb_core.c ****     USB_OTG_WRITE_REG32( &pdev->regs.OUTEP_REGS[0]->DOEPCTL, doepctl.d32);
 2067              		.loc 1 1940 0
 2068 071c 4FF08022 		mov	r2, #-2147450880
 2069 0720 1A60     		str	r2, [r3]
 2070              	.LVL241:
 2071              	.L175:
 2072              	.LBE36:
1941:../STLibs//STM32_USB-Host-Device_Lib_V2.1.0/Libraries/STM32_USB_OTG_Driver/src/usb_core.c ****   }
1942:../STLibs//STM32_USB-Host-Device_Lib_V2.1.0/Libraries/STM32_USB_OTG_Driver/src/usb_core.c **** }
 2073              		.loc 1 1942 0
 2074 0722 02B0     		add	sp, sp, #8
 2075              	.LCFI20:
 2076              		.cfi_def_cfa_offset 0
 2077              		@ sp needed
 2078 0724 7047     		bx	lr
 2079              	.L178:
 2080 0726 00BF     		.align	2
 2081              	.L177:
 2082 0728 180008C0 		.word	-1073217512
 2083              		.cfi_endproc
 2084              	.LFE140:
 2086              		.align	1
 2087              		.global	USB_OTG_ActiveRemoteWakeup
 2088              		.syntax unified
 2089              		.thumb
 2090              		.thumb_func
 2091              		.fpu fpv4-sp-d16
 2093              	USB_OTG_ActiveRemoteWakeup:
 2094              	.LFB141:
1943:../STLibs//STM32_USB-Host-Device_Lib_V2.1.0/Libraries/STM32_USB_OTG_Driver/src/usb_core.c **** 
1944:../STLibs//STM32_USB-Host-Device_Lib_V2.1.0/Libraries/STM32_USB_OTG_Driver/src/usb_core.c **** /**
1945:../STLibs//STM32_USB-Host-Device_Lib_V2.1.0/Libraries/STM32_USB_OTG_Driver/src/usb_core.c **** * @brief  USB_OTG_RemoteWakeup : active remote wakeup signalling
1946:../STLibs//STM32_USB-Host-Device_Lib_V2.1.0/Libraries/STM32_USB_OTG_Driver/src/usb_core.c **** * @param  None
1947:../STLibs//STM32_USB-Host-Device_Lib_V2.1.0/Libraries/STM32_USB_OTG_Driver/src/usb_core.c **** * @retval : None
1948:../STLibs//STM32_USB-Host-Device_Lib_V2.1.0/Libraries/STM32_USB_OTG_Driver/src/usb_core.c **** */
1949:../STLibs//STM32_USB-Host-Device_Lib_V2.1.0/Libraries/STM32_USB_OTG_Driver/src/usb_core.c **** void USB_OTG_ActiveRemoteWakeup(USB_OTG_CORE_HANDLE *pdev)
1950:../STLibs//STM32_USB-Host-Device_Lib_V2.1.0/Libraries/STM32_USB_OTG_Driver/src/usb_core.c **** {
 2095              		.loc 1 1950 0
 2096              		.cfi_startproc
 2097              		@ args = 0, pretend = 0, frame = 0
 2098              		@ frame_needed = 0, uses_anonymous_args = 0
 2099              	.LVL242:
1951:../STLibs//STM32_USB-Host-Device_Lib_V2.1.0/Libraries/STM32_USB_OTG_Driver/src/usb_core.c ****   
1952:../STLibs//STM32_USB-Host-Device_Lib_V2.1.0/Libraries/STM32_USB_OTG_Driver/src/usb_core.c ****   USB_OTG_DCTL_TypeDef     dctl;
1953:../STLibs//STM32_USB-Host-Device_Lib_V2.1.0/Libraries/STM32_USB_OTG_Driver/src/usb_core.c ****   USB_OTG_DSTS_TypeDef     dsts;
1954:../STLibs//STM32_USB-Host-Device_Lib_V2.1.0/Libraries/STM32_USB_OTG_Driver/src/usb_core.c ****   USB_OTG_PCGCCTL_TypeDef  power;  
1955:../STLibs//STM32_USB-Host-Device_Lib_V2.1.0/Libraries/STM32_USB_OTG_Driver/src/usb_core.c ****   
1956:../STLibs//STM32_USB-Host-Device_Lib_V2.1.0/Libraries/STM32_USB_OTG_Driver/src/usb_core.c ****   if (pdev->dev.DevRemoteWakeup) 
 2100              		.loc 1 1956 0
 2101 072c D0F81831 		ldr	r3, [r0, #280]
1950:../STLibs//STM32_USB-Host-Device_Lib_V2.1.0/Libraries/STM32_USB_OTG_Driver/src/usb_core.c ****   
 2102              		.loc 1 1950 0
 2103 0730 10B5     		push	{r4, lr}
 2104              	.LCFI21:
 2105              		.cfi_def_cfa_offset 8
 2106              		.cfi_offset 4, -8
 2107              		.cfi_offset 14, -4
1950:../STLibs//STM32_USB-Host-Device_Lib_V2.1.0/Libraries/STM32_USB_OTG_Driver/src/usb_core.c ****   
 2108              		.loc 1 1950 0
 2109 0732 0446     		mov	r4, r0
 2110              		.loc 1 1956 0
 2111 0734 D3B1     		cbz	r3, .L179
1957:../STLibs//STM32_USB-Host-Device_Lib_V2.1.0/Libraries/STM32_USB_OTG_Driver/src/usb_core.c ****   {
1958:../STLibs//STM32_USB-Host-Device_Lib_V2.1.0/Libraries/STM32_USB_OTG_Driver/src/usb_core.c ****     dsts.d32 = USB_OTG_READ_REG32(&pdev->regs.DREGS->DSTS);
 2112              		.loc 1 1958 0
 2113 0736 0269     		ldr	r2, [r0, #16]
 2114 0738 9368     		ldr	r3, [r2, #8]
 2115              	.LVL243:
1959:../STLibs//STM32_USB-Host-Device_Lib_V2.1.0/Libraries/STM32_USB_OTG_Driver/src/usb_core.c ****     if(dsts.b.suspsts == 1)
 2116              		.loc 1 1959 0
 2117 073a DB07     		lsls	r3, r3, #31
 2118              	.LVL244:
 2119 073c 16D5     		bpl	.L179
1960:../STLibs//STM32_USB-Host-Device_Lib_V2.1.0/Libraries/STM32_USB_OTG_Driver/src/usb_core.c ****     {
1961:../STLibs//STM32_USB-Host-Device_Lib_V2.1.0/Libraries/STM32_USB_OTG_Driver/src/usb_core.c ****       if(pdev->cfg.low_power)
 2120              		.loc 1 1961 0
 2121 073e 837A     		ldrb	r3, [r0, #10]	@ zero_extendqisi2
 2122 0740 43B1     		cbz	r3, .L181
1962:../STLibs//STM32_USB-Host-Device_Lib_V2.1.0/Libraries/STM32_USB_OTG_Driver/src/usb_core.c ****       {
1963:../STLibs//STM32_USB-Host-Device_Lib_V2.1.0/Libraries/STM32_USB_OTG_Driver/src/usb_core.c ****         /* un-gate USB Core clock */
1964:../STLibs//STM32_USB-Host-Device_Lib_V2.1.0/Libraries/STM32_USB_OTG_Driver/src/usb_core.c ****         power.d32 = USB_OTG_READ_REG32(&pdev->regs.PCGCCTL);
 2123              		.loc 1 1964 0
 2124 0742 D0F80C31 		ldr	r3, [r0, #268]
1965:../STLibs//STM32_USB-Host-Device_Lib_V2.1.0/Libraries/STM32_USB_OTG_Driver/src/usb_core.c ****         power.b.gatehclk = 0;
1966:../STLibs//STM32_USB-Host-Device_Lib_V2.1.0/Libraries/STM32_USB_OTG_Driver/src/usb_core.c ****         power.b.stoppclk = 0;
1967:../STLibs//STM32_USB-Host-Device_Lib_V2.1.0/Libraries/STM32_USB_OTG_Driver/src/usb_core.c ****         USB_OTG_WRITE_REG32(pdev->regs.PCGCCTL, power.d32);
 2125              		.loc 1 1967 0
 2126 0746 D0F80C11 		ldr	r1, [r0, #268]
1965:../STLibs//STM32_USB-Host-Device_Lib_V2.1.0/Libraries/STM32_USB_OTG_Driver/src/usb_core.c ****         power.b.gatehclk = 0;
 2127              		.loc 1 1965 0
 2128 074a 6FF34103 		bfc	r3, #1, #1
 2129              	.LVL245:
1966:../STLibs//STM32_USB-Host-Device_Lib_V2.1.0/Libraries/STM32_USB_OTG_Driver/src/usb_core.c ****         USB_OTG_WRITE_REG32(pdev->regs.PCGCCTL, power.d32);
 2130              		.loc 1 1966 0
 2131 074e 6FF30003 		bfc	r3, #0, #1
 2132              		.loc 1 1967 0
 2133 0752 0B60     		str	r3, [r1]
 2134              	.L181:
1968:../STLibs//STM32_USB-Host-Device_Lib_V2.1.0/Libraries/STM32_USB_OTG_Driver/src/usb_core.c ****       }   
1969:../STLibs//STM32_USB-Host-Device_Lib_V2.1.0/Libraries/STM32_USB_OTG_Driver/src/usb_core.c ****       /* active Remote wakeup signaling */
1970:../STLibs//STM32_USB-Host-Device_Lib_V2.1.0/Libraries/STM32_USB_OTG_Driver/src/usb_core.c ****       dctl.d32 = 0;
1971:../STLibs//STM32_USB-Host-Device_Lib_V2.1.0/Libraries/STM32_USB_OTG_Driver/src/usb_core.c ****       dctl.b.rmtwkupsig = 1;
1972:../STLibs//STM32_USB-Host-Device_Lib_V2.1.0/Libraries/STM32_USB_OTG_Driver/src/usb_core.c ****       USB_OTG_MODIFY_REG32(&pdev->regs.DREGS->DCTL, 0, dctl.d32);
 2135              		.loc 1 1972 0
 2136 0754 5368     		ldr	r3, [r2, #4]
 2137              	.LVL246:
 2138 0756 43F00103 		orr	r3, r3, #1
 2139 075a 5360     		str	r3, [r2, #4]
1973:../STLibs//STM32_USB-Host-Device_Lib_V2.1.0/Libraries/STM32_USB_OTG_Driver/src/usb_core.c ****       USB_OTG_BSP_mDelay(5);
 2140              		.loc 1 1973 0
 2141 075c 0520     		movs	r0, #5
 2142              	.LVL247:
 2143 075e FFF7FEFF 		bl	USB_OTG_BSP_mDelay
 2144              	.LVL248:
1974:../STLibs//STM32_USB-Host-Device_Lib_V2.1.0/Libraries/STM32_USB_OTG_Driver/src/usb_core.c ****       USB_OTG_MODIFY_REG32(&pdev->regs.DREGS->DCTL, dctl.d32, 0 );
 2145              		.loc 1 1974 0
 2146 0762 2269     		ldr	r2, [r4, #16]
 2147 0764 5368     		ldr	r3, [r2, #4]
 2148 0766 23F00103 		bic	r3, r3, #1
 2149 076a 5360     		str	r3, [r2, #4]
 2150              	.L179:
1975:../STLibs//STM32_USB-Host-Device_Lib_V2.1.0/Libraries/STM32_USB_OTG_Driver/src/usb_core.c ****     }
1976:../STLibs//STM32_USB-Host-Device_Lib_V2.1.0/Libraries/STM32_USB_OTG_Driver/src/usb_core.c ****   }
1977:../STLibs//STM32_USB-Host-Device_Lib_V2.1.0/Libraries/STM32_USB_OTG_Driver/src/usb_core.c **** }
 2151              		.loc 1 1977 0
 2152 076c 10BD     		pop	{r4, pc}
 2153              		.cfi_endproc
 2154              	.LFE141:
 2156              		.align	1
 2157              		.global	USB_OTG_UngateClock
 2158              		.syntax unified
 2159              		.thumb
 2160              		.thumb_func
 2161              		.fpu fpv4-sp-d16
 2163              	USB_OTG_UngateClock:
 2164              	.LFB142:
1978:../STLibs//STM32_USB-Host-Device_Lib_V2.1.0/Libraries/STM32_USB_OTG_Driver/src/usb_core.c **** 
1979:../STLibs//STM32_USB-Host-Device_Lib_V2.1.0/Libraries/STM32_USB_OTG_Driver/src/usb_core.c **** 
1980:../STLibs//STM32_USB-Host-Device_Lib_V2.1.0/Libraries/STM32_USB_OTG_Driver/src/usb_core.c **** /**
1981:../STLibs//STM32_USB-Host-Device_Lib_V2.1.0/Libraries/STM32_USB_OTG_Driver/src/usb_core.c **** * @brief  USB_OTG_UngateClock : active USB Core clock
1982:../STLibs//STM32_USB-Host-Device_Lib_V2.1.0/Libraries/STM32_USB_OTG_Driver/src/usb_core.c **** * @param  None
1983:../STLibs//STM32_USB-Host-Device_Lib_V2.1.0/Libraries/STM32_USB_OTG_Driver/src/usb_core.c **** * @retval : None
1984:../STLibs//STM32_USB-Host-Device_Lib_V2.1.0/Libraries/STM32_USB_OTG_Driver/src/usb_core.c **** */
1985:../STLibs//STM32_USB-Host-Device_Lib_V2.1.0/Libraries/STM32_USB_OTG_Driver/src/usb_core.c **** void USB_OTG_UngateClock(USB_OTG_CORE_HANDLE *pdev)
1986:../STLibs//STM32_USB-Host-Device_Lib_V2.1.0/Libraries/STM32_USB_OTG_Driver/src/usb_core.c **** {
 2165              		.loc 1 1986 0
 2166              		.cfi_startproc
 2167              		@ args = 0, pretend = 0, frame = 0
 2168              		@ frame_needed = 0, uses_anonymous_args = 0
 2169              		@ link register save eliminated.
 2170              	.LVL249:
1987:../STLibs//STM32_USB-Host-Device_Lib_V2.1.0/Libraries/STM32_USB_OTG_Driver/src/usb_core.c ****   if(pdev->cfg.low_power)
 2171              		.loc 1 1987 0
 2172 076e 837A     		ldrb	r3, [r0, #10]	@ zero_extendqisi2
 2173 0770 63B1     		cbz	r3, .L191
 2174              	.LBB37:
1988:../STLibs//STM32_USB-Host-Device_Lib_V2.1.0/Libraries/STM32_USB_OTG_Driver/src/usb_core.c ****   {
1989:../STLibs//STM32_USB-Host-Device_Lib_V2.1.0/Libraries/STM32_USB_OTG_Driver/src/usb_core.c ****     
1990:../STLibs//STM32_USB-Host-Device_Lib_V2.1.0/Libraries/STM32_USB_OTG_Driver/src/usb_core.c ****     USB_OTG_DSTS_TypeDef     dsts;
1991:../STLibs//STM32_USB-Host-Device_Lib_V2.1.0/Libraries/STM32_USB_OTG_Driver/src/usb_core.c ****     USB_OTG_PCGCCTL_TypeDef  power; 
1992:../STLibs//STM32_USB-Host-Device_Lib_V2.1.0/Libraries/STM32_USB_OTG_Driver/src/usb_core.c ****     
1993:../STLibs//STM32_USB-Host-Device_Lib_V2.1.0/Libraries/STM32_USB_OTG_Driver/src/usb_core.c ****     dsts.d32 = USB_OTG_READ_REG32(&pdev->regs.DREGS->DSTS);
 2175              		.loc 1 1993 0
 2176 0772 0369     		ldr	r3, [r0, #16]
 2177 0774 9B68     		ldr	r3, [r3, #8]
 2178              	.LVL250:
1994:../STLibs//STM32_USB-Host-Device_Lib_V2.1.0/Libraries/STM32_USB_OTG_Driver/src/usb_core.c ****     
1995:../STLibs//STM32_USB-Host-Device_Lib_V2.1.0/Libraries/STM32_USB_OTG_Driver/src/usb_core.c ****     if(dsts.b.suspsts == 1)
 2179              		.loc 1 1995 0
 2180 0776 DB07     		lsls	r3, r3, #31
 2181              	.LVL251:
 2182 0778 08D5     		bpl	.L191
1996:../STLibs//STM32_USB-Host-Device_Lib_V2.1.0/Libraries/STM32_USB_OTG_Driver/src/usb_core.c ****     {
1997:../STLibs//STM32_USB-Host-Device_Lib_V2.1.0/Libraries/STM32_USB_OTG_Driver/src/usb_core.c ****       /* un-gate USB Core clock */
1998:../STLibs//STM32_USB-Host-Device_Lib_V2.1.0/Libraries/STM32_USB_OTG_Driver/src/usb_core.c ****       power.d32 = USB_OTG_READ_REG32(&pdev->regs.PCGCCTL);
 2183              		.loc 1 1998 0
 2184 077a D0F80C31 		ldr	r3, [r0, #268]
1999:../STLibs//STM32_USB-Host-Device_Lib_V2.1.0/Libraries/STM32_USB_OTG_Driver/src/usb_core.c ****       power.b.gatehclk = 0;
2000:../STLibs//STM32_USB-Host-Device_Lib_V2.1.0/Libraries/STM32_USB_OTG_Driver/src/usb_core.c ****       power.b.stoppclk = 0;
2001:../STLibs//STM32_USB-Host-Device_Lib_V2.1.0/Libraries/STM32_USB_OTG_Driver/src/usb_core.c ****       USB_OTG_WRITE_REG32(pdev->regs.PCGCCTL, power.d32);
 2185              		.loc 1 2001 0
 2186 077e D0F80C21 		ldr	r2, [r0, #268]
1999:../STLibs//STM32_USB-Host-Device_Lib_V2.1.0/Libraries/STM32_USB_OTG_Driver/src/usb_core.c ****       power.b.gatehclk = 0;
 2187              		.loc 1 1999 0
 2188 0782 6FF34103 		bfc	r3, #1, #1
 2189              	.LVL252:
2000:../STLibs//STM32_USB-Host-Device_Lib_V2.1.0/Libraries/STM32_USB_OTG_Driver/src/usb_core.c ****       USB_OTG_WRITE_REG32(pdev->regs.PCGCCTL, power.d32);
 2190              		.loc 1 2000 0
 2191 0786 6FF30003 		bfc	r3, #0, #1
 2192              		.loc 1 2001 0
 2193 078a 1360     		str	r3, [r2]
 2194              	.L191:
 2195              	.LBE37:
2002:../STLibs//STM32_USB-Host-Device_Lib_V2.1.0/Libraries/STM32_USB_OTG_Driver/src/usb_core.c ****       
2003:../STLibs//STM32_USB-Host-Device_Lib_V2.1.0/Libraries/STM32_USB_OTG_Driver/src/usb_core.c ****     }
2004:../STLibs//STM32_USB-Host-Device_Lib_V2.1.0/Libraries/STM32_USB_OTG_Driver/src/usb_core.c ****   }
2005:../STLibs//STM32_USB-Host-Device_Lib_V2.1.0/Libraries/STM32_USB_OTG_Driver/src/usb_core.c **** }
 2196              		.loc 1 2005 0
 2197 078c 7047     		bx	lr
 2198              		.cfi_endproc
 2199              	.LFE142:
 2201              		.align	1
 2202              		.global	USB_OTG_StopDevice
 2203              		.syntax unified
 2204              		.thumb
 2205              		.thumb_func
 2206              		.fpu fpv4-sp-d16
 2208              	USB_OTG_StopDevice:
 2209              	.LFB143:
2006:../STLibs//STM32_USB-Host-Device_Lib_V2.1.0/Libraries/STM32_USB_OTG_Driver/src/usb_core.c **** 
2007:../STLibs//STM32_USB-Host-Device_Lib_V2.1.0/Libraries/STM32_USB_OTG_Driver/src/usb_core.c **** /**
2008:../STLibs//STM32_USB-Host-Device_Lib_V2.1.0/Libraries/STM32_USB_OTG_Driver/src/usb_core.c **** * @brief  Stop the device and clean up fifo's
2009:../STLibs//STM32_USB-Host-Device_Lib_V2.1.0/Libraries/STM32_USB_OTG_Driver/src/usb_core.c **** * @param  None
2010:../STLibs//STM32_USB-Host-Device_Lib_V2.1.0/Libraries/STM32_USB_OTG_Driver/src/usb_core.c **** * @retval : None
2011:../STLibs//STM32_USB-Host-Device_Lib_V2.1.0/Libraries/STM32_USB_OTG_Driver/src/usb_core.c **** */
2012:../STLibs//STM32_USB-Host-Device_Lib_V2.1.0/Libraries/STM32_USB_OTG_Driver/src/usb_core.c **** void USB_OTG_StopDevice(USB_OTG_CORE_HANDLE *pdev)
2013:../STLibs//STM32_USB-Host-Device_Lib_V2.1.0/Libraries/STM32_USB_OTG_Driver/src/usb_core.c **** {
 2210              		.loc 1 2013 0
 2211              		.cfi_startproc
 2212              		@ args = 0, pretend = 0, frame = 0
 2213              		@ frame_needed = 0, uses_anonymous_args = 0
 2214              	.LVL253:
 2215 078e 10B5     		push	{r4, lr}
 2216              	.LCFI22:
 2217              		.cfi_def_cfa_offset 8
 2218              		.cfi_offset 4, -8
 2219              		.cfi_offset 14, -4
2014:../STLibs//STM32_USB-Host-Device_Lib_V2.1.0/Libraries/STM32_USB_OTG_Driver/src/usb_core.c ****   uint32_t i;
2015:../STLibs//STM32_USB-Host-Device_Lib_V2.1.0/Libraries/STM32_USB_OTG_Driver/src/usb_core.c ****   
2016:../STLibs//STM32_USB-Host-Device_Lib_V2.1.0/Libraries/STM32_USB_OTG_Driver/src/usb_core.c ****   pdev->dev.device_status = 1;
 2220              		.loc 1 2016 0
 2221 0790 0123     		movs	r3, #1
 2222 0792 4278     		ldrb	r2, [r0, #1]	@ zero_extendqisi2
 2223 0794 80F81231 		strb	r3, [r0, #274]
 2224              	.LVL254:
 2225 0798 00F11803 		add	r3, r0, #24
2013:../STLibs//STM32_USB-Host-Device_Lib_V2.1.0/Libraries/STM32_USB_OTG_Driver/src/usb_core.c ****   uint32_t i;
 2226              		.loc 1 2013 0
 2227 079c 0446     		mov	r4, r0
 2228 079e 03EB8202 		add	r2, r3, r2, lsl #2
2017:../STLibs//STM32_USB-Host-Device_Lib_V2.1.0/Libraries/STM32_USB_OTG_Driver/src/usb_core.c ****   
2018:../STLibs//STM32_USB-Host-Device_Lib_V2.1.0/Libraries/STM32_USB_OTG_Driver/src/usb_core.c ****   for (i = 0; i < pdev->cfg.dev_endpoints ; i++)
2019:../STLibs//STM32_USB-Host-Device_Lib_V2.1.0/Libraries/STM32_USB_OTG_Driver/src/usb_core.c ****   {
2020:../STLibs//STM32_USB-Host-Device_Lib_V2.1.0/Libraries/STM32_USB_OTG_Driver/src/usb_core.c ****     USB_OTG_WRITE_REG32( &pdev->regs.INEP_REGS[i]->DIEPINT, 0xFF);
 2229              		.loc 1 2020 0
 2230 07a2 FF21     		movs	r1, #255
 2231              	.LVL255:
 2232              	.L201:
2018:../STLibs//STM32_USB-Host-Device_Lib_V2.1.0/Libraries/STM32_USB_OTG_Driver/src/usb_core.c ****   {
 2233              		.loc 1 2018 0 discriminator 1
 2234 07a4 9342     		cmp	r3, r2
 2235 07a6 10D1     		bne	.L202
2021:../STLibs//STM32_USB-Host-Device_Lib_V2.1.0/Libraries/STM32_USB_OTG_Driver/src/usb_core.c ****     USB_OTG_WRITE_REG32( &pdev->regs.OUTEP_REGS[i]->DOEPINT, 0xFF);
2022:../STLibs//STM32_USB-Host-Device_Lib_V2.1.0/Libraries/STM32_USB_OTG_Driver/src/usb_core.c ****   }
2023:../STLibs//STM32_USB-Host-Device_Lib_V2.1.0/Libraries/STM32_USB_OTG_Driver/src/usb_core.c ****   
2024:../STLibs//STM32_USB-Host-Device_Lib_V2.1.0/Libraries/STM32_USB_OTG_Driver/src/usb_core.c ****   USB_OTG_WRITE_REG32( &pdev->regs.DREGS->DIEPMSK, 0 );
 2236              		.loc 1 2024 0
 2237 07a8 2369     		ldr	r3, [r4, #16]
 2238 07aa 0022     		movs	r2, #0
 2239 07ac 1A61     		str	r2, [r3, #16]
2025:../STLibs//STM32_USB-Host-Device_Lib_V2.1.0/Libraries/STM32_USB_OTG_Driver/src/usb_core.c ****   USB_OTG_WRITE_REG32( &pdev->regs.DREGS->DOEPMSK, 0 );
 2240              		.loc 1 2025 0
 2241 07ae 5A61     		str	r2, [r3, #20]
2026:../STLibs//STM32_USB-Host-Device_Lib_V2.1.0/Libraries/STM32_USB_OTG_Driver/src/usb_core.c ****   USB_OTG_WRITE_REG32( &pdev->regs.DREGS->DAINTMSK, 0 );
 2242              		.loc 1 2026 0
 2243 07b0 DA61     		str	r2, [r3, #28]
2027:../STLibs//STM32_USB-Host-Device_Lib_V2.1.0/Libraries/STM32_USB_OTG_Driver/src/usb_core.c ****   USB_OTG_WRITE_REG32( &pdev->regs.DREGS->DAINT, 0xFFFFFFFF );  
 2244              		.loc 1 2027 0
 2245 07b2 4FF0FF32 		mov	r2, #-1
2028:../STLibs//STM32_USB-Host-Device_Lib_V2.1.0/Libraries/STM32_USB_OTG_Driver/src/usb_core.c ****   
2029:../STLibs//STM32_USB-Host-Device_Lib_V2.1.0/Libraries/STM32_USB_OTG_Driver/src/usb_core.c ****   /* Flush the FIFO */
2030:../STLibs//STM32_USB-Host-Device_Lib_V2.1.0/Libraries/STM32_USB_OTG_Driver/src/usb_core.c ****   USB_OTG_FlushRxFifo(pdev);
 2246              		.loc 1 2030 0
 2247 07b6 2046     		mov	r0, r4
2027:../STLibs//STM32_USB-Host-Device_Lib_V2.1.0/Libraries/STM32_USB_OTG_Driver/src/usb_core.c ****   USB_OTG_WRITE_REG32( &pdev->regs.DREGS->DAINT, 0xFFFFFFFF );  
 2248              		.loc 1 2027 0
 2249 07b8 9A61     		str	r2, [r3, #24]
 2250              		.loc 1 2030 0
 2251 07ba FFF7FEFF 		bl	USB_OTG_FlushRxFifo
 2252              	.LVL256:
2031:../STLibs//STM32_USB-Host-Device_Lib_V2.1.0/Libraries/STM32_USB_OTG_Driver/src/usb_core.c ****   USB_OTG_FlushTxFifo(pdev ,  0x10 );  
 2253              		.loc 1 2031 0
 2254 07be 2046     		mov	r0, r4
 2255 07c0 1021     		movs	r1, #16
2032:../STLibs//STM32_USB-Host-Device_Lib_V2.1.0/Libraries/STM32_USB_OTG_Driver/src/usb_core.c **** }
 2256              		.loc 1 2032 0
 2257 07c2 BDE81040 		pop	{r4, lr}
 2258              	.LCFI23:
 2259              		.cfi_remember_state
 2260              		.cfi_restore 14
 2261              		.cfi_restore 4
 2262              		.cfi_def_cfa_offset 0
 2263              	.LVL257:
2031:../STLibs//STM32_USB-Host-Device_Lib_V2.1.0/Libraries/STM32_USB_OTG_Driver/src/usb_core.c ****   USB_OTG_FlushTxFifo(pdev ,  0x10 );  
 2264              		.loc 1 2031 0
 2265 07c6 FFF7FEBF 		b	USB_OTG_FlushTxFifo
 2266              	.LVL258:
 2267              	.L202:
 2268              	.LCFI24:
 2269              		.cfi_restore_state
2020:../STLibs//STM32_USB-Host-Device_Lib_V2.1.0/Libraries/STM32_USB_OTG_Driver/src/usb_core.c ****     USB_OTG_WRITE_REG32( &pdev->regs.OUTEP_REGS[i]->DOEPINT, 0xFF);
 2270              		.loc 1 2020 0 discriminator 3
 2271 07ca 53F8040B 		ldr	r0, [r3], #4
 2272 07ce 8160     		str	r1, [r0, #8]
2021:../STLibs//STM32_USB-Host-Device_Lib_V2.1.0/Libraries/STM32_USB_OTG_Driver/src/usb_core.c ****   }
 2273              		.loc 1 2021 0 discriminator 3
 2274 07d0 986B     		ldr	r0, [r3, #56]
 2275 07d2 8160     		str	r1, [r0, #8]
 2276 07d4 E6E7     		b	.L201
 2277              		.cfi_endproc
 2278              	.LFE143:
 2280              		.align	1
 2281              		.global	USB_OTG_GetEPStatus
 2282              		.syntax unified
 2283              		.thumb
 2284              		.thumb_func
 2285              		.fpu fpv4-sp-d16
 2287              	USB_OTG_GetEPStatus:
 2288              	.LFB144:
2033:../STLibs//STM32_USB-Host-Device_Lib_V2.1.0/Libraries/STM32_USB_OTG_Driver/src/usb_core.c **** 
2034:../STLibs//STM32_USB-Host-Device_Lib_V2.1.0/Libraries/STM32_USB_OTG_Driver/src/usb_core.c **** /**
2035:../STLibs//STM32_USB-Host-Device_Lib_V2.1.0/Libraries/STM32_USB_OTG_Driver/src/usb_core.c **** * @brief  returns the EP Status
2036:../STLibs//STM32_USB-Host-Device_Lib_V2.1.0/Libraries/STM32_USB_OTG_Driver/src/usb_core.c **** * @param  pdev : Selected device
2037:../STLibs//STM32_USB-Host-Device_Lib_V2.1.0/Libraries/STM32_USB_OTG_Driver/src/usb_core.c **** *         ep : endpoint structure
2038:../STLibs//STM32_USB-Host-Device_Lib_V2.1.0/Libraries/STM32_USB_OTG_Driver/src/usb_core.c **** * @retval : EP status
2039:../STLibs//STM32_USB-Host-Device_Lib_V2.1.0/Libraries/STM32_USB_OTG_Driver/src/usb_core.c **** */
2040:../STLibs//STM32_USB-Host-Device_Lib_V2.1.0/Libraries/STM32_USB_OTG_Driver/src/usb_core.c **** 
2041:../STLibs//STM32_USB-Host-Device_Lib_V2.1.0/Libraries/STM32_USB_OTG_Driver/src/usb_core.c **** uint32_t USB_OTG_GetEPStatus(USB_OTG_CORE_HANDLE *pdev ,USB_OTG_EP *ep)
2042:../STLibs//STM32_USB-Host-Device_Lib_V2.1.0/Libraries/STM32_USB_OTG_Driver/src/usb_core.c **** {
 2289              		.loc 1 2042 0
 2290              		.cfi_startproc
 2291              		@ args = 0, pretend = 0, frame = 0
 2292              		@ frame_needed = 0, uses_anonymous_args = 0
 2293              		@ link register save eliminated.
 2294              	.LVL259:
2043:../STLibs//STM32_USB-Host-Device_Lib_V2.1.0/Libraries/STM32_USB_OTG_Driver/src/usb_core.c ****   USB_OTG_DEPCTL_TypeDef  depctl;
2044:../STLibs//STM32_USB-Host-Device_Lib_V2.1.0/Libraries/STM32_USB_OTG_Driver/src/usb_core.c ****   __IO uint32_t *depctl_addr;
2045:../STLibs//STM32_USB-Host-Device_Lib_V2.1.0/Libraries/STM32_USB_OTG_Driver/src/usb_core.c ****   uint32_t Status = 0;  
2046:../STLibs//STM32_USB-Host-Device_Lib_V2.1.0/Libraries/STM32_USB_OTG_Driver/src/usb_core.c ****   
2047:../STLibs//STM32_USB-Host-Device_Lib_V2.1.0/Libraries/STM32_USB_OTG_Driver/src/usb_core.c ****   depctl.d32 = 0;
2048:../STLibs//STM32_USB-Host-Device_Lib_V2.1.0/Libraries/STM32_USB_OTG_Driver/src/usb_core.c ****   if (ep->is_in == 1)
 2295              		.loc 1 2048 0
 2296 07d6 4A78     		ldrb	r2, [r1, #1]	@ zero_extendqisi2
 2297 07d8 0B78     		ldrb	r3, [r1]	@ zero_extendqisi2
 2298 07da 012A     		cmp	r2, #1
2049:../STLibs//STM32_USB-Host-Device_Lib_V2.1.0/Libraries/STM32_USB_OTG_Driver/src/usb_core.c ****   {
2050:../STLibs//STM32_USB-Host-Device_Lib_V2.1.0/Libraries/STM32_USB_OTG_Driver/src/usb_core.c ****     depctl_addr = &(pdev->regs.INEP_REGS[ep->num]->DIEPCTL);
 2299              		.loc 1 2050 0
 2300 07dc 00EB8300 		add	r0, r0, r3, lsl #2
 2301              	.LVL260:
2048:../STLibs//STM32_USB-Host-Device_Lib_V2.1.0/Libraries/STM32_USB_OTG_Driver/src/usb_core.c ****   {
 2302              		.loc 1 2048 0
 2303 07e0 0BD1     		bne	.L204
 2304              		.loc 1 2050 0
 2305 07e2 8369     		ldr	r3, [r0, #24]
 2306              	.LVL261:
2051:../STLibs//STM32_USB-Host-Device_Lib_V2.1.0/Libraries/STM32_USB_OTG_Driver/src/usb_core.c ****     depctl.d32 = USB_OTG_READ_REG32(depctl_addr);
 2307              		.loc 1 2051 0
 2308 07e4 1B68     		ldr	r3, [r3]
 2309              	.LVL262:
 2310 07e6 C3F30743 		ubfx	r3, r3, #16, #8
 2311              	.LVL263:
2052:../STLibs//STM32_USB-Host-Device_Lib_V2.1.0/Libraries/STM32_USB_OTG_Driver/src/usb_core.c ****     
2053:../STLibs//STM32_USB-Host-Device_Lib_V2.1.0/Libraries/STM32_USB_OTG_Driver/src/usb_core.c ****     if (depctl.b.stall == 1)  
 2312              		.loc 1 2053 0
 2313 07ea 9906     		lsls	r1, r3, #26
 2314              	.LVL264:
 2315 07ec 13D4     		bmi	.L206
2054:../STLibs//STM32_USB-Host-Device_Lib_V2.1.0/Libraries/STM32_USB_OTG_Driver/src/usb_core.c ****       Status = USB_OTG_EP_TX_STALL;
2055:../STLibs//STM32_USB-Host-Device_Lib_V2.1.0/Libraries/STM32_USB_OTG_Driver/src/usb_core.c ****     else if (depctl.b.naksts == 1)
 2316              		.loc 1 2055 0
 2317 07ee 13F0020F 		tst	r3, #2
2056:../STLibs//STM32_USB-Host-Device_Lib_V2.1.0/Libraries/STM32_USB_OTG_Driver/src/usb_core.c ****       Status = USB_OTG_EP_TX_NAK;
 2318              		.loc 1 2056 0
 2319 07f2 0CBF     		ite	eq
 2320 07f4 3020     		moveq	r0, #48
 2321              	.LVL265:
 2322 07f6 2020     		movne	r0, #32
 2323 07f8 7047     		bx	lr
 2324              	.LVL266:
 2325              	.L204:
2057:../STLibs//STM32_USB-Host-Device_Lib_V2.1.0/Libraries/STM32_USB_OTG_Driver/src/usb_core.c ****     else 
2058:../STLibs//STM32_USB-Host-Device_Lib_V2.1.0/Libraries/STM32_USB_OTG_Driver/src/usb_core.c ****       Status = USB_OTG_EP_TX_VALID;     
2059:../STLibs//STM32_USB-Host-Device_Lib_V2.1.0/Libraries/STM32_USB_OTG_Driver/src/usb_core.c ****     
2060:../STLibs//STM32_USB-Host-Device_Lib_V2.1.0/Libraries/STM32_USB_OTG_Driver/src/usb_core.c ****   }
2061:../STLibs//STM32_USB-Host-Device_Lib_V2.1.0/Libraries/STM32_USB_OTG_Driver/src/usb_core.c ****   else
2062:../STLibs//STM32_USB-Host-Device_Lib_V2.1.0/Libraries/STM32_USB_OTG_Driver/src/usb_core.c ****   {
2063:../STLibs//STM32_USB-Host-Device_Lib_V2.1.0/Libraries/STM32_USB_OTG_Driver/src/usb_core.c ****     depctl_addr = &(pdev->regs.OUTEP_REGS[ep->num]->DOEPCTL);
 2326              		.loc 1 2063 0
 2327 07fa 436D     		ldr	r3, [r0, #84]
 2328              	.LVL267:
2064:../STLibs//STM32_USB-Host-Device_Lib_V2.1.0/Libraries/STM32_USB_OTG_Driver/src/usb_core.c ****     depctl.d32 = USB_OTG_READ_REG32(depctl_addr);
 2329              		.loc 1 2064 0
 2330 07fc 1B68     		ldr	r3, [r3]
 2331              	.LVL268:
 2332 07fe C3F30743 		ubfx	r3, r3, #16, #8
 2333              	.LVL269:
2065:../STLibs//STM32_USB-Host-Device_Lib_V2.1.0/Libraries/STM32_USB_OTG_Driver/src/usb_core.c ****     if (depctl.b.stall == 1)  
 2334              		.loc 1 2065 0
 2335 0802 9A06     		lsls	r2, r3, #26
 2336 0804 09D4     		bmi	.L208
2066:../STLibs//STM32_USB-Host-Device_Lib_V2.1.0/Libraries/STM32_USB_OTG_Driver/src/usb_core.c ****       Status = USB_OTG_EP_RX_STALL;
2067:../STLibs//STM32_USB-Host-Device_Lib_V2.1.0/Libraries/STM32_USB_OTG_Driver/src/usb_core.c ****     else if (depctl.b.naksts == 1)
 2337              		.loc 1 2067 0
 2338 0806 13F0020F 		tst	r3, #2
2068:../STLibs//STM32_USB-Host-Device_Lib_V2.1.0/Libraries/STM32_USB_OTG_Driver/src/usb_core.c ****       Status = USB_OTG_EP_RX_NAK;
 2339              		.loc 1 2068 0
 2340 080a 0CBF     		ite	eq
 2341 080c 4FF44050 		moveq	r0, #12288
 2342              	.LVL270:
 2343 0810 4FF40050 		movne	r0, #8192
 2344 0814 7047     		bx	lr
 2345              	.LVL271:
 2346              	.L206:
2054:../STLibs//STM32_USB-Host-Device_Lib_V2.1.0/Libraries/STM32_USB_OTG_Driver/src/usb_core.c ****     else if (depctl.b.naksts == 1)
 2347              		.loc 1 2054 0
 2348 0816 1020     		movs	r0, #16
 2349              	.LVL272:
 2350 0818 7047     		bx	lr
 2351              	.LVL273:
 2352              	.L208:
2066:../STLibs//STM32_USB-Host-Device_Lib_V2.1.0/Libraries/STM32_USB_OTG_Driver/src/usb_core.c ****       Status = USB_OTG_EP_RX_STALL;
 2353              		.loc 1 2066 0
 2354 081a 4FF48050 		mov	r0, #4096
 2355              	.LVL274:
2069:../STLibs//STM32_USB-Host-Device_Lib_V2.1.0/Libraries/STM32_USB_OTG_Driver/src/usb_core.c ****     else 
2070:../STLibs//STM32_USB-Host-Device_Lib_V2.1.0/Libraries/STM32_USB_OTG_Driver/src/usb_core.c ****       Status = USB_OTG_EP_RX_VALID; 
2071:../STLibs//STM32_USB-Host-Device_Lib_V2.1.0/Libraries/STM32_USB_OTG_Driver/src/usb_core.c ****   } 
2072:../STLibs//STM32_USB-Host-Device_Lib_V2.1.0/Libraries/STM32_USB_OTG_Driver/src/usb_core.c ****   
2073:../STLibs//STM32_USB-Host-Device_Lib_V2.1.0/Libraries/STM32_USB_OTG_Driver/src/usb_core.c ****   /* Return the current status */
2074:../STLibs//STM32_USB-Host-Device_Lib_V2.1.0/Libraries/STM32_USB_OTG_Driver/src/usb_core.c ****   return Status;
2075:../STLibs//STM32_USB-Host-Device_Lib_V2.1.0/Libraries/STM32_USB_OTG_Driver/src/usb_core.c **** }
 2356              		.loc 1 2075 0
 2357 081e 7047     		bx	lr
 2358              		.cfi_endproc
 2359              	.LFE144:
 2361              		.align	1
 2362              		.global	USB_OTG_SetEPStatus
 2363              		.syntax unified
 2364              		.thumb
 2365              		.thumb_func
 2366              		.fpu fpv4-sp-d16
 2368              	USB_OTG_SetEPStatus:
 2369              	.LFB145:
2076:../STLibs//STM32_USB-Host-Device_Lib_V2.1.0/Libraries/STM32_USB_OTG_Driver/src/usb_core.c **** 
2077:../STLibs//STM32_USB-Host-Device_Lib_V2.1.0/Libraries/STM32_USB_OTG_Driver/src/usb_core.c **** /**
2078:../STLibs//STM32_USB-Host-Device_Lib_V2.1.0/Libraries/STM32_USB_OTG_Driver/src/usb_core.c **** * @brief  Set the EP Status
2079:../STLibs//STM32_USB-Host-Device_Lib_V2.1.0/Libraries/STM32_USB_OTG_Driver/src/usb_core.c **** * @param  pdev : Selected device
2080:../STLibs//STM32_USB-Host-Device_Lib_V2.1.0/Libraries/STM32_USB_OTG_Driver/src/usb_core.c **** *         Status : new Status
2081:../STLibs//STM32_USB-Host-Device_Lib_V2.1.0/Libraries/STM32_USB_OTG_Driver/src/usb_core.c **** *         ep : EP structure
2082:../STLibs//STM32_USB-Host-Device_Lib_V2.1.0/Libraries/STM32_USB_OTG_Driver/src/usb_core.c **** * @retval : None
2083:../STLibs//STM32_USB-Host-Device_Lib_V2.1.0/Libraries/STM32_USB_OTG_Driver/src/usb_core.c **** */
2084:../STLibs//STM32_USB-Host-Device_Lib_V2.1.0/Libraries/STM32_USB_OTG_Driver/src/usb_core.c **** void USB_OTG_SetEPStatus (USB_OTG_CORE_HANDLE *pdev , USB_OTG_EP *ep , uint32_t Status)
2085:../STLibs//STM32_USB-Host-Device_Lib_V2.1.0/Libraries/STM32_USB_OTG_Driver/src/usb_core.c **** {
 2370              		.loc 1 2085 0
 2371              		.cfi_startproc
 2372              		@ args = 0, pretend = 0, frame = 0
 2373              		@ frame_needed = 0, uses_anonymous_args = 0
 2374              		@ link register save eliminated.
 2375              	.LVL275:
 2376 0820 70B4     		push	{r4, r5, r6}
 2377              	.LCFI25:
 2378              		.cfi_def_cfa_offset 12
 2379              		.cfi_offset 4, -12
 2380              		.cfi_offset 5, -8
 2381              		.cfi_offset 6, -4
2086:../STLibs//STM32_USB-Host-Device_Lib_V2.1.0/Libraries/STM32_USB_OTG_Driver/src/usb_core.c ****   USB_OTG_DEPCTL_TypeDef  depctl;
2087:../STLibs//STM32_USB-Host-Device_Lib_V2.1.0/Libraries/STM32_USB_OTG_Driver/src/usb_core.c ****   __IO uint32_t *depctl_addr;
2088:../STLibs//STM32_USB-Host-Device_Lib_V2.1.0/Libraries/STM32_USB_OTG_Driver/src/usb_core.c ****   
2089:../STLibs//STM32_USB-Host-Device_Lib_V2.1.0/Libraries/STM32_USB_OTG_Driver/src/usb_core.c ****   depctl.d32 = 0;
2090:../STLibs//STM32_USB-Host-Device_Lib_V2.1.0/Libraries/STM32_USB_OTG_Driver/src/usb_core.c ****   
2091:../STLibs//STM32_USB-Host-Device_Lib_V2.1.0/Libraries/STM32_USB_OTG_Driver/src/usb_core.c ****   /* Process for IN endpoint */
2092:../STLibs//STM32_USB-Host-Device_Lib_V2.1.0/Libraries/STM32_USB_OTG_Driver/src/usb_core.c ****   if (ep->is_in == 1)
 2382              		.loc 1 2092 0
 2383 0822 4C78     		ldrb	r4, [r1, #1]	@ zero_extendqisi2
 2384 0824 0B78     		ldrb	r3, [r1]	@ zero_extendqisi2
 2385 0826 012C     		cmp	r4, #1
2085:../STLibs//STM32_USB-Host-Device_Lib_V2.1.0/Libraries/STM32_USB_OTG_Driver/src/usb_core.c ****   USB_OTG_DEPCTL_TypeDef  depctl;
 2386              		.loc 1 2085 0
 2387 0828 0646     		mov	r6, r0
 2388 082a 0D46     		mov	r5, r1
2093:../STLibs//STM32_USB-Host-Device_Lib_V2.1.0/Libraries/STM32_USB_OTG_Driver/src/usb_core.c ****   {
2094:../STLibs//STM32_USB-Host-Device_Lib_V2.1.0/Libraries/STM32_USB_OTG_Driver/src/usb_core.c ****     depctl_addr = &(pdev->regs.INEP_REGS[ep->num]->DIEPCTL);
 2389              		.loc 1 2094 0
 2390 082c 00EB8303 		add	r3, r0, r3, lsl #2
2092:../STLibs//STM32_USB-Host-Device_Lib_V2.1.0/Libraries/STM32_USB_OTG_Driver/src/usb_core.c ****   {
 2391              		.loc 1 2092 0
 2392 0830 16D1     		bne	.L211
 2393              		.loc 1 2094 0
 2394 0832 9C69     		ldr	r4, [r3, #24]
 2395              	.LVL276:
2095:../STLibs//STM32_USB-Host-Device_Lib_V2.1.0/Libraries/STM32_USB_OTG_Driver/src/usb_core.c ****     depctl.d32 = USB_OTG_READ_REG32(depctl_addr);
2096:../STLibs//STM32_USB-Host-Device_Lib_V2.1.0/Libraries/STM32_USB_OTG_Driver/src/usb_core.c ****     
2097:../STLibs//STM32_USB-Host-Device_Lib_V2.1.0/Libraries/STM32_USB_OTG_Driver/src/usb_core.c ****     if (Status == USB_OTG_EP_TX_STALL)  
 2396              		.loc 1 2097 0
 2397 0834 102A     		cmp	r2, #16
2095:../STLibs//STM32_USB-Host-Device_Lib_V2.1.0/Libraries/STM32_USB_OTG_Driver/src/usb_core.c ****     depctl.d32 = USB_OTG_READ_REG32(depctl_addr);
 2398              		.loc 1 2095 0
 2399 0836 2368     		ldr	r3, [r4]
 2400              	.LVL277:
 2401              		.loc 1 2097 0
 2402 0838 02D1     		bne	.L212
2098:../STLibs//STM32_USB-Host-Device_Lib_V2.1.0/Libraries/STM32_USB_OTG_Driver/src/usb_core.c ****     {
2099:../STLibs//STM32_USB-Host-Device_Lib_V2.1.0/Libraries/STM32_USB_OTG_Driver/src/usb_core.c ****       USB_OTG_EPSetStall(pdev, ep); return;
2100:../STLibs//STM32_USB-Host-Device_Lib_V2.1.0/Libraries/STM32_USB_OTG_Driver/src/usb_core.c ****     }
2101:../STLibs//STM32_USB-Host-Device_Lib_V2.1.0/Libraries/STM32_USB_OTG_Driver/src/usb_core.c ****     else if (Status == USB_OTG_EP_TX_NAK)
2102:../STLibs//STM32_USB-Host-Device_Lib_V2.1.0/Libraries/STM32_USB_OTG_Driver/src/usb_core.c ****       depctl.b.snak = 1;
2103:../STLibs//STM32_USB-Host-Device_Lib_V2.1.0/Libraries/STM32_USB_OTG_Driver/src/usb_core.c ****     else if (Status == USB_OTG_EP_TX_VALID)
2104:../STLibs//STM32_USB-Host-Device_Lib_V2.1.0/Libraries/STM32_USB_OTG_Driver/src/usb_core.c ****     {
2105:../STLibs//STM32_USB-Host-Device_Lib_V2.1.0/Libraries/STM32_USB_OTG_Driver/src/usb_core.c ****       if (depctl.b.stall == 1)
2106:../STLibs//STM32_USB-Host-Device_Lib_V2.1.0/Libraries/STM32_USB_OTG_Driver/src/usb_core.c ****       {  
2107:../STLibs//STM32_USB-Host-Device_Lib_V2.1.0/Libraries/STM32_USB_OTG_Driver/src/usb_core.c ****         ep->even_odd_frame = 0;
2108:../STLibs//STM32_USB-Host-Device_Lib_V2.1.0/Libraries/STM32_USB_OTG_Driver/src/usb_core.c ****         USB_OTG_EPClearStall(pdev, ep);
2109:../STLibs//STM32_USB-Host-Device_Lib_V2.1.0/Libraries/STM32_USB_OTG_Driver/src/usb_core.c ****         return;
2110:../STLibs//STM32_USB-Host-Device_Lib_V2.1.0/Libraries/STM32_USB_OTG_Driver/src/usb_core.c ****       }      
2111:../STLibs//STM32_USB-Host-Device_Lib_V2.1.0/Libraries/STM32_USB_OTG_Driver/src/usb_core.c ****       depctl.b.cnak = 1;
2112:../STLibs//STM32_USB-Host-Device_Lib_V2.1.0/Libraries/STM32_USB_OTG_Driver/src/usb_core.c ****       depctl.b.usbactep = 1; 
2113:../STLibs//STM32_USB-Host-Device_Lib_V2.1.0/Libraries/STM32_USB_OTG_Driver/src/usb_core.c ****       depctl.b.epena = 1;
2114:../STLibs//STM32_USB-Host-Device_Lib_V2.1.0/Libraries/STM32_USB_OTG_Driver/src/usb_core.c ****     }
2115:../STLibs//STM32_USB-Host-Device_Lib_V2.1.0/Libraries/STM32_USB_OTG_Driver/src/usb_core.c ****     else if (Status == USB_OTG_EP_TX_DIS)
2116:../STLibs//STM32_USB-Host-Device_Lib_V2.1.0/Libraries/STM32_USB_OTG_Driver/src/usb_core.c ****       depctl.b.usbactep = 0;
2117:../STLibs//STM32_USB-Host-Device_Lib_V2.1.0/Libraries/STM32_USB_OTG_Driver/src/usb_core.c ****   } 
2118:../STLibs//STM32_USB-Host-Device_Lib_V2.1.0/Libraries/STM32_USB_OTG_Driver/src/usb_core.c ****   else /* Process for OUT endpoint */
2119:../STLibs//STM32_USB-Host-Device_Lib_V2.1.0/Libraries/STM32_USB_OTG_Driver/src/usb_core.c ****   {
2120:../STLibs//STM32_USB-Host-Device_Lib_V2.1.0/Libraries/STM32_USB_OTG_Driver/src/usb_core.c ****     depctl_addr = &(pdev->regs.OUTEP_REGS[ep->num]->DOEPCTL);
2121:../STLibs//STM32_USB-Host-Device_Lib_V2.1.0/Libraries/STM32_USB_OTG_Driver/src/usb_core.c ****     depctl.d32 = USB_OTG_READ_REG32(depctl_addr);    
2122:../STLibs//STM32_USB-Host-Device_Lib_V2.1.0/Libraries/STM32_USB_OTG_Driver/src/usb_core.c ****     
2123:../STLibs//STM32_USB-Host-Device_Lib_V2.1.0/Libraries/STM32_USB_OTG_Driver/src/usb_core.c ****     if (Status == USB_OTG_EP_RX_STALL)  {
2124:../STLibs//STM32_USB-Host-Device_Lib_V2.1.0/Libraries/STM32_USB_OTG_Driver/src/usb_core.c ****       depctl.b.stall = 1;
2125:../STLibs//STM32_USB-Host-Device_Lib_V2.1.0/Libraries/STM32_USB_OTG_Driver/src/usb_core.c ****     }
2126:../STLibs//STM32_USB-Host-Device_Lib_V2.1.0/Libraries/STM32_USB_OTG_Driver/src/usb_core.c ****     else if (Status == USB_OTG_EP_RX_NAK)
2127:../STLibs//STM32_USB-Host-Device_Lib_V2.1.0/Libraries/STM32_USB_OTG_Driver/src/usb_core.c ****       depctl.b.snak = 1;
2128:../STLibs//STM32_USB-Host-Device_Lib_V2.1.0/Libraries/STM32_USB_OTG_Driver/src/usb_core.c ****     else if (Status == USB_OTG_EP_RX_VALID)
2129:../STLibs//STM32_USB-Host-Device_Lib_V2.1.0/Libraries/STM32_USB_OTG_Driver/src/usb_core.c ****     {
2130:../STLibs//STM32_USB-Host-Device_Lib_V2.1.0/Libraries/STM32_USB_OTG_Driver/src/usb_core.c ****       if (depctl.b.stall == 1)
2131:../STLibs//STM32_USB-Host-Device_Lib_V2.1.0/Libraries/STM32_USB_OTG_Driver/src/usb_core.c ****       {  
2132:../STLibs//STM32_USB-Host-Device_Lib_V2.1.0/Libraries/STM32_USB_OTG_Driver/src/usb_core.c ****         ep->even_odd_frame = 0;
2133:../STLibs//STM32_USB-Host-Device_Lib_V2.1.0/Libraries/STM32_USB_OTG_Driver/src/usb_core.c ****         USB_OTG_EPClearStall(pdev, ep);
2134:../STLibs//STM32_USB-Host-Device_Lib_V2.1.0/Libraries/STM32_USB_OTG_Driver/src/usb_core.c ****         return;
2135:../STLibs//STM32_USB-Host-Device_Lib_V2.1.0/Libraries/STM32_USB_OTG_Driver/src/usb_core.c ****       }  
2136:../STLibs//STM32_USB-Host-Device_Lib_V2.1.0/Libraries/STM32_USB_OTG_Driver/src/usb_core.c ****       depctl.b.cnak = 1;
2137:../STLibs//STM32_USB-Host-Device_Lib_V2.1.0/Libraries/STM32_USB_OTG_Driver/src/usb_core.c ****       depctl.b.usbactep = 1;    
2138:../STLibs//STM32_USB-Host-Device_Lib_V2.1.0/Libraries/STM32_USB_OTG_Driver/src/usb_core.c ****       depctl.b.epena = 1;
2139:../STLibs//STM32_USB-Host-Device_Lib_V2.1.0/Libraries/STM32_USB_OTG_Driver/src/usb_core.c ****     }
2140:../STLibs//STM32_USB-Host-Device_Lib_V2.1.0/Libraries/STM32_USB_OTG_Driver/src/usb_core.c ****     else if (Status == USB_OTG_EP_RX_DIS)
2141:../STLibs//STM32_USB-Host-Device_Lib_V2.1.0/Libraries/STM32_USB_OTG_Driver/src/usb_core.c ****     {
2142:../STLibs//STM32_USB-Host-Device_Lib_V2.1.0/Libraries/STM32_USB_OTG_Driver/src/usb_core.c ****       depctl.b.usbactep = 0;    
2143:../STLibs//STM32_USB-Host-Device_Lib_V2.1.0/Libraries/STM32_USB_OTG_Driver/src/usb_core.c ****     }
2144:../STLibs//STM32_USB-Host-Device_Lib_V2.1.0/Libraries/STM32_USB_OTG_Driver/src/usb_core.c ****   }
2145:../STLibs//STM32_USB-Host-Device_Lib_V2.1.0/Libraries/STM32_USB_OTG_Driver/src/usb_core.c ****   
2146:../STLibs//STM32_USB-Host-Device_Lib_V2.1.0/Libraries/STM32_USB_OTG_Driver/src/usb_core.c ****   USB_OTG_WRITE_REG32(depctl_addr, depctl.d32); 
2147:../STLibs//STM32_USB-Host-Device_Lib_V2.1.0/Libraries/STM32_USB_OTG_Driver/src/usb_core.c **** }
 2403              		.loc 1 2147 0
 2404 083a 70BC     		pop	{r4, r5, r6}
 2405              	.LCFI26:
 2406              		.cfi_remember_state
 2407              		.cfi_restore 6
 2408              		.cfi_restore 5
 2409              		.cfi_restore 4
 2410              		.cfi_def_cfa_offset 0
 2411              	.LVL278:
2099:../STLibs//STM32_USB-Host-Device_Lib_V2.1.0/Libraries/STM32_USB_OTG_Driver/src/usb_core.c ****     }
 2412              		.loc 1 2099 0
 2413 083c FFF7FEBF 		b	USB_OTG_EPSetStall
 2414              	.LVL279:
 2415              	.L212:
 2416              	.LCFI27:
 2417              		.cfi_restore_state
2101:../STLibs//STM32_USB-Host-Device_Lib_V2.1.0/Libraries/STM32_USB_OTG_Driver/src/usb_core.c ****       depctl.b.snak = 1;
 2418              		.loc 1 2101 0
 2419 0840 202A     		cmp	r2, #32
 2420 0842 02D1     		bne	.L213
 2421              	.L222:
2127:../STLibs//STM32_USB-Host-Device_Lib_V2.1.0/Libraries/STM32_USB_OTG_Driver/src/usb_core.c ****     else if (Status == USB_OTG_EP_RX_VALID)
 2422              		.loc 1 2127 0
 2423 0844 43F00063 		orr	r3, r3, #134217728
 2424              	.LVL280:
 2425 0848 11E0     		b	.L214
 2426              	.LVL281:
 2427              	.L213:
2103:../STLibs//STM32_USB-Host-Device_Lib_V2.1.0/Libraries/STM32_USB_OTG_Driver/src/usb_core.c ****     {
 2428              		.loc 1 2103 0
 2429 084a 302A     		cmp	r2, #48
 2430              	.L228:
 2431 084c 1DD1     		bne	.L219
2105:../STLibs//STM32_USB-Host-Device_Lib_V2.1.0/Libraries/STM32_USB_OTG_Driver/src/usb_core.c ****       {  
 2432              		.loc 1 2105 0
 2433 084e 9A02     		lsls	r2, r3, #10
 2434              	.LVL282:
 2435 0850 16D5     		bpl	.L224
2107:../STLibs//STM32_USB-Host-Device_Lib_V2.1.0/Libraries/STM32_USB_OTG_Driver/src/usb_core.c ****         USB_OTG_EPClearStall(pdev, ep);
 2436              		.loc 1 2107 0
 2437 0852 0023     		movs	r3, #0
 2438              	.LVL283:
 2439 0854 6B71     		strb	r3, [r5, #5]
2108:../STLibs//STM32_USB-Host-Device_Lib_V2.1.0/Libraries/STM32_USB_OTG_Driver/src/usb_core.c ****         return;
 2440              		.loc 1 2108 0
 2441 0856 2946     		mov	r1, r5
 2442              	.LVL284:
 2443 0858 3046     		mov	r0, r6
 2444              	.LVL285:
 2445              		.loc 1 2147 0
 2446 085a 70BC     		pop	{r4, r5, r6}
 2447              	.LCFI28:
 2448              		.cfi_remember_state
 2449              		.cfi_restore 6
 2450              		.cfi_restore 5
 2451              		.cfi_restore 4
 2452              		.cfi_def_cfa_offset 0
 2453              	.LVL286:
2108:../STLibs//STM32_USB-Host-Device_Lib_V2.1.0/Libraries/STM32_USB_OTG_Driver/src/usb_core.c ****         return;
 2454              		.loc 1 2108 0
 2455 085c FFF7FEBF 		b	USB_OTG_EPClearStall
 2456              	.LVL287:
 2457              	.L211:
 2458              	.LCFI29:
 2459              		.cfi_restore_state
2120:../STLibs//STM32_USB-Host-Device_Lib_V2.1.0/Libraries/STM32_USB_OTG_Driver/src/usb_core.c ****     depctl.d32 = USB_OTG_READ_REG32(depctl_addr);    
 2460              		.loc 1 2120 0
 2461 0860 5C6D     		ldr	r4, [r3, #84]
 2462              	.LVL288:
2123:../STLibs//STM32_USB-Host-Device_Lib_V2.1.0/Libraries/STM32_USB_OTG_Driver/src/usb_core.c ****       depctl.b.stall = 1;
 2463              		.loc 1 2123 0
 2464 0862 B2F5805F 		cmp	r2, #4096
2121:../STLibs//STM32_USB-Host-Device_Lib_V2.1.0/Libraries/STM32_USB_OTG_Driver/src/usb_core.c ****     
 2465              		.loc 1 2121 0
 2466 0866 2368     		ldr	r3, [r4]
 2467              	.LVL289:
2123:../STLibs//STM32_USB-Host-Device_Lib_V2.1.0/Libraries/STM32_USB_OTG_Driver/src/usb_core.c ****       depctl.b.stall = 1;
 2468              		.loc 1 2123 0
 2469 0868 04D1     		bne	.L217
2124:../STLibs//STM32_USB-Host-Device_Lib_V2.1.0/Libraries/STM32_USB_OTG_Driver/src/usb_core.c ****     }
 2470              		.loc 1 2124 0
 2471 086a 43F40013 		orr	r3, r3, #2097152
 2472              	.LVL290:
 2473              	.L214:
2146:../STLibs//STM32_USB-Host-Device_Lib_V2.1.0/Libraries/STM32_USB_OTG_Driver/src/usb_core.c **** }
 2474              		.loc 1 2146 0 discriminator 1
 2475 086e 2360     		str	r3, [r4]
 2476              		.loc 1 2147 0 discriminator 1
 2477 0870 70BC     		pop	{r4, r5, r6}
 2478              	.LCFI30:
 2479              		.cfi_remember_state
 2480              		.cfi_restore 6
 2481              		.cfi_restore 5
 2482              		.cfi_restore 4
 2483              		.cfi_def_cfa_offset 0
 2484              	.LVL291:
 2485 0872 7047     		bx	lr
 2486              	.LVL292:
 2487              	.L217:
 2488              	.LCFI31:
 2489              		.cfi_restore_state
2126:../STLibs//STM32_USB-Host-Device_Lib_V2.1.0/Libraries/STM32_USB_OTG_Driver/src/usb_core.c ****       depctl.b.snak = 1;
 2490              		.loc 1 2126 0
 2491 0874 B2F5005F 		cmp	r2, #8192
 2492 0878 E4D0     		beq	.L222
2128:../STLibs//STM32_USB-Host-Device_Lib_V2.1.0/Libraries/STM32_USB_OTG_Driver/src/usb_core.c ****     {
 2493              		.loc 1 2128 0
 2494 087a B2F5405F 		cmp	r2, #12288
 2495 087e E5E7     		b	.L228
 2496              	.LVL293:
 2497              	.L224:
2138:../STLibs//STM32_USB-Host-Device_Lib_V2.1.0/Libraries/STM32_USB_OTG_Driver/src/usb_core.c ****     }
 2498              		.loc 1 2138 0
 2499 0880 43F00443 		orr	r3, r3, #-2080374784
 2500              	.LVL294:
 2501 0884 43F40043 		orr	r3, r3, #32768
 2502              	.LVL295:
 2503 0888 F1E7     		b	.L214
 2504              	.LVL296:
 2505              	.L219:
2140:../STLibs//STM32_USB-Host-Device_Lib_V2.1.0/Libraries/STM32_USB_OTG_Driver/src/usb_core.c ****     {
 2506              		.loc 1 2140 0
 2507 088a 002A     		cmp	r2, #0
 2508 088c EFD1     		bne	.L214
2142:../STLibs//STM32_USB-Host-Device_Lib_V2.1.0/Libraries/STM32_USB_OTG_Driver/src/usb_core.c ****     }
 2509              		.loc 1 2142 0
 2510 088e 62F3CF33 		bfi	r3, r2, #15, #1
 2511 0892 ECE7     		b	.L214
 2512              		.cfi_endproc
 2513              	.LFE145:
 2515              	.Letext0:
 2516              		.file 2 "/opt/gcc-arm-none-eabi-7-2017-q4-major/arm-none-eabi/include/machine/_default_types.h"
 2517              		.file 3 "/opt/gcc-arm-none-eabi-7-2017-q4-major/arm-none-eabi/include/sys/_stdint.h"
 2518              		.file 4 "../STLibs//STM32F4xx_DSP_StdPeriph_Lib_V1.0.1/Libraries/CMSIS/Include/core_cm4.h"
 2519              		.file 5 "../STLibs//STM32F4xx_DSP_StdPeriph_Lib_V1.0.1/Libraries/CMSIS/Device/ST/STM32F4xx/Include
 2520              		.file 6 "../STLibs//STM32_USB-Host-Device_Lib_V2.1.0/Libraries/STM32_USB_OTG_Driver/inc/usb_regs.h
 2521              		.file 7 "../STLibs//STM32_USB-Host-Device_Lib_V2.1.0/Libraries/STM32_USB_OTG_Driver/inc/usb_define
 2522              		.file 8 "../STLibs//STM32_USB-Host-Device_Lib_V2.1.0/Libraries/STM32_USB_OTG_Driver/inc/usb_core.h
 2523              		.file 9 "../STLibs//STM32_USB-Host-Device_Lib_V2.1.0/Libraries/STM32_USB_OTG_Driver/inc/usb_bsp.h"
DEFINED SYMBOLS
                            *ABS*:0000000000000000 usb_core.c
     /tmp/cccvro8d.s:16     .text:0000000000000000 $t
     /tmp/cccvro8d.s:22     .text:0000000000000000 USB_OTG_CoreReset.isra.1
     /tmp/cccvro8d.s:105    .text:0000000000000048 $d
     /tmp/cccvro8d.s:109    .text:000000000000004c $t
     /tmp/cccvro8d.s:116    .text:000000000000004c USB_OTG_WritePacket
     /tmp/cccvro8d.s:185    .text:0000000000000072 USB_OTG_ReadPacket
     /tmp/cccvro8d.s:235    .text:0000000000000092 USB_OTG_SelectCore
     /tmp/cccvro8d.s:370    .text:0000000000000150 $d
     /tmp/cccvro8d.s:374    .text:0000000000000154 $t
     /tmp/cccvro8d.s:381    .text:0000000000000154 USB_OTG_CoreInit
     /tmp/cccvro8d.s:514    .text:00000000000001e0 USB_OTG_EnableGlobalInt
     /tmp/cccvro8d.s:541    .text:00000000000001ee USB_OTG_DisableGlobalInt
     /tmp/cccvro8d.s:568    .text:00000000000001fc USB_OTG_FlushTxFifo
     /tmp/cccvro8d.s:627    .text:0000000000000238 $d
     /tmp/cccvro8d.s:631    .text:000000000000023c $t
     /tmp/cccvro8d.s:638    .text:000000000000023c USB_OTG_FlushRxFifo
     /tmp/cccvro8d.s:693    .text:0000000000000270 $d
     /tmp/cccvro8d.s:697    .text:0000000000000274 $t
     /tmp/cccvro8d.s:704    .text:0000000000000274 USB_OTG_SetCurrentMode
     /tmp/cccvro8d.s:763    .text:00000000000002a0 USB_OTG_GetMode
     /tmp/cccvro8d.s:788    .text:00000000000002aa USB_OTG_IsDeviceMode
     /tmp/cccvro8d.s:819    .text:00000000000002b6 USB_OTG_IsHostMode
     /tmp/cccvro8d.s:848    .text:00000000000002c0 USB_OTG_ReadCoreItr
     /tmp/cccvro8d.s:877    .text:00000000000002ca USB_OTG_ReadOtgItr
     /tmp/cccvro8d.s:901    .text:00000000000002d0 USB_OTG_InitDevSpeed
     /tmp/cccvro8d.s:929    .text:00000000000002dc USB_OTG_EnableDevInt
     /tmp/cccvro8d.s:1006   .text:0000000000000318 $d
     /tmp/cccvro8d.s:1010   .text:000000000000031c $t
     /tmp/cccvro8d.s:1017   .text:000000000000031c USB_OTG_CoreInitDev
     /tmp/cccvro8d.s:1202   .text:00000000000003ec $d
     /tmp/cccvro8d.s:1209   .text:00000000000003f8 $t
     /tmp/cccvro8d.s:1216   .text:00000000000003f8 USB_OTG_GetDeviceSpeed
     /tmp/cccvro8d.s:1263   .text:0000000000000416 USB_OTG_EP0Activate
     /tmp/cccvro8d.s:1311   .text:000000000000043e USB_OTG_EPActivate
     /tmp/cccvro8d.s:1394   .text:0000000000000492 USB_OTG_EPDeactivate
     /tmp/cccvro8d.s:1462   .text:00000000000004ce USB_OTG_EPStartXfer
     /tmp/cccvro8d.s:1656   .text:00000000000005c0 USB_OTG_EP0StartXfer
     /tmp/cccvro8d.s:1824   .text:000000000000068c USB_OTG_EPSetStall
     /tmp/cccvro8d.s:1889   .text:00000000000006b4 USB_OTG_EPClearStall
     /tmp/cccvro8d.s:1942   .text:00000000000006dc USB_OTG_ReadDevAllOutEp_itr
     /tmp/cccvro8d.s:1973   .text:00000000000006e8 USB_OTG_ReadDevOutEP_itr
     /tmp/cccvro8d.s:2005   .text:00000000000006f8 USB_OTG_ReadDevAllInEPItr
     /tmp/cccvro8d.s:2036   .text:0000000000000704 USB_OTG_EP0_OutStart
     /tmp/cccvro8d.s:2082   .text:0000000000000728 $d
     /tmp/cccvro8d.s:2086   .text:000000000000072c $t
     /tmp/cccvro8d.s:2093   .text:000000000000072c USB_OTG_ActiveRemoteWakeup
     /tmp/cccvro8d.s:2163   .text:000000000000076e USB_OTG_UngateClock
     /tmp/cccvro8d.s:2208   .text:000000000000078e USB_OTG_StopDevice
     /tmp/cccvro8d.s:2287   .text:00000000000007d6 USB_OTG_GetEPStatus
     /tmp/cccvro8d.s:2368   .text:0000000000000820 USB_OTG_SetEPStatus

UNDEFINED SYMBOLS
USB_OTG_BSP_uDelay
USB_OTG_BSP_mDelay
